(dp0
VPalau
p1
ccopy_reg
_reconstructor
p2
(cnetworkx.classes.graph
Graph
p3
c__builtin__
object
p4
Ntp5
Rp6
(dp7
S'node'
p8
(dp9
VIan
p10
(dp11
sVJanu
p12
(dp13
sVWillard
p14
(dp15
sVCoby
p16
(dp17
sVTom
p18
(dp19
sVJonathan
p20
(dp21
sVGregg
p22
(dp23
sVStephenie
p24
(dp25
sVBobby Jon
p26
(dp27
sVKim
p28
(dp29
sVJolanda
p30
(dp31
sVWanda
p32
(dp33
sVJames
p34
(dp35
sVAshlee
p36
(dp37
sVCaryn
p38
(dp39
sVIbrehem
p40
(dp41
sVJeff
p42
(dp43
sVJenn
p44
(dp45
sVAngie
p46
(dp47
sVKatie
p48
(dp49
ssS'node_dict_factory'
p50
c__builtin__
dict
p51
sS'edge_attr_dict_factory'
p52
g51
sS'edge'
p53
(dp54
g32
(dp55
sg10
(dp56
g22
(dp57
S'weight'
p58
I4
ssg12
(dp59
g58
I2
ssg18
(dp60
g58
I5
ssg16
(dp61
g58
I1
ssg24
(dp62
g58
I2
ssg44
(dp63
g58
I6
ssg38
(dp64
g58
I5
ssg48
(dp65
g58
I6
sssg20
(dp66
sg42
(dp67
g34
(dp68
g58
I2
ssg24
(dp69
g58
I2
ssg26
(dp70
g58
I1
ssg28
(dp71
g58
I2
ssg36
(dp72
g58
I1
ssg46
(dp73
g58
I2
sssg22
(dp74
g10
g57
sg12
(dp75
g58
I2
ssg18
(dp76
g58
I3
ssg14
(dp77
g58
I2
ssg16
(dp78
g58
I1
ssg24
(dp79
g58
I2
ssg44
(dp80
g58
I7
ssg38
(dp81
g58
I4
ssg48
(dp82
g58
I3
sssg12
(dp83
g10
g59
sg22
g75
sg18
(dp84
g58
I1
ssg16
(dp85
g58
I1
ssg24
(dp86
g58
I1
ssg44
(dp87
g58
I2
ssg38
(dp88
g58
I2
ssg48
(dp89
g58
I1
sssg34
(dp90
g40
(dp91
g58
I3
ssg42
g68
sg24
(dp92
g58
I5
ssg26
(dp93
g58
I4
ssg28
(dp94
g58
I2
ssg36
(dp95
g58
I1
ssg46
(dp96
g58
I3
sssg18
(dp97
g10
g60
sg22
g76
sg12
g84
sg16
(dp98
g58
I1
ssg24
(dp99
g58
I1
ssg44
(dp100
g58
I5
ssg38
(dp101
g58
I4
ssg48
(dp102
g58
I5
sssg14
(dp103
g22
g77
sg44
(dp104
g58
I2
sssg16
(dp105
g10
g61
sg22
g78
sg12
g85
sg18
g98
sg44
(dp106
g58
I1
ssg38
(dp107
g58
I1
ssg48
(dp108
g58
I1
sssg24
(dp109
g10
g62
sg42
g69
sg22
g79
sg12
g86
sg34
g92
sg18
g99
sg26
(dp110
g58
I4
ssg40
(dp111
g58
I3
ssg28
(dp112
g58
I3
ssg44
(dp113
g58
I2
ssg36
(dp114
g58
I1
ssg46
(dp115
g58
I5
ssg38
(dp116
g58
I2
ssg48
(dp117
g58
I1
sssg30
(dp118
g26
(dp119
g58
I1
ssg40
(dp120
g58
I1
sssg26
(dp121
g40
(dp122
g58
I3
ssg42
g70
sg34
g93
sg24
g110
sg28
(dp123
g58
I1
ssg30
g119
sg46
(dp124
g58
I2
sssg40
(dp125
g34
g91
sg24
g111
sg26
g122
sg28
(dp126
g58
I1
ssg30
g120
sg46
(dp127
g58
I2
sssg28
(dp128
g40
g126
sg42
g71
sg34
g94
sg24
g112
sg26
g123
sg36
(dp129
g58
I1
ssg46
(dp130
g58
I3
sssg44
(dp131
g10
g63
sg22
g80
sg12
g87
sg14
g104
sg16
g106
sg24
g113
sg18
g100
sg38
(dp132
g58
I4
ssg48
(dp133
g58
I4
sssg36
(dp134
g24
g114
sg34
g95
sg46
(dp135
g58
I1
ssg28
g129
sg42
g72
ssg46
(dp136
g40
g127
sg42
g73
sg34
g96
sg24
g115
sg26
g124
sg28
g130
sg36
g135
ssg38
(dp137
g10
g64
sg22
g81
sg12
g88
sg18
g101
sg16
g107
sg24
g116
sg44
g132
sg48
(dp138
g58
I4
sssg48
(dp139
g10
g65
sg22
g82
sg12
g89
sg18
g102
sg16
g108
sg24
g117
sg44
g133
sg38
g138
sssS'graph'
p140
(dp141
S'name'
p142
S'()'
p143
ssS'adjlist_dict_factory'
p144
g51
sS'adj'
p145
g54
sbsVTocantins
p146
g2
(g3
g4
Ntp147
Rp148
(dp149
g8
(dp150
VJerry
p151
(dp152
sVStephen
p153
(dp154
sVDebbie
p155
(dp156
sVSydney
p157
(dp158
sVSierra
p159
(dp160
sVCarolina
p161
(dp162
sVJ.T.
p163
(dp164
sVJoe
p165
(dp166
sVErinn
p167
(dp168
sVTyson
p169
(dp170
sVBrendan
p171
(dp172
sVSpencer
p173
(dp174
sVCoach
p175
(dp176
sVCandace
p177
(dp178
sVTaj
p179
(dp180
sVSandy
p181
(dp182
ssg50
g51
sg52
g51
sg53
(dp183
g175
(dp184
g163
(dp185
g58
I2
ssg171
(dp186
g58
I3
ssg151
(dp187
g58
I1
ssg159
(dp188
g58
I3
ssg155
(dp189
g58
I6
ssg167
(dp190
g58
I3
ssg153
(dp191
g58
I2
ssg169
(dp192
g58
I4
ssg179
(dp193
g58
I2
sssg163
(dp194
g175
g185
sg181
(dp195
g58
I1
ssg159
(dp196
g58
I1
ssg155
(dp197
g58
I1
ssg157
(dp198
g58
I3
ssg167
(dp199
g58
I4
ssg153
(dp200
g58
I8
ssg169
(dp201
g58
I1
ssg173
(dp202
g58
I2
ssg179
(dp203
g58
I5
ssg165
(dp204
g58
I3
sssg171
(dp205
g175
g186
sg151
(dp206
g58
I1
ssg155
(dp207
g58
I3
ssg167
(dp208
g58
I3
ssg159
(dp209
g58
I4
ssg169
(dp210
g58
I3
ssg179
(dp211
g58
I1
sssg177
(dp212
sg181
(dp213
g163
g195
sg165
(dp214
g58
I1
ssg157
(dp215
g58
I1
ssg153
(dp216
g58
I1
ssg173
(dp217
g58
I1
ssg179
(dp218
g58
I1
sssg151
(dp219
g175
g187
sg171
g206
sg155
(dp220
g58
I1
ssg167
(dp221
g58
I1
ssg159
(dp222
g58
I1
ssg169
(dp223
g58
I1
sssg159
(dp224
g175
g188
sg163
g196
sg171
g209
sg151
g222
sg155
(dp225
g58
I3
ssg167
(dp226
g58
I4
ssg153
(dp227
g58
I1
ssg169
(dp228
g58
I3
ssg179
(dp229
g58
I3
sssg155
(dp230
g175
g189
sg163
g197
sg171
g207
sg151
g220
sg159
g225
sg167
(dp231
g58
I3
ssg153
(dp232
g58
I2
ssg169
(dp233
g58
I4
ssg179
(dp234
g58
I2
sssg157
(dp235
g163
g198
sg179
(dp236
g58
I2
ssg153
(dp237
g58
I3
ssg173
(dp238
g58
I2
ssg181
g215
sg165
(dp239
g58
I4
sssg167
(dp240
g175
g190
sg163
g199
sg171
g208
sg151
g221
sg159
g226
sg155
g231
sg153
(dp241
g58
I4
ssg169
(dp242
g58
I4
ssg179
(dp243
g58
I4
sssg153
(dp244
g175
g191
sg163
g200
sg181
g216
sg155
g232
sg157
g237
sg167
g241
sg159
g227
sg173
(dp245
g58
I2
ssg179
(dp246
g58
I7
ssg165
(dp247
g58
I3
sssg169
(dp248
g175
g192
sg163
g201
sg171
g210
sg151
g223
sg155
g233
sg167
g242
sg159
g228
sg179
(dp249
g58
I1
sssg161
(dp250
sg173
(dp251
g163
g202
sg179
(dp252
g58
I1
ssg157
g238
sg153
g245
sg181
g217
sg165
(dp253
g58
I2
sssg179
(dp254
g175
g193
sg163
g203
sg171
g211
sg159
g229
sg155
g234
sg157
g236
sg167
g243
sg153
g246
sg169
g249
sg173
g252
sg181
g218
sg165
(dp255
g58
I2
sssg165
(dp256
g163
g204
sg179
g255
sg157
g239
sg153
g247
sg173
g253
sg181
g214
sssg140
(dp257
g142
S'()'
p258
ssg144
g51
sg145
g183
sbsVBorneo
p259
g2
(g3
g4
Ntp260
Rp261
(dp262
g8
(dp263
VRichard
p264
(dp265
sVGervase
p266
(dp267
sVRamona
p268
(dp269
sVGretchen
p270
(dp271
sVRudy
p272
(dp273
sVB.B.
p274
(dp275
sVSusan
p276
(dp277
sVJoel
p278
(dp279
sVDirk
p280
(dp281
sVGreg
p282
(dp283
sVKelly
p284
(dp285
sVStacey
p286
(dp287
sVSonja
p288
(dp289
sVSean
p290
(dp291
sVColleen
p292
(dp293
sVJenna
p294
(dp295
ssg50
g51
sg52
g51
sg53
(dp296
g266
(dp297
g268
(dp298
g58
I2
ssg278
(dp299
g58
I2
ssg282
(dp300
g58
I1
ssg270
(dp301
g58
I1
ssg292
(dp302
g58
I5
ssg294
(dp303
g58
I3
sssg270
(dp304
g266
g301
sg268
(dp305
g58
I1
ssg278
(dp306
g58
I2
ssg282
(dp307
g58
I1
ssg292
(dp308
g58
I3
ssg294
(dp309
g58
I3
sssg274
(dp310
g282
(dp311
g58
I1
sssg268
(dp312
g270
g305
sg292
(dp313
g58
I1
ssg266
g298
sg294
(dp314
g58
I1
ssg278
(dp315
g58
I1
sssg264
(dp316
g276
(dp317
g58
I8
ssg280
(dp318
g58
I1
ssg290
(dp319
g58
I5
ssg284
(dp320
g58
I5
ssg272
(dp321
g58
I9
ssg294
(dp322
g58
I1
sssg276
(dp323
g264
g317
sg280
(dp324
g58
I2
ssg282
(dp325
g58
I1
ssg290
(dp326
g58
I7
ssg284
(dp327
g58
I6
ssg272
(dp328
g58
I10
ssg294
(dp329
g58
I1
sssg278
(dp330
g270
g306
sg292
(dp331
g58
I2
ssg266
g299
sg294
(dp332
g58
I2
ssg268
g315
ssg288
(dp333
g284
(dp334
g58
I1
ssg286
(dp335
g58
I1
sssg286
(dp336
g284
(dp337
g58
I2
ssg288
g335
ssg280
(dp338
g272
(dp339
g58
I2
ssg290
(dp340
g58
I2
ssg264
g318
sg276
g324
ssg282
(dp341
g266
g300
sg274
g311
sg276
g325
sg290
(dp342
g58
I1
ssg270
g307
sg292
(dp343
g58
I2
ssg272
(dp344
g58
I1
ssg294
(dp345
g58
I1
sssg290
(dp346
g264
g319
sg276
g326
sg280
g340
sg282
g342
sg284
(dp347
g58
I2
ssg272
(dp348
g58
I7
ssg294
(dp349
g58
I1
sssg284
(dp350
g264
g320
sg276
g327
sg288
g334
sg286
g337
sg290
g347
sg292
(dp351
g58
I1
ssg272
(dp352
g58
I6
ssg294
(dp353
g58
I1
sssg292
(dp354
g266
g302
sg268
g313
sg278
g331
sg270
g308
sg282
g343
sg284
g351
sg294
(dp355
g58
I5
sssg272
(dp356
g264
g321
sg276
g328
sg280
g339
sg282
g344
sg290
g348
sg284
g352
sg294
(dp357
g58
I1
sssg294
(dp358
g266
g303
sg268
g314
sg264
g322
sg276
g329
sg278
g332
sg270
g309
sg282
g345
sg290
g349
sg284
g353
sg292
g355
sg272
g357
sssg140
(dp359
g142
S'()'
p360
ssg144
g51
sg145
g296
sbsVHeroes_vs._Villains
p361
g2
(g3
g4
Ntp362
Rp363
(dp364
g8
(dp365
VParvati
p366
(dp367
sVRussell
p368
(dp369
sVCourtney
p370
(dp371
sVSugar
p372
(dp373
sVRandy
p374
(dp375
sVColby
p376
(dp377
sVTom
p378
(dp379
sVJerri
p380
(dp381
sVJ.T.
p382
(dp383
sVStephenie
p384
(dp385
sVSandra
p386
(dp387
sVTyson
p388
(dp389
sVJames
p390
(dp391
sVAmanda
p392
(dp393
sVCoach
p394
(dp395
sVRob
p396
(dp397
sVCandice
p398
(dp399
sVDanielle
p400
(dp401
sVRupert
p402
(dp403
sVCirie
p404
(dp405
ssg50
g51
sg52
g51
sg53
(dp406
g378
(dp407
g382
(dp408
g58
I2
ssg390
(dp409
g58
I1
ssg384
(dp410
g58
I2
ssg398
(dp411
g58
I1
ssg376
(dp412
g58
I4
ssg402
(dp413
g58
I1
ssg392
(dp414
g58
I1
ssg404
(dp415
g58
I1
sssg394
(dp416
g366
(dp417
g58
I1
ssg368
(dp418
g58
I2
ssg396
(dp419
g58
I1
ssg386
(dp420
g58
I1
ssg400
(dp421
g58
I2
ssg370
(dp422
g58
I2
ssg388
(dp423
g58
I2
ssg380
(dp424
g58
I4
sssg366
(dp425
g394
g417
sg368
(dp426
g58
I9
ssg396
(dp427
g58
I1
ssg386
(dp428
g58
I9
ssg398
(dp429
g58
I2
ssg370
(dp430
g58
I2
ssg400
(dp431
g58
I9
ssg388
(dp432
g58
I1
ssg380
(dp433
g58
I7
sssg368
(dp434
g394
g418
sg366
g426
sg396
(dp435
g58
I1
ssg370
(dp436
g58
I1
ssg398
(dp437
g58
I1
ssg400
(dp438
g58
I6
ssg386
(dp439
g58
I8
ssg376
(dp440
g58
I2
ssg402
(dp441
g58
I2
ssg380
(dp442
g58
I10
ssg388
(dp443
g58
I1
sssg382
(dp444
g390
(dp445
g58
I3
ssg378
g408
sg384
(dp446
g58
I1
ssg398
(dp447
g58
I6
ssg370
(dp448
g58
I1
ssg376
(dp449
g58
I5
ssg402
(dp450
g58
I6
ssg392
(dp451
g58
I6
ssg404
(dp452
g58
I2
sssg390
(dp453
g382
g445
sg384
(dp454
g58
I1
ssg398
(dp455
g58
I3
ssg378
g409
sg376
(dp456
g58
I1
ssg402
(dp457
g58
I4
ssg392
(dp458
g58
I3
ssg404
(dp459
g58
I2
sssg396
(dp460
g394
g419
sg366
g427
sg368
g435
sg386
(dp461
g58
I3
ssg400
(dp462
g58
I1
ssg370
(dp463
g58
I2
ssg388
(dp464
g58
I1
ssg380
(dp465
g58
I1
sssg370
(dp466
g394
g422
sg366
g430
sg368
g436
sg382
g448
sg396
g463
sg398
(dp467
g58
I1
ssg376
(dp468
g58
I1
ssg386
(dp469
g58
I3
ssg400
(dp470
g58
I2
ssg402
(dp471
g58
I1
ssg392
(dp472
g58
I1
ssg380
(dp473
g58
I2
ssg388
(dp474
g58
I2
sssg398
(dp475
g378
g411
sg366
g429
sg368
g437
sg382
g447
sg390
g455
sg370
g467
sg404
(dp476
g58
I3
ssg384
(dp477
g58
I1
ssg376
(dp478
g58
I4
ssg386
(dp479
g58
I1
ssg400
(dp480
g58
I2
ssg402
(dp481
g58
I6
ssg392
(dp482
g58
I7
ssg380
(dp483
g58
I1
sssg404
(dp484
g382
g452
sg390
g459
sg384
(dp485
g58
I1
ssg398
g476
sg378
g415
sg376
(dp486
g58
I1
ssg402
(dp487
g58
I2
ssg392
(dp488
g58
I3
sssg384
(dp489
g382
g446
sg390
g454
sg398
g477
sg378
g410
sg376
(dp490
g58
I2
ssg402
(dp491
g58
I1
ssg392
(dp492
g58
I1
ssg404
g485
ssg374
(dp493
sg376
(dp494
g378
g412
sg368
g440
sg382
g449
sg390
g456
sg370
g468
sg404
g486
sg384
g490
sg398
g478
sg386
(dp495
g58
I1
ssg402
(dp496
g58
I8
ssg392
(dp497
g58
I5
ssg380
(dp498
g58
I2
sssg386
(dp499
g394
g420
sg366
g428
sg368
g439
sg396
g461
sg398
g479
sg400
(dp500
g58
I6
ssg370
g469
sg376
g495
sg402
(dp501
g58
I1
ssg380
(dp502
g58
I7
ssg388
(dp503
g58
I1
sssg400
(dp504
g394
g421
sg366
g431
sg368
g438
sg396
g462
sg386
g500
sg398
g480
sg370
g470
sg388
(dp505
g58
I1
ssg380
(dp506
g58
I6
sssg402
(dp507
g378
g413
sg368
g441
sg382
g450
sg390
g457
sg370
g471
sg404
g487
sg384
g491
sg398
g481
sg386
g501
sg376
g496
sg392
(dp508
g58
I7
ssg380
(dp509
g58
I2
sssg372
(dp510
sg392
(dp511
g382
g451
sg390
g458
sg378
g414
sg384
g492
sg398
g482
sg370
g472
sg376
g497
sg402
g508
sg404
g488
ssg380
(dp512
g394
g424
sg366
g433
sg368
g442
sg396
g465
sg370
g473
sg398
g483
sg400
g506
sg386
g502
sg376
g498
sg402
g509
sg388
(dp513
g58
I2
sssg388
(dp514
g394
g423
sg366
g432
sg368
g443
sg396
g464
sg386
g503
sg400
g505
sg370
g474
sg380
g513
sssg140
(dp515
g142
S'()'
p516
ssg144
g51
sg145
g406
sbsVPanama
p517
g2
(g3
g4
Ntp518
Rp519
(dp520
g8
(dp521
VMelinda
p522
(dp523
sVNick
p524
(dp525
sVDanielle
p526
(dp527
sVTina
p528
(dp529
sVCourtney
p530
(dp531
sVAras
p532
(dp533
sVShane
p534
(dp535
sVDan
p536
(dp537
sVTerry
p538
(dp539
sVSally
p540
(dp541
sVMisty
p542
(dp543
sVBobby
p544
(dp545
sVAustin
p546
(dp547
sVRuth-Marie
p548
(dp549
sVBruce
p550
(dp551
sVCirie
p552
(dp553
ssg50
g51
sg52
g51
sg53
(dp554
g532
(dp555
g544
(dp556
g58
I2
ssg534
(dp557
g58
I4
ssg550
(dp558
g58
I3
ssg526
(dp559
g58
I6
ssg530
(dp560
g58
I4
ssg552
(dp561
g58
I6
sssg548
(dp562
g522
(dp563
g58
I1
ssg536
(dp564
g58
I2
ssg524
(dp565
g58
I1
ssg538
(dp566
g58
I1
ssg546
(dp567
g58
I1
ssg552
(dp568
g58
I1
sssg528
(dp569
sg544
(dp570
g534
(dp571
g58
I1
ssg532
g556
sg526
(dp572
g58
I1
ssg530
(dp573
g58
I1
sssg534
(dp574
g532
g557
sg544
g571
sg550
(dp575
g58
I4
ssg526
(dp576
g58
I4
ssg530
(dp577
g58
I4
ssg552
(dp578
g58
I3
sssg546
(dp579
g548
g567
sg536
(dp580
g58
I1
ssg538
(dp581
g58
I6
ssg524
(dp582
g58
I4
ssg530
(dp583
g58
I1
ssg540
(dp584
g58
I4
ssg552
(dp585
g58
I1
sssg536
(dp586
g524
(dp587
g58
I1
ssg546
g580
sg548
g564
sg538
(dp588
g58
I1
sssg538
(dp589
g548
g566
sg540
(dp590
g58
I5
ssg536
g588
sg524
(dp591
g58
I4
ssg526
(dp592
g58
I1
ssg530
(dp593
g58
I2
ssg546
g581
sg552
(dp594
g58
I1
sssg524
(dp595
g546
g582
sg536
g587
sg540
(dp596
g58
I2
ssg548
g565
sg538
g591
ssg550
(dp597
g534
g575
sg532
g558
sg526
(dp598
g58
I3
ssg552
(dp599
g58
I3
ssg530
(dp600
g58
I3
sssg522
(dp601
g548
g563
sg552
(dp602
g58
I2
sssg526
(dp603
g532
g559
sg544
g572
sg534
g576
sg538
g592
sg550
g598
sg530
(dp604
g58
I5
ssg552
(dp605
g58
I6
sssg542
(dp606
g540
(dp607
g58
I1
sssg530
(dp608
g532
g560
sg544
g573
sg534
g577
sg546
g583
sg550
g600
sg526
g604
sg538
g593
sg540
(dp609
g58
I1
ssg552
(dp610
g58
I5
sssg540
(dp611
g542
g607
sg538
g590
sg524
g596
sg530
g609
sg546
g584
sg552
(dp612
g58
I1
sssg552
(dp613
g532
g561
sg548
g568
sg534
g578
sg546
g585
sg538
g594
sg550
g599
sg522
g602
sg526
g605
sg530
g610
sg540
g612
sssg140
(dp614
g142
S'()'
p615
ssg144
g51
sg145
g554
sbsVCambodia
p616
g2
(g3
g4
Ntp617
Rp618
(dp619
g8
(dp620
VJeremy
p621
(dp622
sVWoo
p623
(dp624
sVStephen
p625
(dp626
sVMonica
p627
(dp628
sVTasha
p629
(dp630
sVAndrew
p631
(dp632
sVKass
p633
(dp634
sVJoe
p635
(dp636
sVTerry
p637
(dp638
sVAbi-Maria
p639
(dp640
sVVytas
p641
(dp642
sVCiera
p643
(dp644
sVKelly
p645
(dp646
sVSpencer
p647
(dp648
sVJeff
p649
(dp650
sVKeith
p651
(dp652
sVPeih-Gee
p653
(dp654
sVKimmi
p655
(dp656
sVKelley
p657
(dp658
sVShirin
p659
(dp660
ssg50
g51
sg52
g51
sg53
(dp661
g627
(dp662
g647
(dp663
g58
I1
sssg621
(dp664
g629
(dp665
g58
I3
ssg651
(dp666
g58
I2
ssg631
(dp667
g58
I1
ssg647
(dp668
g58
I5
ssg645
(dp669
g58
I2
ssg643
(dp670
g58
I1
ssg635
(dp671
g58
I2
ssg625
(dp672
g58
I5
ssg639
(dp673
g58
I3
ssg657
(dp674
g58
I3
ssg655
(dp675
g58
I5
sssg641
(dp676
g645
(dp677
g58
I1
ssg623
(dp678
g58
I1
ssg637
(dp679
g58
I1
sssg649
(dp680
g629
(dp681
g58
I1
ssg631
(dp682
g58
I1
ssg653
(dp683
g58
I2
ssg623
(dp684
g58
I1
ssg645
(dp685
g58
I1
ssg639
(dp686
g58
I2
ssg657
(dp687
g58
I1
ssg647
(dp688
g58
I2
ssg659
(dp689
g58
I1
sssg629
(dp690
g621
g665
sg649
g681
sg657
(dp691
g58
I3
ssg631
(dp692
g58
I4
ssg647
(dp693
g58
I4
ssg645
(dp694
g58
I2
ssg623
(dp695
g58
I1
ssg635
(dp696
g58
I2
ssg625
(dp697
g58
I3
ssg639
(dp698
g58
I5
ssg651
(dp699
g58
I4
ssg655
(dp700
g58
I7
sssg657
(dp701
g621
g674
sg649
g687
sg629
g691
sg631
(dp702
g58
I1
ssg647
(dp703
g58
I6
ssg653
(dp704
g58
I1
ssg643
(dp705
g58
I3
ssg637
(dp706
g58
I1
ssg625
(dp707
g58
I2
ssg639
(dp708
g58
I8
ssg651
(dp709
g58
I4
ssg655
(dp710
g58
I3
ssg659
(dp711
g58
I2
sssg631
(dp712
g621
g667
sg649
g682
sg629
g692
sg657
g702
sg647
(dp713
g58
I1
ssg645
(dp714
g58
I2
ssg623
(dp715
g58
I2
ssg635
(dp716
g58
I1
ssg625
(dp717
g58
I2
ssg639
(dp718
g58
I2
ssg651
(dp719
g58
I2
ssg655
(dp720
g58
I2
sssg633
(dp721
g639
(dp722
g58
I2
ssg643
(dp723
g58
I1
ssg647
(dp724
g58
I1
sssg647
(dp725
g627
g663
sg621
g668
sg649
g688
sg629
g693
sg657
g703
sg631
g713
sg633
g724
sg653
(dp726
g58
I2
ssg645
(dp727
g58
I3
ssg623
(dp728
g58
I1
ssg643
(dp729
g58
I2
ssg635
(dp730
g58
I3
ssg625
(dp731
g58
I2
ssg639
(dp732
g58
I8
ssg651
(dp733
g58
I5
ssg655
(dp734
g58
I3
ssg659
(dp735
g58
I1
sssg653
(dp736
g649
g683
sg623
(dp737
g58
I2
ssg645
(dp738
g58
I1
ssg639
(dp739
g58
I1
ssg657
g704
sg647
g726
sg659
(dp740
g58
I1
sssg645
(dp741
g621
g669
sg649
g685
sg629
g694
sg641
g677
sg631
g714
sg653
g738
sg623
(dp742
g58
I3
ssg635
(dp743
g58
I2
ssg637
(dp744
g58
I1
ssg625
(dp745
g58
I1
ssg655
(dp746
g58
I2
ssg651
(dp747
g58
I1
ssg647
g727
ssg623
(dp748
g649
g684
sg629
g695
sg631
g715
sg653
g737
sg637
(dp749
g58
I1
ssg645
g742
sg639
(dp750
g58
I1
ssg641
g678
sg647
g728
ssg643
(dp751
g621
g670
sg633
g723
sg625
(dp752
g58
I1
ssg639
(dp753
g58
I3
ssg657
g705
sg647
g729
ssg635
(dp754
g621
g671
sg629
g696
sg631
g716
sg647
g730
sg645
g743
sg625
(dp755
g58
I1
ssg639
(dp756
g58
I1
ssg651
(dp757
g58
I3
ssg655
(dp758
g58
I1
sssg637
(dp759
g657
g706
sg623
g749
sg645
g744
sg639
(dp760
g58
I1
ssg641
g679
sg659
(dp761
g58
I1
sssg625
(dp762
g621
g672
sg629
g697
sg657
g707
sg631
g717
sg647
g731
sg643
g752
sg635
g755
sg645
g745
sg639
(dp763
g58
I1
ssg651
(dp764
g58
I2
ssg655
(dp765
g58
I5
sssg639
(dp766
g621
g673
sg649
g686
sg629
g698
sg657
g708
sg631
g718
sg633
g722
sg653
g739
sg623
g750
sg643
g753
sg635
g756
sg637
g760
sg625
g763
sg655
(dp767
g58
I2
ssg651
(dp768
g58
I4
ssg647
g732
sg659
(dp769
g58
I2
sssg651
(dp770
g621
g666
sg629
g699
sg631
g719
sg647
g733
sg645
g747
sg635
g757
sg625
g764
sg639
g768
sg657
g709
sg655
(dp771
g58
I3
sssg655
(dp772
g621
g675
sg629
g700
sg657
g710
sg631
g720
sg645
g746
sg635
g758
sg625
g765
sg639
g767
sg651
g771
sg647
g734
ssg659
(dp773
g649
g689
sg653
g740
sg637
g761
sg639
g769
sg657
g711
sg647
g735
sssg140
(dp774
g142
S'()'
p775
ssg144
g51
sg145
g661
sbsVBlood_vs._Water
p776
g2
(g3
g4
Ntp777
Rp778
(dp779
g8
(dp780
VMarissa
p781
(dp782
sVHayden
p783
(dp784
sVTina
p785
(dp786
sVJohn
p787
(dp788
sVMonica
p789
(dp790
sVGervase
p791
(dp792
sVColton
p793
(dp794
sVLaura M.
p795
(dp796
sVKat
p797
(dp798
sVTyson
p799
(dp800
sVVytas
p801
(dp802
sVAras
p803
(dp804
sVCiera
p805
(dp806
sVBrad
p807
(dp808
sVLaura B.
p809
(dp810
sVRachel
p811
(dp812
sVCaleb
p813
(dp814
sVCandice
p815
(dp816
sVRupert
p817
(dp818
sVKatie
p819
(dp820
ssg50
g51
sg52
g51
sg53
(dp821
g789
(dp822
g803
(dp823
g58
I9
ssg791
(dp824
g58
I19
ssg787
(dp825
g58
I2
ssg795
(dp826
g58
I12
ssg781
(dp827
g58
I1
ssg793
(dp828
g58
I5
ssg807
(dp829
g58
I2
ssg813
(dp830
g58
I6
ssg783
(dp831
g58
I7
ssg805
(dp832
g58
I6
ssg815
(dp833
g58
I1
ssg785
(dp834
g58
I13
ssg797
(dp835
g58
I10
ssg799
(dp836
g58
I18
ssg809
(dp837
g58
I8
ssg801
(dp838
g58
I4
ssg811
(dp839
g58
I1
ssg817
(dp840
g58
I1
ssg819
(dp841
g58
I6
sssg791
(dp842
g789
g824
sg787
(dp843
g58
I2
ssg785
(dp844
g58
I11
ssg803
(dp845
g58
I11
ssg781
(dp846
g58
I1
ssg793
(dp847
g58
I5
ssg807
(dp848
g58
I2
ssg813
(dp849
g58
I8
ssg783
(dp850
g58
I8
ssg805
(dp851
g58
I8
ssg815
(dp852
g58
I1
ssg795
(dp853
g58
I12
ssg797
(dp854
g58
I10
ssg799
(dp855
g58
I21
ssg809
(dp856
g58
I7
ssg801
(dp857
g58
I2
ssg811
(dp858
g58
I1
ssg817
(dp859
g58
I1
ssg819
(dp860
g58
I4
sssg787
(dp861
g789
g825
sg791
g843
sg811
(dp862
g58
I3
ssg795
(dp863
g58
I2
ssg803
(dp864
g58
I2
ssg781
(dp865
g58
I2
ssg793
(dp866
g58
I1
ssg807
(dp867
g58
I6
ssg813
(dp868
g58
I6
ssg783
(dp869
g58
I6
ssg805
(dp870
g58
I5
ssg785
(dp871
g58
I2
ssg797
(dp872
g58
I2
ssg799
(dp873
g58
I2
ssg809
(dp874
g58
I1
ssg801
(dp875
g58
I6
ssg819
(dp876
g58
I4
sssg795
(dp877
g789
g826
sg791
g853
sg787
g863
sg803
(dp878
g58
I9
ssg781
(dp879
g58
I1
ssg793
(dp880
g58
I5
ssg807
(dp881
g58
I2
ssg813
(dp882
g58
I6
ssg783
(dp883
g58
I6
ssg805
(dp884
g58
I5
ssg815
(dp885
g58
I1
ssg785
(dp886
g58
I11
ssg797
(dp887
g58
I9
ssg799
(dp888
g58
I11
ssg809
(dp889
g58
I6
ssg801
(dp890
g58
I2
ssg811
(dp891
g58
I1
ssg817
(dp892
g58
I1
ssg819
(dp893
g58
I4
sssg803
(dp894
g789
g823
sg791
g845
sg787
g864
sg795
g878
sg781
(dp895
g58
I1
ssg793
(dp896
g58
I4
ssg807
(dp897
g58
I2
ssg813
(dp898
g58
I5
ssg783
(dp899
g58
I5
ssg805
(dp900
g58
I5
ssg815
(dp901
g58
I1
ssg785
(dp902
g58
I10
ssg797
(dp903
g58
I9
ssg799
(dp904
g58
I11
ssg809
(dp905
g58
I7
ssg801
(dp906
g58
I3
ssg811
(dp907
g58
I1
ssg817
(dp908
g58
I1
ssg819
(dp909
g58
I3
sssg781
(dp910
g789
g827
sg791
g846
sg811
(dp911
g58
I2
ssg795
g879
sg803
g895
sg793
(dp912
g58
I1
ssg807
(dp913
g58
I2
ssg813
(dp914
g58
I2
ssg783
(dp915
g58
I2
ssg805
(dp916
g58
I2
ssg785
(dp917
g58
I1
ssg797
(dp918
g58
I1
ssg799
(dp919
g58
I1
ssg787
g865
sg801
(dp920
g58
I2
ssg819
(dp921
g58
I2
sssg793
(dp922
g789
g828
sg791
g847
sg787
g866
sg795
g880
sg803
g896
sg781
g912
sg807
(dp923
g58
I1
ssg813
(dp924
g58
I1
ssg783
(dp925
g58
I1
ssg805
(dp926
g58
I1
ssg815
(dp927
g58
I1
ssg785
(dp928
g58
I5
ssg797
(dp929
g58
I5
ssg799
(dp930
g58
I4
ssg809
(dp931
g58
I2
ssg801
(dp932
g58
I1
ssg811
(dp933
g58
I1
ssg817
(dp934
g58
I1
ssg819
(dp935
g58
I1
sssg807
(dp936
g789
g829
sg791
g848
sg787
g867
sg795
g881
sg803
g897
sg793
g923
sg781
g913
sg813
(dp937
g58
I7
ssg783
(dp938
g58
I8
ssg805
(dp939
g58
I7
ssg785
(dp940
g58
I2
ssg797
(dp941
g58
I2
ssg799
(dp942
g58
I2
ssg809
(dp943
g58
I1
ssg801
(dp944
g58
I8
ssg811
(dp945
g58
I3
ssg819
(dp946
g58
I5
sssg813
(dp947
g789
g830
sg791
g849
sg787
g868
sg795
g882
sg803
g898
sg781
g914
sg793
g924
sg807
g937
sg783
(dp948
g58
I16
ssg805
(dp949
g58
I14
ssg785
(dp950
g58
I4
ssg797
(dp951
g58
I2
ssg799
(dp952
g58
I8
ssg809
(dp953
g58
I1
ssg801
(dp954
g58
I9
ssg811
(dp955
g58
I3
ssg819
(dp956
g58
I12
sssg783
(dp957
g789
g831
sg791
g850
sg787
g869
sg795
g883
sg803
g899
sg781
g915
sg793
g925
sg807
g938
sg813
g948
sg805
(dp958
g58
I15
ssg785
(dp959
g58
I4
ssg797
(dp960
g58
I2
ssg799
(dp961
g58
I8
ssg809
(dp962
g58
I1
ssg801
(dp963
g58
I9
ssg811
(dp964
g58
I3
ssg819
(dp965
g58
I11
sssg805
(dp966
g789
g832
sg791
g851
sg787
g870
sg795
g884
sg803
g900
sg781
g916
sg793
g926
sg807
g939
sg813
g949
sg783
g958
sg785
(dp967
g58
I4
ssg797
(dp968
g58
I2
ssg799
(dp969
g58
I8
ssg809
(dp970
g58
I1
ssg801
(dp971
g58
I7
ssg811
(dp972
g58
I3
ssg819
(dp973
g58
I12
sssg815
(dp974
g803
g901
sg791
g852
sg795
g885
sg789
g833
sg793
g927
sg785
(dp975
g58
I1
ssg797
(dp976
g58
I1
ssg799
(dp977
g58
I2
ssg817
(dp978
g58
I2
sssg785
(dp979
g789
g834
sg791
g844
sg787
g871
sg803
g902
sg781
g917
sg793
g928
sg807
g940
sg813
g950
sg783
g959
sg805
g967
sg815
g975
sg795
g886
sg797
(dp980
g58
I10
ssg799
(dp981
g58
I10
ssg809
(dp982
g58
I8
ssg801
(dp983
g58
I4
ssg811
(dp984
g58
I1
ssg817
(dp985
g58
I1
ssg819
(dp986
g58
I7
sssg797
(dp987
g789
g835
sg791
g854
sg787
g872
sg795
g887
sg803
g903
sg793
g929
sg781
g918
sg813
g951
sg783
g960
sg805
g968
sg815
g976
sg785
g980
sg807
g941
sg799
(dp988
g58
I9
ssg809
(dp989
g58
I7
ssg801
(dp990
g58
I2
ssg811
(dp991
g58
I1
ssg817
(dp992
g58
I1
ssg819
(dp993
g58
I2
sssg799
(dp994
g789
g836
sg791
g855
sg787
g873
sg785
g981
sg803
g904
sg781
g919
sg793
g930
sg807
g942
sg813
g952
sg783
g961
sg805
g969
sg815
g977
sg795
g888
sg797
g988
sg817
(dp995
g58
I2
ssg809
(dp996
g58
I7
ssg801
(dp997
g58
I2
ssg811
(dp998
g58
I1
ssg819
(dp999
g58
I4
sssg809
(dp1000
g789
g837
sg791
g856
sg795
g889
sg803
g905
sg793
g931
sg807
g943
sg813
g953
sg783
g962
sg805
g970
sg785
g982
sg797
g989
sg799
g996
sg787
g874
sg801
(dp1001
g58
I2
ssg819
(dp1002
g58
I3
sssg801
(dp1003
g789
g838
sg791
g857
sg787
g875
sg795
g890
sg803
g906
sg781
g920
sg793
g932
sg807
g944
sg813
g954
sg783
g963
sg805
g971
sg785
g983
sg797
g990
sg799
g997
sg809
g1001
sg811
(dp1004
g58
I3
ssg819
(dp1005
g58
I9
sssg811
(dp1006
g789
g839
sg791
g858
sg795
g891
sg803
g907
sg781
g911
sg793
g933
sg807
g945
sg813
g955
sg783
g964
sg805
g972
sg785
g984
sg797
g991
sg799
g998
sg787
g862
sg801
g1004
sg819
(dp1007
g58
I3
sssg817
(dp1008
g803
g908
sg791
g859
sg795
g892
sg789
g840
sg793
g934
sg815
g978
sg785
g985
sg797
g992
sg799
g995
ssg819
(dp1009
g789
g841
sg791
g860
sg787
g876
sg795
g893
sg803
g909
sg781
g921
sg793
g935
sg807
g946
sg813
g956
sg783
g965
sg805
g973
sg785
g986
sg797
g993
sg799
g999
sg809
g1002
sg801
g1005
sg811
g1007
sssg140
(dp1010
g142
S'()'
p1011
ssg144
g51
sg145
g821
sbsVMarquesas
p1012
g2
(g3
g4
Ntp1013
Rp1014
(dp1015
g8
(dp1016
VSarah
p1017
(dp1018
sVZoe
p1019
(dp1020
sVRobert
p1021
(dp1022
sVPaschal
p1023
(dp1024
sVJohn
p1025
(dp1026
sVNeleh
p1027
(dp1028
sVKathy
p1029
(dp1030
sVGina
p1031
(dp1032
sVHunter
p1033
(dp1034
sVTammy
p1035
(dp1036
sVGabriel
p1037
(dp1038
sVPatricia
p1039
(dp1040
sVVecepia
p1041
(dp1042
sVRob
p1043
(dp1044
sVSean
p1045
(dp1046
sVPeter
p1047
(dp1048
ssg50
g51
sg52
g51
sg53
(dp1049
g1029
(dp1050
g1019
(dp1051
g58
I2
ssg1021
(dp1052
g58
I1
ssg1031
(dp1053
g58
I1
ssg1023
(dp1054
g58
I8
ssg1041
(dp1055
g58
I5
ssg1045
(dp1056
g58
I4
ssg1027
(dp1057
g58
I7
ssg1035
(dp1058
g58
I1
sssg1017
(dp1059
g1043
(dp1060
g58
I3
ssg1031
(dp1061
g58
I1
ssg1033
(dp1062
g58
I1
ssg1039
(dp1063
g58
I1
ssg1041
(dp1064
g58
I2
ssg1045
(dp1065
g58
I2
sssg1047
(dp1066
sg1035
(dp1067
g1029
g1058
sg1019
(dp1068
g58
I2
ssg1021
(dp1069
g58
I6
ssg1023
(dp1070
g58
I2
ssg1041
(dp1071
g58
I3
ssg1045
(dp1072
g58
I3
ssg1025
(dp1073
g58
I4
ssg1043
(dp1074
g58
I1
ssg1027
(dp1075
g58
I2
sssg1037
(dp1076
sg1021
(dp1077
g1029
g1052
sg1025
(dp1078
g58
I4
ssg1019
(dp1079
g58
I2
ssg1043
(dp1080
g58
I1
ssg1023
(dp1081
g58
I2
ssg1041
(dp1082
g58
I3
ssg1045
(dp1083
g58
I3
ssg1027
(dp1084
g58
I2
ssg1035
g1069
ssg1031
(dp1085
g1029
g1053
sg1017
g1061
sg1043
(dp1086
g58
I1
ssg1033
(dp1087
g58
I3
ssg1023
(dp1088
g58
I1
ssg1039
(dp1089
g58
I2
ssg1027
(dp1090
g58
I1
sssg1033
(dp1091
g1017
g1062
sg1043
(dp1092
g58
I1
ssg1031
g1087
sg1039
(dp1093
g58
I2
sssg1023
(dp1094
g1029
g1054
sg1025
(dp1095
g58
I1
ssg1019
(dp1096
g58
I3
ssg1021
g1081
sg1031
g1088
sg1041
(dp1097
g58
I5
ssg1045
(dp1098
g58
I4
ssg1027
(dp1099
g58
I9
ssg1035
g1070
ssg1039
(dp1100
g1017
g1063
sg1043
(dp1101
g58
I1
ssg1031
g1089
sg1033
g1093
ssg1041
(dp1102
g1029
g1055
sg1017
g1064
sg1025
(dp1103
g58
I2
ssg1019
(dp1104
g58
I3
ssg1021
g1082
sg1023
g1097
sg1045
(dp1105
g58
I9
ssg1027
(dp1106
g58
I5
ssg1043
(dp1107
g58
I3
ssg1035
g1071
ssg1045
(dp1108
g1029
g1056
sg1017
g1065
sg1019
(dp1109
g58
I2
ssg1021
g1083
sg1023
g1098
sg1041
g1105
sg1035
g1072
sg1025
(dp1110
g58
I2
ssg1043
(dp1111
g58
I4
ssg1027
(dp1112
g58
I4
sssg1019
(dp1113
g1029
g1051
sg1035
g1068
sg1021
g1079
sg1023
g1096
sg1041
g1104
sg1045
g1109
sg1025
(dp1114
g58
I2
ssg1043
(dp1115
g58
I1
ssg1027
(dp1116
g58
I2
sssg1025
(dp1117
g1019
g1114
sg1021
g1078
sg1023
g1095
sg1041
g1103
sg1045
g1110
sg1027
(dp1118
g58
I1
ssg1043
(dp1119
g58
I1
ssg1035
g1073
ssg1043
(dp1120
g1017
g1060
sg1019
g1115
sg1021
g1080
sg1031
g1086
sg1033
g1092
sg1039
g1101
sg1041
g1107
sg1045
g1111
sg1025
g1119
sg1035
g1074
ssg1027
(dp1121
g1029
g1057
sg1019
g1116
sg1021
g1084
sg1031
g1090
sg1023
g1099
sg1041
g1106
sg1035
g1075
sg1025
g1118
sg1045
g1112
sssg140
(dp1122
g142
S'()'
p1123
ssg144
g51
sg145
g1049
sbsVPearl_Islands
p1124
g2
(g3
g4
Ntp1125
Rp1126
(dp1127
g8
(dp1128
VTrish
p1129
(dp1130
sVRyan S.
p1131
(dp1132
sVDarrah
p1133
(dp1134
sVOsten
p1135
(dp1136
sVShawn
p1137
(dp1138
sVAndrew
p1139
(dp1140
sVChrista
p1141
(dp1142
sVSandra
p1143
(dp1144
sVJon
p1145
(dp1146
sVMichelle
p1147
(dp1148
sVLillian
p1149
(dp1150
sVTijuana
p1151
(dp1152
sVRyan O.
p1153
(dp1154
sVBurton
p1155
(dp1156
sVRupert
p1157
(dp1158
sVNicole
p1159
(dp1160
ssg50
g51
sg52
g51
sg53
(dp1161
g1147
(dp1162
g1155
(dp1163
g58
I2
ssg1131
(dp1164
g58
I1
ssg1129
(dp1165
g58
I1
sssg1129
(dp1166
g1147
g1165
sg1137
(dp1167
g58
I2
ssg1141
(dp1168
g58
I2
ssg1131
(dp1169
g58
I2
ssg1143
(dp1170
g58
I2
ssg1157
(dp1171
g58
I1
ssg1145
(dp1172
g58
I3
sssg1135
(dp1173
g1149
(dp1174
g58
I1
ssg1139
(dp1175
g58
I3
ssg1131
(dp1176
g58
I1
ssg1153
(dp1177
g58
I3
ssg1133
(dp1178
g58
I3
ssg1151
(dp1179
g58
I3
sssg1149
(dp1180
g1135
g1174
sg1139
(dp1181
g58
I1
ssg1141
(dp1182
g58
I3
ssg1131
(dp1183
g58
I2
ssg1153
(dp1184
g58
I1
ssg1143
(dp1185
g58
I5
ssg1155
(dp1186
g58
I5
ssg1157
(dp1187
g58
I2
ssg1133
(dp1188
g58
I5
ssg1145
(dp1189
g58
I6
ssg1151
(dp1190
g58
I3
sssg1139
(dp1191
g1135
g1175
sg1149
g1181
sg1131
(dp1192
g58
I1
ssg1153
(dp1193
g58
I4
ssg1133
(dp1194
g58
I4
ssg1151
(dp1195
g58
I4
sssg1141
(dp1196
g1129
g1168
sg1149
g1182
sg1137
(dp1197
g58
I3
ssg1153
(dp1198
g58
I1
ssg1143
(dp1199
g58
I8
ssg1155
(dp1200
g58
I4
ssg1157
(dp1201
g58
I7
ssg1133
(dp1202
g58
I2
ssg1145
(dp1203
g58
I7
ssg1151
(dp1204
g58
I1
sssg1137
(dp1205
g1129
g1167
sg1157
(dp1206
g58
I2
ssg1141
g1197
sg1145
(dp1207
g58
I2
ssg1143
(dp1208
g58
I3
sssg1131
(dp1209
g1147
g1164
sg1129
g1169
sg1135
g1176
sg1149
g1183
sg1139
g1192
sg1153
(dp1210
g58
I1
ssg1133
(dp1211
g58
I1
ssg1151
(dp1212
g58
I1
sssg1159
(dp1213
sg1153
(dp1214
g1135
g1177
sg1149
g1184
sg1139
g1193
sg1141
g1198
sg1131
g1210
sg1155
(dp1215
g58
I1
ssg1157
(dp1216
g58
I1
ssg1133
(dp1217
g58
I5
ssg1145
(dp1218
g58
I1
ssg1151
(dp1219
g58
I4
sssg1143
(dp1220
g1129
g1170
sg1149
g1185
sg1141
g1199
sg1137
g1208
sg1155
(dp1221
g58
I3
ssg1157
(dp1222
g58
I5
ssg1133
(dp1223
g58
I2
ssg1145
(dp1224
g58
I7
ssg1151
(dp1225
g58
I1
sssg1155
(dp1226
g1147
g1163
sg1149
g1186
sg1141
g1200
sg1153
g1215
sg1143
g1221
sg1157
(dp1227
g58
I3
ssg1133
(dp1228
g58
I4
ssg1145
(dp1229
g58
I7
ssg1151
(dp1230
g58
I2
sssg1157
(dp1231
g1129
g1171
sg1149
g1187
sg1141
g1201
sg1137
g1206
sg1153
g1216
sg1143
g1222
sg1155
g1227
sg1133
(dp1232
g58
I2
ssg1145
(dp1233
g58
I5
ssg1151
(dp1234
g58
I1
sssg1133
(dp1235
g1135
g1178
sg1149
g1188
sg1139
g1194
sg1141
g1202
sg1131
g1211
sg1153
g1217
sg1143
g1223
sg1155
g1228
sg1157
g1232
sg1145
(dp1236
g58
I4
ssg1151
(dp1237
g58
I7
sssg1145
(dp1238
g1129
g1172
sg1149
g1189
sg1141
g1203
sg1137
g1207
sg1153
g1218
sg1143
g1224
sg1155
g1229
sg1157
g1233
sg1133
g1236
sg1151
(dp1239
g58
I2
sssg1151
(dp1240
g1135
g1179
sg1149
g1190
sg1139
g1195
sg1141
g1204
sg1131
g1212
sg1153
g1219
sg1143
g1225
sg1155
g1230
sg1157
g1234
sg1133
g1237
sg1145
g1239
sssg140
(dp1241
g142
S'()'
p1242
ssg144
g51
sg145
g1161
sbsVVanuatu
p1243
g2
(g3
g4
Ntp1244
Rp1245
(dp1246
g8
(dp1247
VMia
p1248
(dp1249
sVEliza
p1250
(dp1251
sVBrook
p1252
(dp1253
sVDolly
p1254
(dp1255
sVJohn P.
p1256
(dp1257
sVJohn K.
p1258
(dp1259
sVAmi
p1260
(dp1261
sVLea
p1262
(dp1263
sVScout
p1264
(dp1265
sVTwila
p1266
(dp1267
sVBrady
p1268
(dp1269
sVChris
p1270
(dp1271
sVRory
p1272
(dp1273
sVLisa
p1274
(dp1275
sVChad
p1276
(dp1277
sVJulie
p1278
(dp1279
sVTravis
p1280
(dp1281
sVLeann
p1282
(dp1283
ssg50
g51
sg52
g51
sg53
(dp1284
g1260
(dp1285
g1250
(dp1286
g58
I6
ssg1282
(dp1287
g58
I8
ssg1266
(dp1288
g58
I5
ssg1264
(dp1289
g58
I7
ssg1272
(dp1290
g58
I2
ssg1270
(dp1291
g58
I1
ssg1274
(dp1292
g58
I2
ssg1278
(dp1293
g58
I5
sssg1262
(dp1294
g1276
(dp1295
g58
I6
ssg1280
(dp1296
g58
I3
ssg1250
(dp1297
g58
I1
ssg1258
(dp1298
g58
I1
ssg1266
(dp1299
g58
I1
ssg1282
(dp1300
g58
I1
ssg1272
(dp1301
g58
I4
ssg1270
(dp1302
g58
I5
ssg1278
(dp1303
g58
I2
sssg1268
(dp1304
g1256
(dp1305
g58
I1
ssg1258
(dp1306
g58
I1
sssg1276
(dp1307
g1262
g1295
sg1280
(dp1308
g58
I3
ssg1250
(dp1309
g58
I1
ssg1258
(dp1310
g58
I1
ssg1266
(dp1311
g58
I1
ssg1282
(dp1312
g58
I1
ssg1272
(dp1313
g58
I4
ssg1270
(dp1314
g58
I6
ssg1278
(dp1315
g58
I2
sssg1280
(dp1316
g1270
(dp1317
g58
I3
ssg1262
g1296
sg1272
(dp1318
g58
I3
ssg1276
g1308
sg1258
(dp1319
g58
I1
sssg1248
(dp1320
g1274
(dp1321
g58
I1
ssg1250
(dp1322
g58
I1
ssg1278
(dp1323
g58
I2
ssg1254
(dp1324
g58
I1
sssg1252
(dp1325
g1256
(dp1326
g58
I1
ssg1258
(dp1327
g58
I1
sssg1250
(dp1328
g1260
g1286
sg1262
g1297
sg1276
g1309
sg1248
g1322
sg1278
(dp1329
g58
I6
ssg1282
(dp1330
g58
I7
ssg1266
(dp1331
g58
I6
ssg1264
(dp1332
g58
I7
ssg1272
(dp1333
g58
I2
ssg1270
(dp1334
g58
I3
ssg1274
(dp1335
g58
I1
sssg1282
(dp1336
g1260
g1287
sg1262
g1300
sg1276
g1312
sg1250
g1330
sg1266
(dp1337
g58
I5
ssg1264
(dp1338
g58
I6
ssg1272
(dp1339
g58
I2
ssg1270
(dp1340
g58
I1
ssg1274
(dp1341
g58
I2
ssg1278
(dp1342
g58
I5
sssg1258
(dp1343
g1262
g1298
sg1268
g1306
sg1276
g1310
sg1252
g1327
sg1280
g1319
sg1272
(dp1344
g58
I1
ssg1270
(dp1345
g58
I1
ssg1256
(dp1346
g58
I2
sssg1266
(dp1347
g1260
g1288
sg1262
g1299
sg1276
g1311
sg1250
g1331
sg1282
g1337
sg1264
(dp1348
g58
I9
ssg1270
(dp1349
g58
I6
ssg1274
(dp1350
g58
I1
ssg1278
(dp1351
g58
I4
sssg1264
(dp1352
g1260
g1289
sg1250
g1332
sg1266
g1348
sg1282
g1338
sg1272
(dp1353
g58
I1
ssg1270
(dp1354
g58
I5
ssg1274
(dp1355
g58
I3
ssg1278
(dp1356
g58
I3
sssg1254
(dp1357
g1248
g1324
sg1274
(dp1358
g58
I1
ssg1278
(dp1359
g58
I1
sssg1272
(dp1360
g1260
g1290
sg1262
g1301
sg1276
g1313
sg1250
g1333
sg1282
g1339
sg1280
g1318
sg1264
g1353
sg1270
(dp1361
g58
I4
ssg1274
(dp1362
g58
I1
ssg1258
g1344
ssg1270
(dp1363
g1260
g1291
sg1262
g1302
sg1276
g1314
sg1250
g1334
sg1282
g1340
sg1258
g1345
sg1280
g1317
sg1264
g1354
sg1272
g1361
sg1266
g1349
sg1278
(dp1364
g58
I2
sssg1274
(dp1365
g1260
g1292
sg1248
g1321
sg1250
g1335
sg1282
g1341
sg1264
g1355
sg1254
g1358
sg1272
g1362
sg1266
g1350
sg1278
(dp1366
g58
I1
sssg1256
(dp1367
g1252
g1326
sg1258
g1346
sg1268
g1305
ssg1278
(dp1368
g1260
g1293
sg1262
g1303
sg1276
g1315
sg1248
g1323
sg1250
g1329
sg1282
g1342
sg1266
g1351
sg1264
g1356
sg1254
g1359
sg1270
g1364
sg1274
g1366
sssg140
(dp1369
g142
S'()'
p1370
ssg144
g51
sg145
g1284
sbsVThe_Australian_Outback
p1371
g2
(g3
g4
Ntp1372
Rp1373
(dp1374
g8
(dp1375
VNick
p1376
(dp1377
sVColby
p1378
(dp1379
sVTina
p1380
(dp1381
sVJerri
p1382
(dp1383
sVKel
p1384
(dp1385
sVRodger
p1386
(dp1387
sVAlicia
p1388
(dp1389
sVDebb
p1390
(dp1391
sVKeith
p1392
(dp1393
sVMichael
p1394
(dp1395
sVMitchell
p1396
(dp1397
sVAmber
p1398
(dp1399
sVJeff
p1400
(dp1401
sVElisabeth
p1402
(dp1403
sVMaralyn
p1404
(dp1405
sVKimmi
p1406
(dp1407
ssg50
g51
sg52
g51
sg53
(dp1408
g1398
(dp1409
g1386
(dp1410
g58
I1
ssg1396
(dp1411
g58
I3
ssg1376
(dp1412
g58
I1
ssg1378
(dp1413
g58
I6
ssg1404
(dp1414
g58
I1
ssg1380
(dp1415
g58
I6
ssg1392
(dp1416
g58
I5
ssg1382
(dp1417
g58
I8
sssg1384
(dp1418
sg1386
(dp1419
g1398
g1410
sg1400
(dp1420
g58
I3
ssg1388
(dp1421
g58
I5
ssg1394
(dp1422
g58
I2
ssg1402
(dp1423
g58
I9
ssg1376
(dp1424
g58
I7
ssg1378
(dp1425
g58
I1
ssg1380
(dp1426
g58
I2
ssg1406
(dp1427
g58
I1
ssg1392
(dp1428
g58
I2
sssg1400
(dp1429
g1386
g1420
sg1388
(dp1430
g58
I3
ssg1394
(dp1431
g58
I2
ssg1402
(dp1432
g58
I3
ssg1376
(dp1433
g58
I3
ssg1378
(dp1434
g58
I1
ssg1406
(dp1435
g58
I1
sssg1396
(dp1436
g1398
g1411
sg1378
(dp1437
g58
I2
ssg1404
(dp1438
g58
I1
ssg1380
(dp1439
g58
I2
ssg1392
(dp1440
g58
I2
ssg1382
(dp1441
g58
I3
sssg1388
(dp1442
g1386
g1421
sg1400
g1430
sg1394
(dp1443
g58
I2
ssg1402
(dp1444
g58
I6
ssg1376
(dp1445
g58
I5
ssg1406
(dp1446
g58
I1
ssg1392
(dp1447
g58
I1
ssg1382
(dp1448
g58
I1
sssg1394
(dp1449
g1386
g1422
sg1400
g1431
sg1388
g1443
sg1402
(dp1450
g58
I2
ssg1376
(dp1451
g58
I2
ssg1406
(dp1452
g58
I1
sssg1390
(dp1453
sg1402
(dp1454
g1386
g1423
sg1400
g1432
sg1388
g1444
sg1394
g1450
sg1376
(dp1455
g58
I6
ssg1378
(dp1456
g58
I1
ssg1380
(dp1457
g58
I2
ssg1406
(dp1458
g58
I1
ssg1392
(dp1459
g58
I3
ssg1382
(dp1460
g58
I1
sssg1376
(dp1461
g1398
g1412
sg1386
g1424
sg1400
g1433
sg1388
g1445
sg1394
g1451
sg1402
g1455
sg1378
(dp1462
g58
I1
ssg1380
(dp1463
g58
I1
ssg1406
(dp1464
g58
I1
ssg1392
(dp1465
g58
I1
sssg1378
(dp1466
g1398
g1413
sg1386
g1425
sg1400
g1434
sg1396
g1437
sg1402
g1456
sg1376
g1462
sg1404
(dp1467
g58
I1
ssg1380
(dp1468
g58
I10
ssg1392
(dp1469
g58
I8
ssg1382
(dp1470
g58
I4
sssg1404
(dp1471
g1398
g1414
sg1396
g1438
sg1378
g1467
sg1380
(dp1472
g58
I1
ssg1392
(dp1473
g58
I1
ssg1382
(dp1474
g58
I1
sssg1380
(dp1475
g1398
g1415
sg1386
g1426
sg1396
g1439
sg1402
g1457
sg1376
g1463
sg1378
g1468
sg1404
g1472
sg1392
(dp1476
g58
I10
ssg1382
(dp1477
g58
I5
sssg1406
(dp1478
g1386
g1427
sg1400
g1435
sg1388
g1446
sg1394
g1452
sg1402
g1458
sg1376
g1464
ssg1392
(dp1479
g1398
g1416
sg1386
g1428
sg1388
g1447
sg1402
g1459
sg1376
g1465
sg1378
g1469
sg1404
g1473
sg1380
g1476
sg1396
g1440
sg1382
(dp1480
g58
I5
sssg1382
(dp1481
g1398
g1417
sg1396
g1441
sg1388
g1448
sg1402
g1460
sg1378
g1470
sg1404
g1474
sg1380
g1477
sg1392
g1480
sssg140
(dp1482
g142
S'()'
p1483
ssg144
g51
sg145
g1408
sbsVHeroes_vs_Villains
p1484
g2
(g3
g4
Ntp1485
Rp1486
(dp1487
g8
(dp1488
VParvati
p1489
(dp1490
sVRussell
p1491
(dp1492
sVCourtney
p1493
(dp1494
sVSugar
p1495
(dp1496
sVRandy
p1497
(dp1498
sVColby
p1499
(dp1500
sVTom
p1501
(dp1502
sVJerri
p1503
(dp1504
sVJ.T.
p1505
(dp1506
sVStephenie
p1507
(dp1508
sVSandra
p1509
(dp1510
sVTyson
p1511
(dp1512
sVJames
p1513
(dp1514
sVAmanda
p1515
(dp1516
sVCoach
p1517
(dp1518
sVRob
p1519
(dp1520
sVCandice
p1521
(dp1522
sVDanielle
p1523
(dp1524
sVRupert
p1525
(dp1526
sVCirie
p1527
(dp1528
ssg50
g51
sg52
g51
sg53
(dp1529
g1501
(dp1530
g1505
(dp1531
g58
I2
ssg1513
(dp1532
g58
I1
ssg1507
(dp1533
g58
I2
ssg1521
(dp1534
g58
I1
ssg1499
(dp1535
g58
I4
ssg1525
(dp1536
g58
I1
ssg1515
(dp1537
g58
I1
ssg1527
(dp1538
g58
I1
sssg1517
(dp1539
g1489
(dp1540
g58
I1
ssg1491
(dp1541
g58
I2
ssg1519
(dp1542
g58
I1
ssg1509
(dp1543
g58
I1
ssg1523
(dp1544
g58
I2
ssg1493
(dp1545
g58
I2
ssg1511
(dp1546
g58
I2
ssg1503
(dp1547
g58
I4
sssg1489
(dp1548
g1517
g1540
sg1491
(dp1549
g58
I9
ssg1519
(dp1550
g58
I1
ssg1509
(dp1551
g58
I9
ssg1521
(dp1552
g58
I2
ssg1493
(dp1553
g58
I2
ssg1523
(dp1554
g58
I9
ssg1511
(dp1555
g58
I1
ssg1503
(dp1556
g58
I7
sssg1491
(dp1557
g1517
g1541
sg1489
g1549
sg1519
(dp1558
g58
I1
ssg1493
(dp1559
g58
I1
ssg1521
(dp1560
g58
I1
ssg1523
(dp1561
g58
I6
ssg1509
(dp1562
g58
I8
ssg1499
(dp1563
g58
I2
ssg1525
(dp1564
g58
I2
ssg1503
(dp1565
g58
I10
ssg1511
(dp1566
g58
I1
sssg1505
(dp1567
g1513
(dp1568
g58
I3
ssg1501
g1531
sg1507
(dp1569
g58
I1
ssg1521
(dp1570
g58
I6
ssg1493
(dp1571
g58
I1
ssg1499
(dp1572
g58
I5
ssg1525
(dp1573
g58
I6
ssg1515
(dp1574
g58
I6
ssg1527
(dp1575
g58
I2
sssg1513
(dp1576
g1505
g1568
sg1507
(dp1577
g58
I1
ssg1521
(dp1578
g58
I3
ssg1501
g1532
sg1499
(dp1579
g58
I1
ssg1525
(dp1580
g58
I4
ssg1515
(dp1581
g58
I3
ssg1527
(dp1582
g58
I2
sssg1519
(dp1583
g1517
g1542
sg1489
g1550
sg1491
g1558
sg1509
(dp1584
g58
I3
ssg1523
(dp1585
g58
I1
ssg1493
(dp1586
g58
I2
ssg1511
(dp1587
g58
I1
ssg1503
(dp1588
g58
I1
sssg1493
(dp1589
g1517
g1545
sg1489
g1553
sg1491
g1559
sg1505
g1571
sg1519
g1586
sg1521
(dp1590
g58
I1
ssg1499
(dp1591
g58
I1
ssg1509
(dp1592
g58
I3
ssg1523
(dp1593
g58
I2
ssg1525
(dp1594
g58
I1
ssg1515
(dp1595
g58
I1
ssg1503
(dp1596
g58
I2
ssg1511
(dp1597
g58
I2
sssg1521
(dp1598
g1501
g1534
sg1489
g1552
sg1491
g1560
sg1505
g1570
sg1513
g1578
sg1493
g1590
sg1527
(dp1599
g58
I3
ssg1507
(dp1600
g58
I1
ssg1499
(dp1601
g58
I4
ssg1509
(dp1602
g58
I1
ssg1523
(dp1603
g58
I2
ssg1525
(dp1604
g58
I6
ssg1515
(dp1605
g58
I7
ssg1503
(dp1606
g58
I1
sssg1527
(dp1607
g1505
g1575
sg1513
g1582
sg1507
(dp1608
g58
I1
ssg1521
g1599
sg1501
g1538
sg1499
(dp1609
g58
I1
ssg1525
(dp1610
g58
I2
ssg1515
(dp1611
g58
I3
sssg1507
(dp1612
g1505
g1569
sg1513
g1577
sg1521
g1600
sg1501
g1533
sg1499
(dp1613
g58
I2
ssg1525
(dp1614
g58
I1
ssg1515
(dp1615
g58
I1
ssg1527
g1608
ssg1497
(dp1616
sg1499
(dp1617
g1501
g1535
sg1491
g1563
sg1505
g1572
sg1513
g1579
sg1493
g1591
sg1527
g1609
sg1507
g1613
sg1521
g1601
sg1509
(dp1618
g58
I1
ssg1525
(dp1619
g58
I8
ssg1515
(dp1620
g58
I5
ssg1503
(dp1621
g58
I2
sssg1509
(dp1622
g1517
g1543
sg1489
g1551
sg1491
g1562
sg1519
g1584
sg1521
g1602
sg1523
(dp1623
g58
I6
ssg1493
g1592
sg1499
g1618
sg1525
(dp1624
g58
I1
ssg1503
(dp1625
g58
I7
ssg1511
(dp1626
g58
I1
sssg1523
(dp1627
g1517
g1544
sg1489
g1554
sg1491
g1561
sg1519
g1585
sg1509
g1623
sg1521
g1603
sg1493
g1593
sg1511
(dp1628
g58
I1
ssg1503
(dp1629
g58
I6
sssg1525
(dp1630
g1501
g1536
sg1491
g1564
sg1505
g1573
sg1513
g1580
sg1493
g1594
sg1527
g1610
sg1507
g1614
sg1521
g1604
sg1509
g1624
sg1499
g1619
sg1515
(dp1631
g58
I7
ssg1503
(dp1632
g58
I2
sssg1495
(dp1633
sg1515
(dp1634
g1505
g1574
sg1513
g1581
sg1501
g1537
sg1507
g1615
sg1521
g1605
sg1493
g1595
sg1499
g1620
sg1525
g1631
sg1527
g1611
ssg1503
(dp1635
g1517
g1547
sg1489
g1556
sg1491
g1565
sg1519
g1588
sg1493
g1596
sg1521
g1606
sg1523
g1629
sg1509
g1625
sg1499
g1621
sg1525
g1632
sg1511
(dp1636
g58
I2
sssg1511
(dp1637
g1517
g1546
sg1489
g1555
sg1491
g1566
sg1519
g1587
sg1509
g1626
sg1523
g1628
sg1493
g1597
sg1503
g1636
sssg140
(dp1638
g142
S'()'
p1639
ssg144
g51
sg145
g1529
sbsVGuatemala
p1640
g2
(g3
g4
Ntp1641
Rp1642
(dp1643
g8
(dp1644
VBlake
p1645
(dp1646
sVCindy
p1647
(dp1648
sVRafe
p1649
(dp1650
sVJim
p1651
(dp1652
sVBrandon
p1653
(dp1654
sVBrianna
p1655
(dp1656
sVBrian
p1657
(dp1658
sVStephenie
p1659
(dp1660
sVJamie
p1661
(dp1662
sVAmy
p1663
(dp1664
sVMargaret
p1665
(dp1666
sVBobby Jon
p1667
(dp1668
sVLydia
p1669
(dp1670
sVBrooke
p1671
(dp1672
sVJudd
p1673
(dp1674
sVDanni
p1675
(dp1676
sVMorgan
p1677
(dp1678
sVGary
p1679
(dp1680
ssg50
g51
sg52
g51
sg53
(dp1681
g1663
(dp1682
g1655
(dp1683
g58
I1
ssg1649
(dp1684
g58
I2
ssg1661
(dp1685
g58
I2
ssg1653
(dp1686
g58
I1
ssg1659
(dp1687
g58
I2
ssg1657
(dp1688
g58
I3
ssg1667
(dp1689
g58
I2
ssg1675
(dp1690
g58
I2
ssg1669
(dp1691
g58
I2
ssg1679
(dp1692
g58
I4
sssg1645
(dp1693
g1653
(dp1694
g58
I2
ssg1665
(dp1695
g58
I1
ssg1667
(dp1696
g58
I1
ssg1675
(dp1697
g58
I1
ssg1647
(dp1698
g58
I1
ssg1671
(dp1699
g58
I1
ssg1673
(dp1700
g58
I1
sssg1651
(dp1701
sg1677
(dp1702
sg1665
(dp1703
g1645
g1695
sg1653
(dp1704
g58
I1
ssg1667
(dp1705
g58
I1
ssg1675
(dp1706
g58
I1
ssg1647
(dp1707
g58
I2
ssg1671
(dp1708
g58
I2
ssg1673
(dp1709
g58
I1
sssg1649
(dp1710
g1663
g1684
sg1661
(dp1711
g58
I6
ssg1673
(dp1712
g58
I5
ssg1659
(dp1713
g58
I11
ssg1657
(dp1714
g58
I2
ssg1655
(dp1715
g58
I1
ssg1675
(dp1716
g58
I5
ssg1669
(dp1717
g58
I10
ssg1647
(dp1718
g58
I5
ssg1679
(dp1719
g58
I3
sssg1661
(dp1720
g1663
g1685
sg1649
g1711
sg1655
(dp1721
g58
I1
ssg1673
(dp1722
g58
I6
ssg1659
(dp1723
g58
I6
ssg1657
(dp1724
g58
I2
ssg1667
(dp1725
g58
I1
ssg1669
(dp1726
g58
I7
ssg1647
(dp1727
g58
I4
ssg1679
(dp1728
g58
I3
sssg1655
(dp1729
g1663
g1683
sg1649
g1715
sg1661
g1721
sg1659
(dp1730
g58
I1
ssg1657
(dp1731
g58
I1
ssg1669
(dp1732
g58
I1
ssg1679
(dp1733
g58
I1
sssg1673
(dp1734
g1645
g1700
sg1649
g1712
sg1661
g1722
sg1653
(dp1735
g58
I1
ssg1659
(dp1736
g58
I5
ssg1665
g1709
sg1667
(dp1737
g58
I2
ssg1675
(dp1738
g58
I2
ssg1669
(dp1739
g58
I6
ssg1647
(dp1740
g58
I7
ssg1679
(dp1741
g58
I1
ssg1671
(dp1742
g58
I1
sssg1659
(dp1743
g1655
g1730
sg1649
g1713
sg1661
g1723
sg1673
g1736
sg1663
g1687
sg1657
(dp1744
g58
I2
ssg1675
(dp1745
g58
I5
ssg1669
(dp1746
g58
I10
ssg1647
(dp1747
g58
I5
ssg1679
(dp1748
g58
I3
sssg1657
(dp1749
g1663
g1688
sg1649
g1714
sg1661
g1724
sg1655
g1731
sg1659
g1744
sg1667
(dp1750
g58
I1
ssg1675
(dp1751
g58
I1
ssg1669
(dp1752
g58
I2
ssg1679
(dp1753
g58
I3
sssg1667
(dp1754
g1645
g1696
sg1665
g1705
sg1661
g1725
sg1673
g1737
sg1663
g1689
sg1657
g1750
sg1675
(dp1755
g58
I6
ssg1669
(dp1756
g58
I1
ssg1647
(dp1757
g58
I2
ssg1679
(dp1758
g58
I5
ssg1671
(dp1759
g58
I1
ssg1653
(dp1760
g58
I4
sssg1675
(dp1761
g1663
g1690
sg1645
g1697
sg1665
g1706
sg1649
g1716
sg1673
g1738
sg1659
g1745
sg1657
g1751
sg1667
g1755
sg1669
(dp1762
g58
I4
ssg1647
(dp1763
g58
I3
ssg1679
(dp1764
g58
I5
ssg1671
(dp1765
g58
I1
ssg1653
(dp1766
g58
I4
sssg1669
(dp1767
g1663
g1691
sg1649
g1717
sg1661
g1726
sg1655
g1732
sg1673
g1739
sg1659
g1746
sg1657
g1752
sg1667
g1756
sg1675
g1762
sg1647
(dp1768
g58
I6
ssg1679
(dp1769
g58
I4
sssg1647
(dp1770
g1645
g1698
sg1649
g1718
sg1661
g1727
sg1673
g1740
sg1659
g1747
sg1665
g1707
sg1667
g1757
sg1675
g1763
sg1669
g1768
sg1679
(dp1771
g58
I2
ssg1671
(dp1772
g58
I2
ssg1653
(dp1773
g58
I1
sssg1679
(dp1774
g1663
g1692
sg1649
g1719
sg1661
g1728
sg1655
g1733
sg1673
g1741
sg1659
g1748
sg1657
g1753
sg1667
g1758
sg1675
g1764
sg1669
g1769
sg1647
g1771
sg1653
(dp1775
g58
I3
sssg1671
(dp1776
g1645
g1699
sg1653
(dp1777
g58
I1
ssg1665
g1708
sg1667
g1759
sg1675
g1765
sg1647
g1772
sg1673
g1742
ssg1653
(dp1778
g1645
g1694
sg1673
g1735
sg1663
g1686
sg1665
g1704
sg1667
g1760
sg1675
g1766
sg1647
g1773
sg1679
g1775
sg1671
g1777
sssg140
(dp1779
g142
S'()'
p1780
ssg144
g51
sg145
g1681
sbsVChina
p1781
g2
(g3
g4
Ntp1782
Rp1783
(dp1784
g8
(dp1785
VAaron
p1786
(dp1787
sVCourtney
p1788
(dp1789
sVDenise
p1790
(dp1791
sVDave
p1792
(dp1793
sVSherea
p1794
(dp1795
sVJean-Robert
p1796
(dp1797
sVAshley
p1798
(dp1799
sVJames
p1800
(dp1801
sVJaime
p1802
(dp1803
sVAmanda
p1804
(dp1805
sVFrosti
p1806
(dp1807
sVPeih-Gee
p1808
(dp1809
sVLeslie
p1810
(dp1811
sVErik
p1812
(dp1813
sVTodd
p1814
(dp1815
sVChicken
p1816
(dp1817
ssg50
g51
sg52
g51
sg53
(dp1818
g1808
(dp1819
g1806
(dp1820
g58
I4
ssg1800
(dp1821
g58
I1
ssg1814
(dp1822
g58
I1
ssg1790
(dp1823
g58
I1
ssg1792
(dp1824
g58
I1
ssg1802
(dp1825
g58
I6
ssg1812
(dp1826
g58
I8
ssg1788
(dp1827
g58
I1
ssg1794
(dp1828
g58
I3
ssg1804
(dp1829
g58
I1
ssg1796
(dp1830
g58
I2
sssg1798
(dp1831
sg1806
(dp1832
g1808
g1820
sg1800
(dp1833
g58
I2
ssg1814
(dp1834
g58
I3
ssg1790
(dp1835
g58
I2
ssg1792
(dp1836
g58
I1
ssg1802
(dp1837
g58
I4
ssg1812
(dp1838
g58
I3
ssg1788
(dp1839
g58
I2
ssg1794
(dp1840
g58
I3
ssg1804
(dp1841
g58
I3
ssg1796
(dp1842
g58
I3
sssg1800
(dp1843
g1808
g1821
sg1806
g1833
sg1796
(dp1844
g58
I2
ssg1814
(dp1845
g58
I4
ssg1790
(dp1846
g58
I4
ssg1786
(dp1847
g58
I1
ssg1812
(dp1848
g58
I1
ssg1788
(dp1849
g58
I3
ssg1804
(dp1850
g58
I4
sssg1814
(dp1851
g1808
g1822
sg1806
g1834
sg1800
g1845
sg1790
(dp1852
g58
I7
ssg1786
(dp1853
g58
I1
ssg1812
(dp1854
g58
I2
ssg1788
(dp1855
g58
I7
ssg1804
(dp1856
g58
I9
ssg1796
(dp1857
g58
I3
sssg1792
(dp1858
g1806
g1836
sg1808
g1824
sg1802
(dp1859
g58
I1
ssg1812
(dp1860
g58
I1
ssg1794
(dp1861
g58
I1
ssg1816
(dp1862
g58
I1
sssg1790
(dp1863
g1806
g1835
sg1800
g1846
sg1814
g1852
sg1808
g1823
sg1786
(dp1864
g58
I1
ssg1812
(dp1865
g58
I2
ssg1788
(dp1866
g58
I5
ssg1804
(dp1867
g58
I7
ssg1796
(dp1868
g58
I3
sssg1786
(dp1869
g1790
g1864
sg1800
g1847
sg1804
(dp1870
g58
I1
ssg1796
(dp1871
g58
I1
ssg1814
g1853
ssg1802
(dp1872
g1806
g1837
sg1808
g1825
sg1792
g1859
sg1812
(dp1873
g58
I5
ssg1794
(dp1874
g58
I3
ssg1796
(dp1875
g58
I1
sssg1810
(dp1876
g1788
(dp1877
g58
I1
sssg1812
(dp1878
g1808
g1826
sg1806
g1838
sg1800
g1848
sg1814
g1854
sg1790
g1865
sg1792
g1860
sg1802
g1873
sg1788
(dp1879
g58
I2
ssg1794
(dp1880
g58
I3
ssg1804
(dp1881
g58
I2
ssg1796
(dp1882
g58
I1
sssg1788
(dp1883
g1808
g1827
sg1806
g1839
sg1800
g1849
sg1790
g1866
sg1810
g1877
sg1812
g1879
sg1814
g1855
sg1794
(dp1884
g58
I1
ssg1804
(dp1885
g58
I7
ssg1796
(dp1886
g58
I1
sssg1794
(dp1887
g1806
g1840
sg1808
g1828
sg1792
g1861
sg1802
g1874
sg1812
g1880
sg1788
g1884
ssg1816
(dp1888
g1792
g1862
ssg1804
(dp1889
g1808
g1829
sg1806
g1841
sg1800
g1850
sg1814
g1856
sg1790
g1867
sg1786
g1870
sg1812
g1881
sg1788
g1885
sg1796
(dp1890
g58
I3
sssg1796
(dp1891
g1808
g1830
sg1806
g1842
sg1800
g1844
sg1814
g1857
sg1790
g1868
sg1786
g1871
sg1802
g1875
sg1812
g1882
sg1788
g1886
sg1804
g1890
sssg140
(dp1892
g142
S'()'
p1893
ssg144
g51
sg145
g1818
sbsVWorlds_Apart
p1894
g2
(g3
g4
Ntp1895
Rp1896
(dp1897
g8
(dp1898
VJoaquin
p1899
(dp1900
sVTyler
p1901
(dp1902
sVSierra
p1903
(dp1904
sVMike
p1905
(dp1906
sVMax
p1907
(dp1908
sVDan
p1909
(dp1910
sVJoe
p1911
(dp1912
sVHali
p1913
(dp1914
sVNina
p1915
(dp1916
sVLindsey
p1917
(dp1918
sVSo
p1919
(dp1920
sVKelly
p1921
(dp1922
sVRodney
p1923
(dp1924
sVWill
p1925
(dp1926
sVCarolyn
p1927
(dp1928
sVJenn
p1929
(dp1930
sVVince
p1931
(dp1932
sVShirin
p1933
(dp1934
ssg50
g51
sg52
g51
sg53
(dp1935
g1915
(dp1936
g1913
(dp1937
g58
I1
ssg1931
(dp1938
g58
I1
sssg1905
(dp1939
g1927
(dp1940
g58
I8
ssg1909
(dp1941
g58
I6
ssg1925
(dp1942
g58
I3
ssg1921
(dp1943
g58
I2
ssg1901
(dp1944
g58
I3
ssg1911
(dp1945
g58
I1
ssg1903
(dp1946
g58
I5
ssg1923
(dp1947
g58
I4
ssg1933
(dp1948
g58
I3
sssg1927
(dp1949
g1905
g1940
sg1921
(dp1950
g58
I2
ssg1907
(dp1951
g58
I3
ssg1909
(dp1952
g58
I3
ssg1925
(dp1953
g58
I7
ssg1913
(dp1954
g58
I3
ssg1899
(dp1955
g58
I2
ssg1901
(dp1956
g58
I7
ssg1911
(dp1957
g58
I3
ssg1929
(dp1958
g58
I3
ssg1903
(dp1959
g58
I4
ssg1923
(dp1960
g58
I4
ssg1933
(dp1961
g58
I4
sssg1917
(dp1962
g1903
(dp1963
g58
I2
ssg1923
(dp1964
g58
I1
sssg1913
(dp1965
g1915
g1937
sg1927
g1954
sg1907
(dp1966
g58
I2
ssg1909
(dp1967
g58
I1
ssg1925
(dp1968
g58
I4
ssg1899
(dp1969
g58
I2
ssg1901
(dp1970
g58
I3
ssg1911
(dp1971
g58
I5
ssg1929
(dp1972
g58
I7
ssg1921
(dp1973
g58
I1
ssg1933
(dp1974
g58
I5
sssg1907
(dp1975
g1927
g1951
sg1925
(dp1976
g58
I2
ssg1899
(dp1977
g58
I2
ssg1901
(dp1978
g58
I3
ssg1911
(dp1979
g58
I2
ssg1929
(dp1980
g58
I2
ssg1913
g1966
sg1933
(dp1981
g58
I4
sssg1909
(dp1982
g1905
g1941
sg1921
(dp1983
g58
I2
ssg1927
g1952
sg1925
(dp1984
g58
I4
ssg1913
g1967
sg1901
(dp1985
g58
I4
ssg1911
(dp1986
g58
I2
ssg1929
(dp1987
g58
I1
ssg1903
(dp1988
g58
I8
ssg1923
(dp1989
g58
I8
ssg1933
(dp1990
g58
I2
sssg1925
(dp1991
g1905
g1942
sg1921
(dp1992
g58
I1
ssg1927
g1953
sg1907
g1976
sg1909
g1984
sg1913
g1968
sg1899
(dp1993
g58
I2
ssg1901
(dp1994
g58
I7
ssg1911
(dp1995
g58
I4
ssg1929
(dp1996
g58
I5
ssg1903
(dp1997
g58
I3
ssg1923
(dp1998
g58
I6
ssg1933
(dp1999
g58
I3
sssg1921
(dp2000
g1905
g1943
sg1927
g1950
sg1909
g1983
sg1925
g1992
sg1913
g1973
sg1901
(dp2001
g58
I1
ssg1929
(dp2002
g58
I1
ssg1903
(dp2003
g58
I1
ssg1923
(dp2004
g58
I2
sssg1899
(dp2005
g1927
g1955
sg1907
g1977
sg1925
g1993
sg1901
(dp2006
g58
I3
ssg1919
(dp2007
g58
I1
ssg1911
(dp2008
g58
I2
ssg1929
(dp2009
g58
I2
ssg1913
g1969
sg1923
(dp2010
g58
I1
ssg1933
(dp2011
g58
I2
sssg1901
(dp2012
g1905
g1944
sg1921
g2001
sg1927
g1956
sg1907
g1978
sg1909
g1985
sg1925
g1994
sg1913
g1970
sg1899
g2006
sg1911
(dp2013
g58
I4
ssg1929
(dp2014
g58
I3
ssg1903
(dp2015
g58
I2
ssg1923
(dp2016
g58
I4
ssg1933
(dp2017
g58
I5
sssg1919
(dp2018
g1899
g2007
ssg1911
(dp2019
g1905
g1945
sg1927
g1957
sg1907
g1979
sg1909
g1986
sg1925
g1995
sg1913
g1971
sg1899
g2008
sg1901
g2013
sg1929
(dp2020
g58
I6
ssg1903
(dp2021
g58
I1
ssg1933
(dp2022
g58
I5
sssg1929
(dp2023
g1927
g1958
sg1907
g1980
sg1909
g1987
sg1925
g1996
sg1921
g2002
sg1899
g2009
sg1901
g2014
sg1911
g2020
sg1913
g1972
sg1933
(dp2024
g58
I5
sssg1903
(dp2025
g1905
g1946
sg1927
g1959
sg1917
g1963
sg1909
g1988
sg1925
g1997
sg1901
g2015
sg1911
g2021
sg1921
g2003
sg1923
(dp2026
g58
I8
ssg1933
(dp2027
g58
I1
sssg1923
(dp2028
g1905
g1947
sg1927
g1960
sg1917
g1964
sg1909
g1989
sg1925
g1998
sg1921
g2004
sg1899
g2010
sg1901
g2016
sg1903
g2026
sg1933
(dp2029
g58
I1
sssg1931
(dp2030
g1915
g1938
ssg1933
(dp2031
g1905
g1948
sg1927
g1961
sg1907
g1981
sg1909
g1990
sg1925
g1999
sg1913
g1974
sg1899
g2011
sg1901
g2017
sg1911
g2022
sg1929
g2024
sg1903
g2027
sg1923
g2029
sssg140
(dp2032
g142
S'()'
p2033
ssg144
g51
sg145
g1935
sbsVThailand
p2034
g2
(g3
g4
Ntp2035
Rp2036
(dp2037
g8
(dp2038
VJan
p2039
(dp2040
sVBrian
p2041
(dp2042
sVTanya
p2043
(dp2044
sVJed
p2045
(dp2046
sVJohn
p2047
(dp2048
sVRobb
p2049
(dp2050
sVKen
p2051
(dp2052
sVJake
p2053
(dp2054
sVHelen
p2055
(dp2056
sVGhandia
p2057
(dp2058
sVClay
p2059
(dp2060
sVShii Ann
p2061
(dp2062
sVStephanie
p2063
(dp2064
sVPenny
p2065
(dp2066
sVTed
p2067
(dp2068
sVErin
p2069
(dp2070
ssg50
g51
sg52
g51
sg53
(dp2071
g2051
(dp2072
g2069
(dp2073
g58
I5
ssg2061
(dp2074
g58
I3
ssg2053
(dp2075
g58
I6
ssg2065
(dp2076
g58
I7
sssg2065
(dp2077
g2069
(dp2078
g58
I5
ssg2051
g2076
sg2061
(dp2079
g58
I3
ssg2053
(dp2080
g58
I6
ssg2059
(dp2081
g58
I1
sssg2063
(dp2082
g2049
(dp2083
g58
I2
ssg2045
(dp2084
g58
I1
sssg2059
(dp2085
g2065
g2081
sg2067
(dp2086
g58
I5
ssg2039
(dp2087
g58
I6
ssg2041
(dp2088
g58
I7
ssg2043
(dp2089
g58
I1
ssg2055
(dp2090
g58
I5
ssg2057
(dp2091
g58
I1
sssg2067
(dp2092
g2053
(dp2093
g58
I1
ssg2059
g2086
sg2039
(dp2094
g58
I6
ssg2041
(dp2095
g58
I6
ssg2043
(dp2096
g58
I1
ssg2055
(dp2097
g58
I6
ssg2057
(dp2098
g58
I1
sssg2049
(dp2099
g2063
g2083
sg2045
(dp2100
g58
I1
sssg2039
(dp2101
g2053
(dp2102
g58
I1
ssg2059
g2087
sg2067
g2094
sg2041
(dp2103
g58
I7
ssg2043
(dp2104
g58
I1
ssg2055
(dp2105
g58
I6
ssg2057
(dp2106
g58
I2
sssg2041
(dp2107
g2059
g2088
sg2067
g2095
sg2039
g2103
sg2043
(dp2108
g58
I1
ssg2055
(dp2109
g58
I6
ssg2057
(dp2110
g58
I1
sssg2043
(dp2111
g2039
g2104
sg2041
g2108
sg2067
g2096
sg2057
(dp2112
g58
I2
ssg2059
g2089
ssg2053
(dp2113
g2051
g2075
sg2065
g2080
sg2067
g2093
sg2039
g2102
sg2055
(dp2114
g58
I1
ssg2061
(dp2115
g58
I3
ssg2069
(dp2116
g58
I4
sssg2045
(dp2117
g2063
g2084
sg2049
g2100
ssg2055
(dp2118
g2039
g2105
sg2041
g2109
sg2053
g2114
sg2067
g2097
sg2059
g2090
ssg2061
(dp2119
g2069
(dp2120
g58
I3
ssg2051
g2074
sg2053
g2115
sg2065
g2079
ssg2047
(dp2121
sg2069
(dp2122
g2051
g2073
sg2061
g2120
sg2053
g2116
sg2065
g2078
ssg2057
(dp2123
g2039
g2106
sg2041
g2110
sg2043
g2112
sg2067
g2098
sg2059
g2091
sssg140
(dp2124
g142
S'()'
p2125
ssg144
g51
sg145
g2071
sbsVThe_Amazon
p2126
g2
(g3
g4
Ntp2127
Rp2128
(dp2129
g8
(dp2130
VButch
p2131
(dp2132
sVMatthew
p2133
(dp2134
sVDaniel
p2135
(dp2136
sVShawna
p2137
(dp2138
sVJanet
p2139
(dp2140
sVDave
p2141
(dp2142
sVChristy
p2143
(dp2144
sVDeena
p2145
(dp2146
sVJeanne
p2147
(dp2148
sVAlex
p2149
(dp2150
sVRyan
p2151
(dp2152
sVRoger
p2153
(dp2154
sVHeidi
p2155
(dp2156
sVRob
p2157
(dp2158
sVJoanna
p2159
(dp2160
sVJenna
p2161
(dp2162
ssg50
g51
sg52
g51
sg53
(dp2163
g2137
(dp2164
g2145
(dp2165
g58
I1
ssg2149
(dp2166
g58
I1
ssg2161
(dp2167
g58
I1
ssg2155
(dp2168
g58
I1
ssg2147
(dp2169
g58
I1
sssg2131
(dp2170
g2149
(dp2171
g58
I4
ssg2157
(dp2172
g58
I6
ssg2133
(dp2173
g58
I5
ssg2141
(dp2174
g58
I3
ssg2153
(dp2175
g58
I4
ssg2155
(dp2176
g58
I3
ssg2143
(dp2177
g58
I3
ssg2145
(dp2178
g58
I1
ssg2161
(dp2179
g58
I2
sssg2149
(dp2180
g2137
g2166
sg2131
g2171
sg2157
(dp2181
g58
I6
ssg2133
(dp2182
g58
I4
ssg2141
(dp2183
g58
I2
ssg2153
(dp2184
g58
I2
ssg2155
(dp2185
g58
I5
ssg2143
(dp2186
g58
I3
ssg2145
(dp2187
g58
I3
ssg2161
(dp2188
g58
I4
sssg2139
(dp2189
sg2157
(dp2190
g2131
g2172
sg2149
g2181
sg2133
(dp2191
g58
I9
ssg2141
(dp2192
g58
I2
ssg2153
(dp2193
g58
I2
ssg2155
(dp2194
g58
I5
ssg2143
(dp2195
g58
I4
ssg2145
(dp2196
g58
I4
ssg2161
(dp2197
g58
I6
sssg2151
(dp2198
g2133
(dp2199
g58
I1
ssg2135
(dp2200
g58
I1
sssg2133
(dp2201
g2131
g2173
sg2149
g2182
sg2157
g2191
sg2151
g2199
sg2141
(dp2202
g58
I1
ssg2135
(dp2203
g58
I1
ssg2153
(dp2204
g58
I1
ssg2155
(dp2205
g58
I4
ssg2143
(dp2206
g58
I3
ssg2145
(dp2207
g58
I3
ssg2161
(dp2208
g58
I6
sssg2141
(dp2209
g2131
g2174
sg2149
g2183
sg2157
g2192
sg2133
g2202
sg2153
(dp2210
g58
I3
ssg2155
(dp2211
g58
I2
ssg2143
(dp2212
g58
I1
ssg2145
(dp2213
g58
I1
sssg2135
(dp2214
g2133
g2203
sg2151
g2200
ssg2153
(dp2215
g2131
g2175
sg2149
g2184
sg2157
g2193
sg2133
g2204
sg2141
g2210
sg2155
(dp2216
g58
I1
sssg2159
(dp2217
g2147
(dp2218
g58
I1
sssg2155
(dp2219
g2137
g2168
sg2131
g2176
sg2149
g2185
sg2157
g2194
sg2133
g2205
sg2141
g2211
sg2153
g2216
sg2143
(dp2220
g58
I4
ssg2145
(dp2221
g58
I5
ssg2161
(dp2222
g58
I8
ssg2147
(dp2223
g58
I1
sssg2143
(dp2224
g2131
g2177
sg2149
g2186
sg2157
g2195
sg2133
g2206
sg2141
g2212
sg2155
g2220
sg2145
(dp2225
g58
I5
ssg2161
(dp2226
g58
I3
ssg2147
(dp2227
g58
I1
sssg2145
(dp2228
g2137
g2165
sg2131
g2178
sg2149
g2187
sg2157
g2196
sg2133
g2207
sg2141
g2213
sg2155
g2221
sg2143
g2225
sg2161
(dp2229
g58
I5
ssg2147
(dp2230
g58
I1
sssg2161
(dp2231
g2137
g2167
sg2131
g2179
sg2149
g2188
sg2157
g2197
sg2133
g2208
sg2155
g2222
sg2143
g2226
sg2145
g2229
sg2147
(dp2232
g58
I1
sssg2147
(dp2233
g2137
g2169
sg2159
g2218
sg2155
g2223
sg2143
g2227
sg2145
g2230
sg2161
g2232
sssg140
(dp2234
g142
S'()'
p2235
ssg144
g51
sg145
g2163
sbsVCagayan
p2236
g2
(g3
g4
Ntp2237
Rp2238
(dp2239
g8
(dp2240
VSarah
p2241
(dp2242
sVTrish
p2243
(dp2244
sVGarrett
p2245
(dp2246
sVWoo
p2247
(dp2248
sVBrice
p2249
(dp2250
sVJ'Tia
p2251
(dp2252
sVJeremiah
p2253
(dp2254
sVTasha
p2255
(dp2256
sVLJ
p2257
(dp2258
sVKass
p2259
(dp2260
sVCliff
p2261
(dp2262
sVJefra
p2263
(dp2264
sVAlexis
p2265
(dp2266
sVDavid
p2267
(dp2268
sVLindsey
p2269
(dp2270
sVMorgan
p2271
(dp2272
sVSpencer
p2273
(dp2274
sVTony
p2275
(dp2276
ssg50
g51
sg52
g51
sg53
(dp2277
g2241
(dp2278
g2263
(dp2279
g58
I1
ssg2243
(dp2280
g58
I1
ssg2253
(dp2281
g58
I3
ssg2255
(dp2282
g58
I2
ssg2257
(dp2283
g58
I1
ssg2259
(dp2284
g58
I2
ssg2271
(dp2285
g58
I3
ssg2273
(dp2286
g58
I3
sssg2263
(dp2287
g2241
g2279
sg2243
(dp2288
g58
I9
ssg2253
(dp2289
g58
I2
ssg2257
(dp2290
g58
I7
ssg2259
(dp2291
g58
I6
ssg2247
(dp2292
g58
I5
ssg2265
(dp2293
g58
I1
ssg2271
(dp2294
g58
I1
ssg2275
(dp2295
g58
I6
ssg2273
(dp2296
g58
I1
sssg2243
(dp2297
g2241
g2280
sg2263
g2288
sg2253
(dp2298
g58
I1
ssg2257
(dp2299
g58
I6
ssg2259
(dp2300
g58
I7
ssg2247
(dp2301
g58
I6
ssg2271
(dp2302
g58
I1
ssg2275
(dp2303
g58
I7
ssg2273
(dp2304
g58
I1
sssg2253
(dp2305
g2241
g2281
sg2263
g2289
sg2243
g2298
sg2255
(dp2306
g58
I5
ssg2257
(dp2307
g58
I3
ssg2259
(dp2308
g58
I2
ssg2247
(dp2309
g58
I1
ssg2271
(dp2310
g58
I4
ssg2275
(dp2311
g58
I1
ssg2273
(dp2312
g58
I6
sssg2255
(dp2313
g2241
g2282
sg2253
g2306
sg2245
(dp2314
g58
I1
ssg2259
(dp2315
g58
I3
ssg2251
(dp2316
g58
I2
ssg2247
(dp2317
g58
I2
ssg2271
(dp2318
g58
I3
ssg2275
(dp2319
g58
I2
ssg2273
(dp2320
g58
I8
sssg2245
(dp2321
g2255
g2314
sg2251
(dp2322
g58
I1
ssg2273
(dp2323
g58
I2
sssg2257
(dp2324
g2241
g2283
sg2263
g2290
sg2243
g2299
sg2253
g2307
sg2259
(dp2325
g58
I3
ssg2247
(dp2326
g58
I4
ssg2271
(dp2327
g58
I1
ssg2275
(dp2328
g58
I5
ssg2273
(dp2329
g58
I1
sssg2259
(dp2330
g2241
g2284
sg2263
g2291
sg2243
g2300
sg2253
g2308
sg2255
g2315
sg2257
g2325
sg2267
(dp2331
g58
I1
ssg2251
(dp2332
g58
I1
ssg2247
(dp2333
g58
I6
ssg2271
(dp2334
g58
I2
ssg2275
(dp2335
g58
I6
ssg2273
(dp2336
g58
I4
sssg2267
(dp2337
g2259
g2331
ssg2251
(dp2338
g2255
g2316
sg2245
g2322
sg2273
(dp2339
g58
I1
ssg2259
g2332
ssg2247
(dp2340
g2263
g2292
sg2243
g2301
sg2253
g2309
sg2255
g2317
sg2257
g2326
sg2259
g2333
sg2269
(dp2341
g58
I1
ssg2275
(dp2342
g58
I10
ssg2273
(dp2343
g58
I3
ssg2261
(dp2344
g58
I1
sssg2269
(dp2345
g2247
g2341
sg2261
(dp2346
g58
I1
sssg2249
(dp2347
g2265
(dp2348
g58
I1
ssg2271
(dp2349
g58
I2
sssg2265
(dp2350
g2263
g2293
sg2249
g2348
sg2271
(dp2351
g58
I1
sssg2271
(dp2352
g2241
g2285
sg2263
g2294
sg2243
g2302
sg2253
g2310
sg2255
g2318
sg2257
g2327
sg2259
g2334
sg2249
g2349
sg2265
g2351
sg2273
(dp2353
g58
I4
sssg2275
(dp2354
g2263
g2295
sg2243
g2303
sg2253
g2311
sg2255
g2319
sg2257
g2328
sg2259
g2335
sg2247
g2342
sg2273
(dp2355
g58
I3
sssg2273
(dp2356
g2241
g2286
sg2263
g2296
sg2243
g2304
sg2253
g2312
sg2255
g2320
sg2245
g2323
sg2257
g2329
sg2259
g2336
sg2251
g2339
sg2247
g2343
sg2271
g2353
sg2275
g2355
ssg2261
(dp2357
g2247
g2344
sg2269
g2346
sssg140
(dp2358
g142
S'()'
p2359
ssg144
g51
sg145
g2277
sbsVSouth_Pacific
p2360
g2
(g3
g4
Ntp2361
Rp2362
(dp2363
g8
(dp2364
VOzzy
p2365
(dp2366
sVJim
p2367
(dp2368
sVBrandon
p2369
(dp2370
sVRick
p2371
(dp2372
sVAlbert
p2373
(dp2374
sVCochran
p2375
(dp2376
sVWhitney
p2377
(dp2378
sVKeith
p2379
(dp2380
sVChristine
p2381
(dp2382
sVSemhar
p2383
(dp2384
sVSophie
p2385
(dp2386
sVMark
p2387
(dp2388
sVStacey
p2389
(dp2390
sVCoach
p2391
(dp2392
sVEdna
p2393
(dp2394
sVElyse
p2395
(dp2396
sVMikayla
p2397
(dp2398
sVDawn
p2399
(dp2400
ssg50
g51
sg52
g51
sg53
(dp2401
g2365
(dp2402
g2393
(dp2403
g58
I1
ssg2395
(dp2404
g58
I3
ssg2367
(dp2405
g58
I6
ssg2369
(dp2406
g58
I1
ssg2375
(dp2407
g58
I4
ssg2377
(dp2408
g58
I6
ssg2399
(dp2409
g58
I7
ssg2387
(dp2410
g58
I1
ssg2379
(dp2411
g58
I6
ssg2371
(dp2412
g58
I1
sssg2389
(dp2413
g2381
(dp2414
g58
I1
sssg2391
(dp2415
g2393
(dp2416
g58
I8
ssg2397
(dp2417
g58
I2
ssg2373
(dp2418
g58
I12
ssg2369
(dp2419
g58
I11
ssg2375
(dp2420
g58
I5
ssg2371
(dp2421
g58
I10
ssg2385
(dp2422
g58
I12
ssg2399
(dp2423
g58
I1
ssg2377
(dp2424
g58
I1
sssg2383
(dp2425
g2381
(dp2426
g58
I1
sssg2381
(dp2427
g2395
(dp2428
g58
I1
ssg2389
g2414
sg2383
g2426
sg2397
(dp2429
g58
I1
ssg2387
(dp2430
g58
I1
sssg2393
(dp2431
g2365
g2403
sg2391
g2416
sg2397
(dp2432
g58
I1
ssg2373
(dp2433
g58
I7
ssg2369
(dp2434
g58
I8
ssg2375
(dp2435
g58
I7
ssg2371
(dp2436
g58
I9
ssg2385
(dp2437
g58
I8
ssg2399
(dp2438
g58
I1
ssg2377
(dp2439
g58
I1
sssg2395
(dp2440
g2365
g2404
sg2381
g2428
sg2367
(dp2441
g58
I1
ssg2387
(dp2442
g58
I1
ssg2375
(dp2443
g58
I2
ssg2377
(dp2444
g58
I2
ssg2399
(dp2445
g58
I2
ssg2379
(dp2446
g58
I2
sssg2397
(dp2447
g2391
g2417
sg2381
g2429
sg2393
g2432
sg2373
(dp2448
g58
I3
ssg2369
(dp2449
g58
I2
ssg2371
(dp2450
g58
I1
ssg2385
(dp2451
g58
I2
sssg2373
(dp2452
g2391
g2418
sg2393
g2433
sg2397
g2448
sg2369
(dp2453
g58
I11
ssg2375
(dp2454
g58
I5
ssg2371
(dp2455
g58
I8
ssg2385
(dp2456
g58
I12
ssg2399
(dp2457
g58
I1
ssg2377
(dp2458
g58
I1
sssg2369
(dp2459
g2365
g2406
sg2391
g2419
sg2393
g2434
sg2367
(dp2460
g58
I1
ssg2373
g2453
sg2375
(dp2461
g58
I5
ssg2371
(dp2462
g58
I9
ssg2385
(dp2463
g58
I9
ssg2379
(dp2464
g58
I1
ssg2399
(dp2465
g58
I2
ssg2397
g2449
sg2377
(dp2466
g58
I2
sssg2367
(dp2467
g2365
g2405
sg2395
g2441
sg2369
g2460
sg2375
(dp2468
g58
I4
ssg2377
(dp2469
g58
I6
ssg2399
(dp2470
g58
I7
ssg2387
(dp2471
g58
I1
ssg2379
(dp2472
g58
I5
sssg2375
(dp2473
g2365
g2407
sg2391
g2420
sg2393
g2435
sg2395
g2443
sg2367
g2468
sg2373
g2454
sg2369
g2461
sg2371
(dp2474
g58
I5
ssg2385
(dp2475
g58
I5
ssg2387
(dp2476
g58
I1
ssg2379
(dp2477
g58
I4
ssg2399
(dp2478
g58
I6
ssg2377
(dp2479
g58
I5
sssg2371
(dp2480
g2365
g2412
sg2391
g2421
sg2393
g2436
sg2373
g2455
sg2369
g2462
sg2375
g2474
sg2377
(dp2481
g58
I1
ssg2385
(dp2482
g58
I10
ssg2379
(dp2483
g58
I1
ssg2399
(dp2484
g58
I1
ssg2397
g2450
ssg2385
(dp2485
g2391
g2422
sg2393
g2437
sg2397
g2451
sg2373
g2456
sg2369
g2463
sg2375
g2475
sg2371
g2482
sg2399
(dp2486
g58
I1
ssg2377
(dp2487
g58
I1
sssg2387
(dp2488
g2365
g2410
sg2381
g2430
sg2395
g2442
sg2367
g2471
sg2375
g2476
sg2377
(dp2489
g58
I1
ssg2399
(dp2490
g58
I1
ssg2379
(dp2491
g58
I1
sssg2379
(dp2492
g2365
g2411
sg2395
g2446
sg2367
g2472
sg2369
g2464
sg2375
g2477
sg2377
(dp2493
g58
I6
ssg2399
(dp2494
g58
I5
ssg2387
g2491
sg2371
g2483
ssg2399
(dp2495
g2365
g2409
sg2391
g2423
sg2393
g2438
sg2395
g2445
sg2367
g2470
sg2373
g2457
sg2369
g2465
sg2375
g2478
sg2371
g2484
sg2385
g2486
sg2387
g2490
sg2379
g2494
sg2377
(dp2496
g58
I10
sssg2377
(dp2497
g2365
g2408
sg2391
g2424
sg2393
g2439
sg2395
g2444
sg2367
g2469
sg2373
g2458
sg2369
g2466
sg2375
g2479
sg2371
g2481
sg2385
g2487
sg2387
g2489
sg2379
g2493
sg2399
g2496
sssg140
(dp2498
g142
S'()'
p2499
ssg144
g51
sg145
g2401
sbsVOne_World
p2500
g2
(g3
g4
Ntp2501
Rp2502
(dp2503
g8
(dp2504
VMatt
p2505
(dp2506
sVJay
p2507
(dp2508
sVLeif
p2509
(dp2510
sVMonica
p2511
(dp2512
sVAlicia
p2513
(dp2514
sVTarzan
p2515
(dp2516
sVJonas
p2517
(dp2518
sVKim
p2519
(dp2520
sVKat
p2521
(dp2522
sVSabrina
p2523
(dp2524
sVChristina
p2525
(dp2526
sVColton
p2527
(dp2528
sVBill
p2529
(dp2530
sVMichael
p2531
(dp2532
sVKourtney
p2533
(dp2534
sVNina
p2535
(dp2536
sVTroyzan
p2537
(dp2538
sVChelsea
p2539
(dp2540
ssg50
g51
sg52
g51
sg53
(dp2541
g2511
(dp2542
g2525
(dp2543
g58
I1
sssg2525
(dp2544
g2511
g2543
sg2507
(dp2545
g58
I2
ssg2513
(dp2546
g58
I9
ssg2531
(dp2547
g58
I2
ssg2537
(dp2548
g58
I1
ssg2515
(dp2549
g58
I4
ssg2517
(dp2550
g58
I1
ssg2519
(dp2551
g58
I6
ssg2521
(dp2552
g58
I3
ssg2539
(dp2553
g58
I4
ssg2523
(dp2554
g58
I5
sssg2529
(dp2555
g2527
(dp2556
g58
I1
ssg2507
(dp2557
g58
I1
ssg2537
(dp2558
g58
I1
ssg2515
(dp2559
g58
I1
ssg2517
(dp2560
g58
I1
ssg2509
(dp2561
g58
I1
sssg2507
(dp2562
g2525
g2545
sg2529
g2557
sg2527
(dp2563
g58
I2
ssg2509
(dp2564
g58
I4
ssg2513
(dp2565
g58
I2
ssg2531
(dp2566
g58
I3
ssg2537
(dp2567
g58
I4
ssg2515
(dp2568
g58
I4
ssg2517
(dp2569
g58
I3
ssg2519
(dp2570
g58
I2
ssg2521
(dp2571
g58
I3
ssg2539
(dp2572
g58
I2
ssg2523
(dp2573
g58
I2
sssg2509
(dp2574
g2529
g2561
sg2507
g2564
sg2527
(dp2575
g58
I3
ssg2513
(dp2576
g58
I1
ssg2531
(dp2577
g58
I1
ssg2537
(dp2578
g58
I5
ssg2515
(dp2579
g58
I3
ssg2517
(dp2580
g58
I4
ssg2519
(dp2581
g58
I1
ssg2521
(dp2582
g58
I1
ssg2539
(dp2583
g58
I1
ssg2523
(dp2584
g58
I1
sssg2527
(dp2585
g2529
g2556
sg2507
g2563
sg2513
(dp2586
g58
I1
ssg2531
(dp2587
g58
I1
ssg2537
(dp2588
g58
I2
ssg2515
(dp2589
g58
I3
ssg2517
(dp2590
g58
I3
ssg2509
g2575
ssg2513
(dp2591
g2525
g2546
sg2507
g2565
sg2509
g2576
sg2527
g2586
sg2531
(dp2592
g58
I2
ssg2537
(dp2593
g58
I1
ssg2515
(dp2594
g58
I5
ssg2517
(dp2595
g58
I2
ssg2519
(dp2596
g58
I7
ssg2521
(dp2597
g58
I4
ssg2539
(dp2598
g58
I5
ssg2523
(dp2599
g58
I5
sssg2531
(dp2600
g2525
g2547
sg2507
g2566
sg2509
g2577
sg2527
g2587
sg2513
g2592
sg2537
(dp2601
g58
I2
ssg2515
(dp2602
g58
I4
ssg2517
(dp2603
g58
I2
ssg2519
(dp2604
g58
I1
ssg2521
(dp2605
g58
I2
ssg2539
(dp2606
g58
I1
ssg2523
(dp2607
g58
I1
sssg2537
(dp2608
g2525
g2548
sg2529
g2558
sg2507
g2567
sg2509
g2578
sg2527
g2588
sg2513
g2593
sg2531
g2601
sg2515
(dp2609
g58
I4
ssg2517
(dp2610
g58
I2
ssg2519
(dp2611
g58
I2
ssg2521
(dp2612
g58
I2
ssg2539
(dp2613
g58
I2
ssg2523
(dp2614
g58
I3
sssg2533
(dp2615
sg2535
(dp2616
sg2515
(dp2617
g2525
g2549
sg2529
g2559
sg2507
g2568
sg2509
g2579
sg2527
g2589
sg2513
g2594
sg2531
g2602
sg2537
g2609
sg2517
(dp2618
g58
I4
ssg2519
(dp2619
g58
I3
ssg2521
(dp2620
g58
I3
ssg2539
(dp2621
g58
I3
ssg2523
(dp2622
g58
I5
sssg2517
(dp2623
g2525
g2550
sg2529
g2560
sg2507
g2569
sg2527
g2590
sg2513
g2595
sg2531
g2603
sg2515
g2618
sg2537
g2610
sg2521
(dp2624
g58
I1
ssg2509
g2580
ssg2519
(dp2625
g2525
g2551
sg2507
g2570
sg2509
g2581
sg2513
g2596
sg2531
g2604
sg2537
g2611
sg2515
g2619
sg2521
(dp2626
g58
I4
ssg2539
(dp2627
g58
I8
ssg2523
(dp2628
g58
I8
sssg2521
(dp2629
g2525
g2552
sg2507
g2571
sg2509
g2582
sg2513
g2597
sg2531
g2605
sg2537
g2612
sg2515
g2620
sg2517
g2624
sg2519
g2626
sg2539
(dp2630
g58
I6
ssg2523
(dp2631
g58
I4
sssg2505
(dp2632
sg2539
(dp2633
g2525
g2553
sg2507
g2572
sg2513
g2598
sg2531
g2606
sg2537
g2613
sg2515
g2621
sg2519
g2627
sg2521
g2630
sg2509
g2583
sg2523
(dp2634
g58
I8
sssg2523
(dp2635
g2525
g2554
sg2507
g2573
sg2509
g2584
sg2513
g2599
sg2531
g2607
sg2537
g2614
sg2515
g2622
sg2519
g2628
sg2521
g2631
sg2539
g2634
sssg140
(dp2636
g142
S'()'
p2637
ssg144
g51
sg145
g2541
sbsVPhilippines
p2638
g2
(g3
g4
Ntp2639
Rp2640
(dp2641
g8
(dp2642
VPete
p2643
(dp2644
sVRussell
p2645
(dp2646
sVZane
p2647
(dp2648
sVR.C.
p2649
(dp2650
sVRoxanne
p2651
(dp2652
sVJonathan
p2653
(dp2654
sVArtis
p2655
(dp2656
sVAbi-Maria
p2657
(dp2658
sVMichael
p2659
(dp2660
sVLisa
p2661
(dp2662
sVDana
p2663
(dp2664
sVCarter
p2665
(dp2666
sVJeff
p2667
(dp2668
sVMalcolm
p2669
(dp2670
sVDenise
p2671
(dp2672
sVDawson
p2673
(dp2674
sVAngie
p2675
(dp2676
sVKatie
p2677
(dp2678
ssg50
g51
sg52
g51
sg53
(dp2679
g2643
(dp2680
g2655
(dp2681
g58
I4
ssg2665
(dp2682
g58
I1
ssg2667
(dp2683
g58
I2
ssg2669
(dp2684
g58
I1
ssg2659
(dp2685
g58
I1
ssg2661
(dp2686
g58
I2
ssg2657
(dp2687
g58
I4
ssg2653
(dp2688
g58
I1
sssg2655
(dp2689
g2643
g2681
sg2665
(dp2690
g58
I1
ssg2667
(dp2691
g58
I2
ssg2669
(dp2692
g58
I1
ssg2659
(dp2693
g58
I1
ssg2661
(dp2694
g58
I2
ssg2657
(dp2695
g58
I3
ssg2653
(dp2696
g58
I1
sssg2675
(dp2697
g2671
(dp2698
g58
I2
ssg2669
(dp2699
g58
I2
ssg2645
(dp2700
g58
I2
ssg2651
(dp2701
g58
I1
sssg2665
(dp2702
g2643
g2682
sg2655
g2690
sg2667
(dp2703
g58
I4
ssg2669
(dp2704
g58
I3
ssg2659
(dp2705
g58
I1
ssg2671
(dp2706
g58
I4
ssg2657
(dp2707
g58
I1
ssg2653
(dp2708
g58
I5
ssg2677
(dp2709
g58
I1
sssg2667
(dp2710
g2643
g2683
sg2655
g2691
sg2665
g2703
sg2669
(dp2711
g58
I2
ssg2671
(dp2712
g58
I3
ssg2657
(dp2713
g58
I1
ssg2653
(dp2714
g58
I3
ssg2677
(dp2715
g58
I1
sssg2647
(dp2716
sg2669
(dp2717
g2643
g2684
sg2655
g2692
sg2675
g2699
sg2665
g2704
sg2667
g2711
sg2659
(dp2718
g58
I5
ssg2671
(dp2719
g58
I10
ssg2651
(dp2720
g58
I1
ssg2661
(dp2721
g58
I4
ssg2657
(dp2722
g58
I3
ssg2653
(dp2723
g58
I3
ssg2645
(dp2724
g58
I3
sssg2649
(dp2725
g2653
(dp2726
g58
I1
sssg2659
(dp2727
g2643
g2685
sg2655
g2693
sg2665
g2705
sg2669
g2718
sg2671
(dp2728
g58
I7
ssg2661
(dp2729
g58
I7
ssg2657
(dp2730
g58
I3
ssg2653
(dp2731
g58
I1
sssg2671
(dp2732
g2675
g2698
sg2665
g2706
sg2667
g2712
sg2669
g2719
sg2659
g2728
sg2651
(dp2733
g58
I1
ssg2661
(dp2734
g58
I6
ssg2657
(dp2735
g58
I2
ssg2653
(dp2736
g58
I3
ssg2645
(dp2737
g58
I3
ssg2677
(dp2738
g58
I1
sssg2663
(dp2739
sg2651
(dp2740
g2671
g2733
sg2669
g2720
sg2675
g2701
sg2645
(dp2741
g58
I1
sssg2661
(dp2742
g2643
g2686
sg2655
g2694
sg2669
g2721
sg2659
g2729
sg2671
g2734
sg2657
(dp2743
g58
I4
sssg2657
(dp2744
g2643
g2687
sg2655
g2695
sg2665
g2707
sg2667
g2713
sg2669
g2722
sg2659
g2730
sg2671
g2735
sg2661
g2743
sg2653
(dp2745
g58
I2
sssg2653
(dp2746
g2643
g2688
sg2655
g2696
sg2665
g2708
sg2667
g2714
sg2669
g2723
sg2649
g2726
sg2659
g2731
sg2671
g2736
sg2657
g2745
sg2677
(dp2747
g58
I1
sssg2673
(dp2748
sg2645
(dp2749
g2671
g2737
sg2669
g2724
sg2675
g2700
sg2651
g2741
ssg2677
(dp2750
g2671
g2738
sg2653
g2747
sg2665
g2709
sg2667
g2715
sssg140
(dp2751
g142
S'()'
p2752
ssg144
g51
sg145
g2679
sbsVCaramoan
p2753
g2
(g3
g4
Ntp2754
Rp2755
(dp2756
g8
(dp2757
V Shamar
p2758
(dp2759
sV Andrea
p2760
(dp2761
sV Cochran
p2762
(dp2763
sV Reynold
p2764
(dp2765
sV Michael
p2766
(dp2767
sV Phillip
p2768
(dp2769
sV Corinne
p2770
(dp2771
sV Malcolm
p2772
(dp2773
sV Brenda
p2774
(dp2775
sV Julia
p2776
(dp2777
sV Eddie
p2778
(dp2779
sV Laura
p2780
(dp2781
sV Erik
p2782
(dp2783
sV Francesca
p2784
(dp2785
sV Dawn
p2786
(dp2787
sV Allie
p2788
(dp2789
sV Brandon
p2790
(dp2791
sV Matt
p2792
(dp2793
sV Sherri
p2794
(dp2795
sV Hope
p2796
(dp2797
ssg50
g51
sg52
g51
sg53
(dp2798
g2790
(dp2799
g2784
(dp2800
g58
I1
ssg2782
(dp2801
g58
I1
ssg2774
(dp2802
g58
I1
sssg2796
(dp2803
g2778
(dp2804
g58
I3
ssg2788
(dp2805
g58
I1
ssg2764
(dp2806
g58
I2
ssg2758
(dp2807
g58
I1
sssg2766
(dp2808
g2792
(dp2809
g58
I5
ssg2764
(dp2810
g58
I4
ssg2768
(dp2811
g58
I1
ssg2774
(dp2812
g58
I1
ssg2794
(dp2813
g58
I3
ssg2758
(dp2814
g58
I2
ssg2776
(dp2815
g58
I4
ssg2778
(dp2816
g58
I4
ssg2780
(dp2817
g58
I2
ssg2782
(dp2818
g58
I1
ssg2760
(dp2819
g58
I1
ssg2786
(dp2820
g58
I1
ssg2770
(dp2821
g58
I2
ssg2772
(dp2822
g58
I2
sssg2772
(dp2823
g2766
g2822
sg2764
(dp2824
g58
I5
ssg2768
(dp2825
g58
I3
ssg2774
(dp2826
g58
I2
ssg2778
(dp2827
g58
I4
ssg2782
(dp2828
g58
I3
ssg2770
(dp2829
g58
I3
ssg2760
(dp2830
g58
I4
ssg2786
(dp2831
g58
I2
ssg2762
(dp2832
g58
I2
sssg2768
(dp2833
g2766
g2811
sg2764
(dp2834
g58
I1
ssg2774
(dp2835
g58
I4
ssg2794
(dp2836
g58
I2
ssg2776
(dp2837
g58
I1
ssg2778
(dp2838
g58
I1
ssg2782
(dp2839
g58
I4
ssg2770
(dp2840
g58
I4
ssg2760
(dp2841
g58
I5
ssg2786
(dp2842
g58
I6
ssg2762
(dp2843
g58
I8
ssg2772
g2825
ssg2774
(dp2844
g2790
g2802
sg2766
g2812
sg2764
(dp2845
g58
I1
ssg2768
g2835
sg2794
(dp2846
g58
I7
ssg2778
(dp2847
g58
I2
ssg2782
(dp2848
g58
I8
ssg2770
(dp2849
g58
I1
ssg2760
(dp2850
g58
I6
ssg2786
(dp2851
g58
I7
ssg2784
(dp2852
g58
I1
ssg2762
(dp2853
g58
I4
ssg2772
g2826
ssg2794
(dp2854
g2766
g2813
sg2764
(dp2855
g58
I1
ssg2768
g2836
sg2774
g2846
sg2776
(dp2856
g58
I4
ssg2780
(dp2857
g58
I3
ssg2778
(dp2858
g58
I2
ssg2792
(dp2859
g58
I3
ssg2782
(dp2860
g58
I4
ssg2760
(dp2861
g58
I4
ssg2786
(dp2862
g58
I8
ssg2762
(dp2863
g58
I5
ssg2758
(dp2864
g58
I1
sssg2784
(dp2865
g2790
g2800
sg2782
(dp2866
g58
I1
ssg2774
g2852
ssg2758
(dp2867
g2766
g2814
sg2794
g2864
sg2776
(dp2868
g58
I1
ssg2778
(dp2869
g58
I1
ssg2780
(dp2870
g58
I1
ssg2796
g2807
sg2792
(dp2871
g58
I2
sssg2776
(dp2872
g2766
g2815
sg2764
(dp2873
g58
I1
ssg2768
g2837
sg2794
g2856
sg2780
(dp2874
g58
I3
ssg2778
(dp2875
g58
I1
ssg2792
(dp2876
g58
I3
ssg2762
(dp2877
g58
I1
ssg2758
g2868
ssg2780
(dp2878
g2794
g2857
sg2766
g2817
sg2758
g2870
sg2776
g2874
sg2792
(dp2879
g58
I2
sssg2778
(dp2880
g2796
g2804
sg2766
g2816
sg2764
(dp2881
g58
I8
ssg2768
g2838
sg2774
g2847
sg2794
g2858
sg2758
g2869
sg2776
g2875
sg2792
(dp2882
g58
I1
ssg2782
(dp2883
g58
I3
ssg2770
(dp2884
g58
I1
ssg2760
(dp2885
g58
I2
ssg2786
(dp2886
g58
I1
ssg2788
(dp2887
g58
I1
ssg2762
(dp2888
g58
I1
ssg2772
g2827
ssg2792
(dp2889
g2766
g2809
sg2764
(dp2890
g58
I1
ssg2794
g2859
sg2776
g2876
sg2778
g2882
sg2780
g2879
sg2758
g2871
ssg2782
(dp2891
g2790
g2801
sg2766
g2818
sg2764
(dp2892
g58
I2
ssg2768
g2839
sg2774
g2848
sg2794
g2860
sg2778
g2883
sg2770
(dp2893
g58
I1
ssg2760
(dp2894
g58
I5
ssg2786
(dp2895
g58
I4
ssg2784
g2866
sg2762
(dp2896
g58
I6
ssg2772
g2828
ssg2770
(dp2897
g2766
g2821
sg2764
(dp2898
g58
I1
ssg2768
g2840
sg2774
g2849
sg2778
g2884
sg2782
g2893
sg2760
(dp2899
g58
I2
ssg2786
(dp2900
g58
I5
ssg2762
(dp2901
g58
I4
ssg2772
g2829
ssg2760
(dp2902
g2766
g2819
sg2764
(dp2903
g58
I2
ssg2768
g2841
sg2774
g2850
sg2794
g2861
sg2778
g2885
sg2782
g2894
sg2770
g2899
sg2786
(dp2904
g58
I6
ssg2762
(dp2905
g58
I5
ssg2772
g2830
ssg2786
(dp2906
g2766
g2820
sg2772
g2831
sg2768
g2842
sg2774
g2851
sg2794
g2862
sg2778
g2886
sg2782
g2895
sg2770
g2900
sg2760
g2904
sg2762
(dp2907
g58
I10
sssg2788
(dp2908
g2778
g2887
sg2764
(dp2909
g58
I1
ssg2796
g2805
ssg2762
(dp2910
g2772
g2832
sg2768
g2843
sg2774
g2853
sg2794
g2863
sg2776
g2877
sg2778
g2888
sg2782
g2896
sg2760
g2905
sg2786
g2907
sg2770
g2901
ssg2764
(dp2911
g2766
g2810
sg2772
g2824
sg2768
g2834
sg2774
g2845
sg2794
g2855
sg2776
g2873
sg2778
g2881
sg2792
g2890
sg2782
g2892
sg2760
g2903
sg2788
g2909
sg2770
g2898
sg2796
g2806
sssg140
(dp2912
g142
S'()'
p2913
ssg144
g51
sg145
g2798
sbsVGabon
p2914
g2
(g3
g4
Ntp2915
Rp2916
(dp2917
g8
(dp2918
VMichelle
p2919
(dp2920
sVSugar
p2921
(dp2922
sVRandy
p2923
(dp2924
sVPaloma
p2925
(dp2926
sVKen
p2927
(dp2928
sVSusie
p2929
(dp2930
sVDan
p2931
(dp2932
sVG.C.
p2933
(dp2934
sVMarcus
p2935
(dp2936
sVAce
p2937
(dp2938
sVCharlie
p2939
(dp2940
sVCrystal
p2941
(dp2942
sVKelly
p2943
(dp2944
sVBob
p2945
(dp2946
sVGillian
p2947
(dp2948
sVCorinne
p2949
(dp2950
sVMatty
p2951
(dp2952
sVJacquie
p2953
(dp2954
ssg50
g51
sg52
g51
sg53
(dp2955
g2927
(dp2956
g2947
(dp2957
g58
I1
ssg2929
(dp2958
g58
I5
ssg2937
(dp2959
g58
I2
ssg2949
(dp2960
g58
I1
ssg2931
(dp2961
g58
I2
ssg2951
(dp2962
g58
I8
ssg2921
(dp2963
g58
I5
ssg2941
(dp2964
g58
I11
ssg2923
(dp2965
g58
I2
ssg2943
(dp2966
g58
I2
ssg2945
(dp2967
g58
I1
ssg2933
(dp2968
g58
I3
sssg2947
(dp2969
g2927
g2957
sg2929
(dp2970
g58
I1
ssg2931
(dp2971
g58
I1
ssg2951
(dp2972
g58
I1
ssg2941
(dp2973
g58
I1
ssg2923
(dp2974
g58
I1
ssg2933
(dp2975
g58
I1
sssg2929
(dp2976
g2927
g2958
sg2947
g2970
sg2941
(dp2977
g58
I6
ssg2939
(dp2978
g58
I1
ssg2931
(dp2979
g58
I2
ssg2951
(dp2980
g58
I8
ssg2921
(dp2981
g58
I5
ssg2949
(dp2982
g58
I1
ssg2923
(dp2983
g58
I2
ssg2945
(dp2984
g58
I3
ssg2933
(dp2985
g58
I2
sssg2937
(dp2986
g2927
g2959
sg2941
(dp2987
g58
I2
ssg2939
(dp2988
g58
I1
ssg2951
(dp2989
g58
I3
ssg2921
(dp2990
g58
I3
ssg2949
(dp2991
g58
I1
ssg2935
(dp2992
g58
I1
ssg2943
(dp2993
g58
I1
ssg2945
(dp2994
g58
I1
ssg2953
(dp2995
g58
I2
sssg2935
(dp2996
g2937
g2992
sg2939
(dp2997
g58
I2
ssg2931
(dp2998
g58
I1
ssg2921
(dp2999
g58
I1
ssg2949
(dp3000
g58
I2
ssg2923
(dp3001
g58
I2
ssg2945
(dp3002
g58
I2
ssg2953
(dp3003
g58
I1
sssg2939
(dp3004
g2935
g2997
sg2929
g2978
sg2937
g2988
sg2921
(dp3005
g58
I1
ssg2949
(dp3006
g58
I4
ssg2923
(dp3007
g58
I2
ssg2945
(dp3008
g58
I3
ssg2953
(dp3009
g58
I1
sssg2931
(dp3010
g2927
g2961
sg2947
g2971
sg2929
g2979
sg2935
g2998
sg2951
(dp3011
g58
I2
ssg2941
(dp3012
g58
I2
ssg2923
(dp3013
g58
I3
ssg2933
(dp3014
g58
I2
sssg2941
(dp3015
g2927
g2964
sg2947
g2973
sg2929
g2977
sg2937
g2987
sg2931
g3012
sg2951
(dp3016
g58
I9
ssg2921
(dp3017
g58
I6
ssg2923
(dp3018
g58
I2
ssg2943
(dp3019
g58
I2
ssg2933
(dp3020
g58
I3
sssg2951
(dp3021
g2927
g2962
sg2947
g2972
sg2929
g2980
sg2937
g2989
sg2931
g3011
sg2921
(dp3022
g58
I7
ssg2941
g3016
sg2923
(dp3023
g58
I2
ssg2943
(dp3024
g58
I2
ssg2945
(dp3025
g58
I2
ssg2933
(dp3026
g58
I3
sssg2921
(dp3027
g2927
g2963
sg2929
g2981
sg2937
g2990
sg2941
g3017
sg2939
g3005
sg2951
g3022
sg2949
(dp3028
g58
I1
ssg2935
g2999
sg2943
(dp3029
g58
I1
ssg2945
(dp3030
g58
I4
ssg2953
(dp3031
g58
I1
sssg2949
(dp3032
g2927
g2960
sg2929
g2982
sg2937
g2991
sg2935
g3000
sg2939
g3006
sg2921
g3028
sg2923
(dp3033
g58
I3
ssg2945
(dp3034
g58
I5
ssg2953
(dp3035
g58
I1
sssg2923
(dp3036
g2927
g2965
sg2947
g2974
sg2929
g2983
sg2941
g3018
sg2939
g3007
sg2931
g3013
sg2951
g3023
sg2949
g3033
sg2935
g3001
sg2945
(dp3037
g58
I2
ssg2933
(dp3038
g58
I2
sssg2919
(dp3039
sg2925
(dp3040
g2943
(dp3041
g58
I1
sssg2943
(dp3042
g2927
g2966
sg2937
g2993
sg2951
g3024
sg2921
g3029
sg2941
g3019
sg2925
g3041
sg2933
(dp3043
g58
I1
sssg2945
(dp3044
g2927
g2967
sg2929
g2984
sg2937
g2994
sg2935
g3002
sg2939
g3008
sg2951
g3025
sg2921
g3030
sg2949
g3034
sg2923
g3037
sg2953
(dp3045
g58
I1
sssg2933
(dp3046
g2927
g2968
sg2947
g2975
sg2929
g2985
sg2931
g3014
sg2951
g3026
sg2941
g3020
sg2923
g3038
sg2943
g3043
ssg2953
(dp3047
g2935
g3003
sg2937
g2995
sg2939
g3009
sg2921
g3031
sg2949
g3035
sg2945
g3045
sssg140
(dp3048
g142
S'()'
p3049
ssg144
g51
sg145
g2955
sbsVMicronesia
p3050
g2
(g3
g4
Ntp3051
Rp3052
(dp3053
g8
(dp3054
VOzzy
p3055
(dp3056
sVParvati
p3057
(dp3058
sVEliza
p3059
(dp3060
sVJonathan
p3061
(dp3062
sVMary
p3063
(dp3064
sVAmi
p3065
(dp3066
sVMikey B.
p3067
(dp3068
sVTracy
p3069
(dp3070
sVJon
p3071
(dp3072
sVKathy
p3073
(dp3074
sVNatalie
p3075
(dp3076
sVJames
p3077
(dp3078
sVJoel
p3079
(dp3080
sVAlexis
p3081
(dp3082
sVAmanda
p3083
(dp3084
sVChet
p3085
(dp3086
sVJason
p3087
(dp3088
sVYau-Man
p3089
(dp3090
sVErik
p3091
(dp3092
sVCirie
p3093
(dp3094
ssg50
g51
sg52
g51
sg53
(dp3095
g3055
(dp3096
g3065
(dp3097
g58
I4
ssg3085
(dp3098
g58
I1
ssg3075
(dp3099
g58
I1
ssg3057
(dp3100
g58
I3
ssg3089
(dp3101
g58
I1
ssg3077
(dp3102
g58
I5
ssg3059
(dp3103
g58
I2
ssg3081
(dp3104
g58
I1
ssg3091
(dp3105
g58
I6
ssg3069
(dp3106
g58
I1
ssg3061
(dp3107
g58
I1
ssg3083
(dp3108
g58
I8
ssg3093
(dp3109
g58
I7
sssg3065
(dp3110
g3055
g3097
sg3085
(dp3111
g58
I1
ssg3057
(dp3112
g58
I1
ssg3089
(dp3113
g58
I1
ssg3077
(dp3114
g58
I1
ssg3059
(dp3115
g58
I1
ssg3091
(dp3116
g58
I2
ssg3069
(dp3117
g58
I1
ssg3061
(dp3118
g58
I1
ssg3083
(dp3119
g58
I4
ssg3093
(dp3120
g58
I4
sssg3085
(dp3121
g3055
g3098
sg3065
g3111
sg3075
(dp3122
g58
I2
ssg3073
(dp3123
g58
I2
ssg3079
(dp3124
g58
I1
ssg3081
(dp3125
g58
I1
ssg3091
(dp3126
g58
I2
ssg3069
(dp3127
g58
I4
ssg3083
(dp3128
g58
I1
ssg3093
(dp3129
g58
I1
sssg3075
(dp3130
g3055
g3099
sg3073
(dp3131
g58
I2
ssg3085
g3122
sg3057
(dp3132
g58
I3
ssg3077
(dp3133
g58
I1
ssg3059
(dp3134
g58
I1
ssg3081
(dp3135
g58
I6
ssg3079
(dp3136
g58
I1
ssg3091
(dp3137
g58
I4
ssg3087
(dp3138
g58
I3
ssg3069
(dp3139
g58
I2
ssg3083
(dp3140
g58
I2
ssg3093
(dp3141
g58
I5
sssg3057
(dp3142
g3055
g3100
sg3065
g3112
sg3075
g3132
sg3087
(dp3143
g58
I1
ssg3089
(dp3144
g58
I1
ssg3077
(dp3145
g58
I3
ssg3059
(dp3146
g58
I2
ssg3081
(dp3147
g58
I2
ssg3091
(dp3148
g58
I2
ssg3061
(dp3149
g58
I1
ssg3083
(dp3150
g58
I7
ssg3093
(dp3151
g58
I7
sssg3067
(dp3152
g3087
(dp3153
g58
I2
ssg3081
(dp3154
g58
I1
sssg3089
(dp3155
g3055
g3101
sg3065
g3113
sg3057
g3144
sg3077
(dp3156
g58
I1
ssg3059
(dp3157
g58
I1
ssg3061
(dp3158
g58
I2
ssg3083
(dp3159
g58
I1
ssg3093
(dp3160
g58
I1
sssg3077
(dp3161
g3055
g3102
sg3065
g3114
sg3075
g3133
sg3057
g3145
sg3089
g3156
sg3059
(dp3162
g58
I2
ssg3081
(dp3163
g58
I1
ssg3091
(dp3164
g58
I3
ssg3061
(dp3165
g58
I1
ssg3083
(dp3166
g58
I4
ssg3093
(dp3167
g58
I3
sssg3059
(dp3168
g3055
g3103
sg3065
g3115
sg3075
g3134
sg3057
g3146
sg3089
g3157
sg3077
g3162
sg3081
(dp3169
g58
I1
ssg3087
(dp3170
g58
I2
ssg3061
(dp3171
g58
I1
ssg3083
(dp3172
g58
I2
ssg3093
(dp3173
g58
I3
sssg3073
(dp3174
g3085
g3123
sg3075
g3131
sg3079
(dp3175
g58
I1
ssg3081
(dp3176
g58
I1
ssg3091
(dp3177
g58
I2
ssg3069
(dp3178
g58
I2
sssg3063
(dp3179
g3079
(dp3180
g58
I1
sssg3081
(dp3181
g3055
g3104
sg3073
g3176
sg3085
g3125
sg3075
g3135
sg3057
g3147
sg3067
g3154
sg3077
g3163
sg3059
g3169
sg3091
(dp3182
g58
I3
ssg3087
(dp3183
g58
I4
ssg3069
(dp3184
g58
I1
ssg3083
(dp3185
g58
I1
ssg3093
(dp3186
g58
I4
sssg3079
(dp3187
g3073
g3175
sg3085
g3124
sg3075
g3136
sg3091
(dp3188
g58
I2
ssg3069
(dp3189
g58
I1
ssg3063
g3180
ssg3091
(dp3190
g3055
g3105
sg3065
g3116
sg3085
g3126
sg3075
g3137
sg3057
g3148
sg3073
g3177
sg3077
g3164
sg3079
g3188
sg3081
g3182
sg3069
(dp3191
g58
I2
ssg3083
(dp3192
g58
I6
ssg3093
(dp3193
g58
I6
sssg3087
(dp3194
g3075
g3138
sg3057
g3143
sg3067
g3153
sg3059
g3170
sg3081
g3183
sg3093
(dp3195
g58
I2
sssg3069
(dp3196
g3055
g3106
sg3065
g3117
sg3085
g3127
sg3075
g3139
sg3073
g3178
sg3079
g3189
sg3081
g3184
sg3091
g3191
sg3083
(dp3197
g58
I1
ssg3093
(dp3198
g58
I1
sssg3061
(dp3199
g3055
g3107
sg3065
g3118
sg3057
g3149
sg3089
g3158
sg3077
g3165
sg3059
g3171
sg3083
(dp3200
g58
I1
ssg3093
(dp3201
g58
I1
sssg3083
(dp3202
g3055
g3108
sg3065
g3119
sg3085
g3128
sg3075
g3140
sg3057
g3150
sg3089
g3159
sg3077
g3166
sg3059
g3172
sg3081
g3185
sg3091
g3192
sg3069
g3197
sg3061
g3200
sg3093
(dp3203
g58
I10
sssg3093
(dp3204
g3055
g3109
sg3065
g3120
sg3085
g3129
sg3075
g3141
sg3057
g3151
sg3089
g3160
sg3077
g3167
sg3059
g3173
sg3081
g3186
sg3091
g3193
sg3087
g3195
sg3069
g3198
sg3061
g3201
sg3083
g3203
ssg3071
(dp3205
ssg140
(dp3206
g142
S'()'
p3207
ssg144
g51
sg145
g3095
sbsVSamoa
p3208
g2
(g3
g4
Ntp3209
Rp3210
(dp3211
g8
(dp3212
VRussell S.
p3213
(dp3214
sVRussell H.
p3215
(dp3216
sVBetsy
p3217
(dp3218
sVBen
p3219
(dp3220
sVJohn
p3221
(dp3222
sVLiz
p3223
(dp3224
sVMarisa
p3225
(dp3226
sVMonica
p3227
(dp3228
sVMike
p3229
(dp3230
sVBrett
p3231
(dp3232
sVJaison
p3233
(dp3234
sVDave
p3235
(dp3236
sVMick
p3237
(dp3238
sVNatalie
p3239
(dp3240
sVAshley
p3241
(dp3242
sVYasmin
p3243
(dp3244
sVKelly
p3245
(dp3246
sVLaura
p3247
(dp3248
sVErik
p3249
(dp3250
sVShambo
p3251
(dp3252
ssg50
g51
sg52
g51
sg53
(dp3253
g3227
(dp3254
g3247
(dp3255
g58
I5
ssg3239
(dp3256
g58
I3
ssg3213
(dp3257
g58
I1
ssg3215
(dp3258
g58
I3
ssg3231
(dp3259
g58
I9
ssg3233
(dp3260
g58
I4
ssg3251
(dp3261
g58
I2
ssg3235
(dp3262
g58
I7
ssg3237
(dp3263
g58
I3
ssg3249
(dp3264
g58
I2
ssg3245
(dp3265
g58
I4
ssg3221
(dp3266
g58
I4
sssg3229
(dp3267
g3239
(dp3268
g58
I1
ssg3219
(dp3269
g58
I1
ssg3215
(dp3270
g58
I1
ssg3233
(dp3271
g58
I1
ssg3241
(dp3272
g58
I1
ssg3223
(dp3273
g58
I1
sssg3239
(dp3274
g3227
g3256
sg3229
g3268
sg3241
(dp3275
g58
I3
ssg3215
(dp3276
g58
I14
ssg3231
(dp3277
g58
I5
ssg3247
(dp3278
g58
I2
ssg3233
(dp3279
g58
I12
ssg3251
(dp3280
g58
I3
ssg3235
(dp3281
g58
I2
ssg3237
(dp3282
g58
I13
ssg3245
(dp3283
g58
I1
ssg3219
(dp3284
g58
I2
ssg3221
(dp3285
g58
I1
ssg3223
(dp3286
g58
I4
sssg3241
(dp3287
g3229
g3272
sg3239
g3275
sg3219
(dp3288
g58
I2
ssg3215
(dp3289
g58
I3
ssg3233
(dp3290
g58
I3
ssg3237
(dp3291
g58
I2
ssg3223
(dp3292
g58
I3
sssg3217
(dp3293
g3237
(dp3294
g58
I1
ssg3225
(dp3295
g58
I1
sssg3213
(dp3296
g3227
g3257
sg3231
(dp3297
g58
I1
ssg3247
(dp3298
g58
I1
ssg3235
(dp3299
g58
I1
ssg3249
(dp3300
g58
I1
ssg3245
(dp3301
g58
I1
ssg3221
(dp3302
g58
I1
sssg3215
(dp3303
g3227
g3258
sg3229
g3270
sg3239
g3276
sg3241
g3289
sg3231
(dp3304
g58
I5
ssg3247
(dp3305
g58
I1
ssg3233
(dp3306
g58
I13
ssg3251
(dp3307
g58
I4
ssg3235
(dp3308
g58
I2
ssg3237
(dp3309
g58
I14
ssg3245
(dp3310
g58
I1
ssg3219
(dp3311
g58
I2
ssg3221
(dp3312
g58
I2
ssg3223
(dp3313
g58
I4
sssg3231
(dp3314
g3227
g3259
sg3239
g3277
sg3213
g3297
sg3215
g3304
sg3247
(dp3315
g58
I5
ssg3233
(dp3316
g58
I5
ssg3251
(dp3317
g58
I2
ssg3235
(dp3318
g58
I7
ssg3237
(dp3319
g58
I5
ssg3249
(dp3320
g58
I2
ssg3245
(dp3321
g58
I4
ssg3221
(dp3322
g58
I4
sssg3247
(dp3323
g3227
g3255
sg3239
g3278
sg3213
g3298
sg3215
g3305
sg3231
g3315
sg3233
(dp3324
g58
I2
ssg3251
(dp3325
g58
I1
ssg3235
(dp3326
g58
I5
ssg3237
(dp3327
g58
I1
ssg3249
(dp3328
g58
I2
ssg3245
(dp3329
g58
I4
ssg3221
(dp3330
g58
I4
sssg3233
(dp3331
g3227
g3260
sg3229
g3271
sg3239
g3279
sg3241
g3290
sg3215
g3306
sg3231
g3316
sg3247
g3324
sg3251
(dp3332
g58
I4
ssg3235
(dp3333
g58
I3
ssg3237
(dp3334
g58
I12
ssg3249
(dp3335
g58
I1
ssg3245
(dp3336
g58
I2
ssg3219
(dp3337
g58
I2
ssg3221
(dp3338
g58
I2
ssg3223
(dp3339
g58
I4
sssg3243
(dp3340
g3251
(dp3341
g58
I1
sssg3251
(dp3342
g3227
g3261
sg3239
g3280
sg3215
g3307
sg3231
g3317
sg3243
g3341
sg3233
g3332
sg3247
g3325
sg3235
(dp3343
g58
I1
ssg3237
(dp3344
g58
I4
ssg3249
(dp3345
g58
I1
ssg3245
(dp3346
g58
I1
ssg3221
(dp3347
g58
I3
sssg3235
(dp3348
g3227
g3262
sg3239
g3281
sg3213
g3299
sg3215
g3308
sg3231
g3318
sg3247
g3326
sg3233
g3333
sg3251
g3343
sg3237
(dp3349
g58
I2
ssg3249
(dp3350
g58
I2
ssg3245
(dp3351
g58
I4
ssg3221
(dp3352
g58
I4
sssg3237
(dp3353
g3227
g3263
sg3239
g3282
sg3241
g3291
sg3217
g3294
sg3215
g3309
sg3231
g3319
sg3247
g3327
sg3233
g3334
sg3251
g3344
sg3235
g3349
sg3245
(dp3354
g58
I1
ssg3219
(dp3355
g58
I1
ssg3221
(dp3356
g58
I2
ssg3223
(dp3357
g58
I3
ssg3225
(dp3358
g58
I1
sssg3249
(dp3359
g3227
g3264
sg3213
g3300
sg3231
g3320
sg3247
g3328
sg3233
g3335
sg3251
g3345
sg3235
g3350
sg3245
(dp3360
g58
I2
ssg3221
(dp3361
g58
I1
sssg3245
(dp3362
g3227
g3265
sg3239
g3283
sg3213
g3301
sg3215
g3310
sg3231
g3321
sg3247
g3329
sg3233
g3336
sg3251
g3346
sg3235
g3351
sg3237
g3354
sg3249
g3360
sg3221
(dp3363
g58
I3
sssg3219
(dp3364
g3229
g3269
sg3239
g3284
sg3241
g3288
sg3215
g3311
sg3233
g3337
sg3237
g3355
sg3223
(dp3365
g58
I2
sssg3221
(dp3366
g3227
g3266
sg3239
g3285
sg3213
g3302
sg3215
g3312
sg3231
g3322
sg3247
g3330
sg3233
g3338
sg3251
g3347
sg3235
g3352
sg3237
g3356
sg3249
g3361
sg3245
g3363
ssg3223
(dp3367
g3229
g3273
sg3239
g3286
sg3219
g3365
sg3215
g3313
sg3233
g3339
sg3237
g3357
sg3241
g3292
ssg3225
(dp3368
g3217
g3295
sg3237
g3358
sssg140
(dp3369
g142
S'()'
p3370
ssg144
g51
sg145
g3253
sbsVAll-Stars
p3371
g2
(g3
g4
Ntp3372
Rp3373
(dp3374
g8
(dp3375
VRichard
p3376
(dp3377
sVColby
p3378
(dp3379
sVEthan
p3380
(dp3381
sVTina
p3382
(dp3383
sVTom
p3384
(dp3385
sVJenna L.
p3386
(dp3387
sVJerri
p3388
(dp3389
sVRob C.
p3390
(dp3391
sVKathy
p3392
(dp3393
sVAlicia
p3394
(dp3395
sVLex
p3396
(dp3397
sVRudy
p3398
(dp3399
sVSusan
p3400
(dp3401
sVJenna M.
p3402
(dp3403
sVShii Ann
p3404
(dp3405
sVAmber
p3406
(dp3407
sVRupert
p3408
(dp3409
sVRob M.
p3410
(dp3411
ssg50
g51
sg52
g51
sg53
(dp3412
g3406
(dp3413
g3392
(dp3414
g58
I1
ssg3400
(dp3415
g58
I1
ssg3394
(dp3416
g58
I3
ssg3408
(dp3417
g58
I5
ssg3384
(dp3418
g58
I5
ssg3396
(dp3419
g58
I1
ssg3404
(dp3420
g58
I3
ssg3410
(dp3421
g58
I7
ssg3386
(dp3422
g58
I6
sssg3392
(dp3423
g3406
g3414
sg3388
(dp3424
g58
I2
ssg3408
(dp3425
g58
I1
ssg3378
(dp3426
g58
I1
ssg3380
(dp3427
g58
I1
ssg3396
(dp3428
g58
I4
ssg3386
(dp3429
g58
I1
ssg3404
(dp3430
g58
I4
sssg3376
(dp3431
sg3400
(dp3432
g3406
g3415
sg3394
(dp3433
g58
I1
ssg3410
(dp3434
g58
I1
ssg3384
(dp3435
g58
I1
sssg3394
(dp3436
g3406
g3416
sg3400
g3433
sg3408
(dp3437
g58
I2
ssg3384
(dp3438
g58
I4
ssg3396
(dp3439
g58
I1
ssg3386
(dp3440
g58
I2
ssg3410
(dp3441
g58
I3
ssg3404
(dp3442
g58
I2
sssg3398
(dp3443
g3386
(dp3444
g58
I1
ssg3408
(dp3445
g58
I2
ssg3388
(dp3446
g58
I1
sssg3388
(dp3447
g3392
g3424
sg3398
g3446
sg3408
(dp3448
g58
I1
ssg3378
(dp3449
g58
I1
ssg3380
(dp3450
g58
I2
ssg3396
(dp3451
g58
I3
ssg3404
(dp3452
g58
I3
ssg3386
(dp3453
g58
I2
sssg3408
(dp3454
g3406
g3417
sg3392
g3425
sg3398
g3445
sg3394
g3437
sg3388
g3448
sg3384
(dp3455
g58
I4
ssg3386
(dp3456
g58
I7
ssg3410
(dp3457
g58
I5
ssg3404
(dp3458
g58
I2
sssg3378
(dp3459
g3392
g3426
sg3396
(dp3460
g58
I1
ssg3404
(dp3461
g58
I1
ssg3388
g3449
sg3380
(dp3462
g58
I2
sssg3380
(dp3463
g3392
g3427
sg3388
g3450
sg3378
g3462
sg3382
(dp3464
g58
I1
ssg3396
(dp3465
g58
I1
ssg3386
(dp3466
g58
I1
ssg3404
(dp3467
g58
I1
sssg3382
(dp3468
g3380
g3464
ssg3384
(dp3469
g3406
g3418
sg3400
g3435
sg3394
g3438
sg3408
g3455
sg3396
(dp3470
g58
I1
ssg3386
(dp3471
g58
I4
ssg3410
(dp3472
g58
I5
ssg3404
(dp3473
g58
I3
sssg3396
(dp3474
g3406
g3419
sg3392
g3428
sg3394
g3439
sg3378
g3460
sg3380
g3465
sg3384
g3470
sg3404
(dp3475
g58
I5
ssg3388
g3451
ssg3402
(dp3476
sg3386
(dp3477
g3406
g3422
sg3392
g3429
sg3398
g3444
sg3394
g3440
sg3388
g3453
sg3380
g3466
sg3384
g3471
sg3408
g3456
sg3410
(dp3478
g58
I6
ssg3404
(dp3479
g58
I2
sssg3410
(dp3480
g3406
g3421
sg3400
g3434
sg3394
g3441
sg3408
g3457
sg3384
g3472
sg3386
g3478
sg3404
(dp3481
g58
I2
sssg3404
(dp3482
g3406
g3420
sg3392
g3430
sg3394
g3442
sg3388
g3452
sg3378
g3461
sg3380
g3467
sg3384
g3473
sg3396
g3475
sg3386
g3479
sg3410
g3481
sg3408
g3458
ssg3390
(dp3483
ssg140
(dp3484
g142
S'()'
p3485
ssg144
g51
sg145
g3412
sbsVFiji
p3486
g2
(g3
g4
Ntp3487
Rp3488
(dp3489
g8
(dp3490
VSylvia
p3491
(dp3492
sVRita
p3493
(dp3494
sVJessica
p3495
(dp3496
sVStacy
p3497
(dp3498
sVAnthony
p3499
(dp3500
sVDreamz
p3501
(dp3502
sVEarl
p3503
(dp3504
sVMichelle
p3505
(dp3506
sVAlex
p3507
(dp3508
sVRocky
p3509
(dp3510
sVErica
p3511
(dp3512
sVLisi
p3513
(dp3514
sVBoo
p3515
(dp3516
sVEdgardo
p3517
(dp3518
sVLiliana
p3519
(dp3520
sVMookie
p3521
(dp3522
sVYau-Man
p3523
(dp3524
sVGary
p3525
(dp3526
sVCassandra
p3527
(dp3528
ssg50
g51
sg52
g51
sg53
(dp3529
g3503
(dp3530
g3505
(dp3531
g58
I2
ssg3509
(dp3532
g58
I1
ssg3523
(dp3533
g58
I8
ssg3521
(dp3534
g58
I2
ssg3515
(dp3535
g58
I3
ssg3497
(dp3536
g58
I2
ssg3499
(dp3537
g58
I3
ssg3501
(dp3538
g58
I3
ssg3493
(dp3539
g58
I1
ssg3527
(dp3540
g58
I4
sssg3505
(dp3541
g3503
g3531
sg3507
(dp3542
g58
I1
ssg3509
(dp3543
g58
I2
ssg3523
(dp3544
g58
I4
ssg3521
(dp3545
g58
I4
ssg3517
(dp3546
g58
I1
ssg3497
(dp3547
g58
I1
ssg3499
(dp3548
g58
I2
ssg3513
(dp3549
g58
I1
ssg3515
(dp3550
g58
I1
ssg3491
(dp3551
g58
I1
ssg3493
(dp3552
g58
I3
sssg3517
(dp3553
g3505
g3546
sg3507
(dp3554
g58
I6
ssg3509
(dp3555
g58
I2
ssg3523
(dp3556
g58
I1
ssg3521
(dp3557
g58
I4
ssg3501
(dp3558
g58
I4
ssg3497
(dp3559
g58
I2
ssg3513
(dp3560
g58
I3
ssg3515
(dp3561
g58
I2
sssg3507
(dp3562
g3505
g3542
sg3517
g3554
sg3509
(dp3563
g58
I2
ssg3523
(dp3564
g58
I1
ssg3521
(dp3565
g58
I4
ssg3515
(dp3566
g58
I2
ssg3497
(dp3567
g58
I4
ssg3513
(dp3568
g58
I3
ssg3501
(dp3569
g58
I6
ssg3527
(dp3570
g58
I1
sssg3509
(dp3571
g3503
g3532
sg3505
g3543
sg3517
g3555
sg3507
g3563
sg3523
(dp3572
g58
I3
ssg3521
(dp3573
g58
I6
ssg3501
(dp3574
g58
I1
ssg3497
(dp3575
g58
I1
ssg3499
(dp3576
g58
I1
ssg3513
(dp3577
g58
I1
ssg3515
(dp3578
g58
I1
ssg3491
(dp3579
g58
I2
ssg3493
(dp3580
g58
I1
sssg3523
(dp3581
g3503
g3533
sg3505
g3544
sg3507
g3564
sg3509
g3572
sg3517
g3556
sg3521
(dp3582
g58
I4
ssg3515
(dp3583
g58
I4
ssg3497
(dp3584
g58
I3
ssg3499
(dp3585
g58
I3
ssg3513
(dp3586
g58
I1
ssg3501
(dp3587
g58
I2
ssg3491
(dp3588
g58
I1
ssg3493
(dp3589
g58
I2
ssg3527
(dp3590
g58
I3
sssg3519
(dp3591
sg3521
(dp3592
g3503
g3534
sg3505
g3545
sg3517
g3557
sg3507
g3565
sg3509
g3573
sg3523
g3582
sg3501
(dp3593
g58
I2
ssg3497
(dp3594
g58
I1
ssg3499
(dp3595
g58
I2
ssg3513
(dp3596
g58
I1
ssg3515
(dp3597
g58
I1
ssg3491
(dp3598
g58
I2
ssg3493
(dp3599
g58
I2
sssg3515
(dp3600
g3503
g3535
sg3505
g3550
sg3507
g3566
sg3509
g3578
sg3523
g3583
sg3521
g3597
sg3517
g3561
sg3497
(dp3601
g58
I5
ssg3513
(dp3602
g58
I2
ssg3501
(dp3603
g58
I3
ssg3527
(dp3604
g58
I3
sssg3495
(dp3605
sg3525
(dp3606
sg3497
(dp3607
g3503
g3536
sg3505
g3547
sg3517
g3559
sg3507
g3567
sg3509
g3575
sg3523
g3584
sg3521
g3594
sg3515
g3601
sg3513
(dp3608
g58
I2
ssg3501
(dp3609
g58
I5
ssg3527
(dp3610
g58
I4
sssg3499
(dp3611
g3503
g3537
sg3505
g3548
sg3509
g3576
sg3523
g3585
sg3521
g3595
sg3511
(dp3612
g58
I1
ssg3493
(dp3613
g58
I1
sssg3513
(dp3614
g3505
g3549
sg3517
g3560
sg3507
g3568
sg3509
g3577
sg3523
g3586
sg3521
g3596
sg3501
(dp3615
g58
I2
ssg3497
g3608
sg3515
g3602
ssg3501
(dp3616
g3503
g3538
sg3507
g3569
sg3509
g3574
sg3523
g3587
sg3521
g3593
sg3517
g3558
sg3497
g3609
sg3513
g3615
sg3515
g3603
sg3527
(dp3617
g58
I5
sssg3491
(dp3618
g3505
g3551
sg3521
g3598
sg3509
g3579
sg3493
(dp3619
g58
I1
ssg3523
g3588
ssg3511
(dp3620
g3499
g3612
ssg3493
(dp3621
g3503
g3539
sg3505
g3552
sg3509
g3580
sg3523
g3589
sg3521
g3599
sg3499
g3613
sg3491
g3619
ssg3527
(dp3622
g3503
g3540
sg3507
g3570
sg3523
g3590
sg3501
g3617
sg3497
g3610
sg3515
g3604
sssg140
(dp3623
g142
S'()'
p3624
ssg144
g51
sg145
g3529
sbsVAfrica
p3625
g2
(g3
g4
Ntp3626
Rp3627
(dp3628
g8
(dp3629
VJessie
p3630
(dp3631
sVTeresa
p3632
(dp3633
sVKim J.
p3634
(dp3635
sVBrandon
p3636
(dp3637
sVEthan
p3638
(dp3639
sVTom
p3640
(dp3641
sVLinda
p3642
(dp3643
sVClarence
p3644
(dp3645
sVFrank
p3646
(dp3647
sVKim P.
p3648
(dp3649
sVCarl
p3650
(dp3651
sVLex
p3652
(dp3653
sVLindsey
p3654
(dp3655
sVKelly
p3656
(dp3657
sVDiane
p3658
(dp3659
sVSilas
p3660
(dp3661
ssg50
g51
sg52
g51
sg53
(dp3662
g3630
(dp3663
g3644
(dp3664
g58
I1
ssg3634
(dp3665
g58
I1
ssg3656
(dp3666
g58
I1
ssg3638
(dp3667
g58
I1
ssg3640
(dp3668
g58
I1
ssg3652
(dp3669
g58
I1
sssg3644
(dp3670
g3630
g3664
sg3646
(dp3671
g58
I1
ssg3632
(dp3672
g58
I2
ssg3634
(dp3673
g58
I3
ssg3656
(dp3674
g58
I2
ssg3638
(dp3675
g58
I3
ssg3652
(dp3676
g58
I2
sssg3658
(dp3677
g3640
(dp3678
g58
I1
sssg3646
(dp3679
g3644
g3671
sg3632
(dp3680
g58
I7
ssg3634
(dp3681
g58
I3
ssg3648
(dp3682
g58
I3
ssg3656
(dp3683
g58
I3
ssg3638
(dp3684
g58
I3
ssg3650
(dp3685
g58
I1
ssg3640
(dp3686
g58
I3
ssg3652
(dp3687
g58
I2
ssg3642
(dp3688
g58
I3
ssg3636
(dp3689
g58
I1
sssg3660
(dp3690
g3636
(dp3691
g58
I3
ssg3654
(dp3692
g58
I2
ssg3648
(dp3693
g58
I3
sssg3632
(dp3694
g3644
g3672
sg3646
g3680
sg3634
(dp3695
g58
I3
ssg3648
(dp3696
g58
I4
ssg3656
(dp3697
g58
I2
ssg3638
(dp3698
g58
I3
ssg3650
(dp3699
g58
I1
ssg3640
(dp3700
g58
I3
ssg3652
(dp3701
g58
I2
ssg3642
(dp3702
g58
I3
sssg3634
(dp3703
g3630
g3665
sg3644
g3673
sg3646
g3681
sg3632
g3695
sg3648
(dp3704
g58
I3
ssg3656
(dp3705
g58
I3
ssg3638
(dp3706
g58
I10
ssg3640
(dp3707
g58
I6
ssg3652
(dp3708
g58
I8
ssg3636
(dp3709
g58
I2
sssg3648
(dp3710
g3646
g3682
sg3660
g3693
sg3632
g3696
sg3634
g3704
sg3636
(dp3711
g58
I7
ssg3656
(dp3712
g58
I2
ssg3654
(dp3713
g58
I3
ssg3638
(dp3714
g58
I3
ssg3640
(dp3715
g58
I3
ssg3652
(dp3716
g58
I2
sssg3656
(dp3717
g3630
g3666
sg3644
g3674
sg3646
g3683
sg3632
g3697
sg3634
g3705
sg3648
g3712
sg3638
(dp3718
g58
I3
ssg3640
(dp3719
g58
I3
ssg3652
(dp3720
g58
I6
ssg3636
(dp3721
g58
I1
sssg3654
(dp3722
g3660
g3692
sg3648
g3713
sg3636
(dp3723
g58
I3
ssg3650
(dp3724
g58
I1
ssg3640
(dp3725
g58
I1
sssg3638
(dp3726
g3630
g3667
sg3644
g3675
sg3646
g3684
sg3632
g3698
sg3634
g3706
sg3648
g3714
sg3656
g3718
sg3640
(dp3727
g58
I6
ssg3652
(dp3728
g58
I8
ssg3636
(dp3729
g58
I2
sssg3650
(dp3730
g3646
g3685
sg3654
g3724
sg3632
g3699
sg3642
(dp3731
g58
I1
sssg3640
(dp3732
g3630
g3668
sg3658
g3678
sg3646
g3686
sg3632
g3700
sg3634
g3707
sg3648
g3715
sg3656
g3719
sg3654
g3725
sg3638
g3727
sg3652
(dp3733
g58
I7
ssg3636
(dp3734
g58
I2
sssg3652
(dp3735
g3630
g3669
sg3644
g3676
sg3646
g3687
sg3632
g3701
sg3634
g3708
sg3648
g3716
sg3638
g3728
sg3640
g3733
sg3656
g3720
sg3636
(dp3736
g58
I3
sssg3642
(dp3737
g3646
g3688
sg3632
g3702
sg3650
g3731
ssg3636
(dp3738
g3646
g3689
sg3660
g3691
sg3634
g3709
sg3648
g3711
sg3656
g3721
sg3654
g3723
sg3638
g3729
sg3640
g3734
sg3652
g3736
sssg140
(dp3739
g142
S'()'
p3740
ssg144
g51
sg145
g3662
sbsVSan_Juan_del_Sur
p3741
g2
(g3
g4
Ntp3742
Rp3743
(dp3744
g8
(dp3745
VJeremy
p3746
(dp3747
sVNadiya
p3748
(dp3749
sVJosh
p3750
(dp3751
sVWes
p3752
(dp3753
sVMissy
p3754
(dp3755
sVJohn
p3756
(dp3757
sVDale
p3758
(dp3759
sVVal
p3760
(dp3761
sVDrew
p3762
(dp3763
sVReed
p3764
(dp3765
sVJaclyn
p3766
(dp3767
sVKeith
p3768
(dp3769
sVJon
p3770
(dp3771
sVNatalie
p3772
(dp3773
sVBaylor
p3774
(dp3775
sVAlec
p3776
(dp3777
sVJulie
p3778
(dp3779
sVKelley
p3780
(dp3781
ssg50
g51
sg52
g51
sg53
(dp3782
g3758
(dp3783
g3750
(dp3784
g58
I2
ssg3752
(dp3785
g58
I3
ssg3774
(dp3786
g58
I2
ssg3756
(dp3787
g58
I3
ssg3780
(dp3788
g58
I1
ssg3776
(dp3789
g58
I2
sssg3772
(dp3790
g3746
(dp3791
g58
I3
ssg3780
(dp3792
g58
I1
ssg3778
(dp3793
g58
I1
ssg3774
(dp3794
g58
I5
ssg3754
(dp3795
g58
I6
ssg3766
(dp3796
g58
I4
ssg3768
(dp3797
g58
I3
ssg3770
(dp3798
g58
I2
ssg3776
(dp3799
g58
I1
sssg3746
(dp3800
g3772
g3791
sg3780
(dp3801
g58
I1
ssg3778
(dp3802
g58
I1
ssg3750
(dp3803
g58
I1
ssg3752
(dp3804
g58
I1
ssg3774
(dp3805
g58
I1
ssg3754
(dp3806
g58
I2
ssg3766
(dp3807
g58
I1
ssg3768
(dp3808
g58
I1
ssg3770
(dp3809
g58
I1
ssg3776
(dp3810
g58
I1
sssg3748
(dp3811
g3766
(dp3812
g58
I1
ssg3760
(dp3813
g58
I1
sssg3760
(dp3814
g3766
(dp3815
g58
I2
ssg3776
(dp3816
g58
I1
ssg3756
(dp3817
g58
I1
ssg3748
g3813
sg3774
(dp3818
g58
I1
sssg3780
(dp3819
g3758
g3788
sg3746
g3801
sg3778
(dp3820
g58
I1
ssg3772
g3792
sg3754
(dp3821
g58
I1
sssg3778
(dp3822
g3746
g3802
sg3772
g3793
sg3754
(dp3823
g58
I1
ssg3780
g3820
ssg3750
(dp3824
g3758
g3784
sg3746
g3803
sg3752
(dp3825
g58
I5
ssg3774
(dp3826
g58
I2
ssg3764
(dp3827
g58
I1
ssg3766
(dp3828
g58
I1
ssg3756
(dp3829
g58
I1
ssg3768
(dp3830
g58
I2
ssg3776
(dp3831
g58
I4
sssg3762
(dp3832
sg3752
(dp3833
g3758
g3785
sg3746
g3804
sg3750
g3825
sg3774
(dp3834
g58
I3
ssg3764
(dp3835
g58
I2
ssg3766
(dp3836
g58
I1
ssg3756
(dp3837
g58
I2
ssg3768
(dp3838
g58
I4
ssg3776
(dp3839
g58
I7
sssg3774
(dp3840
g3758
g3786
sg3772
g3794
sg3746
g3805
sg3760
g3818
sg3750
g3826
sg3752
g3834
sg3754
(dp3841
g58
I9
ssg3764
(dp3842
g58
I1
ssg3766
(dp3843
g58
I5
ssg3756
(dp3844
g58
I1
ssg3768
(dp3845
g58
I3
ssg3770
(dp3846
g58
I3
ssg3776
(dp3847
g58
I3
sssg3754
(dp3848
g3772
g3795
sg3746
g3806
sg3780
g3821
sg3778
g3823
sg3774
g3841
sg3764
(dp3849
g58
I1
ssg3766
(dp3850
g58
I5
ssg3768
(dp3851
g58
I3
ssg3770
(dp3852
g58
I3
ssg3776
(dp3853
g58
I1
sssg3764
(dp3854
g3750
g3827
sg3752
g3835
sg3774
g3842
sg3754
g3849
sg3766
(dp3855
g58
I1
ssg3768
(dp3856
g58
I3
ssg3770
(dp3857
g58
I2
ssg3776
(dp3858
g58
I2
sssg3766
(dp3859
g3772
g3796
sg3746
g3807
sg3748
g3812
sg3760
g3815
sg3750
g3828
sg3752
g3836
sg3774
g3843
sg3754
g3850
sg3764
g3855
sg3756
(dp3860
g58
I1
ssg3768
(dp3861
g58
I3
ssg3770
(dp3862
g58
I8
ssg3776
(dp3863
g58
I4
sssg3756
(dp3864
g3758
g3787
sg3760
g3817
sg3750
g3829
sg3752
g3837
sg3774
g3844
sg3766
g3860
sg3776
(dp3865
g58
I3
sssg3768
(dp3866
g3772
g3797
sg3746
g3808
sg3750
g3830
sg3752
g3838
sg3774
g3845
sg3754
g3851
sg3764
g3856
sg3766
g3861
sg3770
(dp3867
g58
I4
ssg3776
(dp3868
g58
I5
sssg3770
(dp3869
g3772
g3798
sg3746
g3809
sg3774
g3846
sg3754
g3852
sg3764
g3857
sg3766
g3862
sg3768
g3867
sg3776
(dp3870
g58
I2
sssg3776
(dp3871
g3758
g3789
sg3772
g3799
sg3746
g3810
sg3760
g3816
sg3750
g3831
sg3752
g3839
sg3774
g3847
sg3754
g3853
sg3764
g3858
sg3766
g3863
sg3756
g3865
sg3768
g3868
sg3770
g3870
sssg140
(dp3872
g142
S'()'
p3873
ssg144
g51
sg145
g3782
sbsVCook_Islands
p3874
g2
(g3
g4
Ntp3875
Rp3876
(dp3877
g8
(dp3878
VOzzy
p3879
(dp3880
sVParvati
p3881
(dp3882
sVSekou
p3883
(dp3884
sVCao Boi
p3885
(dp3886
sVJonathan
p3887
(dp3888
sVNate
p3889
(dp3890
sVBecky
p3891
(dp3892
sVJessica
p3893
(dp3894
sVJ.P.
p3895
(dp3896
sVStephannie
p3897
(dp3898
sVSundra
p3899
(dp3900
sVRebecca
p3901
(dp3902
sVBilly
p3903
(dp3904
sVYul
p3905
(dp3906
sVBrad
p3907
(dp3908
sVCecilia
p3909
(dp3910
sVJenny
p3911
(dp3912
sVCandice
p3913
(dp3914
sVCristina
p3915
(dp3916
sVAdam
p3917
(dp3918
ssg50
g51
sg52
g51
sg53
(dp3919
g3879
(dp3920
g3891
(dp3921
g58
I7
ssg3881
(dp3922
g58
I1
ssg3909
(dp3923
g58
I2
ssg3895
(dp3924
g58
I1
ssg3899
(dp3925
g58
I9
ssg3913
(dp3926
g58
I2
ssg3905
(dp3927
g58
I7
ssg3887
(dp3928
g58
I4
ssg3915
(dp3929
g58
I1
ssg3917
(dp3930
g58
I1
sssg3891
(dp3931
g3879
g3921
sg3881
(dp3932
g58
I1
ssg3893
(dp3933
g58
I1
ssg3899
(dp3934
g58
I7
ssg3913
(dp3935
g58
I2
ssg3905
(dp3936
g58
I9
ssg3885
(dp3937
g58
I1
ssg3887
(dp3938
g58
I5
ssg3917
(dp3939
g58
I1
sssg3881
(dp3940
g3879
g3922
sg3891
g3932
sg3911
(dp3941
g58
I6
ssg3897
(dp3942
g58
I1
ssg3899
(dp3943
g58
I1
ssg3913
(dp3944
g58
I5
ssg3905
(dp3945
g58
I1
ssg3907
(dp3946
g58
I2
ssg3887
(dp3947
g58
I3
ssg3901
(dp3948
g58
I5
ssg3915
(dp3949
g58
I2
ssg3889
(dp3950
g58
I5
ssg3917
(dp3951
g58
I10
sssg3893
(dp3952
g3891
g3933
sg3887
(dp3953
g58
I1
ssg3905
(dp3954
g58
I1
ssg3885
(dp3955
g58
I1
sssg3883
(dp3956
g3889
(dp3957
g58
I1
sssg3895
(dp3958
g3879
g3924
sg3915
(dp3959
g58
I1
ssg3889
(dp3960
g58
I1
ssg3909
(dp3961
g58
I1
sssg3897
(dp3962
g3881
g3942
sg3911
(dp3963
g58
I1
ssg3899
(dp3964
g58
I1
ssg3917
(dp3965
g58
I1
ssg3907
(dp3966
g58
I1
ssg3901
(dp3967
g58
I2
ssg3915
(dp3968
g58
I1
sssg3909
(dp3969
g3879
g3923
sg3895
g3961
sg3899
(dp3970
g58
I1
ssg3915
(dp3971
g58
I1
sssg3903
(dp3972
sg3899
(dp3973
g3879
g3925
sg3891
g3934
sg3881
g3943
sg3909
g3970
sg3897
g3964
sg3913
(dp3974
g58
I3
ssg3905
(dp3975
g58
I7
ssg3907
(dp3976
g58
I1
ssg3887
(dp3977
g58
I5
ssg3901
(dp3978
g58
I1
ssg3917
(dp3979
g58
I2
sssg3913
(dp3980
g3879
g3926
sg3891
g3935
sg3881
g3944
sg3911
(dp3981
g58
I2
ssg3899
g3974
sg3905
(dp3982
g58
I2
ssg3907
(dp3983
g58
I1
ssg3887
(dp3984
g58
I6
ssg3901
(dp3985
g58
I1
ssg3889
(dp3986
g58
I3
ssg3917
(dp3987
g58
I6
sssg3905
(dp3988
g3879
g3927
sg3891
g3936
sg3881
g3945
sg3893
g3954
sg3899
g3975
sg3913
g3982
sg3917
(dp3989
g58
I1
ssg3885
(dp3990
g58
I1
ssg3887
(dp3991
g58
I5
sssg3885
(dp3992
g3891
g3937
sg3887
(dp3993
g58
I1
ssg3905
g3990
sg3893
g3955
ssg3907
(dp3994
g3881
g3946
sg3911
(dp3995
g58
I2
ssg3897
g3966
sg3899
g3976
sg3913
g3983
sg3917
(dp3996
g58
I3
ssg3887
(dp3997
g58
I1
ssg3901
(dp3998
g58
I2
ssg3915
(dp3999
g58
I3
ssg3889
(dp4000
g58
I1
sssg3911
(dp4001
g3881
g3941
sg3897
g3963
sg3913
g3981
sg3917
(dp4002
g58
I5
ssg3907
g3995
sg3887
(dp4003
g58
I2
ssg3901
(dp4004
g58
I5
ssg3915
(dp4005
g58
I2
ssg3889
(dp4006
g58
I5
sssg3887
(dp4007
g3879
g3928
sg3893
g3953
sg3891
g3938
sg3881
g3947
sg3911
g4003
sg3899
g3977
sg3913
g3984
sg3905
g3991
sg3885
g3993
sg3907
g3997
sg3901
(dp4008
g58
I1
ssg3889
(dp4009
g58
I2
ssg3917
(dp4010
g58
I4
sssg3901
(dp4011
g3881
g3948
sg3911
g4004
sg3897
g3967
sg3899
g3978
sg3913
g3985
sg3917
(dp4012
g58
I4
ssg3907
g3998
sg3887
g4008
sg3915
(dp4013
g58
I2
ssg3889
(dp4014
g58
I3
sssg3915
(dp4015
g3879
g3929
sg3881
g3949
sg3911
g4005
sg3895
g3959
sg3897
g3968
sg3917
(dp4016
g58
I2
ssg3907
g3999
sg3901
g4013
sg3889
(dp4017
g58
I1
ssg3909
g3971
ssg3889
(dp4018
g3881
g3950
sg3911
g4006
sg3883
g3957
sg3895
g3960
sg3913
g3986
sg3917
(dp4019
g58
I4
ssg3907
g4000
sg3887
g4009
sg3901
g4014
sg3915
g4017
ssg3917
(dp4020
g3879
g3930
sg3891
g3939
sg3881
g3951
sg3911
g4002
sg3897
g3965
sg3899
g3979
sg3913
g3987
sg3905
g3989
sg3907
g3996
sg3887
g4010
sg3901
g4012
sg3915
g4016
sg3889
g4019
sssg140
(dp4021
g142
S'()'
p4022
ssg144
g51
sg145
g3919
sbsVRedemption_Island
p4023
g2
(g3
g4
Ntp4024
Rp4025
(dp4026
g8
(dp4027
VRussell
p4028
(dp4029
sVGrant
p4030
(dp4031
sVKrista
p4032
(dp4033
sVMatthew
p4034
(dp4035
sVSarita
p4036
(dp4037
sVMike
p4038
(dp4039
sVAndrea
p4040
(dp4041
sVNatalie
p4042
(dp4043
sVAshley
p4044
(dp4045
sVPhillip
p4046
(dp4047
sVDavid
p4048
(dp4049
sVStephanie
p4050
(dp4051
sVRob
p4052
(dp4053
sV Ralph
p4054
(dp4055
sVSteve
p4056
(dp4057
sVKristina
p4058
(dp4059
sVFrancesca
p4060
(dp4061
sVJulie
p4062
(dp4063
ssg50
g51
sg52
g51
sg53
(dp4064
g4032
(dp4065
g4034
(dp4066
g58
I1
ssg4050
(dp4067
g58
I2
ssg4028
(dp4068
g58
I1
sssg4038
(dp4069
g4044
(dp4070
g58
I1
ssg4030
(dp4071
g58
I2
ssg4062
(dp4072
g58
I8
ssg4054
(dp4073
g58
I8
ssg4056
(dp4074
g58
I8
ssg4034
(dp4075
g58
I8
ssg4036
(dp4076
g58
I3
ssg4040
(dp4077
g58
I2
ssg4048
(dp4078
g58
I8
sssg4042
(dp4079
g4046
(dp4080
g58
I11
ssg4052
(dp4081
g58
I11
ssg4040
(dp4082
g58
I8
ssg4044
(dp4083
g58
I12
ssg4030
(dp4084
g58
I8
sssg4044
(dp4085
g4038
g4070
sg4042
g4083
sg4030
(dp4086
g58
I9
ssg4046
(dp4087
g58
I10
ssg4052
(dp4088
g58
I10
ssg4048
(dp4089
g58
I1
ssg4056
(dp4090
g58
I1
ssg4034
(dp4091
g58
I1
ssg4040
(dp4092
g58
I9
ssg4062
(dp4093
g58
I1
sssg4028
(dp4094
g4032
g4068
sg4034
(dp4095
g58
I1
ssg4050
(dp4096
g58
I2
ssg4054
(dp4097
g58
I1
sssg4030
(dp4098
g4038
g4071
sg4042
g4084
sg4044
g4086
sg4046
(dp4099
g58
I8
ssg4052
(dp4100
g58
I10
ssg4048
(dp4101
g58
I1
ssg4056
(dp4102
g58
I1
ssg4034
(dp4103
g58
I3
ssg4058
(dp4104
g58
I1
ssg4040
(dp4105
g58
I7
ssg4062
(dp4106
g58
I1
sssg4046
(dp4107
g4042
g4080
sg4044
g4087
sg4030
g4099
sg4052
(dp4108
g58
I11
ssg4034
(dp4109
g58
I1
ssg4040
(dp4110
g58
I8
sssg4052
(dp4111
g4042
g4081
sg4044
g4088
sg4030
g4100
sg4046
g4108
sg4034
(dp4112
g58
I1
ssg4058
(dp4113
g58
I1
ssg4040
(dp4114
g58
I6
sssg4048
(dp4115
g4038
g4078
sg4044
g4089
sg4030
g4101
sg4062
(dp4116
g58
I7
ssg4054
(dp4117
g58
I5
ssg4056
(dp4118
g58
I7
ssg4034
(dp4119
g58
I2
ssg4036
(dp4120
g58
I2
ssg4040
(dp4121
g58
I1
ssg4050
(dp4122
g58
I1
sssg4056
(dp4123
g4038
g4074
sg4044
g4090
sg4030
g4102
sg4062
(dp4124
g58
I10
ssg4054
(dp4125
g58
I8
ssg4034
(dp4126
g58
I2
ssg4036
(dp4127
g58
I4
ssg4040
(dp4128
g58
I1
ssg4048
g4118
ssg4034
(dp4129
g4032
g4066
sg4038
g4075
sg4044
g4091
sg4028
g4095
sg4030
g4103
sg4046
g4109
sg4052
g4112
sg4054
(dp4130
g58
I3
ssg4056
g4126
sg4058
(dp4131
g58
I2
ssg4060
(dp4132
g58
I2
ssg4040
(dp4133
g58
I2
ssg4050
(dp4134
g58
I1
ssg4062
(dp4135
g58
I2
ssg4048
g4119
ssg4054
(dp4136
g4038
g4073
sg4036
(dp4137
g58
I3
ssg4028
g4097
sg4062
(dp4138
g58
I6
ssg4048
g4117
sg4056
g4125
sg4034
g4130
sg4040
(dp4139
g58
I1
ssg4050
(dp4140
g58
I1
sssg4058
(dp4141
g4034
g4131
sg4052
g4113
sg4060
(dp4142
g58
I1
ssg4030
g4104
ssg4060
(dp4143
g4034
g4132
sg4058
g4142
ssg4036
(dp4144
g4056
g4127
sg4038
g4076
sg4048
g4120
sg4062
(dp4145
g58
I4
ssg4054
g4137
ssg4040
(dp4146
g4038
g4077
sg4042
g4082
sg4044
g4092
sg4030
g4105
sg4046
g4110
sg4052
g4114
sg4054
g4139
sg4056
g4128
sg4034
g4133
sg4048
g4121
sg4062
(dp4147
g58
I1
sssg4050
(dp4148
g4032
g4067
sg4034
g4134
sg4048
g4122
sg4028
g4096
sg4054
g4140
ssg4062
(dp4149
g4038
g4072
sg4044
g4093
sg4030
g4106
sg4054
g4138
sg4056
g4124
sg4034
g4135
sg4036
g4145
sg4040
g4147
sg4048
g4116
sssg140
(dp4150
g142
S'()'
p4151
ssg144
g51
sg145
g4064
sbsVNicaragua
p4152
g2
(g3
g4
Ntp4153
Rp4154
(dp4155
g8
(dp4156
VJimmy T.
p4157
(dp4158
sVBenry
p4159
(dp4160
sVTyrone
p4161
(dp4162
sVWendy
p4163
(dp4164
sVJane
p4165
(dp4166
sVHolly
p4167
(dp4168
sVFabio
p4169
(dp4170
sVDan
p4171
(dp4172
sVJill
p4173
(dp4174
sVMarty
p4175
(dp4176
sVKelly S.
p4177
(dp4178
sVAlina
p4179
(dp4180
sVJimmy J.
p4181
(dp4182
sVKelly B.
p4183
(dp4184
sVSash
p4185
(dp4186
sVBrenda
p4187
(dp4188
sVYve
p4189
(dp4190
sVNaOnka
p4191
(dp4192
sVShannon
p4193
(dp4194
sVChase
p4195
(dp4196
ssg50
g51
sg52
g51
sg53
(dp4197
g4175
(dp4198
g4157
(dp4199
g58
I2
ssg4169
(dp4200
g58
I2
ssg4177
(dp4201
g58
I2
ssg4183
(dp4202
g58
I1
ssg4187
(dp4203
g58
I1
ssg4161
(dp4204
g58
I3
ssg4159
(dp4205
g58
I3
ssg4171
(dp4206
g58
I6
ssg4181
(dp4207
g58
I1
ssg4189
(dp4208
g58
I3
ssg4191
(dp4209
g58
I2
ssg4173
(dp4210
g58
I5
ssg4165
(dp4211
g58
I2
ssg4167
(dp4212
g58
I3
ssg4185
(dp4213
g58
I1
ssg4195
(dp4214
g58
I1
sssg4157
(dp4215
g4175
g4199
sg4161
(dp4216
g58
I2
ssg4171
(dp4217
g58
I2
ssg4189
(dp4218
g58
I2
ssg4181
(dp4219
g58
I1
ssg4173
(dp4220
g58
I2
ssg4165
(dp4221
g58
I3
ssg4167
(dp4222
g58
I3
sssg4169
(dp4223
g4175
g4200
sg4179
(dp4224
g58
I1
ssg4177
(dp4225
g58
I3
ssg4187
(dp4226
g58
I3
ssg4159
(dp4227
g58
I3
ssg4171
(dp4228
g58
I4
ssg4191
(dp4229
g58
I2
ssg4173
(dp4230
g58
I1
ssg4165
(dp4231
g58
I2
ssg4167
(dp4232
g58
I4
ssg4185
(dp4233
g58
I6
ssg4193
(dp4234
g58
I1
ssg4195
(dp4235
g58
I5
sssg4181
(dp4236
g4175
g4207
sg4157
g4219
sg4161
(dp4237
g58
I1
ssg4171
(dp4238
g58
I1
ssg4189
(dp4239
g58
I1
ssg4173
(dp4240
g58
I1
ssg4165
(dp4241
g58
I1
ssg4167
(dp4242
g58
I1
sssg4177
(dp4243
g4175
g4201
sg4169
g4225
sg4183
(dp4244
g58
I1
ssg4187
(dp4245
g58
I6
ssg4159
(dp4246
g58
I3
ssg4171
(dp4247
g58
I2
ssg4191
(dp4248
g58
I6
ssg4173
(dp4249
g58
I1
ssg4165
(dp4250
g58
I1
ssg4167
(dp4251
g58
I2
ssg4185
(dp4252
g58
I5
ssg4195
(dp4253
g58
I3
sssg4183
(dp4254
g4175
g4202
sg4177
g4244
sg4187
(dp4255
g58
I1
ssg4159
(dp4256
g58
I1
ssg4191
(dp4257
g58
I1
ssg4165
(dp4258
g58
I1
ssg4185
(dp4259
g58
I2
ssg4195
(dp4260
g58
I1
sssg4187
(dp4261
g4175
g4203
sg4169
g4226
sg4177
g4245
sg4183
g4255
sg4159
(dp4262
g58
I2
ssg4171
(dp4263
g58
I1
ssg4179
(dp4264
g58
I1
ssg4191
(dp4265
g58
I3
ssg4173
(dp4266
g58
I1
ssg4165
(dp4267
g58
I2
ssg4167
(dp4268
g58
I3
ssg4185
(dp4269
g58
I5
ssg4195
(dp4270
g58
I3
sssg4161
(dp4271
g4175
g4204
sg4157
g4216
sg4171
(dp4272
g58
I3
ssg4189
(dp4273
g58
I4
ssg4181
g4237
sg4173
(dp4274
g58
I3
ssg4165
(dp4275
g58
I2
ssg4167
(dp4276
g58
I2
sssg4159
(dp4277
g4175
g4205
sg4169
g4227
sg4177
g4246
sg4187
g4262
sg4171
(dp4278
g58
I7
ssg4179
(dp4279
g58
I2
ssg4191
(dp4280
g58
I6
ssg4183
g4256
sg4165
(dp4281
g58
I1
ssg4167
(dp4282
g58
I4
ssg4185
(dp4283
g58
I3
ssg4195
(dp4284
g58
I5
sssg4171
(dp4285
g4175
g4206
sg4157
g4217
sg4169
g4228
sg4181
g4238
sg4177
g4247
sg4187
g4263
sg4161
g4272
sg4159
g4278
sg4179
(dp4286
g58
I2
ssg4189
(dp4287
g58
I3
ssg4191
(dp4288
g58
I5
ssg4173
(dp4289
g58
I3
ssg4165
(dp4290
g58
I3
ssg4167
(dp4291
g58
I7
ssg4185
(dp4292
g58
I3
ssg4195
(dp4293
g58
I5
sssg4179
(dp4294
g4169
g4224
sg4187
g4264
sg4159
g4279
sg4171
g4286
sg4191
(dp4295
g58
I2
ssg4165
(dp4296
g58
I2
ssg4167
(dp4297
g58
I3
ssg4193
(dp4298
g58
I1
ssg4195
(dp4299
g58
I2
sssg4189
(dp4300
g4175
g4208
sg4157
g4218
sg4171
g4287
sg4161
g4273
sg4181
g4239
sg4173
(dp4301
g58
I3
ssg4165
(dp4302
g58
I2
ssg4167
(dp4303
g58
I2
sssg4191
(dp4304
g4175
g4209
sg4169
g4229
sg4177
g4248
sg4187
g4265
sg4159
g4280
sg4171
g4288
sg4179
g4295
sg4183
g4257
sg4165
(dp4305
g58
I2
ssg4167
(dp4306
g58
I5
ssg4185
(dp4307
g58
I4
ssg4195
(dp4308
g58
I6
sssg4173
(dp4309
g4175
g4210
sg4157
g4220
sg4169
g4230
sg4177
g4249
sg4187
g4266
sg4161
g4274
sg4171
g4289
sg4189
g4301
sg4181
g4240
sg4165
(dp4310
g58
I2
ssg4167
(dp4311
g58
I2
ssg4185
(dp4312
g58
I1
sssg4163
(dp4313
sg4165
(dp4314
g4175
g4211
sg4157
g4221
sg4169
g4231
sg4181
g4241
sg4177
g4250
sg4183
g4258
sg4187
g4267
sg4161
g4275
sg4159
g4281
sg4171
g4290
sg4179
g4296
sg4189
g4302
sg4191
g4305
sg4173
g4310
sg4167
(dp4315
g58
I7
ssg4185
(dp4316
g58
I4
ssg4195
(dp4317
g58
I3
sssg4167
(dp4318
g4175
g4212
sg4157
g4222
sg4169
g4232
sg4181
g4242
sg4177
g4251
sg4187
g4268
sg4161
g4276
sg4159
g4282
sg4171
g4291
sg4179
g4297
sg4189
g4303
sg4191
g4306
sg4173
g4311
sg4165
g4315
sg4185
(dp4319
g58
I6
ssg4195
(dp4320
g58
I8
sssg4185
(dp4321
g4175
g4213
sg4169
g4233
sg4177
g4252
sg4183
g4259
sg4187
g4269
sg4159
g4283
sg4171
g4292
sg4191
g4307
sg4173
g4312
sg4165
g4316
sg4167
g4319
sg4195
(dp4322
g58
I8
sssg4193
(dp4323
g4169
g4234
sg4179
g4298
ssg4195
(dp4324
g4175
g4214
sg4169
g4235
sg4177
g4253
sg4187
g4270
sg4159
g4284
sg4171
g4293
sg4179
g4299
sg4191
g4308
sg4183
g4260
sg4165
g4317
sg4167
g4320
sg4185
g4322
sssg140
(dp4325
g142
S'()'
p4326
ssg144
g51
sg145
g4197
sbs.