(dp0
VPalau
p1
ccopy_reg
_reconstructor
p2
(cnetworkx.classes.graph
Graph
p3
c__builtin__
object
p4
Ntp5
Rp6
(dp7
S'node'
p8
(dp9
VIan
p10
(dp11
sVJanu
p12
(dp13
sVWillard
p14
(dp15
sVCoby
p16
(dp17
sVTom
p18
(dp19
sVJonathan
p20
(dp21
sVGregg
p22
(dp23
sVStephenie
p24
(dp25
sVBobby Jon
p26
(dp27
sVKim
p28
(dp29
sVJolanda
p30
(dp31
sVWanda
p32
(dp33
sVJames
p34
(dp35
sVAshlee
p36
(dp37
sVCaryn
p38
(dp39
sVIbrehem
p40
(dp41
sVJeff
p42
(dp43
sVJenn
p44
(dp45
sVAngie
p46
(dp47
sVKatie
p48
(dp49
ssS'node_dict_factory'
p50
c__builtin__
dict
p51
sS'edge_attr_dict_factory'
p52
g51
sS'edge'
p53
(dp54
g32
(dp55
sg10
(dp56
g22
(dp57
S'weight'
p58
I3
ssg12
(dp59
g58
I1
ssg18
(dp60
g58
I5
ssg16
(dp61
g58
I1
ssg24
(dp62
g58
I1
ssg44
(dp63
g58
I5
ssg38
(dp64
g58
I4
ssg48
(dp65
g58
I6
sssg20
(dp66
sg42
(dp67
g34
(dp68
g58
I2
ssg24
(dp69
g58
I2
ssg26
(dp70
g58
I1
ssg28
(dp71
g58
I2
ssg36
(dp72
g58
I1
ssg46
(dp73
g58
I2
sssg22
(dp74
g10
g57
sg12
(dp75
g58
I1
ssg18
(dp76
g58
I3
ssg14
(dp77
g58
I2
ssg16
(dp78
g58
I1
ssg24
(dp79
g58
I1
ssg44
(dp80
g58
I6
ssg38
(dp81
g58
I3
ssg48
(dp82
g58
I3
sssg12
(dp83
g10
g59
sg22
g75
sg18
(dp84
g58
I1
ssg16
(dp85
g58
I1
ssg44
(dp86
g58
I1
ssg38
(dp87
g58
I1
ssg48
(dp88
g58
I1
sssg34
(dp89
g40
(dp90
g58
I3
ssg42
g68
sg24
(dp91
g58
I5
ssg26
(dp92
g58
I4
ssg28
(dp93
g58
I2
ssg36
(dp94
g58
I1
ssg46
(dp95
g58
I3
sssg18
(dp96
g10
g60
sg22
g76
sg12
g84
sg16
(dp97
g58
I1
ssg24
(dp98
g58
I1
ssg44
(dp99
g58
I5
ssg38
(dp100
g58
I4
ssg48
(dp101
g58
I5
sssg14
(dp102
g22
g77
sg44
(dp103
g58
I2
sssg16
(dp104
g10
g61
sg22
g78
sg12
g85
sg18
g97
sg44
(dp105
g58
I1
ssg38
(dp106
g58
I1
ssg48
(dp107
g58
I1
sssg24
(dp108
g10
g62
sg42
g69
sg22
g79
sg34
g91
sg18
g98
sg26
(dp109
g58
I4
ssg40
(dp110
g58
I3
ssg28
(dp111
g58
I3
ssg44
(dp112
g58
I1
ssg36
(dp113
g58
I1
ssg46
(dp114
g58
I5
ssg38
(dp115
g58
I1
ssg48
(dp116
g58
I1
sssg30
(dp117
g26
(dp118
g58
I1
ssg40
(dp119
g58
I1
sssg26
(dp120
g40
(dp121
g58
I3
ssg42
g70
sg34
g92
sg24
g109
sg28
(dp122
g58
I1
ssg30
g118
sg46
(dp123
g58
I2
sssg40
(dp124
g34
g90
sg24
g110
sg26
g121
sg28
(dp125
g58
I1
ssg30
g119
sg46
(dp126
g58
I2
sssg28
(dp127
g40
g125
sg42
g71
sg34
g93
sg24
g111
sg26
g122
sg36
(dp128
g58
I1
ssg46
(dp129
g58
I3
sssg44
(dp130
g10
g63
sg22
g80
sg12
g86
sg14
g103
sg16
g105
sg24
g112
sg18
g99
sg38
(dp131
g58
I3
ssg48
(dp132
g58
I4
sssg36
(dp133
g24
g113
sg34
g94
sg46
(dp134
g58
I1
ssg28
g128
sg42
g72
ssg46
(dp135
g40
g126
sg42
g73
sg34
g95
sg24
g114
sg26
g123
sg28
g129
sg36
g134
ssg38
(dp136
g10
g64
sg22
g81
sg12
g87
sg18
g100
sg16
g106
sg24
g115
sg44
g131
sg48
(dp137
g58
I4
sssg48
(dp138
g10
g65
sg22
g82
sg12
g88
sg18
g101
sg16
g107
sg24
g116
sg44
g132
sg38
g137
sssS'graph'
p139
(dp140
S'name'
p141
S'()'
p142
ssS'adjlist_dict_factory'
p143
g51
sS'adj'
p144
g54
sbsVTocantins
p145
g2
(g3
g4
Ntp146
Rp147
(dp148
g8
(dp149
VJerry
p150
(dp151
sVStephen
p152
(dp153
sVDebbie
p154
(dp155
sVSydney
p156
(dp157
sVSierra
p158
(dp159
sVCarolina
p160
(dp161
sVJ.T.
p162
(dp163
sVJoe
p164
(dp165
sVErinn
p166
(dp167
sVTyson
p168
(dp169
sVBrendan
p170
(dp171
sVSpencer
p172
(dp173
sVCoach
p174
(dp175
sVCandace
p176
(dp177
sVTaj
p178
(dp179
sVSandy
p180
(dp181
ssg50
g51
sg52
g51
sg53
(dp182
g174
(dp183
g162
(dp184
g58
I2
ssg170
(dp185
g58
I2
ssg150
(dp186
g58
I1
ssg158
(dp187
g58
I2
ssg154
(dp188
g58
I5
ssg166
(dp189
g58
I2
ssg152
(dp190
g58
I2
ssg168
(dp191
g58
I3
ssg178
(dp192
g58
I1
sssg162
(dp193
g174
g184
sg180
(dp194
g58
I1
ssg158
(dp195
g58
I1
ssg154
(dp196
g58
I1
ssg156
(dp197
g58
I3
ssg166
(dp198
g58
I4
ssg152
(dp199
g58
I8
ssg168
(dp200
g58
I1
ssg172
(dp201
g58
I2
ssg178
(dp202
g58
I5
ssg164
(dp203
g58
I3
sssg170
(dp204
g174
g185
sg150
(dp205
g58
I1
ssg154
(dp206
g58
I2
ssg166
(dp207
g58
I2
ssg158
(dp208
g58
I3
ssg168
(dp209
g58
I2
sssg176
(dp210
sg180
(dp211
g162
g194
sg164
(dp212
g58
I1
ssg156
(dp213
g58
I1
ssg152
(dp214
g58
I1
ssg172
(dp215
g58
I1
ssg178
(dp216
g58
I1
sssg150
(dp217
g174
g186
sg170
g205
sg154
(dp218
g58
I1
ssg166
(dp219
g58
I1
ssg158
(dp220
g58
I1
ssg168
(dp221
g58
I1
sssg158
(dp222
g174
g187
sg162
g195
sg170
g208
sg150
g220
sg154
(dp223
g58
I2
ssg166
(dp224
g58
I3
ssg152
(dp225
g58
I1
ssg168
(dp226
g58
I2
ssg178
(dp227
g58
I2
sssg154
(dp228
g174
g188
sg162
g196
sg170
g206
sg150
g218
sg158
g223
sg166
(dp229
g58
I2
ssg152
(dp230
g58
I2
ssg168
(dp231
g58
I3
ssg178
(dp232
g58
I1
sssg156
(dp233
g162
g197
sg178
(dp234
g58
I2
ssg152
(dp235
g58
I3
ssg172
(dp236
g58
I2
ssg180
g213
sg164
(dp237
g58
I4
sssg166
(dp238
g174
g189
sg162
g198
sg170
g207
sg150
g219
sg158
g224
sg154
g229
sg152
(dp239
g58
I4
ssg168
(dp240
g58
I3
ssg178
(dp241
g58
I3
sssg152
(dp242
g174
g190
sg162
g199
sg180
g214
sg154
g230
sg156
g235
sg166
g239
sg158
g225
sg172
(dp243
g58
I2
ssg178
(dp244
g58
I7
ssg164
(dp245
g58
I3
sssg168
(dp246
g174
g191
sg162
g200
sg170
g209
sg150
g221
sg154
g231
sg166
g240
sg158
g226
ssg160
(dp247
sg172
(dp248
g162
g201
sg178
(dp249
g58
I1
ssg156
g236
sg152
g243
sg180
g215
sg164
(dp250
g58
I2
sssg178
(dp251
g174
g192
sg162
g202
sg158
g227
sg154
g232
sg156
g234
sg166
g241
sg152
g244
sg172
g249
sg180
g216
sg164
(dp252
g58
I2
sssg164
(dp253
g162
g203
sg178
g252
sg156
g237
sg152
g245
sg172
g250
sg180
g212
sssg139
(dp254
g141
S'()'
p255
ssg143
g51
sg144
g182
sbsVBorneo
p256
g2
(g3
g4
Ntp257
Rp258
(dp259
g8
(dp260
VRichard
p261
(dp262
sVGervase
p263
(dp264
sVRamona
p265
(dp266
sVGretchen
p267
(dp268
sVRudy
p269
(dp270
sVB.B.
p271
(dp272
sVSusan
p273
(dp274
sVJoel
p275
(dp276
sVDirk
p277
(dp278
sVGreg
p279
(dp280
sVKelly
p281
(dp282
sVStacey
p283
(dp284
sVSonja
p285
(dp286
sVSean
p287
(dp288
sVColleen
p289
(dp290
sVJenna
p291
(dp292
ssg50
g51
sg52
g51
sg53
(dp293
g263
(dp294
g265
(dp295
g58
I2
ssg275
(dp296
g58
I2
ssg279
(dp297
g58
I1
ssg267
(dp298
g58
I1
ssg289
(dp299
g58
I4
ssg291
(dp300
g58
I2
sssg267
(dp301
g263
g298
sg265
(dp302
g58
I1
ssg275
(dp303
g58
I2
ssg279
(dp304
g58
I1
ssg289
(dp305
g58
I3
ssg291
(dp306
g58
I3
sssg271
(dp307
g279
(dp308
g58
I1
sssg265
(dp309
g267
g302
sg289
(dp310
g58
I1
ssg263
g295
sg291
(dp311
g58
I1
ssg275
(dp312
g58
I1
sssg261
(dp313
g273
(dp314
g58
I8
ssg277
(dp315
g58
I1
ssg287
(dp316
g58
I5
ssg281
(dp317
g58
I5
ssg269
(dp318
g58
I9
ssg291
(dp319
g58
I1
sssg273
(dp320
g261
g314
sg277
(dp321
g58
I2
ssg287
(dp322
g58
I6
ssg281
(dp323
g58
I6
ssg269
(dp324
g58
I9
ssg291
(dp325
g58
I1
sssg275
(dp326
g267
g303
sg289
(dp327
g58
I2
ssg263
g296
sg291
(dp328
g58
I2
ssg265
g312
ssg285
(dp329
g281
(dp330
g58
I1
ssg283
(dp331
g58
I1
sssg283
(dp332
g281
(dp333
g58
I2
ssg285
g331
ssg277
(dp334
g269
(dp335
g58
I2
ssg287
(dp336
g58
I2
ssg261
g315
sg273
g321
ssg279
(dp337
g267
g304
sg289
(dp338
g58
I2
ssg263
g297
sg271
g308
sg291
(dp339
g58
I1
sssg287
(dp340
g261
g316
sg273
g322
sg277
g336
sg281
(dp341
g58
I2
ssg269
(dp342
g58
I6
ssg291
(dp343
g58
I1
sssg281
(dp344
g261
g317
sg273
g323
sg285
g330
sg283
g333
sg287
g341
sg289
(dp345
g58
I1
ssg269
(dp346
g58
I6
ssg291
(dp347
g58
I1
sssg289
(dp348
g263
g299
sg265
g310
sg275
g327
sg267
g305
sg279
g338
sg281
g345
sg291
(dp349
g58
I4
sssg269
(dp350
g261
g318
sg273
g324
sg277
g335
sg287
g342
sg281
g346
sg291
(dp351
g58
I1
sssg291
(dp352
g263
g300
sg265
g311
sg261
g319
sg273
g325
sg275
g328
sg267
g306
sg279
g339
sg287
g343
sg281
g347
sg289
g349
sg269
g351
sssg139
(dp353
g141
S'()'
p354
ssg143
g51
sg144
g293
sbsVHeroes_vs._Villains
p355
g2
(g3
g4
Ntp356
Rp357
(dp358
g8
(dp359
VParvati
p360
(dp361
sVRussell
p362
(dp363
sVCourtney
p364
(dp365
sVSugar
p366
(dp367
sVRandy
p368
(dp369
sVColby
p370
(dp371
sVTom
p372
(dp373
sVJerri
p374
(dp375
sVJ.T.
p376
(dp377
sVStephenie
p378
(dp379
sVSandra
p380
(dp381
sVTyson
p382
(dp383
sVJames
p384
(dp385
sVAmanda
p386
(dp387
sVCoach
p388
(dp389
sVRob
p390
(dp391
sVCandice
p392
(dp393
sVDanielle
p394
(dp395
sVRupert
p396
(dp397
sVCirie
p398
(dp399
ssg50
g51
sg52
g51
sg53
(dp400
g372
(dp401
g376
(dp402
g58
I2
ssg384
(dp403
g58
I1
ssg378
(dp404
g58
I2
ssg392
(dp405
g58
I1
ssg370
(dp406
g58
I4
ssg396
(dp407
g58
I1
ssg386
(dp408
g58
I1
ssg398
(dp409
g58
I1
sssg388
(dp410
g360
(dp411
g58
I1
ssg362
(dp412
g58
I2
ssg390
(dp413
g58
I1
ssg380
(dp414
g58
I1
ssg394
(dp415
g58
I1
ssg364
(dp416
g58
I2
ssg382
(dp417
g58
I2
ssg374
(dp418
g58
I3
sssg360
(dp419
g388
g411
sg362
(dp420
g58
I9
ssg390
(dp421
g58
I1
ssg380
(dp422
g58
I9
ssg392
(dp423
g58
I2
ssg364
(dp424
g58
I2
ssg394
(dp425
g58
I9
ssg382
(dp426
g58
I1
ssg374
(dp427
g58
I7
sssg362
(dp428
g388
g412
sg360
g420
sg390
(dp429
g58
I1
ssg364
(dp430
g58
I1
ssg392
(dp431
g58
I1
ssg394
(dp432
g58
I6
ssg380
(dp433
g58
I8
ssg370
(dp434
g58
I2
ssg396
(dp435
g58
I2
ssg374
(dp436
g58
I10
ssg382
(dp437
g58
I1
sssg376
(dp438
g384
(dp439
g58
I3
ssg378
(dp440
g58
I1
ssg392
(dp441
g58
I5
ssg372
g402
sg370
(dp442
g58
I4
ssg396
(dp443
g58
I5
ssg386
(dp444
g58
I5
ssg398
(dp445
g58
I2
sssg384
(dp446
g376
g439
sg378
(dp447
g58
I1
ssg392
(dp448
g58
I3
ssg372
g403
sg370
(dp449
g58
I1
ssg396
(dp450
g58
I4
ssg386
(dp451
g58
I3
ssg398
(dp452
g58
I2
sssg390
(dp453
g388
g413
sg360
g421
sg362
g429
sg380
(dp454
g58
I3
ssg394
(dp455
g58
I1
ssg364
(dp456
g58
I2
ssg382
(dp457
g58
I1
ssg374
(dp458
g58
I1
sssg364
(dp459
g388
g416
sg360
g424
sg362
g430
sg390
g456
sg394
(dp460
g58
I2
ssg380
(dp461
g58
I3
ssg382
(dp462
g58
I2
ssg374
(dp463
g58
I2
sssg392
(dp464
g360
g423
sg362
g431
sg376
g441
sg384
g448
sg372
g405
sg398
(dp465
g58
I3
ssg378
(dp466
g58
I1
ssg370
(dp467
g58
I3
ssg380
(dp468
g58
I1
ssg394
(dp469
g58
I2
ssg396
(dp470
g58
I5
ssg386
(dp471
g58
I6
ssg374
(dp472
g58
I1
sssg398
(dp473
g376
g445
sg384
g452
sg378
(dp474
g58
I1
ssg392
g465
sg372
g409
sg370
(dp475
g58
I1
ssg396
(dp476
g58
I2
ssg386
(dp477
g58
I3
sssg378
(dp478
g376
g440
sg384
g447
sg392
g466
sg372
g404
sg370
(dp479
g58
I2
ssg396
(dp480
g58
I1
ssg386
(dp481
g58
I1
ssg398
g474
ssg368
(dp482
sg370
(dp483
g362
g434
sg376
g442
sg384
g449
sg372
g406
sg398
g475
sg378
g479
sg392
g467
sg380
(dp484
g58
I1
ssg396
(dp485
g58
I7
ssg386
(dp486
g58
I4
ssg374
(dp487
g58
I2
sssg380
(dp488
g388
g414
sg360
g422
sg362
g433
sg390
g454
sg392
g468
sg394
(dp489
g58
I6
ssg364
g461
sg370
g484
sg396
(dp490
g58
I1
ssg374
(dp491
g58
I7
ssg382
(dp492
g58
I1
sssg394
(dp493
g388
g415
sg360
g425
sg362
g432
sg390
g455
sg380
g489
sg392
g469
sg364
g460
sg382
(dp494
g58
I1
ssg374
(dp495
g58
I5
sssg396
(dp496
g362
g435
sg376
g443
sg384
g450
sg372
g407
sg398
g476
sg378
g480
sg392
g470
sg380
g490
sg370
g485
sg386
(dp497
g58
I6
ssg374
(dp498
g58
I2
sssg366
(dp499
sg386
(dp500
g376
g444
sg384
g451
sg378
g481
sg392
g471
sg372
g408
sg370
g486
sg396
g497
sg398
g477
ssg374
(dp501
g388
g418
sg360
g427
sg362
g436
sg390
g458
sg364
g463
sg392
g472
sg394
g495
sg380
g491
sg370
g487
sg396
g498
sg382
(dp502
g58
I2
sssg382
(dp503
g388
g417
sg360
g426
sg362
g437
sg390
g457
sg380
g492
sg394
g494
sg364
g462
sg374
g502
sssg139
(dp504
g141
S'()'
p505
ssg143
g51
sg144
g400
sbsVPanama
p506
g2
(g3
g4
Ntp507
Rp508
(dp509
g8
(dp510
VMelinda
p511
(dp512
sVNick
p513
(dp514
sVDanielle
p515
(dp516
sVTina
p517
(dp518
sVCourtney
p519
(dp520
sVAras
p521
(dp522
sVShane
p523
(dp524
sVDan
p525
(dp526
sVTerry
p527
(dp528
sVSally
p529
(dp530
sVMisty
p531
(dp532
sVBobby
p533
(dp534
sVAustin
p535
(dp536
sVRuth-Marie
p537
(dp538
sVBruce
p539
(dp540
sVCirie
p541
(dp542
ssg50
g51
sg52
g51
sg53
(dp543
g521
(dp544
g533
(dp545
g58
I2
ssg523
(dp546
g58
I4
ssg539
(dp547
g58
I3
ssg515
(dp548
g58
I6
ssg519
(dp549
g58
I4
ssg541
(dp550
g58
I6
sssg537
(dp551
g511
(dp552
g58
I1
ssg525
(dp553
g58
I2
ssg513
(dp554
g58
I1
ssg527
(dp555
g58
I1
ssg535
(dp556
g58
I1
ssg541
(dp557
g58
I1
sssg517
(dp558
sg533
(dp559
g523
(dp560
g58
I1
ssg521
g545
sg515
(dp561
g58
I1
ssg519
(dp562
g58
I1
sssg523
(dp563
g521
g546
sg533
g560
sg539
(dp564
g58
I3
ssg515
(dp565
g58
I4
ssg519
(dp566
g58
I4
ssg541
(dp567
g58
I3
sssg535
(dp568
g513
(dp569
g58
I4
ssg525
(dp570
g58
I1
ssg529
(dp571
g58
I3
ssg537
g556
sg527
(dp572
g58
I5
sssg525
(dp573
g513
(dp574
g58
I1
ssg535
g570
sg537
g553
sg527
(dp575
g58
I1
sssg527
(dp576
g537
g555
sg529
(dp577
g58
I4
ssg525
g575
sg513
(dp578
g58
I4
ssg515
(dp579
g58
I1
ssg519
(dp580
g58
I1
ssg535
g572
ssg513
(dp581
g535
g569
sg525
g574
sg529
(dp582
g58
I2
ssg537
g554
sg527
g578
ssg539
(dp583
g523
g564
sg521
g547
sg515
(dp584
g58
I3
ssg541
(dp585
g58
I3
ssg519
(dp586
g58
I3
sssg511
(dp587
g537
g552
sg541
(dp588
g58
I2
sssg515
(dp589
g521
g548
sg533
g561
sg523
g565
sg527
g579
sg539
g584
sg519
(dp590
g58
I5
ssg541
(dp591
g58
I6
sssg531
(dp592
g529
(dp593
g58
I1
sssg519
(dp594
g521
g549
sg533
g562
sg523
g566
sg539
g586
sg515
g590
sg527
g580
sg541
(dp595
g58
I4
sssg529
(dp596
g513
g582
sg535
g571
sg531
g593
sg527
g577
ssg541
(dp597
g521
g550
sg537
g557
sg523
g567
sg511
g588
sg539
g585
sg515
g591
sg519
g595
sssg139
(dp598
g141
S'()'
p599
ssg143
g51
sg144
g543
sbsVCambodia
p600
g2
(g3
g4
Ntp601
Rp602
(dp603
g8
(dp604
VJeremy
p605
(dp606
sVWoo
p607
(dp608
sVStephen
p609
(dp610
sVMonica
p611
(dp612
sVTasha
p613
(dp614
sVAndrew
p615
(dp616
sVKass
p617
(dp618
sVJoe
p619
(dp620
sVTerry
p621
(dp622
sVAbi-Maria
p623
(dp624
sVVytas
p625
(dp626
sVCiera
p627
(dp628
sVKelly
p629
(dp630
sVSpencer
p631
(dp632
sVJeff
p633
(dp634
sVKeith
p635
(dp636
sVPeih-Gee
p637
(dp638
sVKimmi
p639
(dp640
sVKelley
p641
(dp642
sVShirin
p643
(dp644
ssg50
g51
sg52
g51
sg53
(dp645
g611
(dp646
g631
(dp647
g58
I1
sssg605
(dp648
g613
(dp649
g58
I3
ssg635
(dp650
g58
I2
ssg615
(dp651
g58
I1
ssg631
(dp652
g58
I5
ssg629
(dp653
g58
I2
ssg627
(dp654
g58
I1
ssg619
(dp655
g58
I2
ssg609
(dp656
g58
I5
ssg623
(dp657
g58
I3
ssg641
(dp658
g58
I3
ssg639
(dp659
g58
I5
sssg625
(dp660
g629
(dp661
g58
I1
ssg607
(dp662
g58
I1
ssg621
(dp663
g58
I1
sssg633
(dp664
g613
(dp665
g58
I1
ssg615
(dp666
g58
I1
ssg637
(dp667
g58
I2
ssg607
(dp668
g58
I1
ssg629
(dp669
g58
I1
ssg623
(dp670
g58
I2
ssg641
(dp671
g58
I1
ssg631
(dp672
g58
I2
ssg643
(dp673
g58
I1
sssg613
(dp674
g605
g649
sg633
g665
sg641
(dp675
g58
I3
ssg615
(dp676
g58
I4
ssg631
(dp677
g58
I4
ssg629
(dp678
g58
I2
ssg607
(dp679
g58
I1
ssg619
(dp680
g58
I2
ssg609
(dp681
g58
I3
ssg623
(dp682
g58
I5
ssg635
(dp683
g58
I4
ssg639
(dp684
g58
I7
sssg641
(dp685
g605
g658
sg633
g671
sg613
g675
sg615
(dp686
g58
I1
ssg631
(dp687
g58
I6
ssg637
(dp688
g58
I1
ssg627
(dp689
g58
I3
ssg621
(dp690
g58
I1
ssg609
(dp691
g58
I2
ssg623
(dp692
g58
I8
ssg635
(dp693
g58
I4
ssg639
(dp694
g58
I3
ssg643
(dp695
g58
I2
sssg615
(dp696
g605
g651
sg633
g666
sg613
g676
sg641
g686
sg631
(dp697
g58
I1
ssg629
(dp698
g58
I2
ssg607
(dp699
g58
I2
ssg619
(dp700
g58
I1
ssg609
(dp701
g58
I2
ssg623
(dp702
g58
I2
ssg635
(dp703
g58
I2
ssg639
(dp704
g58
I2
sssg617
(dp705
g623
(dp706
g58
I2
ssg627
(dp707
g58
I1
ssg631
(dp708
g58
I1
sssg631
(dp709
g611
g647
sg605
g652
sg633
g672
sg613
g677
sg641
g687
sg615
g697
sg617
g708
sg637
(dp710
g58
I2
ssg629
(dp711
g58
I3
ssg607
(dp712
g58
I1
ssg627
(dp713
g58
I2
ssg619
(dp714
g58
I3
ssg609
(dp715
g58
I2
ssg623
(dp716
g58
I8
ssg635
(dp717
g58
I5
ssg639
(dp718
g58
I3
ssg643
(dp719
g58
I1
sssg637
(dp720
g633
g667
sg607
(dp721
g58
I2
ssg629
(dp722
g58
I1
ssg623
(dp723
g58
I1
ssg641
g688
sg631
g710
sg643
(dp724
g58
I1
sssg629
(dp725
g605
g653
sg633
g669
sg613
g678
sg625
g661
sg615
g698
sg637
g722
sg607
(dp726
g58
I3
ssg619
(dp727
g58
I2
ssg621
(dp728
g58
I1
ssg609
(dp729
g58
I1
ssg639
(dp730
g58
I2
ssg635
(dp731
g58
I1
ssg631
g711
ssg607
(dp732
g633
g668
sg613
g679
sg615
g699
sg637
g721
sg621
(dp733
g58
I1
ssg629
g726
sg623
(dp734
g58
I1
ssg625
g662
sg631
g712
ssg627
(dp735
g605
g654
sg617
g707
sg609
(dp736
g58
I1
ssg623
(dp737
g58
I3
ssg641
g689
sg631
g713
ssg619
(dp738
g605
g655
sg613
g680
sg615
g700
sg631
g714
sg629
g727
sg609
(dp739
g58
I1
ssg623
(dp740
g58
I1
ssg635
(dp741
g58
I3
ssg639
(dp742
g58
I1
sssg621
(dp743
g641
g690
sg607
g733
sg629
g728
sg623
(dp744
g58
I1
ssg625
g663
sg643
(dp745
g58
I1
sssg609
(dp746
g605
g656
sg613
g681
sg641
g691
sg615
g701
sg631
g715
sg627
g736
sg619
g739
sg629
g729
sg623
(dp747
g58
I1
ssg635
(dp748
g58
I2
ssg639
(dp749
g58
I5
sssg623
(dp750
g605
g657
sg633
g670
sg613
g682
sg641
g692
sg615
g702
sg617
g706
sg637
g723
sg607
g734
sg627
g737
sg619
g740
sg621
g744
sg609
g747
sg639
(dp751
g58
I2
ssg635
(dp752
g58
I4
ssg631
g716
sg643
(dp753
g58
I2
sssg635
(dp754
g605
g650
sg613
g683
sg615
g703
sg631
g717
sg629
g731
sg619
g741
sg609
g748
sg623
g752
sg641
g693
sg639
(dp755
g58
I3
sssg639
(dp756
g605
g659
sg613
g684
sg641
g694
sg615
g704
sg629
g730
sg619
g742
sg609
g749
sg623
g751
sg635
g755
sg631
g718
ssg643
(dp757
g633
g673
sg637
g724
sg621
g745
sg623
g753
sg641
g695
sg631
g719
sssg139
(dp758
g141
S'()'
p759
ssg143
g51
sg144
g645
sbsVBlood_vs._Water
p760
g2
(g3
g4
Ntp761
Rp762
(dp763
g8
(dp764
VMarissa
p765
(dp766
sVHayden
p767
(dp768
sVTina
p769
(dp770
sVJohn
p771
(dp772
sVMonica
p773
(dp774
sVGervase
p775
(dp776
sVColton
p777
(dp778
sVLaura M.
p779
(dp780
sVKat
p781
(dp782
sVTyson
p783
(dp784
sVVytas
p785
(dp786
sVAras
p787
(dp788
sVCiera
p789
(dp790
sVBrad
p791
(dp792
sVLaura B.
p793
(dp794
sVRachel
p795
(dp796
sVCaleb
p797
(dp798
sVCandice
p799
(dp800
sVRupert
p801
(dp802
sVKatie
p803
(dp804
ssg50
g51
sg52
g51
sg53
(dp805
g773
(dp806
g787
(dp807
g58
I9
ssg775
(dp808
g58
I19
ssg771
(dp809
g58
I2
ssg779
(dp810
g58
I12
ssg765
(dp811
g58
I1
ssg777
(dp812
g58
I5
ssg791
(dp813
g58
I2
ssg797
(dp814
g58
I6
ssg767
(dp815
g58
I7
ssg789
(dp816
g58
I6
ssg799
(dp817
g58
I1
ssg769
(dp818
g58
I13
ssg781
(dp819
g58
I10
ssg783
(dp820
g58
I18
ssg793
(dp821
g58
I8
ssg785
(dp822
g58
I4
ssg795
(dp823
g58
I1
ssg801
(dp824
g58
I1
ssg803
(dp825
g58
I6
sssg775
(dp826
g773
g808
sg771
(dp827
g58
I2
ssg769
(dp828
g58
I11
ssg787
(dp829
g58
I11
ssg765
(dp830
g58
I1
ssg777
(dp831
g58
I5
ssg791
(dp832
g58
I2
ssg797
(dp833
g58
I8
ssg767
(dp834
g58
I8
ssg789
(dp835
g58
I8
ssg799
(dp836
g58
I1
ssg779
(dp837
g58
I12
ssg781
(dp838
g58
I10
ssg783
(dp839
g58
I21
ssg793
(dp840
g58
I7
ssg785
(dp841
g58
I2
ssg795
(dp842
g58
I1
ssg801
(dp843
g58
I1
ssg803
(dp844
g58
I4
sssg771
(dp845
g773
g809
sg775
g827
sg795
(dp846
g58
I3
ssg779
(dp847
g58
I2
ssg787
(dp848
g58
I2
ssg765
(dp849
g58
I2
ssg777
(dp850
g58
I1
ssg791
(dp851
g58
I6
ssg797
(dp852
g58
I6
ssg767
(dp853
g58
I6
ssg789
(dp854
g58
I5
ssg769
(dp855
g58
I2
ssg781
(dp856
g58
I2
ssg783
(dp857
g58
I2
ssg793
(dp858
g58
I1
ssg785
(dp859
g58
I6
ssg803
(dp860
g58
I4
sssg779
(dp861
g773
g810
sg775
g837
sg771
g847
sg787
(dp862
g58
I8
ssg765
(dp863
g58
I1
ssg777
(dp864
g58
I5
ssg791
(dp865
g58
I2
ssg797
(dp866
g58
I5
ssg767
(dp867
g58
I5
ssg789
(dp868
g58
I4
ssg799
(dp869
g58
I1
ssg769
(dp870
g58
I10
ssg781
(dp871
g58
I9
ssg783
(dp872
g58
I11
ssg793
(dp873
g58
I6
ssg785
(dp874
g58
I2
ssg795
(dp875
g58
I1
ssg801
(dp876
g58
I1
ssg803
(dp877
g58
I3
sssg787
(dp878
g773
g807
sg775
g829
sg771
g848
sg779
g862
sg765
(dp879
g58
I1
ssg777
(dp880
g58
I4
ssg791
(dp881
g58
I2
ssg797
(dp882
g58
I4
ssg767
(dp883
g58
I4
ssg789
(dp884
g58
I4
ssg799
(dp885
g58
I1
ssg769
(dp886
g58
I9
ssg781
(dp887
g58
I9
ssg783
(dp888
g58
I11
ssg793
(dp889
g58
I7
ssg785
(dp890
g58
I3
ssg795
(dp891
g58
I1
ssg801
(dp892
g58
I1
ssg803
(dp893
g58
I2
sssg765
(dp894
g773
g811
sg775
g830
sg795
(dp895
g58
I2
ssg779
g863
sg787
g879
sg777
(dp896
g58
I1
ssg791
(dp897
g58
I2
ssg797
(dp898
g58
I2
ssg767
(dp899
g58
I2
ssg789
(dp900
g58
I2
ssg769
(dp901
g58
I1
ssg781
(dp902
g58
I1
ssg783
(dp903
g58
I1
ssg771
g849
sg785
(dp904
g58
I2
ssg803
(dp905
g58
I2
sssg777
(dp906
g773
g812
sg775
g831
sg771
g850
sg779
g864
sg787
g880
sg765
g896
sg791
(dp907
g58
I1
ssg797
(dp908
g58
I1
ssg767
(dp909
g58
I1
ssg789
(dp910
g58
I1
ssg799
(dp911
g58
I1
ssg769
(dp912
g58
I5
ssg781
(dp913
g58
I5
ssg783
(dp914
g58
I4
ssg793
(dp915
g58
I2
ssg785
(dp916
g58
I1
ssg795
(dp917
g58
I1
ssg801
(dp918
g58
I1
ssg803
(dp919
g58
I1
sssg791
(dp920
g773
g813
sg775
g832
sg771
g851
sg779
g865
sg787
g881
sg777
g907
sg765
g897
sg797
(dp921
g58
I7
ssg767
(dp922
g58
I8
ssg789
(dp923
g58
I7
ssg769
(dp924
g58
I2
ssg781
(dp925
g58
I2
ssg783
(dp926
g58
I2
ssg793
(dp927
g58
I1
ssg785
(dp928
g58
I8
ssg795
(dp929
g58
I3
ssg803
(dp930
g58
I5
sssg797
(dp931
g773
g814
sg775
g833
sg771
g852
sg779
g866
sg787
g882
sg765
g898
sg777
g908
sg791
g921
sg767
(dp932
g58
I15
ssg789
(dp933
g58
I13
ssg769
(dp934
g58
I3
ssg781
(dp935
g58
I2
ssg783
(dp936
g58
I8
ssg793
(dp937
g58
I1
ssg785
(dp938
g58
I9
ssg795
(dp939
g58
I3
ssg803
(dp940
g58
I11
sssg767
(dp941
g773
g815
sg775
g834
sg771
g853
sg779
g867
sg787
g883
sg765
g899
sg777
g909
sg791
g922
sg797
g932
sg789
(dp942
g58
I14
ssg769
(dp943
g58
I3
ssg781
(dp944
g58
I2
ssg783
(dp945
g58
I8
ssg793
(dp946
g58
I1
ssg785
(dp947
g58
I9
ssg795
(dp948
g58
I3
ssg803
(dp949
g58
I10
sssg789
(dp950
g773
g816
sg775
g835
sg771
g854
sg779
g868
sg787
g884
sg765
g900
sg777
g910
sg791
g923
sg797
g933
sg767
g942
sg769
(dp951
g58
I3
ssg781
(dp952
g58
I2
ssg783
(dp953
g58
I8
ssg793
(dp954
g58
I1
ssg785
(dp955
g58
I7
ssg795
(dp956
g58
I3
ssg803
(dp957
g58
I11
sssg799
(dp958
g787
g885
sg775
g836
sg779
g869
sg773
g817
sg777
g911
sg769
(dp959
g58
I1
ssg781
(dp960
g58
I1
ssg783
(dp961
g58
I2
ssg801
(dp962
g58
I2
sssg769
(dp963
g773
g818
sg775
g828
sg771
g855
sg787
g886
sg765
g901
sg777
g912
sg791
g924
sg797
g934
sg767
g943
sg789
g951
sg799
g959
sg779
g870
sg781
(dp964
g58
I10
ssg783
(dp965
g58
I10
ssg793
(dp966
g58
I8
ssg785
(dp967
g58
I4
ssg795
(dp968
g58
I1
ssg801
(dp969
g58
I1
ssg803
(dp970
g58
I6
sssg781
(dp971
g773
g819
sg775
g838
sg771
g856
sg779
g871
sg787
g887
sg777
g913
sg765
g902
sg797
g935
sg767
g944
sg789
g952
sg799
g960
sg769
g964
sg791
g925
sg783
(dp972
g58
I9
ssg793
(dp973
g58
I7
ssg785
(dp974
g58
I2
ssg795
(dp975
g58
I1
ssg801
(dp976
g58
I1
ssg803
(dp977
g58
I2
sssg783
(dp978
g773
g820
sg775
g839
sg771
g857
sg769
g965
sg787
g888
sg765
g903
sg777
g914
sg791
g926
sg797
g936
sg767
g945
sg789
g953
sg799
g961
sg779
g872
sg781
g972
sg801
(dp979
g58
I2
ssg793
(dp980
g58
I7
ssg785
(dp981
g58
I2
ssg795
(dp982
g58
I1
ssg803
(dp983
g58
I4
sssg793
(dp984
g773
g821
sg775
g840
sg779
g873
sg787
g889
sg777
g915
sg791
g927
sg797
g937
sg767
g946
sg789
g954
sg769
g966
sg781
g973
sg783
g980
sg771
g858
sg785
(dp985
g58
I2
ssg803
(dp986
g58
I3
sssg785
(dp987
g773
g822
sg775
g841
sg771
g859
sg779
g874
sg787
g890
sg765
g904
sg777
g916
sg791
g928
sg797
g938
sg767
g947
sg789
g955
sg769
g967
sg781
g974
sg783
g981
sg793
g985
sg795
(dp988
g58
I3
ssg803
(dp989
g58
I9
sssg795
(dp990
g773
g823
sg775
g842
sg779
g875
sg787
g891
sg765
g895
sg777
g917
sg791
g929
sg797
g939
sg767
g948
sg789
g956
sg769
g968
sg781
g975
sg783
g982
sg771
g846
sg785
g988
sg803
(dp991
g58
I3
sssg801
(dp992
g787
g892
sg775
g843
sg779
g876
sg773
g824
sg777
g918
sg799
g962
sg769
g969
sg781
g976
sg783
g979
ssg803
(dp993
g773
g825
sg775
g844
sg771
g860
sg779
g877
sg787
g893
sg765
g905
sg777
g919
sg791
g930
sg797
g940
sg767
g949
sg789
g957
sg769
g970
sg781
g977
sg783
g983
sg793
g986
sg785
g989
sg795
g991
sssg139
(dp994
g141
S'()'
p995
ssg143
g51
sg144
g805
sbsVMarquesas
p996
g2
(g3
g4
Ntp997
Rp998
(dp999
g8
(dp1000
VSarah
p1001
(dp1002
sVZoe
p1003
(dp1004
sVRobert
p1005
(dp1006
sVPaschal
p1007
(dp1008
sVJohn
p1009
(dp1010
sVNeleh
p1011
(dp1012
sVKathy
p1013
(dp1014
sVGina
p1015
(dp1016
sVHunter
p1017
(dp1018
sVTammy
p1019
(dp1020
sVGabriel
p1021
(dp1022
sVPatricia
p1023
(dp1024
sVVecepia
p1025
(dp1026
sVRob
p1027
(dp1028
sVSean
p1029
(dp1030
sVPeter
p1031
(dp1032
ssg50
g51
sg52
g51
sg53
(dp1033
g1013
(dp1034
g1003
(dp1035
g58
I1
ssg1005
(dp1036
g58
I1
ssg1015
(dp1037
g58
I1
ssg1007
(dp1038
g58
I7
ssg1025
(dp1039
g58
I5
ssg1029
(dp1040
g58
I4
ssg1011
(dp1041
g58
I7
ssg1019
(dp1042
g58
I1
sssg1001
(dp1043
g1027
(dp1044
g58
I3
ssg1015
(dp1045
g58
I1
ssg1017
(dp1046
g58
I1
ssg1023
(dp1047
g58
I1
ssg1025
(dp1048
g58
I2
ssg1029
(dp1049
g58
I2
sssg1031
(dp1050
sg1019
(dp1051
g1013
g1042
sg1003
(dp1052
g58
I2
ssg1005
(dp1053
g58
I5
ssg1007
(dp1054
g58
I2
ssg1025
(dp1055
g58
I3
ssg1029
(dp1056
g58
I2
ssg1009
(dp1057
g58
I3
ssg1027
(dp1058
g58
I1
ssg1011
(dp1059
g58
I2
sssg1021
(dp1060
sg1005
(dp1061
g1013
g1036
sg1009
(dp1062
g58
I3
ssg1003
(dp1063
g58
I2
ssg1027
(dp1064
g58
I1
ssg1007
(dp1065
g58
I2
ssg1025
(dp1066
g58
I3
ssg1029
(dp1067
g58
I2
ssg1011
(dp1068
g58
I2
ssg1019
g1053
ssg1015
(dp1069
g1013
g1037
sg1001
g1045
sg1027
(dp1070
g58
I1
ssg1017
(dp1071
g58
I3
ssg1007
(dp1072
g58
I1
ssg1023
(dp1073
g58
I2
ssg1011
(dp1074
g58
I1
sssg1017
(dp1075
g1001
g1046
sg1027
(dp1076
g58
I1
ssg1015
g1071
sg1023
(dp1077
g58
I2
sssg1007
(dp1078
g1013
g1038
sg1009
(dp1079
g58
I1
ssg1003
(dp1080
g58
I2
ssg1005
g1065
sg1015
g1072
sg1025
(dp1081
g58
I5
ssg1029
(dp1082
g58
I4
ssg1011
(dp1083
g58
I9
ssg1019
g1054
ssg1023
(dp1084
g1001
g1047
sg1027
(dp1085
g58
I1
ssg1015
g1073
sg1017
g1077
ssg1025
(dp1086
g1013
g1039
sg1001
g1048
sg1009
(dp1087
g58
I2
ssg1003
(dp1088
g58
I3
ssg1005
g1066
sg1007
g1081
sg1029
(dp1089
g58
I9
ssg1011
(dp1090
g58
I5
ssg1027
(dp1091
g58
I3
ssg1019
g1055
ssg1029
(dp1092
g1013
g1040
sg1001
g1049
sg1003
(dp1093
g58
I2
ssg1005
g1067
sg1007
g1082
sg1025
g1089
sg1019
g1056
sg1009
(dp1094
g58
I1
ssg1027
(dp1095
g58
I4
ssg1011
(dp1096
g58
I4
sssg1003
(dp1097
g1013
g1035
sg1019
g1052
sg1005
g1063
sg1007
g1080
sg1025
g1088
sg1029
g1093
sg1009
(dp1098
g58
I2
ssg1027
(dp1099
g58
I1
ssg1011
(dp1100
g58
I2
sssg1009
(dp1101
g1003
g1098
sg1005
g1062
sg1007
g1079
sg1025
g1087
sg1029
g1094
sg1011
(dp1102
g58
I1
ssg1027
(dp1103
g58
I1
ssg1019
g1057
ssg1027
(dp1104
g1001
g1044
sg1003
g1099
sg1005
g1064
sg1015
g1070
sg1017
g1076
sg1023
g1085
sg1025
g1091
sg1029
g1095
sg1009
g1103
sg1019
g1058
ssg1011
(dp1105
g1013
g1041
sg1003
g1100
sg1005
g1068
sg1015
g1074
sg1007
g1083
sg1025
g1090
sg1019
g1059
sg1009
g1102
sg1029
g1096
sssg139
(dp1106
g141
S'()'
p1107
ssg143
g51
sg144
g1033
sbsVPearl_Islands
p1108
g2
(g3
g4
Ntp1109
Rp1110
(dp1111
g8
(dp1112
VTrish
p1113
(dp1114
sVRyan S.
p1115
(dp1116
sVDarrah
p1117
(dp1118
sVOsten
p1119
(dp1120
sVShawn
p1121
(dp1122
sVAndrew
p1123
(dp1124
sVChrista
p1125
(dp1126
sVSandra
p1127
(dp1128
sVJon
p1129
(dp1130
sVMichelle
p1131
(dp1132
sVLillian
p1133
(dp1134
sVTijuana
p1135
(dp1136
sVRyan O.
p1137
(dp1138
sVBurton
p1139
(dp1140
sVRupert
p1141
(dp1142
sVNicole
p1143
(dp1144
ssg50
g51
sg52
g51
sg53
(dp1145
g1131
(dp1146
g1139
(dp1147
g58
I1
ssg1115
(dp1148
g58
I1
ssg1113
(dp1149
g58
I1
sssg1113
(dp1150
g1131
g1149
sg1121
(dp1151
g58
I2
ssg1125
(dp1152
g58
I2
ssg1115
(dp1153
g58
I1
ssg1127
(dp1154
g58
I2
ssg1141
(dp1155
g58
I1
ssg1129
(dp1156
g58
I3
sssg1119
(dp1157
g1133
(dp1158
g58
I1
ssg1123
(dp1159
g58
I2
ssg1115
(dp1160
g58
I1
ssg1137
(dp1161
g58
I2
ssg1117
(dp1162
g58
I2
ssg1135
(dp1163
g58
I2
sssg1133
(dp1164
g1119
g1158
sg1123
(dp1165
g58
I1
ssg1125
(dp1166
g58
I3
ssg1115
(dp1167
g58
I2
ssg1137
(dp1168
g58
I1
ssg1127
(dp1169
g58
I5
ssg1139
(dp1170
g58
I5
ssg1141
(dp1171
g58
I2
ssg1117
(dp1172
g58
I5
ssg1129
(dp1173
g58
I6
ssg1135
(dp1174
g58
I3
sssg1123
(dp1175
g1119
g1159
sg1133
g1165
sg1115
(dp1176
g58
I1
ssg1137
(dp1177
g58
I3
ssg1117
(dp1178
g58
I3
ssg1135
(dp1179
g58
I3
sssg1125
(dp1180
g1113
g1152
sg1133
g1166
sg1121
(dp1181
g58
I3
ssg1127
(dp1182
g58
I8
ssg1139
(dp1183
g58
I3
ssg1141
(dp1184
g58
I6
ssg1117
(dp1185
g58
I1
ssg1129
(dp1186
g58
I6
ssg1135
(dp1187
g58
I1
sssg1121
(dp1188
g1113
g1151
sg1141
(dp1189
g58
I2
ssg1125
g1181
sg1129
(dp1190
g58
I2
ssg1127
(dp1191
g58
I3
sssg1115
(dp1192
g1131
g1148
sg1113
g1153
sg1119
g1160
sg1133
g1167
sg1123
g1176
sg1137
(dp1193
g58
I1
ssg1117
(dp1194
g58
I1
ssg1135
(dp1195
g58
I1
sssg1143
(dp1196
sg1137
(dp1197
g1119
g1161
sg1133
g1168
sg1123
g1177
sg1115
g1193
sg1117
(dp1198
g58
I3
ssg1135
(dp1199
g58
I3
sssg1127
(dp1200
g1113
g1154
sg1133
g1169
sg1125
g1182
sg1121
g1191
sg1139
(dp1201
g58
I3
ssg1141
(dp1202
g58
I5
ssg1117
(dp1203
g58
I2
ssg1129
(dp1204
g58
I7
ssg1135
(dp1205
g58
I1
sssg1139
(dp1206
g1131
g1147
sg1133
g1170
sg1125
g1183
sg1127
g1201
sg1141
(dp1207
g58
I2
ssg1117
(dp1208
g58
I3
ssg1129
(dp1209
g58
I6
ssg1135
(dp1210
g58
I2
sssg1141
(dp1211
g1113
g1155
sg1133
g1171
sg1125
g1184
sg1121
g1189
sg1127
g1202
sg1139
g1207
sg1117
(dp1212
g58
I1
ssg1129
(dp1213
g58
I4
ssg1135
(dp1214
g58
I1
sssg1117
(dp1215
g1119
g1162
sg1133
g1172
sg1123
g1178
sg1125
g1185
sg1115
g1194
sg1137
g1198
sg1127
g1203
sg1139
g1208
sg1141
g1212
sg1129
(dp1216
g58
I3
ssg1135
(dp1217
g58
I6
sssg1129
(dp1218
g1113
g1156
sg1133
g1173
sg1125
g1186
sg1121
g1190
sg1127
g1204
sg1139
g1209
sg1141
g1213
sg1117
g1216
sg1135
(dp1219
g58
I2
sssg1135
(dp1220
g1119
g1163
sg1133
g1174
sg1123
g1179
sg1125
g1187
sg1115
g1195
sg1137
g1199
sg1127
g1205
sg1139
g1210
sg1141
g1214
sg1117
g1217
sg1129
g1219
sssg139
(dp1221
g141
S'()'
p1222
ssg143
g51
sg144
g1145
sbsVVanuatu
p1223
g2
(g3
g4
Ntp1224
Rp1225
(dp1226
g8
(dp1227
VMia
p1228
(dp1229
sVEliza
p1230
(dp1231
sVBrook
p1232
(dp1233
sVDolly
p1234
(dp1235
sVJohn P.
p1236
(dp1237
sVJohn K.
p1238
(dp1239
sVAmi
p1240
(dp1241
sVLea
p1242
(dp1243
sVScout
p1244
(dp1245
sVTwila
p1246
(dp1247
sVBrady
p1248
(dp1249
sVChris
p1250
(dp1251
sVRory
p1252
(dp1253
sVLisa
p1254
(dp1255
sVChad
p1256
(dp1257
sVJulie
p1258
(dp1259
sVTravis
p1260
(dp1261
sVLeann
p1262
(dp1263
ssg50
g51
sg52
g51
sg53
(dp1264
g1240
(dp1265
g1230
(dp1266
g58
I6
ssg1262
(dp1267
g58
I8
ssg1246
(dp1268
g58
I5
ssg1244
(dp1269
g58
I6
ssg1252
(dp1270
g58
I2
ssg1250
(dp1271
g58
I1
ssg1254
(dp1272
g58
I2
ssg1258
(dp1273
g58
I5
sssg1242
(dp1274
g1256
(dp1275
g58
I5
ssg1260
(dp1276
g58
I3
ssg1258
(dp1277
g58
I1
ssg1246
(dp1278
g58
I1
ssg1252
(dp1279
g58
I4
ssg1250
(dp1280
g58
I5
ssg1238
(dp1281
g58
I1
sssg1248
(dp1282
g1236
(dp1283
g58
I1
ssg1238
(dp1284
g58
I1
sssg1256
(dp1285
g1242
g1275
sg1260
(dp1286
g58
I3
ssg1258
(dp1287
g58
I1
ssg1246
(dp1288
g58
I1
ssg1252
(dp1289
g58
I4
ssg1250
(dp1290
g58
I6
ssg1238
(dp1291
g58
I1
sssg1260
(dp1292
g1250
(dp1293
g58
I3
ssg1242
g1276
sg1252
(dp1294
g58
I3
ssg1256
g1286
sg1238
(dp1295
g58
I1
sssg1228
(dp1296
g1254
(dp1297
g58
I1
ssg1230
(dp1298
g58
I1
ssg1258
(dp1299
g58
I2
ssg1234
(dp1300
g58
I1
sssg1232
(dp1301
g1236
(dp1302
g58
I1
ssg1238
(dp1303
g58
I1
sssg1230
(dp1304
g1240
g1266
sg1228
g1298
sg1258
(dp1305
g58
I5
ssg1262
(dp1306
g58
I6
ssg1246
(dp1307
g58
I6
ssg1244
(dp1308
g58
I7
ssg1252
(dp1309
g58
I2
ssg1250
(dp1310
g58
I3
ssg1254
(dp1311
g58
I1
sssg1262
(dp1312
g1240
g1267
sg1230
g1306
sg1246
(dp1313
g58
I5
ssg1244
(dp1314
g58
I6
ssg1252
(dp1315
g58
I2
ssg1250
(dp1316
g58
I1
ssg1254
(dp1317
g58
I2
ssg1258
(dp1318
g58
I4
sssg1238
(dp1319
g1242
g1281
sg1248
g1284
sg1256
g1291
sg1232
g1303
sg1260
g1295
sg1252
(dp1320
g58
I1
ssg1250
(dp1321
g58
I1
ssg1236
(dp1322
g58
I2
sssg1246
(dp1323
g1240
g1268
sg1242
g1278
sg1256
g1288
sg1230
g1307
sg1262
g1313
sg1244
(dp1324
g58
I9
ssg1250
(dp1325
g58
I6
ssg1254
(dp1326
g58
I1
ssg1258
(dp1327
g58
I4
sssg1244
(dp1328
g1240
g1269
sg1230
g1308
sg1246
g1324
sg1262
g1314
sg1252
(dp1329
g58
I1
ssg1250
(dp1330
g58
I5
ssg1254
(dp1331
g58
I3
ssg1258
(dp1332
g58
I3
sssg1234
(dp1333
g1228
g1300
sg1254
(dp1334
g58
I1
ssg1258
(dp1335
g58
I1
sssg1252
(dp1336
g1240
g1270
sg1242
g1279
sg1256
g1289
sg1230
g1309
sg1262
g1315
sg1260
g1294
sg1244
g1329
sg1250
(dp1337
g58
I4
ssg1254
(dp1338
g58
I1
ssg1238
g1320
ssg1250
(dp1339
g1240
g1271
sg1242
g1280
sg1256
g1290
sg1230
g1310
sg1262
g1316
sg1238
g1321
sg1260
g1293
sg1244
g1330
sg1252
g1337
sg1246
g1325
sg1258
(dp1340
g58
I2
sssg1254
(dp1341
g1240
g1272
sg1228
g1297
sg1230
g1311
sg1262
g1317
sg1244
g1331
sg1234
g1334
sg1252
g1338
sg1246
g1326
sg1258
(dp1342
g58
I1
sssg1236
(dp1343
g1232
g1302
sg1238
g1322
sg1248
g1283
ssg1258
(dp1344
g1240
g1273
sg1242
g1277
sg1256
g1287
sg1228
g1299
sg1230
g1305
sg1262
g1318
sg1246
g1327
sg1244
g1332
sg1234
g1335
sg1250
g1340
sg1254
g1342
sssg139
(dp1345
g141
S'()'
p1346
ssg143
g51
sg144
g1264
sbsVThe_Australian_Outback
p1347
g2
(g3
g4
Ntp1348
Rp1349
(dp1350
g8
(dp1351
VNick
p1352
(dp1353
sVColby
p1354
(dp1355
sVTina
p1356
(dp1357
sVJerri
p1358
(dp1359
sVKel
p1360
(dp1361
sVRodger
p1362
(dp1363
sVAlicia
p1364
(dp1365
sVDebb
p1366
(dp1367
sVKeith
p1368
(dp1369
sVMichael
p1370
(dp1371
sVMitchell
p1372
(dp1373
sVAmber
p1374
(dp1375
sVJeff
p1376
(dp1377
sVElisabeth
p1378
(dp1379
sVMaralyn
p1380
(dp1381
sVKimmi
p1382
(dp1383
ssg50
g51
sg52
g51
sg53
(dp1384
g1374
(dp1385
g1368
(dp1386
g58
I5
ssg1354
(dp1387
g58
I6
ssg1380
(dp1388
g58
I1
ssg1356
(dp1389
g58
I6
ssg1372
(dp1390
g58
I3
ssg1358
(dp1391
g58
I8
sssg1360
(dp1392
sg1362
(dp1393
g1376
(dp1394
g58
I3
ssg1364
(dp1395
g58
I5
ssg1370
(dp1396
g58
I2
ssg1378
(dp1397
g58
I9
ssg1352
(dp1398
g58
I6
ssg1354
(dp1399
g58
I1
ssg1356
(dp1400
g58
I2
ssg1382
(dp1401
g58
I1
ssg1368
(dp1402
g58
I2
sssg1376
(dp1403
g1362
g1394
sg1364
(dp1404
g58
I3
ssg1370
(dp1405
g58
I2
ssg1378
(dp1406
g58
I3
ssg1352
(dp1407
g58
I3
ssg1354
(dp1408
g58
I1
ssg1382
(dp1409
g58
I1
sssg1372
(dp1410
g1374
g1390
sg1354
(dp1411
g58
I2
ssg1380
(dp1412
g58
I1
ssg1356
(dp1413
g58
I2
ssg1368
(dp1414
g58
I2
ssg1358
(dp1415
g58
I3
sssg1364
(dp1416
g1362
g1395
sg1376
g1404
sg1370
(dp1417
g58
I2
ssg1378
(dp1418
g58
I5
ssg1352
(dp1419
g58
I5
ssg1382
(dp1420
g58
I1
sssg1370
(dp1421
g1362
g1396
sg1376
g1405
sg1364
g1417
sg1378
(dp1422
g58
I2
ssg1352
(dp1423
g58
I2
ssg1382
(dp1424
g58
I1
sssg1366
(dp1425
sg1378
(dp1426
g1362
g1397
sg1376
g1406
sg1364
g1418
sg1370
g1422
sg1352
(dp1427
g58
I6
ssg1354
(dp1428
g58
I1
ssg1356
(dp1429
g58
I2
ssg1382
(dp1430
g58
I1
ssg1368
(dp1431
g58
I2
sssg1352
(dp1432
g1362
g1398
sg1376
g1407
sg1364
g1419
sg1370
g1423
sg1378
g1427
sg1354
(dp1433
g58
I1
ssg1356
(dp1434
g58
I1
ssg1382
(dp1435
g58
I1
ssg1368
(dp1436
g58
I1
sssg1354
(dp1437
g1374
g1387
sg1362
g1399
sg1376
g1408
sg1372
g1411
sg1378
g1428
sg1352
g1433
sg1380
(dp1438
g58
I1
ssg1356
(dp1439
g58
I10
ssg1368
(dp1440
g58
I8
ssg1358
(dp1441
g58
I4
sssg1380
(dp1442
g1374
g1388
sg1372
g1412
sg1354
g1438
sg1356
(dp1443
g58
I1
ssg1368
(dp1444
g58
I1
ssg1358
(dp1445
g58
I1
sssg1356
(dp1446
g1374
g1389
sg1362
g1400
sg1372
g1413
sg1378
g1429
sg1352
g1434
sg1354
g1439
sg1380
g1443
sg1368
(dp1447
g58
I10
ssg1358
(dp1448
g58
I5
sssg1382
(dp1449
g1362
g1401
sg1376
g1409
sg1364
g1420
sg1370
g1424
sg1378
g1430
sg1352
g1435
ssg1368
(dp1450
g1374
g1386
sg1362
g1402
sg1378
g1431
sg1352
g1436
sg1354
g1440
sg1380
g1444
sg1356
g1447
sg1372
g1414
sg1358
(dp1451
g58
I4
sssg1358
(dp1452
g1374
g1391
sg1372
g1415
sg1354
g1441
sg1380
g1445
sg1356
g1448
sg1368
g1451
sssg139
(dp1453
g141
S'()'
p1454
ssg143
g51
sg144
g1384
sbsVHeroes_vs_Villains
p1455
g2
(g3
g4
Ntp1456
Rp1457
(dp1458
g8
(dp1459
VParvati
p1460
(dp1461
sVRussell
p1462
(dp1463
sVCourtney
p1464
(dp1465
sVSugar
p1466
(dp1467
sVRandy
p1468
(dp1469
sVColby
p1470
(dp1471
sVTom
p1472
(dp1473
sVJerri
p1474
(dp1475
sVJ.T.
p1476
(dp1477
sVStephenie
p1478
(dp1479
sVSandra
p1480
(dp1481
sVTyson
p1482
(dp1483
sVJames
p1484
(dp1485
sVAmanda
p1486
(dp1487
sVCoach
p1488
(dp1489
sVRob
p1490
(dp1491
sVCandice
p1492
(dp1493
sVDanielle
p1494
(dp1495
sVRupert
p1496
(dp1497
sVCirie
p1498
(dp1499
ssg50
g51
sg52
g51
sg53
(dp1500
g1472
(dp1501
g1476
(dp1502
g58
I2
ssg1484
(dp1503
g58
I1
ssg1478
(dp1504
g58
I2
ssg1492
(dp1505
g58
I1
ssg1470
(dp1506
g58
I4
ssg1496
(dp1507
g58
I1
ssg1486
(dp1508
g58
I1
ssg1498
(dp1509
g58
I1
sssg1488
(dp1510
g1460
(dp1511
g58
I1
ssg1462
(dp1512
g58
I2
ssg1490
(dp1513
g58
I1
ssg1480
(dp1514
g58
I1
ssg1494
(dp1515
g58
I1
ssg1464
(dp1516
g58
I2
ssg1482
(dp1517
g58
I2
ssg1474
(dp1518
g58
I3
sssg1460
(dp1519
g1488
g1511
sg1462
(dp1520
g58
I9
ssg1490
(dp1521
g58
I1
ssg1480
(dp1522
g58
I9
ssg1492
(dp1523
g58
I2
ssg1464
(dp1524
g58
I2
ssg1494
(dp1525
g58
I9
ssg1482
(dp1526
g58
I1
ssg1474
(dp1527
g58
I7
sssg1462
(dp1528
g1488
g1512
sg1460
g1520
sg1490
(dp1529
g58
I1
ssg1464
(dp1530
g58
I1
ssg1492
(dp1531
g58
I1
ssg1494
(dp1532
g58
I6
ssg1480
(dp1533
g58
I8
ssg1470
(dp1534
g58
I2
ssg1496
(dp1535
g58
I2
ssg1474
(dp1536
g58
I10
ssg1482
(dp1537
g58
I1
sssg1476
(dp1538
g1484
(dp1539
g58
I3
ssg1478
(dp1540
g58
I1
ssg1492
(dp1541
g58
I5
ssg1472
g1502
sg1470
(dp1542
g58
I4
ssg1496
(dp1543
g58
I5
ssg1486
(dp1544
g58
I5
ssg1498
(dp1545
g58
I2
sssg1484
(dp1546
g1476
g1539
sg1478
(dp1547
g58
I1
ssg1492
(dp1548
g58
I3
ssg1472
g1503
sg1470
(dp1549
g58
I1
ssg1496
(dp1550
g58
I4
ssg1486
(dp1551
g58
I3
ssg1498
(dp1552
g58
I2
sssg1490
(dp1553
g1488
g1513
sg1460
g1521
sg1462
g1529
sg1480
(dp1554
g58
I3
ssg1494
(dp1555
g58
I1
ssg1464
(dp1556
g58
I2
ssg1482
(dp1557
g58
I1
ssg1474
(dp1558
g58
I1
sssg1464
(dp1559
g1488
g1516
sg1460
g1524
sg1462
g1530
sg1490
g1556
sg1494
(dp1560
g58
I2
ssg1480
(dp1561
g58
I3
ssg1482
(dp1562
g58
I2
ssg1474
(dp1563
g58
I2
sssg1492
(dp1564
g1460
g1523
sg1462
g1531
sg1476
g1541
sg1484
g1548
sg1472
g1505
sg1498
(dp1565
g58
I3
ssg1478
(dp1566
g58
I1
ssg1470
(dp1567
g58
I3
ssg1480
(dp1568
g58
I1
ssg1494
(dp1569
g58
I2
ssg1496
(dp1570
g58
I5
ssg1486
(dp1571
g58
I6
ssg1474
(dp1572
g58
I1
sssg1498
(dp1573
g1476
g1545
sg1484
g1552
sg1478
(dp1574
g58
I1
ssg1492
g1565
sg1472
g1509
sg1470
(dp1575
g58
I1
ssg1496
(dp1576
g58
I2
ssg1486
(dp1577
g58
I3
sssg1478
(dp1578
g1476
g1540
sg1484
g1547
sg1492
g1566
sg1472
g1504
sg1470
(dp1579
g58
I2
ssg1496
(dp1580
g58
I1
ssg1486
(dp1581
g58
I1
ssg1498
g1574
ssg1468
(dp1582
sg1470
(dp1583
g1462
g1534
sg1476
g1542
sg1484
g1549
sg1472
g1506
sg1498
g1575
sg1478
g1579
sg1492
g1567
sg1480
(dp1584
g58
I1
ssg1496
(dp1585
g58
I7
ssg1486
(dp1586
g58
I4
ssg1474
(dp1587
g58
I2
sssg1480
(dp1588
g1488
g1514
sg1460
g1522
sg1462
g1533
sg1490
g1554
sg1492
g1568
sg1494
(dp1589
g58
I6
ssg1464
g1561
sg1470
g1584
sg1496
(dp1590
g58
I1
ssg1474
(dp1591
g58
I7
ssg1482
(dp1592
g58
I1
sssg1494
(dp1593
g1488
g1515
sg1460
g1525
sg1462
g1532
sg1490
g1555
sg1480
g1589
sg1492
g1569
sg1464
g1560
sg1482
(dp1594
g58
I1
ssg1474
(dp1595
g58
I5
sssg1496
(dp1596
g1462
g1535
sg1476
g1543
sg1484
g1550
sg1472
g1507
sg1498
g1576
sg1478
g1580
sg1492
g1570
sg1480
g1590
sg1470
g1585
sg1486
(dp1597
g58
I6
ssg1474
(dp1598
g58
I2
sssg1466
(dp1599
sg1486
(dp1600
g1476
g1544
sg1484
g1551
sg1478
g1581
sg1492
g1571
sg1472
g1508
sg1470
g1586
sg1496
g1597
sg1498
g1577
ssg1474
(dp1601
g1488
g1518
sg1460
g1527
sg1462
g1536
sg1490
g1558
sg1464
g1563
sg1492
g1572
sg1494
g1595
sg1480
g1591
sg1470
g1587
sg1496
g1598
sg1482
(dp1602
g58
I2
sssg1482
(dp1603
g1488
g1517
sg1460
g1526
sg1462
g1537
sg1490
g1557
sg1480
g1592
sg1494
g1594
sg1464
g1562
sg1474
g1602
sssg139
(dp1604
g141
S'()'
p1605
ssg143
g51
sg144
g1500
sbsVGuatemala
p1606
g2
(g3
g4
Ntp1607
Rp1608
(dp1609
g8
(dp1610
VBlake
p1611
(dp1612
sVCindy
p1613
(dp1614
sVRafe
p1615
(dp1616
sVJim
p1617
(dp1618
sVBrandon
p1619
(dp1620
sVBrianna
p1621
(dp1622
sVBrian
p1623
(dp1624
sVStephenie
p1625
(dp1626
sVJamie
p1627
(dp1628
sVAmy
p1629
(dp1630
sVMargaret
p1631
(dp1632
sVBobby Jon
p1633
(dp1634
sVLydia
p1635
(dp1636
sVBrooke
p1637
(dp1638
sVJudd
p1639
(dp1640
sVDanni
p1641
(dp1642
sVMorgan
p1643
(dp1644
sVGary
p1645
(dp1646
ssg50
g51
sg52
g51
sg53
(dp1647
g1629
(dp1648
g1621
(dp1649
g58
I1
ssg1615
(dp1650
g58
I2
ssg1627
(dp1651
g58
I2
ssg1619
(dp1652
g58
I1
ssg1625
(dp1653
g58
I2
ssg1623
(dp1654
g58
I3
ssg1633
(dp1655
g58
I2
ssg1641
(dp1656
g58
I2
ssg1635
(dp1657
g58
I2
ssg1645
(dp1658
g58
I4
sssg1611
(dp1659
g1619
(dp1660
g58
I2
ssg1631
(dp1661
g58
I1
ssg1633
(dp1662
g58
I1
ssg1641
(dp1663
g58
I1
ssg1613
(dp1664
g58
I1
ssg1637
(dp1665
g58
I1
ssg1639
(dp1666
g58
I1
sssg1617
(dp1667
sg1643
(dp1668
sg1631
(dp1669
g1611
g1661
sg1619
(dp1670
g58
I1
ssg1633
(dp1671
g58
I1
ssg1641
(dp1672
g58
I1
ssg1613
(dp1673
g58
I2
ssg1637
(dp1674
g58
I2
ssg1639
(dp1675
g58
I1
sssg1615
(dp1676
g1629
g1650
sg1627
(dp1677
g58
I6
ssg1639
(dp1678
g58
I5
ssg1625
(dp1679
g58
I11
ssg1623
(dp1680
g58
I2
ssg1621
(dp1681
g58
I1
ssg1641
(dp1682
g58
I5
ssg1635
(dp1683
g58
I10
ssg1613
(dp1684
g58
I5
ssg1645
(dp1685
g58
I3
sssg1627
(dp1686
g1629
g1651
sg1615
g1677
sg1639
(dp1687
g58
I5
ssg1625
(dp1688
g58
I6
ssg1623
(dp1689
g58
I2
ssg1621
(dp1690
g58
I1
ssg1635
(dp1691
g58
I6
ssg1613
(dp1692
g58
I3
ssg1645
(dp1693
g58
I2
sssg1621
(dp1694
g1629
g1649
sg1615
g1681
sg1627
g1690
sg1625
(dp1695
g58
I1
ssg1623
(dp1696
g58
I1
ssg1635
(dp1697
g58
I1
ssg1645
(dp1698
g58
I1
sssg1639
(dp1699
g1611
g1666
sg1615
g1678
sg1627
g1687
sg1619
(dp1700
g58
I1
ssg1625
(dp1701
g58
I5
ssg1631
g1675
sg1633
(dp1702
g58
I1
ssg1641
(dp1703
g58
I2
ssg1635
(dp1704
g58
I5
ssg1613
(dp1705
g58
I6
ssg1637
(dp1706
g58
I1
sssg1625
(dp1707
g1621
g1695
sg1615
g1679
sg1627
g1688
sg1639
g1701
sg1629
g1653
sg1623
(dp1708
g58
I2
ssg1641
(dp1709
g58
I5
ssg1635
(dp1710
g58
I10
ssg1613
(dp1711
g58
I5
ssg1645
(dp1712
g58
I3
sssg1623
(dp1713
g1629
g1654
sg1615
g1680
sg1627
g1689
sg1621
g1696
sg1625
g1708
sg1633
(dp1714
g58
I1
ssg1641
(dp1715
g58
I1
ssg1635
(dp1716
g58
I2
ssg1645
(dp1717
g58
I3
sssg1633
(dp1718
g1611
g1662
sg1631
g1671
sg1619
(dp1719
g58
I4
ssg1629
g1655
sg1623
g1714
sg1641
(dp1720
g58
I6
ssg1613
(dp1721
g58
I1
ssg1645
(dp1722
g58
I4
ssg1637
(dp1723
g58
I1
ssg1639
g1702
ssg1641
(dp1724
g1629
g1656
sg1611
g1663
sg1631
g1672
sg1615
g1682
sg1639
g1703
sg1625
g1709
sg1623
g1715
sg1633
g1720
sg1635
(dp1725
g58
I4
ssg1613
(dp1726
g58
I3
ssg1645
(dp1727
g58
I5
ssg1637
(dp1728
g58
I1
ssg1619
(dp1729
g58
I4
sssg1635
(dp1730
g1629
g1657
sg1615
g1683
sg1627
g1691
sg1639
g1704
sg1625
g1710
sg1623
g1716
sg1621
g1697
sg1641
g1725
sg1613
(dp1731
g58
I5
ssg1645
(dp1732
g58
I3
sssg1613
(dp1733
g1611
g1664
sg1615
g1684
sg1627
g1692
sg1639
g1705
sg1625
g1711
sg1631
g1673
sg1633
g1721
sg1641
g1726
sg1635
g1731
sg1645
(dp1734
g58
I1
ssg1637
(dp1735
g58
I2
ssg1619
(dp1736
g58
I1
sssg1645
(dp1737
g1629
g1658
sg1615
g1685
sg1627
g1693
sg1621
g1698
sg1619
(dp1738
g58
I3
ssg1625
g1712
sg1623
g1717
sg1633
g1722
sg1641
g1727
sg1635
g1732
sg1613
g1734
ssg1637
(dp1739
g1611
g1665
sg1619
(dp1740
g58
I1
ssg1631
g1674
sg1633
g1723
sg1641
g1728
sg1613
g1735
sg1639
g1706
ssg1619
(dp1741
g1611
g1660
sg1639
g1700
sg1629
g1652
sg1631
g1670
sg1633
g1719
sg1641
g1729
sg1613
g1736
sg1645
g1738
sg1637
g1740
sssg139
(dp1742
g141
S'()'
p1743
ssg143
g51
sg144
g1647
sbsVChina
p1744
g2
(g3
g4
Ntp1745
Rp1746
(dp1747
g8
(dp1748
VAaron
p1749
(dp1750
sVCourtney
p1751
(dp1752
sVDenise
p1753
(dp1754
sVDave
p1755
(dp1756
sVSherea
p1757
(dp1758
sVJean-Robert
p1759
(dp1760
sVAshley
p1761
(dp1762
sVJames
p1763
(dp1764
sVJaime
p1765
(dp1766
sVAmanda
p1767
(dp1768
sVFrosti
p1769
(dp1770
sVPeih-Gee
p1771
(dp1772
sVLeslie
p1773
(dp1774
sVErik
p1775
(dp1776
sVTodd
p1777
(dp1778
sVChicken
p1779
(dp1780
ssg50
g51
sg52
g51
sg53
(dp1781
g1771
(dp1782
g1769
(dp1783
g58
I3
ssg1763
(dp1784
g58
I1
ssg1777
(dp1785
g58
I1
ssg1753
(dp1786
g58
I1
ssg1755
(dp1787
g58
I1
ssg1765
(dp1788
g58
I5
ssg1775
(dp1789
g58
I8
ssg1751
(dp1790
g58
I1
ssg1757
(dp1791
g58
I3
ssg1767
(dp1792
g58
I1
ssg1759
(dp1793
g58
I1
sssg1761
(dp1794
sg1769
(dp1795
g1771
g1783
sg1763
(dp1796
g58
I2
ssg1777
(dp1797
g58
I3
ssg1753
(dp1798
g58
I2
ssg1755
(dp1799
g58
I1
ssg1765
(dp1800
g58
I3
ssg1775
(dp1801
g58
I3
ssg1751
(dp1802
g58
I2
ssg1757
(dp1803
g58
I3
ssg1767
(dp1804
g58
I3
ssg1759
(dp1805
g58
I2
sssg1763
(dp1806
g1771
g1784
sg1769
g1796
sg1759
(dp1807
g58
I2
ssg1777
(dp1808
g58
I4
ssg1753
(dp1809
g58
I3
ssg1749
(dp1810
g58
I1
ssg1775
(dp1811
g58
I1
ssg1751
(dp1812
g58
I3
ssg1767
(dp1813
g58
I4
sssg1777
(dp1814
g1771
g1785
sg1769
g1797
sg1763
g1808
sg1753
(dp1815
g58
I7
ssg1749
(dp1816
g58
I1
ssg1775
(dp1817
g58
I2
ssg1751
(dp1818
g58
I7
ssg1767
(dp1819
g58
I9
ssg1759
(dp1820
g58
I3
sssg1755
(dp1821
g1769
g1799
sg1771
g1787
sg1765
(dp1822
g58
I1
ssg1775
(dp1823
g58
I1
ssg1757
(dp1824
g58
I1
ssg1779
(dp1825
g58
I1
sssg1753
(dp1826
g1769
g1798
sg1763
g1809
sg1777
g1815
sg1771
g1786
sg1749
(dp1827
g58
I1
ssg1775
(dp1828
g58
I2
ssg1751
(dp1829
g58
I5
ssg1767
(dp1830
g58
I7
ssg1759
(dp1831
g58
I3
sssg1749
(dp1832
g1753
g1827
sg1763
g1810
sg1767
(dp1833
g58
I1
ssg1759
(dp1834
g58
I1
ssg1777
g1816
ssg1765
(dp1835
g1771
g1788
sg1757
(dp1836
g58
I3
ssg1755
g1822
sg1775
(dp1837
g58
I5
ssg1769
g1800
ssg1773
(dp1838
g1751
(dp1839
g58
I1
sssg1775
(dp1840
g1771
g1789
sg1769
g1801
sg1763
g1811
sg1777
g1817
sg1753
g1828
sg1755
g1823
sg1765
g1837
sg1751
(dp1841
g58
I2
ssg1757
(dp1842
g58
I3
ssg1767
(dp1843
g58
I2
ssg1759
(dp1844
g58
I1
sssg1751
(dp1845
g1771
g1790
sg1769
g1802
sg1763
g1812
sg1753
g1829
sg1773
g1839
sg1775
g1841
sg1777
g1818
sg1757
(dp1846
g58
I1
ssg1767
(dp1847
g58
I7
ssg1759
(dp1848
g58
I1
sssg1757
(dp1849
g1769
g1803
sg1771
g1791
sg1755
g1824
sg1765
g1836
sg1775
g1842
sg1751
g1846
ssg1779
(dp1850
g1755
g1825
ssg1767
(dp1851
g1771
g1792
sg1769
g1804
sg1763
g1813
sg1777
g1819
sg1753
g1830
sg1749
g1833
sg1775
g1843
sg1751
g1847
sg1759
(dp1852
g58
I3
sssg1759
(dp1853
g1771
g1793
sg1769
g1805
sg1763
g1807
sg1777
g1820
sg1753
g1831
sg1749
g1834
sg1775
g1844
sg1751
g1848
sg1767
g1852
sssg139
(dp1854
g141
S'()'
p1855
ssg143
g51
sg144
g1781
sbsVWorlds_Apart
p1856
g2
(g3
g4
Ntp1857
Rp1858
(dp1859
g8
(dp1860
VJoaquin
p1861
(dp1862
sVTyler
p1863
(dp1864
sVSierra
p1865
(dp1866
sVMike
p1867
(dp1868
sVMax
p1869
(dp1870
sVDan
p1871
(dp1872
sVJoe
p1873
(dp1874
sVHali
p1875
(dp1876
sVNina
p1877
(dp1878
sVLindsey
p1879
(dp1880
sVSo
p1881
(dp1882
sVKelly
p1883
(dp1884
sVRodney
p1885
(dp1886
sVWill
p1887
(dp1888
sVCarolyn
p1889
(dp1890
sVJenn
p1891
(dp1892
sVVince
p1893
(dp1894
sVShirin
p1895
(dp1896
ssg50
g51
sg52
g51
sg53
(dp1897
g1877
(dp1898
g1875
(dp1899
g58
I1
ssg1893
(dp1900
g58
I1
sssg1867
(dp1901
g1889
(dp1902
g58
I8
ssg1871
(dp1903
g58
I6
ssg1887
(dp1904
g58
I3
ssg1883
(dp1905
g58
I2
ssg1863
(dp1906
g58
I3
ssg1873
(dp1907
g58
I1
ssg1865
(dp1908
g58
I5
ssg1885
(dp1909
g58
I4
ssg1895
(dp1910
g58
I3
sssg1889
(dp1911
g1867
g1902
sg1883
(dp1912
g58
I2
ssg1869
(dp1913
g58
I3
ssg1871
(dp1914
g58
I3
ssg1887
(dp1915
g58
I7
ssg1875
(dp1916
g58
I3
ssg1861
(dp1917
g58
I2
ssg1863
(dp1918
g58
I7
ssg1873
(dp1919
g58
I3
ssg1891
(dp1920
g58
I3
ssg1865
(dp1921
g58
I4
ssg1885
(dp1922
g58
I4
ssg1895
(dp1923
g58
I4
sssg1879
(dp1924
g1865
(dp1925
g58
I2
ssg1885
(dp1926
g58
I1
sssg1875
(dp1927
g1877
g1899
sg1889
g1916
sg1869
(dp1928
g58
I2
ssg1887
(dp1929
g58
I4
ssg1861
(dp1930
g58
I2
ssg1863
(dp1931
g58
I2
ssg1873
(dp1932
g58
I4
ssg1891
(dp1933
g58
I6
ssg1883
(dp1934
g58
I1
ssg1895
(dp1935
g58
I4
sssg1869
(dp1936
g1889
g1913
sg1887
(dp1937
g58
I2
ssg1861
(dp1938
g58
I2
ssg1863
(dp1939
g58
I3
ssg1873
(dp1940
g58
I2
ssg1891
(dp1941
g58
I2
ssg1875
g1928
sg1895
(dp1942
g58
I4
sssg1871
(dp1943
g1867
g1903
sg1889
g1914
sg1887
(dp1944
g58
I4
ssg1883
(dp1945
g58
I2
ssg1863
(dp1946
g58
I3
ssg1873
(dp1947
g58
I1
ssg1865
(dp1948
g58
I8
ssg1885
(dp1949
g58
I8
ssg1895
(dp1950
g58
I1
sssg1887
(dp1951
g1867
g1904
sg1883
(dp1952
g58
I1
ssg1889
g1915
sg1869
g1937
sg1871
g1944
sg1875
g1929
sg1861
(dp1953
g58
I2
ssg1863
(dp1954
g58
I7
ssg1873
(dp1955
g58
I4
ssg1891
(dp1956
g58
I5
ssg1865
(dp1957
g58
I3
ssg1885
(dp1958
g58
I6
ssg1895
(dp1959
g58
I3
sssg1883
(dp1960
g1867
g1905
sg1889
g1912
sg1871
g1945
sg1887
g1952
sg1875
g1934
sg1863
(dp1961
g58
I1
ssg1891
(dp1962
g58
I1
ssg1865
(dp1963
g58
I1
ssg1885
(dp1964
g58
I2
sssg1861
(dp1965
g1889
g1917
sg1869
g1938
sg1887
g1953
sg1863
(dp1966
g58
I3
ssg1881
(dp1967
g58
I1
ssg1873
(dp1968
g58
I2
ssg1891
(dp1969
g58
I2
ssg1875
g1930
sg1885
(dp1970
g58
I1
ssg1895
(dp1971
g58
I2
sssg1863
(dp1972
g1867
g1906
sg1883
g1961
sg1889
g1918
sg1869
g1939
sg1871
g1946
sg1887
g1954
sg1875
g1931
sg1861
g1966
sg1873
(dp1973
g58
I3
ssg1891
(dp1974
g58
I2
ssg1865
(dp1975
g58
I2
ssg1885
(dp1976
g58
I4
ssg1895
(dp1977
g58
I4
sssg1881
(dp1978
g1861
g1967
ssg1873
(dp1979
g1867
g1907
sg1889
g1919
sg1869
g1940
sg1871
g1947
sg1887
g1955
sg1875
g1932
sg1861
g1968
sg1863
g1973
sg1891
(dp1980
g58
I5
ssg1865
(dp1981
g58
I1
ssg1895
(dp1982
g58
I4
sssg1891
(dp1983
g1889
g1920
sg1869
g1941
sg1887
g1956
sg1883
g1962
sg1861
g1969
sg1863
g1974
sg1873
g1980
sg1875
g1933
sg1895
(dp1984
g58
I4
sssg1865
(dp1985
g1867
g1908
sg1889
g1921
sg1879
g1925
sg1871
g1948
sg1887
g1957
sg1863
g1975
sg1873
g1981
sg1883
g1963
sg1885
(dp1986
g58
I8
ssg1895
(dp1987
g58
I1
sssg1885
(dp1988
g1867
g1909
sg1889
g1922
sg1879
g1926
sg1871
g1949
sg1887
g1958
sg1883
g1964
sg1861
g1970
sg1863
g1976
sg1865
g1986
sg1895
(dp1989
g58
I1
sssg1893
(dp1990
g1877
g1900
ssg1895
(dp1991
g1867
g1910
sg1889
g1923
sg1869
g1942
sg1871
g1950
sg1887
g1959
sg1875
g1935
sg1861
g1971
sg1863
g1977
sg1873
g1982
sg1891
g1984
sg1865
g1987
sg1885
g1989
sssg139
(dp1992
g141
S'()'
p1993
ssg143
g51
sg144
g1897
sbsVThailand
p1994
g2
(g3
g4
Ntp1995
Rp1996
(dp1997
g8
(dp1998
VJan
p1999
(dp2000
sVBrian
p2001
(dp2002
sVTanya
p2003
(dp2004
sVJed
p2005
(dp2006
sVJohn
p2007
(dp2008
sVRobb
p2009
(dp2010
sVKen
p2011
(dp2012
sVJake
p2013
(dp2014
sVHelen
p2015
(dp2016
sVGhandia
p2017
(dp2018
sVClay
p2019
(dp2020
sVShii Ann
p2021
(dp2022
sVStephanie
p2023
(dp2024
sVPenny
p2025
(dp2026
sVTed
p2027
(dp2028
sVErin
p2029
(dp2030
ssg50
g51
sg52
g51
sg53
(dp2031
g2029
(dp2032
g2011
(dp2033
g58
I4
ssg2021
(dp2034
g58
I3
ssg2013
(dp2035
g58
I4
ssg2025
(dp2036
g58
I4
sssg2025
(dp2037
g2029
g2036
sg2011
(dp2038
g58
I6
ssg2021
(dp2039
g58
I3
ssg2013
(dp2040
g58
I6
ssg2019
(dp2041
g58
I1
sssg2011
(dp2042
g2029
g2033
sg2021
(dp2043
g58
I3
ssg2013
(dp2044
g58
I6
ssg2025
g2038
ssg2019
(dp2045
g2025
g2041
sg2027
(dp2046
g58
I5
ssg1999
(dp2047
g58
I6
ssg2001
(dp2048
g58
I7
ssg2003
(dp2049
g58
I1
ssg2015
(dp2050
g58
I5
ssg2017
(dp2051
g58
I1
sssg2027
(dp2052
g2019
g2046
sg1999
(dp2053
g58
I5
ssg2001
(dp2054
g58
I6
ssg2003
(dp2055
g58
I1
ssg2015
(dp2056
g58
I5
ssg2017
(dp2057
g58
I1
sssg2009
(dp2058
g2023
(dp2059
g58
I2
ssg2005
(dp2060
g58
I1
sssg1999
(dp2061
g2019
g2047
sg2027
g2053
sg2001
(dp2062
g58
I7
ssg2003
(dp2063
g58
I1
ssg2015
(dp2064
g58
I5
ssg2017
(dp2065
g58
I2
sssg2001
(dp2066
g2019
g2048
sg2027
g2054
sg1999
g2062
sg2003
(dp2067
g58
I1
ssg2015
(dp2068
g58
I6
ssg2017
(dp2069
g58
I1
sssg2003
(dp2070
g1999
g2063
sg2001
g2067
sg2027
g2055
sg2017
(dp2071
g58
I2
ssg2019
g2049
ssg2013
(dp2072
g2029
g2035
sg2011
g2044
sg2021
(dp2073
g58
I3
ssg2025
g2040
ssg2005
(dp2074
g2023
(dp2075
g58
I1
ssg2009
g2060
ssg2015
(dp2076
g1999
g2064
sg2001
g2068
sg2027
g2056
sg2019
g2050
ssg2021
(dp2077
g2029
g2034
sg2011
g2043
sg2013
g2073
sg2025
g2039
ssg2007
(dp2078
sg2023
(dp2079
g2009
g2059
sg2005
g2075
ssg2017
(dp2080
g1999
g2065
sg2001
g2069
sg2003
g2071
sg2027
g2057
sg2019
g2051
sssg139
(dp2081
g141
S'()'
p2082
ssg143
g51
sg144
g2031
sbsVThe_Amazon
p2083
g2
(g3
g4
Ntp2084
Rp2085
(dp2086
g8
(dp2087
VButch
p2088
(dp2089
sVMatthew
p2090
(dp2091
sVDaniel
p2092
(dp2093
sVShawna
p2094
(dp2095
sVJanet
p2096
(dp2097
sVDave
p2098
(dp2099
sVChristy
p2100
(dp2101
sVDeena
p2102
(dp2103
sVJeanne
p2104
(dp2105
sVAlex
p2106
(dp2107
sVRyan
p2108
(dp2109
sVRoger
p2110
(dp2111
sVHeidi
p2112
(dp2113
sVRob
p2114
(dp2115
sVJoanna
p2116
(dp2117
sVJenna
p2118
(dp2119
ssg50
g51
sg52
g51
sg53
(dp2120
g2094
(dp2121
g2102
(dp2122
g58
I1
ssg2106
(dp2123
g58
I1
ssg2118
(dp2124
g58
I1
ssg2112
(dp2125
g58
I1
ssg2104
(dp2126
g58
I1
sssg2088
(dp2127
g2106
(dp2128
g58
I4
ssg2114
(dp2129
g58
I6
ssg2090
(dp2130
g58
I5
ssg2098
(dp2131
g58
I3
ssg2110
(dp2132
g58
I4
ssg2112
(dp2133
g58
I3
ssg2100
(dp2134
g58
I3
ssg2102
(dp2135
g58
I1
ssg2118
(dp2136
g58
I2
sssg2106
(dp2137
g2094
g2123
sg2088
g2128
sg2114
(dp2138
g58
I5
ssg2090
(dp2139
g58
I4
ssg2098
(dp2140
g58
I1
ssg2110
(dp2141
g58
I2
ssg2112
(dp2142
g58
I4
ssg2100
(dp2143
g58
I2
ssg2102
(dp2144
g58
I2
ssg2118
(dp2145
g58
I4
sssg2096
(dp2146
sg2114
(dp2147
g2088
g2129
sg2106
g2138
sg2090
(dp2148
g58
I9
ssg2098
(dp2149
g58
I1
ssg2110
(dp2150
g58
I2
ssg2112
(dp2151
g58
I4
ssg2100
(dp2152
g58
I3
ssg2102
(dp2153
g58
I3
ssg2118
(dp2154
g58
I6
sssg2108
(dp2155
g2090
(dp2156
g58
I1
ssg2092
(dp2157
g58
I1
sssg2090
(dp2158
g2088
g2130
sg2106
g2139
sg2114
g2148
sg2108
g2156
sg2098
(dp2159
g58
I1
ssg2092
(dp2160
g58
I1
ssg2110
(dp2161
g58
I1
ssg2112
(dp2162
g58
I4
ssg2100
(dp2163
g58
I3
ssg2102
(dp2164
g58
I3
ssg2118
(dp2165
g58
I6
sssg2098
(dp2166
g2088
g2131
sg2106
g2140
sg2114
g2149
sg2090
g2159
sg2110
(dp2167
g58
I3
ssg2112
(dp2168
g58
I1
sssg2092
(dp2169
g2090
g2160
sg2108
g2157
ssg2110
(dp2170
g2088
g2132
sg2106
g2141
sg2114
g2150
sg2090
g2161
sg2098
g2167
sg2112
(dp2171
g58
I1
sssg2116
(dp2172
g2104
(dp2173
g58
I1
sssg2112
(dp2174
g2094
g2125
sg2088
g2133
sg2106
g2142
sg2114
g2151
sg2090
g2162
sg2098
g2168
sg2110
g2171
sg2100
(dp2175
g58
I3
ssg2102
(dp2176
g58
I4
ssg2118
(dp2177
g58
I8
ssg2104
(dp2178
g58
I1
sssg2100
(dp2179
g2088
g2134
sg2106
g2143
sg2114
g2152
sg2090
g2163
sg2112
g2175
sg2102
(dp2180
g58
I4
ssg2118
(dp2181
g58
I3
ssg2104
(dp2182
g58
I1
sssg2102
(dp2183
g2094
g2122
sg2088
g2135
sg2106
g2144
sg2114
g2153
sg2090
g2164
sg2112
g2176
sg2100
g2180
sg2118
(dp2184
g58
I5
ssg2104
(dp2185
g58
I1
sssg2118
(dp2186
g2094
g2124
sg2088
g2136
sg2106
g2145
sg2114
g2154
sg2090
g2165
sg2112
g2177
sg2100
g2181
sg2102
g2184
sg2104
(dp2187
g58
I1
sssg2104
(dp2188
g2094
g2126
sg2116
g2173
sg2112
g2178
sg2100
g2182
sg2102
g2185
sg2118
g2187
sssg139
(dp2189
g141
S'()'
p2190
ssg143
g51
sg144
g2120
sbsVCagayan
p2191
g2
(g3
g4
Ntp2192
Rp2193
(dp2194
g8
(dp2195
VSarah
p2196
(dp2197
sVTrish
p2198
(dp2199
sVGarrett
p2200
(dp2201
sVWoo
p2202
(dp2203
sVBrice
p2204
(dp2205
sVJ'Tia
p2206
(dp2207
sVJeremiah
p2208
(dp2209
sVTasha
p2210
(dp2211
sVLJ
p2212
(dp2213
sVKass
p2214
(dp2215
sVCliff
p2216
(dp2217
sVJefra
p2218
(dp2219
sVAlexis
p2220
(dp2221
sVDavid
p2222
(dp2223
sVLindsey
p2224
(dp2225
sVMorgan
p2226
(dp2227
sVSpencer
p2228
(dp2229
sVTony
p2230
(dp2231
ssg50
g51
sg52
g51
sg53
(dp2232
g2196
(dp2233
g2210
(dp2234
g58
I2
ssg2226
(dp2235
g58
I2
ssg2228
(dp2236
g58
I2
ssg2214
(dp2237
g58
I1
ssg2208
(dp2238
g58
I2
sssg2218
(dp2239
g2198
(dp2240
g58
I8
ssg2208
(dp2241
g58
I1
ssg2212
(dp2242
g58
I6
ssg2214
(dp2243
g58
I5
ssg2202
(dp2244
g58
I5
ssg2220
(dp2245
g58
I1
ssg2230
(dp2246
g58
I6
sssg2198
(dp2247
g2230
(dp2248
g58
I7
ssg2218
g2240
sg2202
(dp2249
g58
I6
ssg2212
(dp2250
g58
I5
ssg2214
(dp2251
g58
I6
sssg2208
(dp2252
g2196
g2238
sg2218
g2241
sg2210
(dp2253
g58
I5
ssg2212
(dp2254
g58
I2
ssg2214
(dp2255
g58
I1
ssg2202
(dp2256
g58
I1
ssg2226
(dp2257
g58
I3
ssg2230
(dp2258
g58
I1
ssg2228
(dp2259
g58
I5
sssg2210
(dp2260
g2196
g2234
sg2208
g2253
sg2200
(dp2261
g58
I1
ssg2214
(dp2262
g58
I3
ssg2206
(dp2263
g58
I2
ssg2202
(dp2264
g58
I2
ssg2226
(dp2265
g58
I3
ssg2230
(dp2266
g58
I2
ssg2228
(dp2267
g58
I8
sssg2200
(dp2268
g2210
g2261
sg2206
(dp2269
g58
I1
ssg2228
(dp2270
g58
I2
sssg2212
(dp2271
g2218
g2242
sg2198
g2250
sg2208
g2254
sg2214
(dp2272
g58
I2
ssg2202
(dp2273
g58
I4
ssg2230
(dp2274
g58
I5
sssg2214
(dp2275
g2196
g2237
sg2218
g2243
sg2198
g2251
sg2208
g2255
sg2210
g2262
sg2212
g2272
sg2222
(dp2276
g58
I1
ssg2206
(dp2277
g58
I1
ssg2202
(dp2278
g58
I6
ssg2226
(dp2279
g58
I1
ssg2230
(dp2280
g58
I6
ssg2228
(dp2281
g58
I3
sssg2222
(dp2282
g2214
g2276
ssg2206
(dp2283
g2210
g2263
sg2200
g2269
sg2228
(dp2284
g58
I1
ssg2214
g2277
ssg2202
(dp2285
g2218
g2244
sg2198
g2249
sg2208
g2256
sg2210
g2264
sg2212
g2273
sg2214
g2278
sg2224
(dp2286
g58
I1
ssg2230
(dp2287
g58
I10
ssg2228
(dp2288
g58
I3
ssg2216
(dp2289
g58
I1
sssg2224
(dp2290
g2202
g2286
sg2216
(dp2291
g58
I1
sssg2204
(dp2292
g2220
(dp2293
g58
I1
ssg2226
(dp2294
g58
I2
sssg2220
(dp2295
g2218
g2245
sg2204
g2293
sg2226
(dp2296
g58
I1
sssg2226
(dp2297
g2196
g2235
sg2208
g2257
sg2210
g2265
sg2220
g2296
sg2204
g2294
sg2214
g2279
sg2228
(dp2298
g58
I3
sssg2230
(dp2299
g2218
g2246
sg2198
g2248
sg2208
g2258
sg2210
g2266
sg2212
g2274
sg2214
g2280
sg2202
g2287
sg2228
(dp2300
g58
I3
sssg2228
(dp2301
g2196
g2236
sg2208
g2259
sg2210
g2267
sg2200
g2270
sg2214
g2281
sg2206
g2284
sg2202
g2288
sg2226
g2298
sg2230
g2300
ssg2216
(dp2302
g2202
g2289
sg2224
g2291
sssg139
(dp2303
g141
S'()'
p2304
ssg143
g51
sg144
g2232
sbsVSouth_Pacific
p2305
g2
(g3
g4
Ntp2306
Rp2307
(dp2308
g8
(dp2309
VOzzy
p2310
(dp2311
sVJim
p2312
(dp2313
sVBrandon
p2314
(dp2315
sVRick
p2316
(dp2317
sVAlbert
p2318
(dp2319
sVCochran
p2320
(dp2321
sVWhitney
p2322
(dp2323
sVKeith
p2324
(dp2325
sVChristine
p2326
(dp2327
sVSemhar
p2328
(dp2329
sVSophie
p2330
(dp2331
sVMark
p2332
(dp2333
sVStacey
p2334
(dp2335
sVCoach
p2336
(dp2337
sVEdna
p2338
(dp2339
sVElyse
p2340
(dp2341
sVMikayla
p2342
(dp2343
sVDawn
p2344
(dp2345
ssg50
g51
sg52
g51
sg53
(dp2346
g2310
(dp2347
g2338
(dp2348
g58
I1
ssg2340
(dp2349
g58
I3
ssg2312
(dp2350
g58
I5
ssg2332
(dp2351
g58
I1
ssg2320
(dp2352
g58
I4
ssg2316
(dp2353
g58
I1
ssg2344
(dp2354
g58
I6
ssg2324
(dp2355
g58
I5
ssg2322
(dp2356
g58
I5
sssg2334
(dp2357
g2326
(dp2358
g58
I1
sssg2336
(dp2359
g2338
(dp2360
g58
I8
ssg2342
(dp2361
g58
I2
ssg2318
(dp2362
g58
I12
ssg2314
(dp2363
g58
I11
ssg2320
(dp2364
g58
I5
ssg2316
(dp2365
g58
I10
ssg2330
(dp2366
g58
I12
ssg2344
(dp2367
g58
I1
ssg2322
(dp2368
g58
I1
sssg2328
(dp2369
g2326
(dp2370
g58
I1
sssg2326
(dp2371
g2340
(dp2372
g58
I1
ssg2334
g2358
sg2328
g2370
sg2342
(dp2373
g58
I1
ssg2332
(dp2374
g58
I1
sssg2338
(dp2375
g2310
g2348
sg2336
g2360
sg2342
(dp2376
g58
I1
ssg2318
(dp2377
g58
I7
ssg2314
(dp2378
g58
I8
ssg2320
(dp2379
g58
I6
ssg2316
(dp2380
g58
I8
ssg2330
(dp2381
g58
I8
ssg2344
(dp2382
g58
I1
ssg2322
(dp2383
g58
I1
sssg2340
(dp2384
g2310
g2349
sg2326
g2372
sg2312
(dp2385
g58
I1
ssg2332
(dp2386
g58
I1
ssg2320
(dp2387
g58
I2
ssg2322
(dp2388
g58
I2
ssg2344
(dp2389
g58
I2
ssg2324
(dp2390
g58
I2
sssg2342
(dp2391
g2336
g2361
sg2326
g2373
sg2338
g2376
sg2318
(dp2392
g58
I3
ssg2314
(dp2393
g58
I2
ssg2316
(dp2394
g58
I1
ssg2330
(dp2395
g58
I2
sssg2318
(dp2396
g2336
g2362
sg2338
g2377
sg2342
g2392
sg2314
(dp2397
g58
I11
ssg2320
(dp2398
g58
I5
ssg2316
(dp2399
g58
I8
ssg2330
(dp2400
g58
I12
ssg2344
(dp2401
g58
I1
ssg2322
(dp2402
g58
I1
sssg2314
(dp2403
g2336
g2363
sg2338
g2378
sg2342
g2393
sg2318
g2397
sg2320
(dp2404
g58
I5
ssg2316
(dp2405
g58
I9
ssg2330
(dp2406
g58
I9
ssg2344
(dp2407
g58
I1
ssg2322
(dp2408
g58
I1
sssg2312
(dp2409
g2310
g2350
sg2340
g2385
sg2332
(dp2410
g58
I1
ssg2320
(dp2411
g58
I4
ssg2322
(dp2412
g58
I5
ssg2344
(dp2413
g58
I6
ssg2324
(dp2414
g58
I4
sssg2320
(dp2415
g2310
g2352
sg2336
g2364
sg2338
g2379
sg2340
g2387
sg2312
g2411
sg2318
g2398
sg2314
g2404
sg2316
(dp2416
g58
I4
ssg2330
(dp2417
g58
I5
ssg2332
(dp2418
g58
I1
ssg2324
(dp2419
g58
I4
ssg2344
(dp2420
g58
I6
ssg2322
(dp2421
g58
I5
sssg2316
(dp2422
g2310
g2353
sg2336
g2365
sg2338
g2380
sg2318
g2399
sg2314
g2405
sg2320
g2416
sg2322
(dp2423
g58
I1
ssg2330
(dp2424
g58
I10
ssg2324
(dp2425
g58
I1
ssg2344
(dp2426
g58
I1
ssg2342
g2394
ssg2330
(dp2427
g2336
g2366
sg2338
g2381
sg2342
g2395
sg2318
g2400
sg2314
g2406
sg2320
g2417
sg2316
g2424
sg2344
(dp2428
g58
I1
ssg2322
(dp2429
g58
I1
sssg2332
(dp2430
g2310
g2351
sg2326
g2374
sg2340
g2386
sg2312
g2410
sg2320
g2418
sg2322
(dp2431
g58
I1
ssg2344
(dp2432
g58
I1
ssg2324
(dp2433
g58
I1
sssg2324
(dp2434
g2310
g2355
sg2340
g2390
sg2312
g2414
sg2332
g2433
sg2320
g2419
sg2316
g2425
sg2344
(dp2435
g58
I4
ssg2322
(dp2436
g58
I5
sssg2344
(dp2437
g2310
g2354
sg2336
g2367
sg2338
g2382
sg2340
g2389
sg2312
g2413
sg2318
g2401
sg2314
g2407
sg2320
g2420
sg2316
g2426
sg2330
g2428
sg2332
g2432
sg2324
g2435
sg2322
(dp2438
g58
I9
sssg2322
(dp2439
g2310
g2356
sg2336
g2368
sg2338
g2383
sg2340
g2388
sg2312
g2412
sg2318
g2402
sg2314
g2408
sg2320
g2421
sg2316
g2423
sg2330
g2429
sg2332
g2431
sg2324
g2436
sg2344
g2438
sssg139
(dp2440
g141
S'()'
p2441
ssg143
g51
sg144
g2346
sbsVOne_World
p2442
g2
(g3
g4
Ntp2443
Rp2444
(dp2445
g8
(dp2446
VMatt
p2447
(dp2448
sVJay
p2449
(dp2450
sVLeif
p2451
(dp2452
sVMonica
p2453
(dp2454
sVAlicia
p2455
(dp2456
sVTarzan
p2457
(dp2458
sVJonas
p2459
(dp2460
sVKim
p2461
(dp2462
sVKat
p2463
(dp2464
sVSabrina
p2465
(dp2466
sVChristina
p2467
(dp2468
sVColton
p2469
(dp2470
sVBill
p2471
(dp2472
sVMichael
p2473
(dp2474
sVKourtney
p2475
(dp2476
sVNina
p2477
(dp2478
sVTroyzan
p2479
(dp2480
sVChelsea
p2481
(dp2482
ssg50
g51
sg52
g51
sg53
(dp2483
g2453
(dp2484
g2467
(dp2485
g58
I1
sssg2467
(dp2486
g2453
g2485
sg2449
(dp2487
g58
I1
ssg2455
(dp2488
g58
I8
ssg2473
(dp2489
g58
I1
ssg2479
(dp2490
g58
I1
ssg2457
(dp2491
g58
I3
ssg2461
(dp2492
g58
I6
ssg2463
(dp2493
g58
I2
ssg2481
(dp2494
g58
I4
ssg2465
(dp2495
g58
I5
sssg2471
(dp2496
g2469
(dp2497
g58
I1
ssg2449
(dp2498
g58
I1
ssg2479
(dp2499
g58
I1
ssg2457
(dp2500
g58
I1
ssg2459
(dp2501
g58
I1
ssg2451
(dp2502
g58
I1
sssg2449
(dp2503
g2467
g2487
sg2471
g2498
sg2469
(dp2504
g58
I2
ssg2451
(dp2505
g58
I4
ssg2455
(dp2506
g58
I1
ssg2473
(dp2507
g58
I2
ssg2479
(dp2508
g58
I4
ssg2457
(dp2509
g58
I3
ssg2459
(dp2510
g58
I2
ssg2461
(dp2511
g58
I2
ssg2463
(dp2512
g58
I2
ssg2481
(dp2513
g58
I2
ssg2465
(dp2514
g58
I2
sssg2451
(dp2515
g2471
g2502
sg2449
g2505
sg2469
(dp2516
g58
I3
ssg2455
(dp2517
g58
I1
ssg2473
(dp2518
g58
I1
ssg2479
(dp2519
g58
I4
ssg2457
(dp2520
g58
I3
ssg2459
(dp2521
g58
I4
ssg2461
(dp2522
g58
I1
ssg2463
(dp2523
g58
I1
ssg2481
(dp2524
g58
I1
ssg2465
(dp2525
g58
I1
sssg2469
(dp2526
g2471
g2497
sg2449
g2504
sg2455
(dp2527
g58
I1
ssg2473
(dp2528
g58
I1
ssg2479
(dp2529
g58
I2
ssg2457
(dp2530
g58
I3
ssg2459
(dp2531
g58
I3
ssg2451
g2516
ssg2455
(dp2532
g2467
g2488
sg2449
g2506
sg2451
g2517
sg2469
g2527
sg2473
(dp2533
g58
I1
ssg2479
(dp2534
g58
I1
ssg2457
(dp2535
g58
I4
ssg2459
(dp2536
g58
I1
ssg2461
(dp2537
g58
I7
ssg2463
(dp2538
g58
I3
ssg2481
(dp2539
g58
I5
ssg2465
(dp2540
g58
I5
sssg2473
(dp2541
g2467
g2489
sg2449
g2507
sg2451
g2518
sg2469
g2528
sg2455
g2533
sg2479
(dp2542
g58
I2
ssg2457
(dp2543
g58
I3
ssg2459
(dp2544
g58
I1
ssg2461
(dp2545
g58
I1
ssg2463
(dp2546
g58
I1
ssg2481
(dp2547
g58
I1
ssg2465
(dp2548
g58
I1
sssg2479
(dp2549
g2467
g2490
sg2471
g2499
sg2449
g2508
sg2451
g2519
sg2469
g2529
sg2455
g2534
sg2473
g2542
sg2457
(dp2550
g58
I4
ssg2459
(dp2551
g58
I2
ssg2461
(dp2552
g58
I2
ssg2463
(dp2553
g58
I2
ssg2481
(dp2554
g58
I2
ssg2465
(dp2555
g58
I3
sssg2475
(dp2556
sg2477
(dp2557
sg2457
(dp2558
g2467
g2491
sg2471
g2500
sg2449
g2509
sg2451
g2520
sg2469
g2530
sg2455
g2535
sg2473
g2543
sg2479
g2550
sg2459
(dp2559
g58
I3
ssg2461
(dp2560
g58
I3
ssg2463
(dp2561
g58
I2
ssg2481
(dp2562
g58
I3
ssg2465
(dp2563
g58
I5
sssg2459
(dp2564
g2471
g2501
sg2449
g2510
sg2469
g2531
sg2455
g2536
sg2473
g2544
sg2479
g2551
sg2457
g2559
sg2451
g2521
ssg2461
(dp2565
g2467
g2492
sg2449
g2511
sg2451
g2522
sg2455
g2537
sg2473
g2545
sg2479
g2552
sg2457
g2560
sg2463
(dp2566
g58
I4
ssg2481
(dp2567
g58
I8
ssg2465
(dp2568
g58
I8
sssg2463
(dp2569
g2467
g2493
sg2449
g2512
sg2451
g2523
sg2455
g2538
sg2473
g2546
sg2479
g2553
sg2457
g2561
sg2461
g2566
sg2481
(dp2570
g58
I6
ssg2465
(dp2571
g58
I4
sssg2447
(dp2572
sg2481
(dp2573
g2467
g2494
sg2449
g2513
sg2455
g2539
sg2473
g2547
sg2479
g2554
sg2457
g2562
sg2461
g2567
sg2463
g2570
sg2451
g2524
sg2465
(dp2574
g58
I8
sssg2465
(dp2575
g2467
g2495
sg2449
g2514
sg2451
g2525
sg2455
g2540
sg2473
g2548
sg2479
g2555
sg2457
g2563
sg2461
g2568
sg2463
g2571
sg2481
g2574
sssg139
(dp2576
g141
S'()'
p2577
ssg143
g51
sg144
g2483
sbsVPhilippines
p2578
g2
(g3
g4
Ntp2579
Rp2580
(dp2581
g8
(dp2582
VPete
p2583
(dp2584
sVRussell
p2585
(dp2586
sVZane
p2587
(dp2588
sVR.C.
p2589
(dp2590
sVRoxanne
p2591
(dp2592
sVJonathan
p2593
(dp2594
sVArtis
p2595
(dp2596
sVAbi-Maria
p2597
(dp2598
sVMichael
p2599
(dp2600
sVLisa
p2601
(dp2602
sVDana
p2603
(dp2604
sVCarter
p2605
(dp2606
sVJeff
p2607
(dp2608
sVMalcolm
p2609
(dp2610
sVDenise
p2611
(dp2612
sVDawson
p2613
(dp2614
sVAngie
p2615
(dp2616
sVKatie
p2617
(dp2618
ssg50
g51
sg52
g51
sg53
(dp2619
g2583
(dp2620
g2595
(dp2621
g58
I3
ssg2605
(dp2622
g58
I1
ssg2607
(dp2623
g58
I1
ssg2599
(dp2624
g58
I1
ssg2601
(dp2625
g58
I2
ssg2597
(dp2626
g58
I3
sssg2595
(dp2627
g2583
g2621
sg2605
(dp2628
g58
I1
ssg2607
(dp2629
g58
I1
ssg2599
(dp2630
g58
I1
ssg2601
(dp2631
g58
I2
ssg2597
(dp2632
g58
I2
sssg2615
(dp2633
g2611
(dp2634
g58
I2
ssg2609
(dp2635
g58
I2
ssg2585
(dp2636
g58
I2
ssg2591
(dp2637
g58
I1
sssg2605
(dp2638
g2583
g2622
sg2595
g2628
sg2607
(dp2639
g58
I4
ssg2609
(dp2640
g58
I3
ssg2599
(dp2641
g58
I1
ssg2611
(dp2642
g58
I4
ssg2597
(dp2643
g58
I1
ssg2593
(dp2644
g58
I5
ssg2617
(dp2645
g58
I1
sssg2607
(dp2646
g2583
g2623
sg2595
g2629
sg2605
g2639
sg2609
(dp2647
g58
I1
ssg2611
(dp2648
g58
I3
ssg2593
(dp2649
g58
I2
ssg2617
(dp2650
g58
I1
sssg2587
(dp2651
sg2609
(dp2652
g2615
g2635
sg2605
g2640
sg2607
g2647
sg2599
(dp2653
g58
I5
ssg2611
(dp2654
g58
I10
ssg2591
(dp2655
g58
I1
ssg2601
(dp2656
g58
I4
ssg2597
(dp2657
g58
I2
ssg2593
(dp2658
g58
I2
ssg2585
(dp2659
g58
I3
sssg2589
(dp2660
g2593
(dp2661
g58
I1
sssg2599
(dp2662
g2583
g2624
sg2595
g2630
sg2605
g2641
sg2609
g2653
sg2611
(dp2663
g58
I7
ssg2601
(dp2664
g58
I7
ssg2597
(dp2665
g58
I3
ssg2593
(dp2666
g58
I1
sssg2611
(dp2667
g2615
g2634
sg2605
g2642
sg2607
g2648
sg2609
g2654
sg2599
g2663
sg2591
(dp2668
g58
I1
ssg2601
(dp2669
g58
I6
ssg2597
(dp2670
g58
I2
ssg2593
(dp2671
g58
I3
ssg2585
(dp2672
g58
I3
ssg2617
(dp2673
g58
I1
sssg2603
(dp2674
sg2591
(dp2675
g2611
g2668
sg2609
g2655
sg2615
g2637
sg2585
(dp2676
g58
I1
sssg2601
(dp2677
g2583
g2625
sg2595
g2631
sg2609
g2656
sg2599
g2664
sg2611
g2669
sg2597
(dp2678
g58
I4
sssg2597
(dp2679
g2583
g2626
sg2595
g2632
sg2605
g2643
sg2609
g2657
sg2599
g2665
sg2611
g2670
sg2601
g2678
sg2593
(dp2680
g58
I1
sssg2593
(dp2681
g2605
g2644
sg2607
g2649
sg2609
g2658
sg2589
g2661
sg2599
g2666
sg2611
g2671
sg2597
g2680
sg2617
(dp2682
g58
I1
sssg2613
(dp2683
sg2585
(dp2684
g2611
g2672
sg2609
g2659
sg2615
g2636
sg2591
g2676
ssg2617
(dp2685
g2611
g2673
sg2593
g2682
sg2605
g2645
sg2607
g2650
sssg139
(dp2686
g141
S'()'
p2687
ssg143
g51
sg144
g2619
sbsVCaramoan
p2688
g2
(g3
g4
Ntp2689
Rp2690
(dp2691
g8
(dp2692
V Shamar
p2693
(dp2694
sV Andrea
p2695
(dp2696
sV Cochran
p2697
(dp2698
sV Reynold
p2699
(dp2700
sV Michael
p2701
(dp2702
sV Phillip
p2703
(dp2704
sV Corinne
p2705
(dp2706
sV Malcolm
p2707
(dp2708
sV Brenda
p2709
(dp2710
sV Julia
p2711
(dp2712
sV Eddie
p2713
(dp2714
sV Laura
p2715
(dp2716
sV Erik
p2717
(dp2718
sV Francesca
p2719
(dp2720
sV Dawn
p2721
(dp2722
sV Allie
p2723
(dp2724
sV Brandon
p2725
(dp2726
sV Matt
p2727
(dp2728
sV Sherri
p2729
(dp2730
sV Hope
p2731
(dp2732
ssg50
g51
sg52
g51
sg53
(dp2733
g2725
(dp2734
g2719
(dp2735
g58
I1
ssg2717
(dp2736
g58
I1
ssg2709
(dp2737
g58
I1
sssg2731
(dp2738
g2713
(dp2739
g58
I3
ssg2723
(dp2740
g58
I1
ssg2699
(dp2741
g58
I2
ssg2693
(dp2742
g58
I1
sssg2701
(dp2743
g2727
(dp2744
g58
I5
ssg2699
(dp2745
g58
I3
ssg2729
(dp2746
g58
I3
ssg2693
(dp2747
g58
I2
ssg2711
(dp2748
g58
I4
ssg2713
(dp2749
g58
I3
ssg2715
(dp2750
g58
I2
ssg2721
(dp2751
g58
I1
ssg2705
(dp2752
g58
I2
ssg2707
(dp2753
g58
I1
sssg2707
(dp2754
g2701
g2753
sg2699
(dp2755
g58
I4
ssg2703
(dp2756
g58
I2
ssg2709
(dp2757
g58
I1
ssg2713
(dp2758
g58
I3
ssg2717
(dp2759
g58
I2
ssg2705
(dp2760
g58
I3
ssg2695
(dp2761
g58
I3
ssg2721
(dp2762
g58
I2
ssg2697
(dp2763
g58
I2
sssg2703
(dp2764
g2707
g2756
sg2709
(dp2765
g58
I3
ssg2729
(dp2766
g58
I2
ssg2711
(dp2767
g58
I1
ssg2717
(dp2768
g58
I3
ssg2705
(dp2769
g58
I4
ssg2695
(dp2770
g58
I4
ssg2721
(dp2771
g58
I6
ssg2697
(dp2772
g58
I8
sssg2709
(dp2773
g2725
g2737
sg2707
g2757
sg2703
g2765
sg2729
(dp2774
g58
I7
ssg2713
(dp2775
g58
I1
ssg2717
(dp2776
g58
I7
ssg2705
(dp2777
g58
I1
ssg2695
(dp2778
g58
I5
ssg2721
(dp2779
g58
I7
ssg2719
(dp2780
g58
I1
ssg2697
(dp2781
g58
I4
sssg2729
(dp2782
g2701
g2746
sg2699
(dp2783
g58
I1
ssg2703
g2766
sg2709
g2774
sg2711
(dp2784
g58
I4
ssg2715
(dp2785
g58
I3
ssg2713
(dp2786
g58
I2
ssg2727
(dp2787
g58
I3
ssg2717
(dp2788
g58
I4
ssg2695
(dp2789
g58
I4
ssg2721
(dp2790
g58
I8
ssg2697
(dp2791
g58
I5
ssg2693
(dp2792
g58
I1
sssg2719
(dp2793
g2725
g2735
sg2717
(dp2794
g58
I1
ssg2709
g2780
ssg2693
(dp2795
g2701
g2747
sg2729
g2792
sg2711
(dp2796
g58
I1
ssg2713
(dp2797
g58
I1
ssg2715
(dp2798
g58
I1
ssg2731
g2742
sg2727
(dp2799
g58
I2
sssg2711
(dp2800
g2701
g2748
sg2699
(dp2801
g58
I1
ssg2703
g2767
sg2729
g2784
sg2715
(dp2802
g58
I3
ssg2713
(dp2803
g58
I1
ssg2727
(dp2804
g58
I3
ssg2697
(dp2805
g58
I1
ssg2693
g2796
ssg2715
(dp2806
g2729
g2785
sg2701
g2750
sg2693
g2798
sg2711
g2802
sg2727
(dp2807
g58
I2
sssg2713
(dp2808
g2731
g2739
sg2701
g2749
sg2699
(dp2809
g58
I7
ssg2709
g2775
sg2729
g2786
sg2693
g2797
sg2711
g2803
sg2727
(dp2810
g58
I1
ssg2717
(dp2811
g58
I2
ssg2705
(dp2812
g58
I1
ssg2695
(dp2813
g58
I1
ssg2721
(dp2814
g58
I1
ssg2723
(dp2815
g58
I1
ssg2697
(dp2816
g58
I1
ssg2707
g2758
ssg2727
(dp2817
g2701
g2744
sg2699
(dp2818
g58
I1
ssg2729
g2787
sg2711
g2804
sg2713
g2810
sg2715
g2807
sg2693
g2799
ssg2717
(dp2819
g2725
g2736
sg2699
(dp2820
g58
I1
ssg2703
g2768
sg2709
g2776
sg2729
g2788
sg2713
g2811
sg2705
(dp2821
g58
I1
ssg2695
(dp2822
g58
I4
ssg2721
(dp2823
g58
I4
ssg2719
g2794
sg2697
(dp2824
g58
I6
ssg2707
g2759
ssg2705
(dp2825
g2701
g2752
sg2699
(dp2826
g58
I1
ssg2703
g2769
sg2709
g2777
sg2713
g2812
sg2717
g2821
sg2695
(dp2827
g58
I2
ssg2721
(dp2828
g58
I5
ssg2697
(dp2829
g58
I4
ssg2707
g2760
ssg2695
(dp2830
g2699
(dp2831
g58
I1
ssg2703
g2770
sg2709
g2778
sg2729
g2789
sg2713
g2813
sg2717
g2822
sg2705
g2827
sg2721
(dp2832
g58
I6
ssg2697
(dp2833
g58
I5
ssg2707
g2761
ssg2721
(dp2834
g2701
g2751
sg2707
g2762
sg2703
g2771
sg2709
g2779
sg2729
g2790
sg2713
g2814
sg2717
g2823
sg2705
g2828
sg2695
g2832
sg2697
(dp2835
g58
I10
sssg2723
(dp2836
g2713
g2815
sg2699
(dp2837
g58
I1
ssg2731
g2740
ssg2697
(dp2838
g2707
g2763
sg2703
g2772
sg2709
g2781
sg2729
g2791
sg2711
g2805
sg2713
g2816
sg2717
g2824
sg2695
g2833
sg2721
g2835
sg2705
g2829
ssg2699
(dp2839
g2701
g2745
sg2707
g2755
sg2729
g2783
sg2711
g2801
sg2713
g2809
sg2727
g2818
sg2717
g2820
sg2695
g2831
sg2723
g2837
sg2705
g2826
sg2731
g2741
sssg139
(dp2840
g141
S'()'
p2841
ssg143
g51
sg144
g2733
sbsVGabon
p2842
g2
(g3
g4
Ntp2843
Rp2844
(dp2845
g8
(dp2846
VMichelle
p2847
(dp2848
sVSugar
p2849
(dp2850
sVRandy
p2851
(dp2852
sVPaloma
p2853
(dp2854
sVKen
p2855
(dp2856
sVSusie
p2857
(dp2858
sVDan
p2859
(dp2860
sVG.C.
p2861
(dp2862
sVMarcus
p2863
(dp2864
sVAce
p2865
(dp2866
sVCharlie
p2867
(dp2868
sVCrystal
p2869
(dp2870
sVKelly
p2871
(dp2872
sVBob
p2873
(dp2874
sVGillian
p2875
(dp2876
sVCorinne
p2877
(dp2878
sVMatty
p2879
(dp2880
sVJacquie
p2881
(dp2882
ssg50
g51
sg52
g51
sg53
(dp2883
g2855
(dp2884
g2875
(dp2885
g58
I1
ssg2857
(dp2886
g58
I5
ssg2865
(dp2887
g58
I2
ssg2877
(dp2888
g58
I1
ssg2859
(dp2889
g58
I2
ssg2879
(dp2890
g58
I7
ssg2849
(dp2891
g58
I5
ssg2869
(dp2892
g58
I10
ssg2851
(dp2893
g58
I2
ssg2871
(dp2894
g58
I2
ssg2873
(dp2895
g58
I1
ssg2861
(dp2896
g58
I3
sssg2875
(dp2897
g2855
g2885
sg2857
(dp2898
g58
I1
ssg2859
(dp2899
g58
I1
ssg2879
(dp2900
g58
I1
ssg2869
(dp2901
g58
I1
ssg2851
(dp2902
g58
I1
ssg2861
(dp2903
g58
I1
sssg2857
(dp2904
g2855
g2886
sg2875
g2898
sg2869
(dp2905
g58
I6
ssg2867
(dp2906
g58
I1
ssg2859
(dp2907
g58
I2
ssg2879
(dp2908
g58
I8
ssg2849
(dp2909
g58
I5
ssg2877
(dp2910
g58
I1
ssg2851
(dp2911
g58
I2
ssg2873
(dp2912
g58
I3
ssg2861
(dp2913
g58
I2
sssg2865
(dp2914
g2855
g2887
sg2869
(dp2915
g58
I2
ssg2867
(dp2916
g58
I1
ssg2879
(dp2917
g58
I3
ssg2849
(dp2918
g58
I3
ssg2877
(dp2919
g58
I1
ssg2863
(dp2920
g58
I1
ssg2871
(dp2921
g58
I1
ssg2873
(dp2922
g58
I1
ssg2881
(dp2923
g58
I2
sssg2863
(dp2924
g2865
g2920
sg2867
(dp2925
g58
I1
ssg2859
(dp2926
g58
I1
ssg2849
(dp2927
g58
I1
ssg2877
(dp2928
g58
I1
ssg2851
(dp2929
g58
I1
ssg2873
(dp2930
g58
I2
ssg2881
(dp2931
g58
I1
sssg2867
(dp2932
g2863
g2925
sg2857
g2906
sg2865
g2916
sg2849
(dp2933
g58
I1
ssg2877
(dp2934
g58
I3
ssg2851
(dp2935
g58
I1
ssg2873
(dp2936
g58
I3
ssg2881
(dp2937
g58
I1
sssg2859
(dp2938
g2855
g2889
sg2875
g2899
sg2857
g2907
sg2863
g2926
sg2879
(dp2939
g58
I2
ssg2869
(dp2940
g58
I2
ssg2851
(dp2941
g58
I3
ssg2861
(dp2942
g58
I2
sssg2869
(dp2943
g2855
g2892
sg2875
g2901
sg2857
g2905
sg2865
g2915
sg2859
g2940
sg2879
(dp2944
g58
I8
ssg2849
(dp2945
g58
I6
ssg2851
(dp2946
g58
I2
ssg2871
(dp2947
g58
I2
ssg2861
(dp2948
g58
I3
sssg2879
(dp2949
g2855
g2890
sg2875
g2900
sg2857
g2908
sg2865
g2917
sg2859
g2939
sg2849
(dp2950
g58
I7
ssg2869
g2944
sg2851
(dp2951
g58
I2
ssg2871
(dp2952
g58
I2
ssg2873
(dp2953
g58
I2
ssg2861
(dp2954
g58
I3
sssg2849
(dp2955
g2855
g2891
sg2857
g2909
sg2865
g2918
sg2869
g2945
sg2867
g2933
sg2879
g2950
sg2877
(dp2956
g58
I1
ssg2863
g2927
sg2871
(dp2957
g58
I1
ssg2873
(dp2958
g58
I4
ssg2881
(dp2959
g58
I1
sssg2877
(dp2960
g2855
g2888
sg2857
g2910
sg2865
g2919
sg2863
g2928
sg2867
g2934
sg2849
g2956
sg2851
(dp2961
g58
I2
ssg2873
(dp2962
g58
I5
ssg2881
(dp2963
g58
I1
sssg2851
(dp2964
g2855
g2893
sg2875
g2902
sg2857
g2911
sg2869
g2946
sg2867
g2935
sg2859
g2941
sg2879
g2951
sg2877
g2961
sg2863
g2929
sg2873
(dp2965
g58
I2
ssg2861
(dp2966
g58
I2
sssg2847
(dp2967
sg2853
(dp2968
g2871
(dp2969
g58
I1
sssg2871
(dp2970
g2855
g2894
sg2865
g2921
sg2879
g2952
sg2849
g2957
sg2869
g2947
sg2853
g2969
sg2861
(dp2971
g58
I1
sssg2873
(dp2972
g2855
g2895
sg2857
g2912
sg2865
g2922
sg2863
g2930
sg2867
g2936
sg2879
g2953
sg2849
g2958
sg2877
g2962
sg2851
g2965
sg2881
(dp2973
g58
I1
sssg2861
(dp2974
g2855
g2896
sg2875
g2903
sg2857
g2913
sg2859
g2942
sg2879
g2954
sg2869
g2948
sg2851
g2966
sg2871
g2971
ssg2881
(dp2975
g2863
g2931
sg2865
g2923
sg2867
g2937
sg2849
g2959
sg2877
g2963
sg2873
g2973
sssg139
(dp2976
g141
S'()'
p2977
ssg143
g51
sg144
g2883
sbsVMicronesia
p2978
g2
(g3
g4
Ntp2979
Rp2980
(dp2981
g8
(dp2982
VOzzy
p2983
(dp2984
sVParvati
p2985
(dp2986
sVEliza
p2987
(dp2988
sVJonathan
p2989
(dp2990
sVMary
p2991
(dp2992
sVAmi
p2993
(dp2994
sVMikey B.
p2995
(dp2996
sVTracy
p2997
(dp2998
sVJon
p2999
(dp3000
sVKathy
p3001
(dp3002
sVNatalie
p3003
(dp3004
sVJames
p3005
(dp3006
sVJoel
p3007
(dp3008
sVAlexis
p3009
(dp3010
sVAmanda
p3011
(dp3012
sVChet
p3013
(dp3014
sVJason
p3015
(dp3016
sVYau-Man
p3017
(dp3018
sVErik
p3019
(dp3020
sVCirie
p3021
(dp3022
ssg50
g51
sg52
g51
sg53
(dp3023
g2983
(dp3024
g2993
(dp3025
g58
I4
ssg3013
(dp3026
g58
I1
ssg3003
(dp3027
g58
I1
ssg2985
(dp3028
g58
I3
ssg3017
(dp3029
g58
I1
ssg3005
(dp3030
g58
I4
ssg2987
(dp3031
g58
I2
ssg3009
(dp3032
g58
I1
ssg3019
(dp3033
g58
I5
ssg2997
(dp3034
g58
I1
ssg2989
(dp3035
g58
I1
ssg3011
(dp3036
g58
I8
ssg3021
(dp3037
g58
I7
sssg2993
(dp3038
g2983
g3025
sg3013
(dp3039
g58
I1
ssg2985
(dp3040
g58
I1
ssg3017
(dp3041
g58
I1
ssg3005
(dp3042
g58
I1
ssg2987
(dp3043
g58
I1
ssg3019
(dp3044
g58
I2
ssg2997
(dp3045
g58
I1
ssg2989
(dp3046
g58
I1
ssg3011
(dp3047
g58
I4
ssg3021
(dp3048
g58
I4
sssg3013
(dp3049
g2983
g3026
sg2993
g3039
sg3003
(dp3050
g58
I2
ssg3001
(dp3051
g58
I2
ssg3007
(dp3052
g58
I1
ssg3009
(dp3053
g58
I1
ssg3019
(dp3054
g58
I2
ssg2997
(dp3055
g58
I4
ssg3011
(dp3056
g58
I1
ssg3021
(dp3057
g58
I1
sssg3003
(dp3058
g2983
g3027
sg3001
(dp3059
g58
I2
ssg3013
g3050
sg2985
(dp3060
g58
I3
ssg3005
(dp3061
g58
I1
ssg3007
(dp3062
g58
I1
ssg3009
(dp3063
g58
I5
ssg3019
(dp3064
g58
I4
ssg3015
(dp3065
g58
I2
ssg2997
(dp3066
g58
I2
ssg3011
(dp3067
g58
I2
ssg3021
(dp3068
g58
I4
sssg2985
(dp3069
g2983
g3028
sg2993
g3040
sg3003
g3060
sg3015
(dp3070
g58
I1
ssg3017
(dp3071
g58
I1
ssg3005
(dp3072
g58
I3
ssg2987
(dp3073
g58
I2
ssg3009
(dp3074
g58
I2
ssg3019
(dp3075
g58
I2
ssg2989
(dp3076
g58
I1
ssg3011
(dp3077
g58
I7
ssg3021
(dp3078
g58
I7
sssg2995
(dp3079
g3015
(dp3080
g58
I2
ssg3009
(dp3081
g58
I1
sssg3017
(dp3082
g2983
g3029
sg2993
g3041
sg2985
g3071
sg3005
(dp3083
g58
I1
ssg2987
(dp3084
g58
I1
ssg2989
(dp3085
g58
I2
ssg3011
(dp3086
g58
I1
ssg3021
(dp3087
g58
I1
sssg3005
(dp3088
g2983
g3030
sg2993
g3042
sg3003
g3061
sg2985
g3072
sg3017
g3083
sg2987
(dp3089
g58
I2
ssg3009
(dp3090
g58
I1
ssg3019
(dp3091
g58
I2
ssg2989
(dp3092
g58
I1
ssg3011
(dp3093
g58
I4
ssg3021
(dp3094
g58
I3
sssg2987
(dp3095
g2983
g3031
sg2993
g3043
sg2985
g3073
sg3017
g3084
sg3005
g3089
sg3015
(dp3096
g58
I1
ssg2989
(dp3097
g58
I1
ssg3011
(dp3098
g58
I2
ssg3021
(dp3099
g58
I2
sssg3001
(dp3100
g3013
g3051
sg3003
g3059
sg3007
(dp3101
g58
I1
ssg3009
(dp3102
g58
I1
ssg3019
(dp3103
g58
I2
ssg2997
(dp3104
g58
I2
sssg2991
(dp3105
g3007
(dp3106
g58
I1
sssg3009
(dp3107
g2983
g3032
sg3001
g3102
sg3013
g3053
sg3003
g3063
sg2985
g3074
sg2995
g3081
sg3005
g3090
sg3019
(dp3108
g58
I3
ssg3015
(dp3109
g58
I3
ssg2997
(dp3110
g58
I1
ssg3011
(dp3111
g58
I1
ssg3021
(dp3112
g58
I3
sssg3007
(dp3113
g3001
g3101
sg3013
g3052
sg3003
g3062
sg3019
(dp3114
g58
I2
ssg2997
(dp3115
g58
I1
ssg2991
g3106
ssg3019
(dp3116
g2983
g3033
sg2993
g3044
sg3013
g3054
sg3003
g3064
sg2985
g3075
sg3001
g3103
sg3005
g3091
sg3007
g3114
sg3009
g3108
sg2997
(dp3117
g58
I2
ssg3011
(dp3118
g58
I6
ssg3021
(dp3119
g58
I6
sssg3015
(dp3120
g3003
g3065
sg2985
g3070
sg2995
g3080
sg2987
g3096
sg3009
g3109
sg3021
(dp3121
g58
I1
sssg2997
(dp3122
g2983
g3034
sg2993
g3045
sg3013
g3055
sg3003
g3066
sg3001
g3104
sg3007
g3115
sg3009
g3110
sg3019
g3117
sg3011
(dp3123
g58
I1
ssg3021
(dp3124
g58
I1
sssg2989
(dp3125
g2983
g3035
sg2993
g3046
sg2985
g3076
sg3017
g3085
sg3005
g3092
sg2987
g3097
sg3011
(dp3126
g58
I1
ssg3021
(dp3127
g58
I1
sssg3011
(dp3128
g2983
g3036
sg2993
g3047
sg3013
g3056
sg3003
g3067
sg2985
g3077
sg3017
g3086
sg3005
g3093
sg2987
g3098
sg3009
g3111
sg3019
g3118
sg2997
g3123
sg2989
g3126
sg3021
(dp3129
g58
I10
sssg3021
(dp3130
g2983
g3037
sg2993
g3048
sg3013
g3057
sg3003
g3068
sg2985
g3078
sg3017
g3087
sg3005
g3094
sg2987
g3099
sg3009
g3112
sg3019
g3119
sg3015
g3121
sg2997
g3124
sg2989
g3127
sg3011
g3129
ssg2999
(dp3131
ssg139
(dp3132
g141
S'()'
p3133
ssg143
g51
sg144
g3023
sbsVSamoa
p3134
g2
(g3
g4
Ntp3135
Rp3136
(dp3137
g8
(dp3138
VRussell S.
p3139
(dp3140
sVRussell H.
p3141
(dp3142
sVBetsy
p3143
(dp3144
sVBen
p3145
(dp3146
sVJohn
p3147
(dp3148
sVLiz
p3149
(dp3150
sVMarisa
p3151
(dp3152
sVMonica
p3153
(dp3154
sVMike
p3155
(dp3156
sVBrett
p3157
(dp3158
sVJaison
p3159
(dp3160
sVDave
p3161
(dp3162
sVMick
p3163
(dp3164
sVNatalie
p3165
(dp3166
sVAshley
p3167
(dp3168
sVYasmin
p3169
(dp3170
sVKelly
p3171
(dp3172
sVLaura
p3173
(dp3174
sVErik
p3175
(dp3176
sVShambo
p3177
(dp3178
ssg50
g51
sg52
g51
sg53
(dp3179
g3153
(dp3180
g3173
(dp3181
g58
I4
ssg3165
(dp3182
g58
I3
ssg3139
(dp3183
g58
I1
ssg3141
(dp3184
g58
I3
ssg3157
(dp3185
g58
I8
ssg3159
(dp3186
g58
I3
ssg3177
(dp3187
g58
I2
ssg3161
(dp3188
g58
I6
ssg3163
(dp3189
g58
I3
ssg3175
(dp3190
g58
I1
ssg3171
(dp3191
g58
I3
ssg3147
(dp3192
g58
I4
sssg3155
(dp3193
g3165
(dp3194
g58
I1
ssg3145
(dp3195
g58
I1
ssg3141
(dp3196
g58
I1
ssg3159
(dp3197
g58
I1
ssg3167
(dp3198
g58
I1
ssg3149
(dp3199
g58
I1
sssg3165
(dp3200
g3153
g3182
sg3155
g3194
sg3167
(dp3201
g58
I3
ssg3141
(dp3202
g58
I14
ssg3157
(dp3203
g58
I5
ssg3173
(dp3204
g58
I2
ssg3159
(dp3205
g58
I12
ssg3177
(dp3206
g58
I3
ssg3161
(dp3207
g58
I2
ssg3163
(dp3208
g58
I13
ssg3171
(dp3209
g58
I1
ssg3145
(dp3210
g58
I2
ssg3147
(dp3211
g58
I1
ssg3149
(dp3212
g58
I4
sssg3167
(dp3213
g3155
g3198
sg3165
g3201
sg3145
(dp3214
g58
I2
ssg3141
(dp3215
g58
I3
ssg3159
(dp3216
g58
I3
ssg3163
(dp3217
g58
I2
ssg3149
(dp3218
g58
I3
sssg3143
(dp3219
g3163
(dp3220
g58
I1
ssg3151
(dp3221
g58
I1
sssg3139
(dp3222
g3153
g3183
sg3157
(dp3223
g58
I1
ssg3173
(dp3224
g58
I1
ssg3161
(dp3225
g58
I1
ssg3175
(dp3226
g58
I1
ssg3171
(dp3227
g58
I1
ssg3147
(dp3228
g58
I1
sssg3141
(dp3229
g3153
g3184
sg3155
g3196
sg3165
g3202
sg3167
g3215
sg3157
(dp3230
g58
I5
ssg3173
(dp3231
g58
I1
ssg3159
(dp3232
g58
I13
ssg3177
(dp3233
g58
I4
ssg3161
(dp3234
g58
I2
ssg3163
(dp3235
g58
I14
ssg3171
(dp3236
g58
I1
ssg3145
(dp3237
g58
I2
ssg3147
(dp3238
g58
I2
ssg3149
(dp3239
g58
I4
sssg3157
(dp3240
g3153
g3185
sg3165
g3203
sg3139
g3223
sg3141
g3230
sg3173
(dp3241
g58
I4
ssg3159
(dp3242
g58
I4
ssg3177
(dp3243
g58
I2
ssg3161
(dp3244
g58
I6
ssg3163
(dp3245
g58
I5
ssg3175
(dp3246
g58
I1
ssg3171
(dp3247
g58
I3
ssg3147
(dp3248
g58
I4
sssg3173
(dp3249
g3153
g3181
sg3165
g3204
sg3139
g3224
sg3141
g3231
sg3157
g3241
sg3159
(dp3250
g58
I1
ssg3177
(dp3251
g58
I1
ssg3161
(dp3252
g58
I4
ssg3163
(dp3253
g58
I1
ssg3175
(dp3254
g58
I1
ssg3171
(dp3255
g58
I3
ssg3147
(dp3256
g58
I4
sssg3159
(dp3257
g3153
g3186
sg3155
g3197
sg3165
g3205
sg3167
g3216
sg3141
g3232
sg3157
g3242
sg3173
g3250
sg3177
(dp3258
g58
I4
ssg3161
(dp3259
g58
I2
ssg3163
(dp3260
g58
I12
ssg3171
(dp3261
g58
I1
ssg3145
(dp3262
g58
I2
ssg3147
(dp3263
g58
I2
ssg3149
(dp3264
g58
I4
sssg3169
(dp3265
g3177
(dp3266
g58
I1
sssg3177
(dp3267
g3153
g3187
sg3165
g3206
sg3141
g3233
sg3157
g3243
sg3169
g3266
sg3159
g3258
sg3173
g3251
sg3161
(dp3268
g58
I1
ssg3163
(dp3269
g58
I4
ssg3175
(dp3270
g58
I1
ssg3171
(dp3271
g58
I1
ssg3147
(dp3272
g58
I2
sssg3161
(dp3273
g3153
g3188
sg3165
g3207
sg3139
g3225
sg3141
g3234
sg3157
g3244
sg3173
g3252
sg3159
g3259
sg3177
g3268
sg3163
(dp3274
g58
I2
ssg3175
(dp3275
g58
I1
ssg3171
(dp3276
g58
I3
ssg3147
(dp3277
g58
I4
sssg3163
(dp3278
g3153
g3189
sg3165
g3208
sg3167
g3217
sg3143
g3220
sg3141
g3235
sg3157
g3245
sg3173
g3253
sg3159
g3260
sg3177
g3269
sg3161
g3274
sg3171
(dp3279
g58
I1
ssg3145
(dp3280
g58
I1
ssg3147
(dp3281
g58
I2
ssg3149
(dp3282
g58
I3
ssg3151
(dp3283
g58
I1
sssg3175
(dp3284
g3153
g3190
sg3139
g3226
sg3157
g3246
sg3173
g3254
sg3177
g3270
sg3161
g3275
sg3171
(dp3285
g58
I1
ssg3147
(dp3286
g58
I1
sssg3171
(dp3287
g3153
g3191
sg3165
g3209
sg3139
g3227
sg3141
g3236
sg3157
g3247
sg3173
g3255
sg3159
g3261
sg3177
g3271
sg3161
g3276
sg3163
g3279
sg3175
g3285
sg3147
(dp3288
g58
I3
sssg3145
(dp3289
g3155
g3195
sg3165
g3210
sg3167
g3214
sg3141
g3237
sg3159
g3262
sg3163
g3280
sg3149
(dp3290
g58
I2
sssg3147
(dp3291
g3153
g3192
sg3165
g3211
sg3139
g3228
sg3141
g3238
sg3157
g3248
sg3173
g3256
sg3159
g3263
sg3177
g3272
sg3161
g3277
sg3163
g3281
sg3175
g3286
sg3171
g3288
ssg3149
(dp3292
g3155
g3199
sg3165
g3212
sg3145
g3290
sg3141
g3239
sg3159
g3264
sg3163
g3282
sg3167
g3218
ssg3151
(dp3293
g3143
g3221
sg3163
g3283
sssg139
(dp3294
g141
S'()'
p3295
ssg143
g51
sg144
g3179
sbsVAll-Stars
p3296
g2
(g3
g4
Ntp3297
Rp3298
(dp3299
g8
(dp3300
VRichard
p3301
(dp3302
sVColby
p3303
(dp3304
sVEthan
p3305
(dp3306
sVTina
p3307
(dp3308
sVTom
p3309
(dp3310
sVJenna L.
p3311
(dp3312
sVJerri
p3313
(dp3314
sVRob C.
p3315
(dp3316
sVKathy
p3317
(dp3318
sVAlicia
p3319
(dp3320
sVLex
p3321
(dp3322
sVRudy
p3323
(dp3324
sVSusan
p3325
(dp3326
sVJenna M.
p3327
(dp3328
sVShii Ann
p3329
(dp3330
sVAmber
p3331
(dp3332
sVRupert
p3333
(dp3334
sVRob M.
p3335
(dp3336
ssg50
g51
sg52
g51
sg53
(dp3337
g3331
(dp3338
g3317
(dp3339
g58
I1
ssg3325
(dp3340
g58
I1
ssg3319
(dp3341
g58
I3
ssg3333
(dp3342
g58
I5
ssg3309
(dp3343
g58
I5
ssg3321
(dp3344
g58
I1
ssg3329
(dp3345
g58
I3
ssg3335
(dp3346
g58
I7
ssg3311
(dp3347
g58
I6
sssg3317
(dp3348
g3331
g3339
sg3303
(dp3349
g58
I1
ssg3305
(dp3350
g58
I1
ssg3321
(dp3351
g58
I4
ssg3329
(dp3352
g58
I4
ssg3313
(dp3353
g58
I2
sssg3301
(dp3354
sg3325
(dp3355
g3331
g3340
sg3319
(dp3356
g58
I1
ssg3335
(dp3357
g58
I1
ssg3309
(dp3358
g58
I1
sssg3319
(dp3359
g3331
g3341
sg3325
g3356
sg3333
(dp3360
g58
I2
ssg3309
(dp3361
g58
I3
ssg3311
(dp3362
g58
I2
ssg3335
(dp3363
g58
I3
ssg3329
(dp3364
g58
I1
sssg3323
(dp3365
g3311
(dp3366
g58
I1
ssg3333
(dp3367
g58
I2
ssg3313
(dp3368
g58
I1
sssg3313
(dp3369
g3317
g3353
sg3323
g3368
sg3333
(dp3370
g58
I1
ssg3303
(dp3371
g58
I1
ssg3305
(dp3372
g58
I2
ssg3321
(dp3373
g58
I3
ssg3329
(dp3374
g58
I3
ssg3311
(dp3375
g58
I2
sssg3333
(dp3376
g3331
g3342
sg3323
g3367
sg3319
g3360
sg3313
g3370
sg3309
(dp3377
g58
I4
ssg3311
(dp3378
g58
I6
ssg3335
(dp3379
g58
I5
ssg3329
(dp3380
g58
I2
sssg3303
(dp3381
g3317
g3349
sg3321
(dp3382
g58
I1
ssg3329
(dp3383
g58
I1
ssg3313
g3371
sg3305
(dp3384
g58
I2
sssg3305
(dp3385
g3317
g3350
sg3313
g3372
sg3303
g3384
sg3307
(dp3386
g58
I1
ssg3321
(dp3387
g58
I1
ssg3311
(dp3388
g58
I1
ssg3329
(dp3389
g58
I1
sssg3307
(dp3390
g3305
g3386
ssg3309
(dp3391
g3331
g3343
sg3325
g3358
sg3319
g3361
sg3333
g3377
sg3311
(dp3392
g58
I4
ssg3335
(dp3393
g58
I5
ssg3329
(dp3394
g58
I2
sssg3321
(dp3395
g3331
g3344
sg3317
g3351
sg3303
g3382
sg3305
g3387
sg3329
(dp3396
g58
I4
ssg3313
g3373
ssg3327
(dp3397
sg3311
(dp3398
g3331
g3347
sg3323
g3366
sg3319
g3362
sg3313
g3375
sg3305
g3388
sg3309
g3392
sg3333
g3378
sg3335
(dp3399
g58
I6
ssg3329
(dp3400
g58
I2
sssg3335
(dp3401
g3331
g3346
sg3325
g3357
sg3319
g3363
sg3333
g3379
sg3309
g3393
sg3311
g3399
sg3329
(dp3402
g58
I2
sssg3329
(dp3403
g3331
g3345
sg3317
g3352
sg3319
g3364
sg3313
g3374
sg3303
g3383
sg3305
g3389
sg3309
g3394
sg3321
g3396
sg3311
g3400
sg3335
g3402
sg3333
g3380
ssg3315
(dp3404
ssg139
(dp3405
g141
S'()'
p3406
ssg143
g51
sg144
g3337
sbsVFiji
p3407
g2
(g3
g4
Ntp3408
Rp3409
(dp3410
g8
(dp3411
VSylvia
p3412
(dp3413
sVRita
p3414
(dp3415
sVJessica
p3416
(dp3417
sVStacy
p3418
(dp3419
sVAnthony
p3420
(dp3421
sVDreamz
p3422
(dp3423
sVEarl
p3424
(dp3425
sVMichelle
p3426
(dp3427
sVAlex
p3428
(dp3429
sVRocky
p3430
(dp3431
sVErica
p3432
(dp3433
sVLisi
p3434
(dp3435
sVBoo
p3436
(dp3437
sVEdgardo
p3438
(dp3439
sVLiliana
p3440
(dp3441
sVMookie
p3442
(dp3443
sVYau-Man
p3444
(dp3445
sVGary
p3446
(dp3447
sVCassandra
p3448
(dp3449
ssg50
g51
sg52
g51
sg53
(dp3450
g3424
(dp3451
g3426
(dp3452
g58
I2
ssg3430
(dp3453
g58
I1
ssg3444
(dp3454
g58
I8
ssg3442
(dp3455
g58
I2
ssg3436
(dp3456
g58
I3
ssg3418
(dp3457
g58
I2
ssg3420
(dp3458
g58
I3
ssg3422
(dp3459
g58
I3
ssg3414
(dp3460
g58
I1
ssg3448
(dp3461
g58
I4
sssg3426
(dp3462
g3424
g3452
sg3430
(dp3463
g58
I1
ssg3444
(dp3464
g58
I3
ssg3442
(dp3465
g58
I3
ssg3420
(dp3466
g58
I2
ssg3412
(dp3467
g58
I1
ssg3414
(dp3468
g58
I3
sssg3438
(dp3469
g3428
(dp3470
g58
I5
ssg3430
(dp3471
g58
I1
ssg3442
(dp3472
g58
I3
ssg3422
(dp3473
g58
I4
ssg3418
(dp3474
g58
I1
ssg3434
(dp3475
g58
I2
ssg3436
(dp3476
g58
I1
sssg3428
(dp3477
g3430
(dp3478
g58
I1
ssg3438
g3470
sg3442
(dp3479
g58
I3
ssg3436
(dp3480
g58
I1
ssg3418
(dp3481
g58
I3
ssg3434
(dp3482
g58
I2
ssg3422
(dp3483
g58
I6
ssg3448
(dp3484
g58
I1
sssg3430
(dp3485
g3424
g3453
sg3426
g3463
sg3428
g3478
sg3438
g3471
sg3442
(dp3486
g58
I5
ssg3444
(dp3487
g58
I2
ssg3420
(dp3488
g58
I1
ssg3422
(dp3489
g58
I1
ssg3412
(dp3490
g58
I2
ssg3414
(dp3491
g58
I1
sssg3444
(dp3492
g3424
g3454
sg3426
g3464
sg3430
g3487
sg3442
(dp3493
g58
I3
ssg3436
(dp3494
g58
I3
ssg3418
(dp3495
g58
I2
ssg3420
(dp3496
g58
I3
ssg3422
(dp3497
g58
I2
ssg3412
(dp3498
g58
I1
ssg3414
(dp3499
g58
I2
ssg3448
(dp3500
g58
I3
sssg3440
(dp3501
sg3442
(dp3502
g3424
g3455
sg3426
g3465
sg3428
g3479
sg3430
g3486
sg3438
g3472
sg3444
g3493
sg3420
(dp3503
g58
I2
ssg3422
(dp3504
g58
I2
ssg3412
(dp3505
g58
I2
ssg3414
(dp3506
g58
I2
sssg3436
(dp3507
g3424
g3456
sg3428
g3480
sg3444
g3494
sg3438
g3476
sg3418
(dp3508
g58
I4
ssg3434
(dp3509
g58
I1
ssg3422
(dp3510
g58
I3
ssg3448
(dp3511
g58
I3
sssg3416
(dp3512
sg3446
(dp3513
sg3418
(dp3514
g3424
g3457
sg3438
g3474
sg3428
g3481
sg3444
g3495
sg3436
g3508
sg3434
(dp3515
g58
I1
ssg3422
(dp3516
g58
I5
ssg3448
(dp3517
g58
I4
sssg3420
(dp3518
g3424
g3458
sg3426
g3466
sg3430
g3488
sg3444
g3496
sg3442
g3503
sg3432
(dp3519
g58
I1
ssg3414
(dp3520
g58
I1
sssg3434
(dp3521
g3438
g3475
sg3436
g3509
sg3428
g3482
sg3418
g3515
sg3422
(dp3522
g58
I2
sssg3422
(dp3523
g3424
g3459
sg3428
g3483
sg3430
g3489
sg3444
g3497
sg3442
g3504
sg3438
g3473
sg3418
g3516
sg3434
g3522
sg3436
g3510
sg3448
(dp3524
g58
I5
sssg3412
(dp3525
g3426
g3467
sg3442
g3505
sg3430
g3490
sg3414
(dp3526
g58
I1
ssg3444
g3498
ssg3432
(dp3527
g3420
g3519
ssg3414
(dp3528
g3424
g3460
sg3426
g3468
sg3430
g3491
sg3444
g3499
sg3442
g3506
sg3420
g3520
sg3412
g3526
ssg3448
(dp3529
g3424
g3461
sg3428
g3484
sg3444
g3500
sg3422
g3524
sg3418
g3517
sg3436
g3511
sssg139
(dp3530
g141
S'()'
p3531
ssg143
g51
sg144
g3450
sbsVAfrica
p3532
g2
(g3
g4
Ntp3533
Rp3534
(dp3535
g8
(dp3536
VJessie
p3537
(dp3538
sVTeresa
p3539
(dp3540
sVKim J.
p3541
(dp3542
sVBrandon
p3543
(dp3544
sVEthan
p3545
(dp3546
sVTom
p3547
(dp3548
sVLinda
p3549
(dp3550
sVClarence
p3551
(dp3552
sVFrank
p3553
(dp3554
sVKim P.
p3555
(dp3556
sVCarl
p3557
(dp3558
sVLex
p3559
(dp3560
sVLindsey
p3561
(dp3562
sVKelly
p3563
(dp3564
sVDiane
p3565
(dp3566
sVSilas
p3567
(dp3568
ssg50
g51
sg52
g51
sg53
(dp3569
g3537
(dp3570
g3551
(dp3571
g58
I1
ssg3541
(dp3572
g58
I1
ssg3563
(dp3573
g58
I1
ssg3545
(dp3574
g58
I1
ssg3547
(dp3575
g58
I1
ssg3559
(dp3576
g58
I1
sssg3551
(dp3577
g3537
g3571
sg3553
(dp3578
g58
I1
ssg3539
(dp3579
g58
I2
ssg3541
(dp3580
g58
I3
ssg3563
(dp3581
g58
I2
ssg3545
(dp3582
g58
I3
ssg3559
(dp3583
g58
I2
sssg3565
(dp3584
g3547
(dp3585
g58
I1
sssg3553
(dp3586
g3551
g3578
sg3539
(dp3587
g58
I6
ssg3541
(dp3588
g58
I3
ssg3555
(dp3589
g58
I3
ssg3563
(dp3590
g58
I2
ssg3545
(dp3591
g58
I3
ssg3557
(dp3592
g58
I1
ssg3547
(dp3593
g58
I2
ssg3559
(dp3594
g58
I1
ssg3549
(dp3595
g58
I3
ssg3543
(dp3596
g58
I1
sssg3567
(dp3597
g3543
(dp3598
g58
I3
ssg3561
(dp3599
g58
I2
ssg3555
(dp3600
g58
I3
sssg3539
(dp3601
g3551
g3579
sg3553
g3587
sg3541
(dp3602
g58
I3
ssg3555
(dp3603
g58
I4
ssg3563
(dp3604
g58
I1
ssg3545
(dp3605
g58
I3
ssg3557
(dp3606
g58
I1
ssg3547
(dp3607
g58
I2
ssg3559
(dp3608
g58
I1
ssg3549
(dp3609
g58
I3
sssg3541
(dp3610
g3537
g3572
sg3551
g3580
sg3553
g3588
sg3539
g3602
sg3555
(dp3611
g58
I3
ssg3563
(dp3612
g58
I3
ssg3545
(dp3613
g58
I10
ssg3547
(dp3614
g58
I6
ssg3559
(dp3615
g58
I8
ssg3543
(dp3616
g58
I2
sssg3555
(dp3617
g3553
g3589
sg3567
g3600
sg3539
g3603
sg3541
g3611
sg3543
(dp3618
g58
I6
ssg3563
(dp3619
g58
I2
ssg3561
(dp3620
g58
I3
ssg3545
(dp3621
g58
I3
ssg3547
(dp3622
g58
I3
ssg3559
(dp3623
g58
I2
sssg3563
(dp3624
g3537
g3573
sg3551
g3581
sg3553
g3590
sg3539
g3604
sg3541
g3612
sg3555
g3619
sg3545
(dp3625
g58
I3
ssg3547
(dp3626
g58
I2
ssg3559
(dp3627
g58
I5
ssg3543
(dp3628
g58
I1
sssg3561
(dp3629
g3567
g3599
sg3555
g3620
sg3543
(dp3630
g58
I3
ssg3557
(dp3631
g58
I1
ssg3547
(dp3632
g58
I1
sssg3545
(dp3633
g3537
g3574
sg3551
g3582
sg3553
g3591
sg3539
g3605
sg3541
g3613
sg3555
g3621
sg3563
g3625
sg3547
(dp3634
g58
I6
ssg3559
(dp3635
g58
I8
ssg3543
(dp3636
g58
I2
sssg3557
(dp3637
g3553
g3592
sg3561
g3631
sg3539
g3606
sg3549
(dp3638
g58
I1
sssg3547
(dp3639
g3537
g3575
sg3565
g3585
sg3553
g3593
sg3539
g3607
sg3541
g3614
sg3555
g3622
sg3563
g3626
sg3561
g3632
sg3545
g3634
sg3559
(dp3640
g58
I6
ssg3543
(dp3641
g58
I2
sssg3559
(dp3642
g3537
g3576
sg3551
g3583
sg3553
g3594
sg3539
g3608
sg3541
g3615
sg3555
g3623
sg3545
g3635
sg3547
g3640
sg3563
g3627
sg3543
(dp3643
g58
I3
sssg3549
(dp3644
g3553
g3595
sg3539
g3609
sg3557
g3638
ssg3543
(dp3645
g3553
g3596
sg3567
g3598
sg3541
g3616
sg3555
g3618
sg3563
g3628
sg3561
g3630
sg3545
g3636
sg3547
g3641
sg3559
g3643
sssg139
(dp3646
g141
S'()'
p3647
ssg143
g51
sg144
g3569
sbsVSan_Juan_del_Sur
p3648
g2
(g3
g4
Ntp3649
Rp3650
(dp3651
g8
(dp3652
VJeremy
p3653
(dp3654
sVNadiya
p3655
(dp3656
sVJosh
p3657
(dp3658
sVWes
p3659
(dp3660
sVMissy
p3661
(dp3662
sVJohn
p3663
(dp3664
sVDale
p3665
(dp3666
sVVal
p3667
(dp3668
sVDrew
p3669
(dp3670
sVReed
p3671
(dp3672
sVJaclyn
p3673
(dp3674
sVKeith
p3675
(dp3676
sVJon
p3677
(dp3678
sVNatalie
p3679
(dp3680
sVBaylor
p3681
(dp3682
sVAlec
p3683
(dp3684
sVJulie
p3685
(dp3686
sVKelley
p3687
(dp3688
ssg50
g51
sg52
g51
sg53
(dp3689
g3665
(dp3690
g3657
(dp3691
g58
I2
ssg3659
(dp3692
g58
I3
ssg3681
(dp3693
g58
I2
ssg3663
(dp3694
g58
I3
ssg3687
(dp3695
g58
I1
ssg3683
(dp3696
g58
I2
sssg3679
(dp3697
g3653
(dp3698
g58
I3
ssg3687
(dp3699
g58
I1
ssg3685
(dp3700
g58
I1
ssg3681
(dp3701
g58
I5
ssg3661
(dp3702
g58
I6
ssg3673
(dp3703
g58
I4
ssg3675
(dp3704
g58
I3
ssg3677
(dp3705
g58
I2
ssg3683
(dp3706
g58
I1
sssg3653
(dp3707
g3679
g3698
sg3685
(dp3708
g58
I1
ssg3681
(dp3709
g58
I1
ssg3661
(dp3710
g58
I2
ssg3673
(dp3711
g58
I1
ssg3687
(dp3712
g58
I1
ssg3677
(dp3713
g58
I1
sssg3655
(dp3714
g3673
(dp3715
g58
I1
ssg3667
(dp3716
g58
I1
sssg3667
(dp3717
g3673
(dp3718
g58
I2
ssg3683
(dp3719
g58
I1
ssg3663
(dp3720
g58
I1
ssg3655
g3716
sg3681
(dp3721
g58
I1
sssg3687
(dp3722
g3665
g3695
sg3653
g3712
sg3685
(dp3723
g58
I1
ssg3679
g3699
sg3661
(dp3724
g58
I1
sssg3685
(dp3725
g3653
g3708
sg3679
g3700
sg3661
(dp3726
g58
I1
ssg3687
g3723
ssg3657
(dp3727
g3665
g3691
sg3659
(dp3728
g58
I4
ssg3681
(dp3729
g58
I2
ssg3671
(dp3730
g58
I1
ssg3673
(dp3731
g58
I1
ssg3663
(dp3732
g58
I1
ssg3675
(dp3733
g58
I1
ssg3683
(dp3734
g58
I3
sssg3669
(dp3735
sg3659
(dp3736
g3665
g3692
sg3657
g3728
sg3681
(dp3737
g58
I3
ssg3671
(dp3738
g58
I2
ssg3673
(dp3739
g58
I1
ssg3663
(dp3740
g58
I2
ssg3675
(dp3741
g58
I3
ssg3683
(dp3742
g58
I6
sssg3681
(dp3743
g3665
g3693
sg3679
g3701
sg3653
g3709
sg3667
g3721
sg3657
g3729
sg3659
g3737
sg3661
(dp3744
g58
I9
ssg3671
(dp3745
g58
I1
ssg3673
(dp3746
g58
I5
ssg3663
(dp3747
g58
I1
ssg3675
(dp3748
g58
I3
ssg3677
(dp3749
g58
I3
ssg3683
(dp3750
g58
I3
sssg3661
(dp3751
g3679
g3702
sg3653
g3710
sg3687
g3724
sg3685
g3726
sg3681
g3744
sg3671
(dp3752
g58
I1
ssg3673
(dp3753
g58
I5
ssg3675
(dp3754
g58
I3
ssg3677
(dp3755
g58
I3
ssg3683
(dp3756
g58
I1
sssg3671
(dp3757
g3657
g3730
sg3659
g3738
sg3681
g3745
sg3661
g3752
sg3673
(dp3758
g58
I1
ssg3675
(dp3759
g58
I3
ssg3677
(dp3760
g58
I1
ssg3683
(dp3761
g58
I2
sssg3673
(dp3762
g3679
g3703
sg3653
g3711
sg3655
g3715
sg3667
g3718
sg3657
g3731
sg3659
g3739
sg3681
g3746
sg3661
g3753
sg3671
g3758
sg3663
(dp3763
g58
I1
ssg3675
(dp3764
g58
I3
ssg3677
(dp3765
g58
I8
ssg3683
(dp3766
g58
I4
sssg3663
(dp3767
g3665
g3694
sg3667
g3720
sg3657
g3732
sg3659
g3740
sg3681
g3747
sg3673
g3763
sg3683
(dp3768
g58
I3
sssg3675
(dp3769
g3679
g3704
sg3657
g3733
sg3659
g3741
sg3681
g3748
sg3661
g3754
sg3671
g3759
sg3673
g3764
sg3677
(dp3770
g58
I4
ssg3683
(dp3771
g58
I4
sssg3677
(dp3772
g3679
g3705
sg3653
g3713
sg3681
g3749
sg3661
g3755
sg3671
g3760
sg3673
g3765
sg3675
g3770
sg3683
(dp3773
g58
I2
sssg3683
(dp3774
g3665
g3696
sg3679
g3706
sg3667
g3719
sg3657
g3734
sg3659
g3742
sg3681
g3750
sg3661
g3756
sg3671
g3761
sg3673
g3766
sg3663
g3768
sg3675
g3771
sg3677
g3773
sssg139
(dp3775
g141
S'()'
p3776
ssg143
g51
sg144
g3689
sbsVCook_Islands
p3777
g2
(g3
g4
Ntp3778
Rp3779
(dp3780
g8
(dp3781
VOzzy
p3782
(dp3783
sVParvati
p3784
(dp3785
sVSekou
p3786
(dp3787
sVCao Boi
p3788
(dp3789
sVJonathan
p3790
(dp3791
sVNate
p3792
(dp3793
sVBecky
p3794
(dp3795
sVJessica
p3796
(dp3797
sVJ.P.
p3798
(dp3799
sVStephannie
p3800
(dp3801
sVSundra
p3802
(dp3803
sVRebecca
p3804
(dp3805
sVBilly
p3806
(dp3807
sVYul
p3808
(dp3809
sVBrad
p3810
(dp3811
sVCecilia
p3812
(dp3813
sVJenny
p3814
(dp3815
sVCandice
p3816
(dp3817
sVCristina
p3818
(dp3819
sVAdam
p3820
(dp3821
ssg50
g51
sg52
g51
sg53
(dp3822
g3782
(dp3823
g3794
(dp3824
g58
I7
ssg3784
(dp3825
g58
I1
ssg3812
(dp3826
g58
I2
ssg3798
(dp3827
g58
I1
ssg3802
(dp3828
g58
I9
ssg3816
(dp3829
g58
I2
ssg3808
(dp3830
g58
I7
ssg3790
(dp3831
g58
I4
ssg3818
(dp3832
g58
I1
ssg3820
(dp3833
g58
I1
sssg3810
(dp3834
g3784
(dp3835
g58
I2
ssg3814
(dp3836
g58
I2
ssg3800
(dp3837
g58
I1
ssg3820
(dp3838
g58
I2
ssg3804
(dp3839
g58
I2
ssg3818
(dp3840
g58
I3
ssg3792
(dp3841
g58
I1
sssg3794
(dp3842
g3782
g3824
sg3784
(dp3843
g58
I1
ssg3796
(dp3844
g58
I1
ssg3802
(dp3845
g58
I7
ssg3816
(dp3846
g58
I2
ssg3808
(dp3847
g58
I9
ssg3788
(dp3848
g58
I1
ssg3790
(dp3849
g58
I5
ssg3820
(dp3850
g58
I1
sssg3784
(dp3851
g3782
g3825
sg3794
g3843
sg3814
(dp3852
g58
I5
ssg3800
(dp3853
g58
I1
ssg3802
(dp3854
g58
I1
ssg3816
(dp3855
g58
I5
ssg3808
(dp3856
g58
I1
ssg3810
g3835
sg3790
(dp3857
g58
I3
ssg3804
(dp3858
g58
I4
ssg3818
(dp3859
g58
I2
ssg3792
(dp3860
g58
I4
ssg3820
(dp3861
g58
I10
sssg3796
(dp3862
g3794
g3844
sg3790
(dp3863
g58
I1
ssg3808
(dp3864
g58
I1
ssg3788
(dp3865
g58
I1
sssg3786
(dp3866
g3792
(dp3867
g58
I1
sssg3798
(dp3868
g3782
g3827
sg3818
(dp3869
g58
I1
ssg3792
(dp3870
g58
I1
ssg3812
(dp3871
g58
I1
sssg3800
(dp3872
g3784
g3853
sg3814
(dp3873
g58
I1
ssg3802
(dp3874
g58
I1
ssg3820
(dp3875
g58
I1
ssg3810
g3837
sg3804
(dp3876
g58
I2
ssg3818
(dp3877
g58
I1
sssg3812
(dp3878
g3782
g3826
sg3798
g3871
sg3802
(dp3879
g58
I1
ssg3818
(dp3880
g58
I1
sssg3806
(dp3881
sg3802
(dp3882
g3782
g3828
sg3794
g3845
sg3784
g3854
sg3812
g3879
sg3800
g3874
sg3816
(dp3883
g58
I2
ssg3808
(dp3884
g58
I7
ssg3790
(dp3885
g58
I4
ssg3804
(dp3886
g58
I1
ssg3820
(dp3887
g58
I1
sssg3816
(dp3888
g3782
g3829
sg3794
g3846
sg3784
g3855
sg3814
(dp3889
g58
I2
ssg3802
g3883
sg3808
(dp3890
g58
I2
ssg3790
(dp3891
g58
I5
ssg3804
(dp3892
g58
I1
ssg3792
(dp3893
g58
I3
ssg3820
(dp3894
g58
I5
sssg3808
(dp3895
g3782
g3830
sg3794
g3847
sg3784
g3856
sg3796
g3864
sg3802
g3884
sg3816
g3890
sg3820
(dp3896
g58
I1
ssg3788
(dp3897
g58
I1
ssg3790
(dp3898
g58
I5
sssg3788
(dp3899
g3794
g3848
sg3790
(dp3900
g58
I1
ssg3808
g3897
sg3796
g3865
ssg3814
(dp3901
g3784
g3852
sg3800
g3873
sg3816
g3889
sg3820
(dp3902
g58
I5
ssg3810
g3836
sg3790
(dp3903
g58
I2
ssg3804
(dp3904
g58
I4
ssg3818
(dp3905
g58
I2
ssg3792
(dp3906
g58
I4
sssg3790
(dp3907
g3782
g3831
sg3796
g3863
sg3794
g3849
sg3784
g3857
sg3814
g3903
sg3802
g3885
sg3816
g3891
sg3808
g3898
sg3788
g3900
sg3804
(dp3908
g58
I1
ssg3792
(dp3909
g58
I2
ssg3820
(dp3910
g58
I3
sssg3804
(dp3911
g3784
g3858
sg3814
g3904
sg3800
g3876
sg3802
g3886
sg3816
g3892
sg3820
(dp3912
g58
I4
ssg3810
g3839
sg3790
g3908
sg3818
(dp3913
g58
I2
ssg3792
(dp3914
g58
I2
sssg3818
(dp3915
g3782
g3832
sg3784
g3859
sg3814
g3905
sg3798
g3869
sg3800
g3877
sg3820
(dp3916
g58
I2
ssg3810
g3840
sg3804
g3913
sg3792
(dp3917
g58
I1
ssg3812
g3880
ssg3792
(dp3918
g3784
g3860
sg3814
g3906
sg3786
g3867
sg3798
g3870
sg3816
g3893
sg3820
(dp3919
g58
I4
ssg3810
g3841
sg3790
g3909
sg3804
g3914
sg3818
g3917
ssg3820
(dp3920
g3782
g3833
sg3794
g3850
sg3784
g3861
sg3814
g3902
sg3800
g3875
sg3802
g3887
sg3816
g3894
sg3808
g3896
sg3810
g3838
sg3790
g3910
sg3804
g3912
sg3818
g3916
sg3792
g3919
sssg139
(dp3921
g141
S'()'
p3922
ssg143
g51
sg144
g3822
sbsVRedemption_Island
p3923
g2
(g3
g4
Ntp3924
Rp3925
(dp3926
g8
(dp3927
VRussell
p3928
(dp3929
sVGrant
p3930
(dp3931
sVKrista
p3932
(dp3933
sVMatthew
p3934
(dp3935
sVSarita
p3936
(dp3937
sVMike
p3938
(dp3939
sVAndrea
p3940
(dp3941
sVNatalie
p3942
(dp3943
sVAshley
p3944
(dp3945
sVPhillip
p3946
(dp3947
sVDavid
p3948
(dp3949
sVStephanie
p3950
(dp3951
sVRob
p3952
(dp3953
sV Ralph
p3954
(dp3955
sVSteve
p3956
(dp3957
sVKristina
p3958
(dp3959
sVFrancesca
p3960
(dp3961
sVJulie
p3962
(dp3963
ssg50
g51
sg52
g51
sg53
(dp3964
g3932
(dp3965
g3934
(dp3966
g58
I1
ssg3950
(dp3967
g58
I2
ssg3928
(dp3968
g58
I1
sssg3938
(dp3969
g3936
(dp3970
g58
I3
ssg3930
(dp3971
g58
I1
ssg3962
(dp3972
g58
I7
ssg3954
(dp3973
g58
I8
ssg3956
(dp3974
g58
I7
ssg3934
(dp3975
g58
I7
ssg3940
(dp3976
g58
I1
ssg3948
(dp3977
g58
I7
sssg3942
(dp3978
g3946
(dp3979
g58
I10
ssg3952
(dp3980
g58
I10
ssg3940
(dp3981
g58
I8
ssg3944
(dp3982
g58
I12
ssg3930
(dp3983
g58
I8
sssg3944
(dp3984
g3946
(dp3985
g58
I10
ssg3952
(dp3986
g58
I10
ssg3942
g3982
sg3940
(dp3987
g58
I8
ssg3930
(dp3988
g58
I8
sssg3928
(dp3989
g3932
g3968
sg3934
(dp3990
g58
I1
ssg3950
(dp3991
g58
I2
ssg3954
(dp3992
g58
I1
sssg3930
(dp3993
g3938
g3971
sg3942
g3983
sg3944
g3988
sg3946
(dp3994
g58
I8
ssg3952
(dp3995
g58
I10
ssg3934
(dp3996
g58
I2
ssg3958
(dp3997
g58
I1
ssg3940
(dp3998
g58
I6
sssg3946
(dp3999
g3942
g3979
sg3944
g3985
sg3930
g3994
sg3952
(dp4000
g58
I10
ssg3934
(dp4001
g58
I1
ssg3940
(dp4002
g58
I8
sssg3952
(dp4003
g3942
g3980
sg3944
g3986
sg3930
g3995
sg3946
g4000
sg3934
(dp4004
g58
I1
ssg3958
(dp4005
g58
I1
ssg3940
(dp4006
g58
I6
sssg3954
(dp4007
g3938
g3973
sg3936
(dp4008
g58
I3
ssg3928
g3992
sg3962
(dp4009
g58
I6
ssg3948
(dp4010
g58
I5
ssg3956
(dp4011
g58
I8
ssg3934
(dp4012
g58
I3
ssg3940
(dp4013
g58
I1
ssg3950
(dp4014
g58
I1
sssg3956
(dp4015
g3938
g3974
sg3936
(dp4016
g58
I4
ssg3962
(dp4017
g58
I9
ssg3948
(dp4018
g58
I6
ssg3934
(dp4019
g58
I1
ssg3954
g4011
ssg3934
(dp4020
g3932
g3966
sg3938
g3975
sg3928
g3990
sg3930
g3996
sg3946
g4001
sg3952
g4004
sg3954
g4012
sg3956
g4019
sg3958
(dp4021
g58
I2
ssg3960
(dp4022
g58
I2
ssg3940
(dp4023
g58
I1
ssg3950
(dp4024
g58
I1
ssg3962
(dp4025
g58
I1
ssg3948
(dp4026
g58
I1
sssg3958
(dp4027
g3934
g4021
sg3952
g4005
sg3960
(dp4028
g58
I1
ssg3930
g3997
ssg3960
(dp4029
g3934
g4022
sg3958
g4028
ssg3936
(dp4030
g3956
g4016
sg3938
g3970
sg3948
(dp4031
g58
I2
ssg3962
(dp4032
g58
I4
ssg3954
g4008
ssg3940
(dp4033
g3938
g3976
sg3942
g3981
sg3944
g3987
sg3930
g3998
sg3946
g4002
sg3952
g4006
sg3954
g4013
sg3934
g4023
ssg3950
(dp4034
g3932
g3967
sg3934
g4024
sg3948
(dp4035
g58
I1
ssg3928
g3991
sg3954
g4014
ssg3962
(dp4036
g3938
g3972
sg3936
g4032
sg3948
(dp4037
g58
I6
ssg3956
g4017
sg3934
g4025
sg3954
g4009
ssg3948
(dp4038
g3938
g3977
sg3936
g4031
sg3962
g4037
sg3954
g4010
sg3956
g4018
sg3934
g4026
sg3950
g4035
sssg139
(dp4039
g141
S'()'
p4040
ssg143
g51
sg144
g3964
sbsVNicaragua
p4041
g2
(g3
g4
Ntp4042
Rp4043
(dp4044
g8
(dp4045
VJimmy T.
p4046
(dp4047
sVBenry
p4048
(dp4049
sVTyrone
p4050
(dp4051
sVWendy
p4052
(dp4053
sVJane
p4054
(dp4055
sVHolly
p4056
(dp4057
sVFabio
p4058
(dp4059
sVDan
p4060
(dp4061
sVJill
p4062
(dp4063
sVMarty
p4064
(dp4065
sVKelly S.
p4066
(dp4067
sVAlina
p4068
(dp4069
sVJimmy J.
p4070
(dp4071
sVKelly B.
p4072
(dp4073
sVSash
p4074
(dp4075
sVBrenda
p4076
(dp4077
sVYve
p4078
(dp4079
sVNaOnka
p4080
(dp4081
sVShannon
p4082
(dp4083
sVChase
p4084
(dp4085
ssg50
g51
sg52
g51
sg53
(dp4086
g4064
(dp4087
g4046
(dp4088
g58
I2
ssg4058
(dp4089
g58
I2
ssg4066
(dp4090
g58
I1
ssg4072
(dp4091
g58
I1
ssg4076
(dp4092
g58
I1
ssg4050
(dp4093
g58
I3
ssg4048
(dp4094
g58
I2
ssg4060
(dp4095
g58
I5
ssg4070
(dp4096
g58
I1
ssg4078
(dp4097
g58
I3
ssg4080
(dp4098
g58
I1
ssg4062
(dp4099
g58
I5
ssg4054
(dp4100
g58
I2
ssg4056
(dp4101
g58
I3
ssg4074
(dp4102
g58
I1
ssg4084
(dp4103
g58
I1
sssg4046
(dp4104
g4064
g4088
sg4050
(dp4105
g58
I2
ssg4060
(dp4106
g58
I2
ssg4078
(dp4107
g58
I2
ssg4070
(dp4108
g58
I1
ssg4062
(dp4109
g58
I2
ssg4054
(dp4110
g58
I3
ssg4056
(dp4111
g58
I3
sssg4058
(dp4112
g4064
g4089
sg4068
(dp4113
g58
I1
ssg4066
(dp4114
g58
I3
ssg4076
(dp4115
g58
I3
ssg4048
(dp4116
g58
I3
ssg4060
(dp4117
g58
I4
ssg4080
(dp4118
g58
I2
ssg4062
(dp4119
g58
I1
ssg4054
(dp4120
g58
I2
ssg4056
(dp4121
g58
I4
ssg4074
(dp4122
g58
I6
ssg4082
(dp4123
g58
I1
ssg4084
(dp4124
g58
I5
sssg4070
(dp4125
g4064
g4096
sg4046
g4108
sg4050
(dp4126
g58
I1
ssg4060
(dp4127
g58
I1
ssg4078
(dp4128
g58
I1
ssg4062
(dp4129
g58
I1
ssg4054
(dp4130
g58
I1
ssg4056
(dp4131
g58
I1
sssg4066
(dp4132
g4064
g4090
sg4058
g4114
sg4072
(dp4133
g58
I1
ssg4076
(dp4134
g58
I6
ssg4048
(dp4135
g58
I2
ssg4060
(dp4136
g58
I1
ssg4080
(dp4137
g58
I5
ssg4062
(dp4138
g58
I1
ssg4054
(dp4139
g58
I1
ssg4056
(dp4140
g58
I2
ssg4074
(dp4141
g58
I5
ssg4084
(dp4142
g58
I3
sssg4072
(dp4143
g4064
g4091
sg4066
g4133
sg4076
(dp4144
g58
I1
ssg4048
(dp4145
g58
I1
ssg4080
(dp4146
g58
I1
ssg4054
(dp4147
g58
I1
ssg4074
(dp4148
g58
I2
ssg4084
(dp4149
g58
I1
sssg4076
(dp4150
g4064
g4092
sg4058
g4115
sg4066
g4134
sg4072
g4144
sg4048
(dp4151
g58
I2
ssg4060
(dp4152
g58
I1
ssg4080
(dp4153
g58
I3
ssg4062
(dp4154
g58
I1
ssg4054
(dp4155
g58
I1
ssg4056
(dp4156
g58
I2
ssg4074
(dp4157
g58
I5
ssg4084
(dp4158
g58
I3
sssg4050
(dp4159
g4064
g4093
sg4046
g4105
sg4060
(dp4160
g58
I3
ssg4078
(dp4161
g58
I4
ssg4070
g4126
sg4062
(dp4162
g58
I3
ssg4054
(dp4163
g58
I2
ssg4056
(dp4164
g58
I2
sssg4048
(dp4165
g4064
g4094
sg4058
g4116
sg4066
g4135
sg4076
g4151
sg4060
(dp4166
g58
I6
ssg4068
(dp4167
g58
I2
ssg4080
(dp4168
g58
I5
ssg4072
g4145
sg4054
(dp4169
g58
I1
ssg4056
(dp4170
g58
I4
ssg4074
(dp4171
g58
I3
ssg4084
(dp4172
g58
I5
sssg4060
(dp4173
g4064
g4095
sg4046
g4106
sg4058
g4117
sg4070
g4127
sg4066
g4136
sg4076
g4152
sg4050
g4160
sg4048
g4166
sg4068
(dp4174
g58
I2
ssg4078
(dp4175
g58
I3
ssg4080
(dp4176
g58
I4
ssg4062
(dp4177
g58
I3
ssg4054
(dp4178
g58
I3
ssg4056
(dp4179
g58
I7
ssg4074
(dp4180
g58
I3
ssg4084
(dp4181
g58
I5
sssg4068
(dp4182
g4058
g4113
sg4048
g4167
sg4060
g4174
sg4080
(dp4183
g58
I2
ssg4054
(dp4184
g58
I1
ssg4056
(dp4185
g58
I2
ssg4082
(dp4186
g58
I1
ssg4084
(dp4187
g58
I2
sssg4078
(dp4188
g4064
g4097
sg4046
g4107
sg4060
g4175
sg4050
g4161
sg4070
g4128
sg4062
(dp4189
g58
I3
ssg4054
(dp4190
g58
I2
ssg4056
(dp4191
g58
I2
sssg4080
(dp4192
g4064
g4098
sg4058
g4118
sg4066
g4137
sg4076
g4153
sg4048
g4168
sg4060
g4176
sg4068
g4183
sg4072
g4146
sg4054
(dp4193
g58
I2
ssg4056
(dp4194
g58
I5
ssg4074
(dp4195
g58
I4
ssg4084
(dp4196
g58
I6
sssg4062
(dp4197
g4064
g4099
sg4046
g4109
sg4058
g4119
sg4066
g4138
sg4076
g4154
sg4050
g4162
sg4060
g4177
sg4078
g4189
sg4070
g4129
sg4054
(dp4198
g58
I2
ssg4056
(dp4199
g58
I2
ssg4074
(dp4200
g58
I1
sssg4052
(dp4201
sg4054
(dp4202
g4064
g4100
sg4046
g4110
sg4058
g4120
sg4070
g4130
sg4066
g4139
sg4072
g4147
sg4076
g4155
sg4050
g4163
sg4048
g4169
sg4060
g4178
sg4068
g4184
sg4078
g4190
sg4080
g4193
sg4062
g4198
sg4056
(dp4203
g58
I6
ssg4074
(dp4204
g58
I4
ssg4084
(dp4205
g58
I3
sssg4056
(dp4206
g4064
g4101
sg4046
g4111
sg4058
g4121
sg4070
g4131
sg4066
g4140
sg4076
g4156
sg4050
g4164
sg4048
g4170
sg4060
g4179
sg4068
g4185
sg4078
g4191
sg4080
g4194
sg4062
g4199
sg4054
g4203
sg4074
(dp4207
g58
I6
ssg4084
(dp4208
g58
I8
sssg4074
(dp4209
g4064
g4102
sg4058
g4122
sg4066
g4141
sg4072
g4148
sg4076
g4157
sg4048
g4171
sg4060
g4180
sg4080
g4195
sg4062
g4200
sg4054
g4204
sg4056
g4207
sg4084
(dp4210
g58
I8
sssg4082
(dp4211
g4058
g4123
sg4068
g4186
ssg4084
(dp4212
g4064
g4103
sg4058
g4124
sg4066
g4142
sg4076
g4158
sg4048
g4172
sg4060
g4181
sg4068
g4187
sg4080
g4196
sg4072
g4149
sg4054
g4205
sg4056
g4208
sg4074
g4210
sssg139
(dp4213
g141
S'()'
p4214
ssg143
g51
sg144
g4086
sbs.