(dp0
VPalau
p1
ccopy_reg
_reconstructor
p2
(cnetworkx.classes.graph
Graph
p3
c__builtin__
object
p4
Ntp5
Rp6
(dp7
S'node'
p8
(dp9
VIan
p10
(dp11
sVJanu
p12
(dp13
sVWillard
p14
(dp15
sVCoby
p16
(dp17
sVTom
p18
(dp19
sVJonathan
p20
(dp21
sVGregg
p22
(dp23
sVStephenie
p24
(dp25
sVBobby Jon
p26
(dp27
sVKim
p28
(dp29
sVJolanda
p30
(dp31
sVWanda
p32
(dp33
sVJames
p34
(dp35
sVAshlee
p36
(dp37
sVCaryn
p38
(dp39
sVIbrehem
p40
(dp41
sVJeff
p42
(dp43
sVJenn
p44
(dp45
sVAngie
p46
(dp47
sVKatie
p48
(dp49
ssS'node_dict_factory'
p50
c__builtin__
dict
p51
sS'edge_attr_dict_factory'
p52
g51
sS'edge'
p53
(dp54
g32
(dp55
sg10
(dp56
g22
(dp57
S'weight'
p58
I3
ssg12
(dp59
g58
I1
ssg18
(dp60
g58
I5
ssg16
(dp61
g58
I1
ssg24
(dp62
g58
I1
ssg44
(dp63
g58
I5
ssg38
(dp64
g58
I4
ssg48
(dp65
g58
I6
sssg20
(dp66
sg42
(dp67
g34
(dp68
g58
I2
ssg24
(dp69
g58
I2
ssg26
(dp70
g58
I1
ssg28
(dp71
g58
I2
ssg36
(dp72
g58
I1
ssg46
(dp73
g58
I2
sssg22
(dp74
g10
g57
sg12
(dp75
g58
I1
ssg18
(dp76
g58
I3
ssg14
(dp77
g58
I2
ssg16
(dp78
g58
I1
ssg24
(dp79
g58
I1
ssg44
(dp80
g58
I6
ssg38
(dp81
g58
I3
ssg48
(dp82
g58
I3
sssg12
(dp83
g10
g59
sg22
g75
sg18
(dp84
g58
I1
ssg16
(dp85
g58
I1
ssg44
(dp86
g58
I1
ssg38
(dp87
g58
I1
ssg48
(dp88
g58
I1
sssg34
(dp89
g40
(dp90
g58
I3
ssg42
g68
sg24
(dp91
g58
I5
ssg26
(dp92
g58
I4
ssg28
(dp93
g58
I2
ssg36
(dp94
g58
I1
ssg46
(dp95
g58
I3
sssg18
(dp96
g10
g60
sg22
g76
sg12
g84
sg16
(dp97
g58
I1
ssg24
(dp98
g58
I1
ssg44
(dp99
g58
I5
ssg38
(dp100
g58
I4
ssg48
(dp101
g58
I5
sssg14
(dp102
g22
g77
sg44
(dp103
g58
I2
sssg16
(dp104
g10
g61
sg22
g78
sg12
g85
sg18
g97
sg44
(dp105
g58
I1
ssg38
(dp106
g58
I1
ssg48
(dp107
g58
I1
sssg24
(dp108
g10
g62
sg42
g69
sg22
g79
sg34
g91
sg18
g98
sg26
(dp109
g58
I4
ssg40
(dp110
g58
I3
ssg28
(dp111
g58
I3
ssg44
(dp112
g58
I1
ssg36
(dp113
g58
I1
ssg46
(dp114
g58
I5
ssg38
(dp115
g58
I1
ssg48
(dp116
g58
I1
sssg30
(dp117
g26
(dp118
g58
I1
ssg40
(dp119
g58
I1
sssg26
(dp120
g40
(dp121
g58
I3
ssg42
g70
sg34
g92
sg24
g109
sg28
(dp122
g58
I1
ssg30
g118
sg46
(dp123
g58
I2
sssg40
(dp124
g34
g90
sg24
g110
sg26
g121
sg28
(dp125
g58
I1
ssg30
g119
sg46
(dp126
g58
I2
sssg28
(dp127
g40
g125
sg42
g71
sg34
g93
sg24
g111
sg26
g122
sg36
(dp128
g58
I1
ssg46
(dp129
g58
I3
sssg44
(dp130
g10
g63
sg22
g80
sg12
g86
sg14
g103
sg16
g105
sg24
g112
sg18
g99
sg38
(dp131
g58
I3
ssg48
(dp132
g58
I4
sssg36
(dp133
g24
g113
sg34
g94
sg46
(dp134
g58
I1
ssg28
g128
sg42
g72
ssg46
(dp135
g40
g126
sg42
g73
sg34
g95
sg24
g114
sg26
g123
sg28
g129
sg36
g134
ssg38
(dp136
g10
g64
sg22
g81
sg12
g87
sg18
g100
sg16
g106
sg24
g115
sg44
g131
sg48
(dp137
g58
I4
sssg48
(dp138
g10
g65
sg22
g82
sg12
g88
sg18
g101
sg16
g107
sg24
g116
sg44
g132
sg38
g137
sssS'graph'
p139
(dp140
S'name'
p141
S'()'
p142
ssS'adjlist_dict_factory'
p143
g51
sS'adj'
p144
g54
sbsVTocantins
p145
g2
(g3
g4
Ntp146
Rp147
(dp148
g8
(dp149
VJerry
p150
(dp151
sVStephen
p152
(dp153
sVDebbie
p154
(dp155
sVSydney
p156
(dp157
sVSierra
p158
(dp159
sVCarolina
p160
(dp161
sVJ.T.
p162
(dp163
sVJoe
p164
(dp165
sVErinn
p166
(dp167
sVTyson
p168
(dp169
sVBrendan
p170
(dp171
sVSpencer
p172
(dp173
sVCoach
p174
(dp175
sVCandace
p176
(dp177
sVTaj
p178
(dp179
sVSandy
p180
(dp181
ssg50
g51
sg52
g51
sg53
(dp182
g174
(dp183
g162
(dp184
g58
I2
ssg170
(dp185
g58
I2
ssg150
(dp186
g58
I1
ssg158
(dp187
g58
I2
ssg154
(dp188
g58
I5
ssg166
(dp189
g58
I2
ssg152
(dp190
g58
I2
ssg168
(dp191
g58
I3
ssg178
(dp192
g58
I1
sssg162
(dp193
g174
g184
sg180
(dp194
g58
I1
ssg158
(dp195
g58
I1
ssg154
(dp196
g58
I1
ssg156
(dp197
g58
I3
ssg166
(dp198
g58
I4
ssg152
(dp199
g58
I8
ssg168
(dp200
g58
I1
ssg172
(dp201
g58
I2
ssg178
(dp202
g58
I5
ssg164
(dp203
g58
I3
sssg170
(dp204
g174
g185
sg150
(dp205
g58
I1
ssg154
(dp206
g58
I2
ssg166
(dp207
g58
I2
ssg158
(dp208
g58
I3
ssg168
(dp209
g58
I2
sssg176
(dp210
sg180
(dp211
g162
g194
sg164
(dp212
g58
I1
ssg156
(dp213
g58
I1
ssg152
(dp214
g58
I1
ssg172
(dp215
g58
I1
ssg178
(dp216
g58
I1
sssg150
(dp217
g174
g186
sg170
g205
sg154
(dp218
g58
I1
ssg166
(dp219
g58
I1
ssg158
(dp220
g58
I1
ssg168
(dp221
g58
I1
sssg158
(dp222
g174
g187
sg162
g195
sg170
g208
sg150
g220
sg154
(dp223
g58
I2
ssg166
(dp224
g58
I3
ssg152
(dp225
g58
I1
ssg168
(dp226
g58
I2
ssg178
(dp227
g58
I2
sssg154
(dp228
g174
g188
sg162
g196
sg170
g206
sg150
g218
sg158
g223
sg166
(dp229
g58
I2
ssg152
(dp230
g58
I2
ssg168
(dp231
g58
I3
ssg178
(dp232
g58
I1
sssg156
(dp233
g162
g197
sg178
(dp234
g58
I2
ssg152
(dp235
g58
I3
ssg172
(dp236
g58
I2
ssg180
g213
sg164
(dp237
g58
I4
sssg166
(dp238
g174
g189
sg162
g198
sg170
g207
sg150
g219
sg158
g224
sg154
g229
sg152
(dp239
g58
I4
ssg168
(dp240
g58
I3
ssg178
(dp241
g58
I3
sssg152
(dp242
g174
g190
sg162
g199
sg180
g214
sg154
g230
sg156
g235
sg166
g239
sg158
g225
sg172
(dp243
g58
I2
ssg178
(dp244
g58
I7
ssg164
(dp245
g58
I3
sssg168
(dp246
g174
g191
sg162
g200
sg170
g209
sg150
g221
sg154
g231
sg166
g240
sg158
g226
ssg160
(dp247
sg172
(dp248
g162
g201
sg178
(dp249
g58
I1
ssg156
g236
sg152
g243
sg180
g215
sg164
(dp250
g58
I2
sssg178
(dp251
g174
g192
sg162
g202
sg158
g227
sg154
g232
sg156
g234
sg166
g241
sg152
g244
sg172
g249
sg180
g216
sg164
(dp252
g58
I2
sssg164
(dp253
g162
g203
sg178
g252
sg156
g237
sg152
g245
sg172
g250
sg180
g212
sssg139
(dp254
g141
S'()'
p255
ssg143
g51
sg144
g182
sbsVBorneo
p256
g2
(g3
g4
Ntp257
Rp258
(dp259
g8
(dp260
VRichard
p261
(dp262
sVGervase
p263
(dp264
sVRamona
p265
(dp266
sVGretchen
p267
(dp268
sVRudy
p269
(dp270
sVB.B.
p271
(dp272
sVSusan
p273
(dp274
sVJoel
p275
(dp276
sVDirk
p277
(dp278
sVGreg
p279
(dp280
sVKelly
p281
(dp282
sVStacey
p283
(dp284
sVSonja
p285
(dp286
sVSean
p287
(dp288
sVColleen
p289
(dp290
sVJenna
p291
(dp292
ssg50
g51
sg52
g51
sg53
(dp293
g263
(dp294
g265
(dp295
g58
I2
ssg275
(dp296
g58
I2
ssg279
(dp297
g58
I1
ssg267
(dp298
g58
I1
ssg289
(dp299
g58
I4
ssg291
(dp300
g58
I2
sssg267
(dp301
g263
g298
sg265
(dp302
g58
I1
ssg275
(dp303
g58
I2
ssg279
(dp304
g58
I1
ssg289
(dp305
g58
I3
ssg291
(dp306
g58
I3
sssg271
(dp307
g279
(dp308
g58
I1
sssg265
(dp309
g267
g302
sg289
(dp310
g58
I1
ssg263
g295
sg291
(dp311
g58
I1
ssg275
(dp312
g58
I1
sssg261
(dp313
g273
(dp314
g58
I8
ssg277
(dp315
g58
I1
ssg287
(dp316
g58
I5
ssg281
(dp317
g58
I5
ssg269
(dp318
g58
I9
ssg291
(dp319
g58
I1
sssg273
(dp320
g261
g314
sg277
(dp321
g58
I2
ssg287
(dp322
g58
I6
ssg281
(dp323
g58
I6
ssg269
(dp324
g58
I9
ssg291
(dp325
g58
I1
sssg275
(dp326
g267
g303
sg289
(dp327
g58
I2
ssg263
g296
sg291
(dp328
g58
I2
ssg265
g312
ssg285
(dp329
g281
(dp330
g58
I1
ssg283
(dp331
g58
I1
sssg283
(dp332
g281
(dp333
g58
I2
ssg285
g331
ssg277
(dp334
g269
(dp335
g58
I2
ssg287
(dp336
g58
I2
ssg261
g315
sg273
g321
ssg279
(dp337
g267
g304
sg289
(dp338
g58
I2
ssg263
g297
sg271
g308
sg291
(dp339
g58
I1
sssg287
(dp340
g261
g316
sg273
g322
sg277
g336
sg281
(dp341
g58
I2
ssg269
(dp342
g58
I6
ssg291
(dp343
g58
I1
sssg281
(dp344
g261
g317
sg273
g323
sg285
g330
sg283
g333
sg287
g341
sg289
(dp345
g58
I1
ssg269
(dp346
g58
I6
ssg291
(dp347
g58
I1
sssg289
(dp348
g263
g299
sg265
g310
sg275
g327
sg267
g305
sg279
g338
sg281
g345
sg291
(dp349
g58
I4
sssg269
(dp350
g261
g318
sg273
g324
sg277
g335
sg287
g342
sg281
g346
sg291
(dp351
g58
I1
sssg291
(dp352
g263
g300
sg265
g311
sg261
g319
sg273
g325
sg275
g328
sg267
g306
sg279
g339
sg287
g343
sg281
g347
sg289
g349
sg269
g351
sssg139
(dp353
g141
S'()'
p354
ssg143
g51
sg144
g293
sbsVPanama
p355
g2
(g3
g4
Ntp356
Rp357
(dp358
g8
(dp359
VMelinda
p360
(dp361
sVNick
p362
(dp363
sVDanielle
p364
(dp365
sVTina
p366
(dp367
sVCourtney
p368
(dp369
sVAras
p370
(dp371
sVShane
p372
(dp373
sVDan
p374
(dp375
sVTerry
p376
(dp377
sVSally
p378
(dp379
sVMisty
p380
(dp381
sVBobby
p382
(dp383
sVAustin
p384
(dp385
sVRuth-Marie
p386
(dp387
sVBruce
p388
(dp389
sVCirie
p390
(dp391
ssg50
g51
sg52
g51
sg53
(dp392
g370
(dp393
g382
(dp394
g58
I2
ssg372
(dp395
g58
I4
ssg388
(dp396
g58
I3
ssg364
(dp397
g58
I6
ssg368
(dp398
g58
I4
ssg390
(dp399
g58
I6
sssg386
(dp400
g360
(dp401
g58
I1
ssg374
(dp402
g58
I2
ssg362
(dp403
g58
I1
ssg376
(dp404
g58
I1
ssg384
(dp405
g58
I1
ssg390
(dp406
g58
I1
sssg366
(dp407
sg382
(dp408
g372
(dp409
g58
I1
ssg370
g394
sg364
(dp410
g58
I1
ssg368
(dp411
g58
I1
sssg372
(dp412
g370
g395
sg382
g409
sg388
(dp413
g58
I3
ssg364
(dp414
g58
I4
ssg368
(dp415
g58
I4
ssg390
(dp416
g58
I3
sssg384
(dp417
g362
(dp418
g58
I4
ssg374
(dp419
g58
I1
ssg378
(dp420
g58
I3
ssg386
g405
sg376
(dp421
g58
I5
sssg374
(dp422
g362
(dp423
g58
I1
ssg384
g419
sg386
g402
sg376
(dp424
g58
I1
sssg376
(dp425
g386
g404
sg378
(dp426
g58
I4
ssg374
g424
sg362
(dp427
g58
I4
ssg364
(dp428
g58
I1
ssg368
(dp429
g58
I1
ssg384
g421
ssg362
(dp430
g384
g418
sg374
g423
sg378
(dp431
g58
I2
ssg386
g403
sg376
g427
ssg388
(dp432
g372
g413
sg370
g396
sg364
(dp433
g58
I3
ssg390
(dp434
g58
I3
ssg368
(dp435
g58
I3
sssg360
(dp436
g386
g401
sg390
(dp437
g58
I2
sssg364
(dp438
g370
g397
sg382
g410
sg372
g414
sg376
g428
sg388
g433
sg368
(dp439
g58
I5
ssg390
(dp440
g58
I6
sssg380
(dp441
g378
(dp442
g58
I1
sssg368
(dp443
g370
g398
sg382
g411
sg372
g415
sg388
g435
sg364
g439
sg376
g429
sg390
(dp444
g58
I4
sssg378
(dp445
g362
g431
sg384
g420
sg380
g442
sg376
g426
ssg390
(dp446
g370
g399
sg386
g406
sg372
g416
sg360
g437
sg388
g434
sg364
g440
sg368
g444
sssg139
(dp447
g141
S'()'
p448
ssg143
g51
sg144
g392
sbsVCambodia
p449
g2
(g3
g4
Ntp450
Rp451
(dp452
g8
(dp453
VJeremy
p454
(dp455
sVWoo
p456
(dp457
sVStephen
p458
(dp459
sVMonica
p460
(dp461
sVTasha
p462
(dp463
sVAndrew
p464
(dp465
sVKass
p466
(dp467
sVJoe
p468
(dp469
sVTerry
p470
(dp471
sVAbi-Maria
p472
(dp473
sVVytas
p474
(dp475
sVCiera
p476
(dp477
sVKelly
p478
(dp479
sVSpencer
p480
(dp481
sVJeff
p482
(dp483
sVKeith
p484
(dp485
sVPeih-Gee
p486
(dp487
sVKimmi
p488
(dp489
sVKelley
p490
(dp491
sVShirin
p492
(dp493
ssg50
g51
sg52
g51
sg53
(dp494
g460
(dp495
g480
(dp496
g58
I1
sssg454
(dp497
g462
(dp498
g58
I4
ssg484
(dp499
g58
I2
ssg464
(dp500
g58
I1
ssg478
(dp501
g58
I2
ssg476
(dp502
g58
I1
ssg468
(dp503
g58
I2
ssg458
(dp504
g58
I5
ssg488
(dp505
g58
I6
ssg490
(dp506
g58
I3
ssg480
(dp507
g58
I6
ssg472
(dp508
g58
I2
sssg474
(dp509
g478
(dp510
g58
I1
ssg456
(dp511
g58
I1
ssg470
(dp512
g58
I1
sssg482
(dp513
g462
(dp514
g58
I1
ssg464
(dp515
g58
I1
ssg486
(dp516
g58
I2
ssg456
(dp517
g58
I1
ssg478
(dp518
g58
I1
ssg472
(dp519
g58
I2
ssg490
(dp520
g58
I1
ssg480
(dp521
g58
I2
ssg492
(dp522
g58
I1
sssg462
(dp523
g454
g498
sg482
g514
sg490
(dp524
g58
I3
ssg464
(dp525
g58
I4
ssg480
(dp526
g58
I5
ssg478
(dp527
g58
I2
ssg456
(dp528
g58
I1
ssg468
(dp529
g58
I2
ssg458
(dp530
g58
I3
ssg488
(dp531
g58
I8
ssg484
(dp532
g58
I4
ssg472
(dp533
g58
I4
sssg490
(dp534
g454
g506
sg482
g520
sg462
g524
sg464
(dp535
g58
I1
ssg486
(dp536
g58
I1
ssg476
(dp537
g58
I3
ssg470
(dp538
g58
I1
ssg458
(dp539
g58
I2
ssg488
(dp540
g58
I3
ssg492
(dp541
g58
I2
ssg484
(dp542
g58
I5
ssg480
(dp543
g58
I6
ssg472
(dp544
g58
I7
sssg464
(dp545
g454
g500
sg482
g515
sg462
g525
sg490
g535
sg478
(dp546
g58
I2
ssg456
(dp547
g58
I2
ssg468
(dp548
g58
I1
ssg458
(dp549
g58
I2
ssg488
(dp550
g58
I2
ssg484
(dp551
g58
I2
ssg480
(dp552
g58
I1
ssg472
(dp553
g58
I2
sssg466
(dp554
g472
(dp555
g58
I2
ssg476
(dp556
g58
I1
ssg480
(dp557
g58
I1
sssg486
(dp558
g482
g516
sg456
(dp559
g58
I2
ssg478
(dp560
g58
I1
ssg472
(dp561
g58
I1
ssg490
g536
sg480
(dp562
g58
I2
ssg492
(dp563
g58
I1
sssg478
(dp564
g454
g501
sg482
g518
sg462
g527
sg474
g510
sg464
g546
sg486
g560
sg456
(dp565
g58
I3
ssg468
(dp566
g58
I2
ssg470
(dp567
g58
I1
ssg458
(dp568
g58
I1
ssg488
(dp569
g58
I2
ssg484
(dp570
g58
I1
ssg480
(dp571
g58
I3
sssg456
(dp572
g482
g517
sg462
g528
sg464
g547
sg486
g559
sg470
(dp573
g58
I1
ssg478
g565
sg472
(dp574
g58
I1
ssg474
g511
sg480
(dp575
g58
I1
sssg476
(dp576
g454
g502
sg466
g556
sg458
(dp577
g58
I1
ssg472
(dp578
g58
I3
ssg490
g537
sg480
(dp579
g58
I2
sssg468
(dp580
g454
g503
sg462
g529
sg464
g548
sg478
g566
sg458
(dp581
g58
I1
ssg488
(dp582
g58
I1
ssg484
(dp583
g58
I3
ssg480
(dp584
g58
I3
ssg472
(dp585
g58
I1
sssg470
(dp586
g490
g538
sg456
g573
sg478
g567
sg472
(dp587
g58
I1
ssg474
g512
sg492
(dp588
g58
I1
sssg458
(dp589
g454
g504
sg462
g530
sg490
g539
sg464
g549
sg476
g577
sg468
g581
sg478
g568
sg488
(dp590
g58
I5
ssg484
(dp591
g58
I2
ssg480
(dp592
g58
I2
ssg472
(dp593
g58
I1
sssg488
(dp594
g454
g505
sg462
g531
sg490
g540
sg464
g550
sg478
g569
sg468
g582
sg458
g590
sg472
(dp595
g58
I1
ssg484
(dp596
g58
I3
ssg480
(dp597
g58
I4
sssg492
(dp598
g482
g522
sg486
g563
sg470
g588
sg472
(dp599
g58
I2
ssg490
g541
sg480
(dp600
g58
I1
sssg484
(dp601
g454
g499
sg462
g532
sg464
g551
sg478
g570
sg468
g583
sg458
g591
sg488
g596
sg490
g542
sg480
(dp602
g58
I5
ssg472
(dp603
g58
I3
sssg480
(dp604
g460
g496
sg454
g507
sg482
g521
sg462
g526
sg490
g543
sg464
g552
sg466
g557
sg486
g562
sg478
g571
sg456
g575
sg476
g579
sg468
g584
sg458
g592
sg488
g597
sg484
g602
sg472
(dp605
g58
I7
ssg492
g600
ssg472
(dp606
g454
g508
sg482
g519
sg462
g533
sg490
g544
sg464
g553
sg466
g555
sg486
g561
sg456
g574
sg476
g578
sg468
g585
sg470
g587
sg458
g593
sg488
g595
sg484
g603
sg480
g605
sg492
g599
sssg139
(dp607
g141
S'()'
p608
ssg143
g51
sg144
g494
sbsVBlood_vs._Water
p609
g2
(g3
g4
Ntp610
Rp611
(dp612
g8
(dp613
VMarissa
p614
(dp615
sVHayden
p616
(dp617
sVTina
p618
(dp619
sVJohn
p620
(dp621
sVMonica
p622
(dp623
sVGervase
p624
(dp625
sVColton
p626
(dp627
sVLaura M.
p628
(dp629
sVKat
p630
(dp631
sVTyson
p632
(dp633
sVVytas
p634
(dp635
sVAras
p636
(dp637
sVCiera
p638
(dp639
sVBrad
p640
(dp641
sVLaura B.
p642
(dp643
sVRachel
p644
(dp645
sVCaleb
p646
(dp647
sVCandice
p648
(dp649
sVRupert
p650
(dp651
sVKatie
p652
(dp653
ssg50
g51
sg52
g51
sg53
(dp654
g622
(dp655
g636
(dp656
g58
I9
ssg624
(dp657
g58
I19
ssg620
(dp658
g58
I2
ssg628
(dp659
g58
I12
ssg614
(dp660
g58
I1
ssg626
(dp661
g58
I5
ssg640
(dp662
g58
I2
ssg646
(dp663
g58
I6
ssg616
(dp664
g58
I7
ssg638
(dp665
g58
I6
ssg648
(dp666
g58
I1
ssg618
(dp667
g58
I13
ssg630
(dp668
g58
I10
ssg632
(dp669
g58
I18
ssg642
(dp670
g58
I8
ssg634
(dp671
g58
I4
ssg644
(dp672
g58
I1
ssg650
(dp673
g58
I1
ssg652
(dp674
g58
I6
sssg624
(dp675
g622
g657
sg620
(dp676
g58
I2
ssg618
(dp677
g58
I11
ssg636
(dp678
g58
I11
ssg614
(dp679
g58
I1
ssg626
(dp680
g58
I5
ssg640
(dp681
g58
I2
ssg646
(dp682
g58
I8
ssg616
(dp683
g58
I8
ssg638
(dp684
g58
I8
ssg648
(dp685
g58
I1
ssg628
(dp686
g58
I12
ssg630
(dp687
g58
I10
ssg632
(dp688
g58
I21
ssg642
(dp689
g58
I7
ssg634
(dp690
g58
I2
ssg644
(dp691
g58
I1
ssg650
(dp692
g58
I1
ssg652
(dp693
g58
I4
sssg620
(dp694
g622
g658
sg624
g676
sg644
(dp695
g58
I3
ssg628
(dp696
g58
I2
ssg636
(dp697
g58
I2
ssg614
(dp698
g58
I2
ssg626
(dp699
g58
I1
ssg640
(dp700
g58
I6
ssg646
(dp701
g58
I6
ssg616
(dp702
g58
I6
ssg638
(dp703
g58
I5
ssg618
(dp704
g58
I2
ssg630
(dp705
g58
I2
ssg632
(dp706
g58
I2
ssg642
(dp707
g58
I1
ssg634
(dp708
g58
I6
ssg652
(dp709
g58
I4
sssg628
(dp710
g622
g659
sg624
g686
sg620
g696
sg636
(dp711
g58
I8
ssg614
(dp712
g58
I1
ssg626
(dp713
g58
I5
ssg640
(dp714
g58
I2
ssg646
(dp715
g58
I5
ssg616
(dp716
g58
I5
ssg638
(dp717
g58
I4
ssg648
(dp718
g58
I1
ssg618
(dp719
g58
I10
ssg630
(dp720
g58
I9
ssg632
(dp721
g58
I11
ssg642
(dp722
g58
I6
ssg634
(dp723
g58
I2
ssg644
(dp724
g58
I1
ssg650
(dp725
g58
I1
ssg652
(dp726
g58
I3
sssg636
(dp727
g622
g656
sg624
g678
sg620
g697
sg628
g711
sg614
(dp728
g58
I1
ssg626
(dp729
g58
I4
ssg640
(dp730
g58
I2
ssg646
(dp731
g58
I4
ssg616
(dp732
g58
I4
ssg638
(dp733
g58
I4
ssg648
(dp734
g58
I1
ssg618
(dp735
g58
I9
ssg630
(dp736
g58
I9
ssg632
(dp737
g58
I11
ssg642
(dp738
g58
I7
ssg634
(dp739
g58
I3
ssg644
(dp740
g58
I1
ssg650
(dp741
g58
I1
ssg652
(dp742
g58
I2
sssg614
(dp743
g622
g660
sg624
g679
sg644
(dp744
g58
I2
ssg628
g712
sg636
g728
sg626
(dp745
g58
I1
ssg640
(dp746
g58
I2
ssg646
(dp747
g58
I2
ssg616
(dp748
g58
I2
ssg638
(dp749
g58
I2
ssg618
(dp750
g58
I1
ssg630
(dp751
g58
I1
ssg632
(dp752
g58
I1
ssg620
g698
sg634
(dp753
g58
I2
ssg652
(dp754
g58
I2
sssg626
(dp755
g622
g661
sg624
g680
sg620
g699
sg628
g713
sg636
g729
sg614
g745
sg640
(dp756
g58
I1
ssg646
(dp757
g58
I1
ssg616
(dp758
g58
I1
ssg638
(dp759
g58
I1
ssg648
(dp760
g58
I1
ssg618
(dp761
g58
I5
ssg630
(dp762
g58
I5
ssg632
(dp763
g58
I4
ssg642
(dp764
g58
I2
ssg634
(dp765
g58
I1
ssg644
(dp766
g58
I1
ssg650
(dp767
g58
I1
ssg652
(dp768
g58
I1
sssg640
(dp769
g622
g662
sg624
g681
sg620
g700
sg628
g714
sg636
g730
sg626
g756
sg614
g746
sg646
(dp770
g58
I7
ssg616
(dp771
g58
I8
ssg638
(dp772
g58
I7
ssg618
(dp773
g58
I2
ssg630
(dp774
g58
I2
ssg632
(dp775
g58
I2
ssg642
(dp776
g58
I1
ssg634
(dp777
g58
I8
ssg644
(dp778
g58
I3
ssg652
(dp779
g58
I5
sssg646
(dp780
g622
g663
sg624
g682
sg620
g701
sg628
g715
sg636
g731
sg614
g747
sg626
g757
sg640
g770
sg616
(dp781
g58
I15
ssg638
(dp782
g58
I13
ssg618
(dp783
g58
I3
ssg630
(dp784
g58
I2
ssg632
(dp785
g58
I8
ssg642
(dp786
g58
I1
ssg634
(dp787
g58
I9
ssg644
(dp788
g58
I3
ssg652
(dp789
g58
I11
sssg616
(dp790
g622
g664
sg624
g683
sg620
g702
sg628
g716
sg636
g732
sg614
g748
sg626
g758
sg640
g771
sg646
g781
sg638
(dp791
g58
I14
ssg618
(dp792
g58
I3
ssg630
(dp793
g58
I2
ssg632
(dp794
g58
I8
ssg642
(dp795
g58
I1
ssg634
(dp796
g58
I9
ssg644
(dp797
g58
I3
ssg652
(dp798
g58
I10
sssg638
(dp799
g622
g665
sg624
g684
sg620
g703
sg628
g717
sg636
g733
sg614
g749
sg626
g759
sg640
g772
sg646
g782
sg616
g791
sg618
(dp800
g58
I3
ssg630
(dp801
g58
I2
ssg632
(dp802
g58
I8
ssg642
(dp803
g58
I1
ssg634
(dp804
g58
I7
ssg644
(dp805
g58
I3
ssg652
(dp806
g58
I11
sssg648
(dp807
g622
g666
sg624
g685
sg628
g718
sg636
g734
sg626
g760
sg618
(dp808
g58
I1
ssg630
(dp809
g58
I1
ssg632
(dp810
g58
I2
ssg650
(dp811
g58
I2
sssg618
(dp812
g622
g667
sg624
g677
sg620
g704
sg636
g735
sg614
g750
sg626
g761
sg640
g773
sg646
g783
sg616
g792
sg638
g800
sg648
g808
sg628
g719
sg630
(dp813
g58
I10
ssg632
(dp814
g58
I10
ssg642
(dp815
g58
I8
ssg634
(dp816
g58
I4
ssg644
(dp817
g58
I1
ssg650
(dp818
g58
I1
ssg652
(dp819
g58
I6
sssg630
(dp820
g622
g668
sg624
g687
sg620
g705
sg628
g720
sg636
g736
sg626
g762
sg614
g751
sg646
g784
sg616
g793
sg638
g801
sg648
g809
sg618
g813
sg640
g774
sg632
(dp821
g58
I9
ssg642
(dp822
g58
I7
ssg634
(dp823
g58
I2
ssg644
(dp824
g58
I1
ssg650
(dp825
g58
I1
ssg652
(dp826
g58
I2
sssg632
(dp827
g622
g669
sg624
g688
sg620
g706
sg618
g814
sg636
g737
sg614
g752
sg626
g763
sg640
g775
sg646
g785
sg616
g794
sg638
g802
sg648
g810
sg628
g721
sg630
g821
sg650
(dp828
g58
I2
ssg642
(dp829
g58
I7
ssg634
(dp830
g58
I2
ssg644
(dp831
g58
I1
ssg652
(dp832
g58
I4
sssg642
(dp833
g622
g670
sg624
g689
sg628
g722
sg636
g738
sg626
g764
sg640
g776
sg646
g786
sg616
g795
sg638
g803
sg618
g815
sg630
g822
sg632
g829
sg620
g707
sg634
(dp834
g58
I2
ssg652
(dp835
g58
I3
sssg634
(dp836
g622
g671
sg624
g690
sg620
g708
sg628
g723
sg636
g739
sg614
g753
sg626
g765
sg640
g777
sg646
g787
sg616
g796
sg638
g804
sg618
g816
sg630
g823
sg632
g830
sg642
g834
sg644
(dp837
g58
I3
ssg652
(dp838
g58
I9
sssg644
(dp839
g622
g672
sg624
g691
sg628
g724
sg636
g740
sg614
g744
sg626
g766
sg640
g778
sg646
g788
sg616
g797
sg638
g805
sg618
g817
sg630
g824
sg632
g831
sg620
g695
sg634
g837
sg652
(dp840
g58
I3
sssg650
(dp841
g622
g673
sg624
g692
sg628
g725
sg636
g741
sg626
g767
sg648
g811
sg618
g818
sg630
g825
sg632
g828
ssg652
(dp842
g622
g674
sg624
g693
sg620
g709
sg628
g726
sg636
g742
sg614
g754
sg626
g768
sg640
g779
sg646
g789
sg616
g798
sg638
g806
sg618
g819
sg630
g826
sg632
g832
sg642
g835
sg634
g838
sg644
g840
sssg139
(dp843
g141
S'()'
p844
ssg143
g51
sg144
g654
sbsVMarquesas
p845
g2
(g3
g4
Ntp846
Rp847
(dp848
g8
(dp849
VSarah
p850
(dp851
sVZoe
p852
(dp853
sVRobert
p854
(dp855
sVPaschal
p856
(dp857
sVJohn
p858
(dp859
sVNeleh
p860
(dp861
sVKathy
p862
(dp863
sVGina
p864
(dp865
sVHunter
p866
(dp867
sVTammy
p868
(dp869
sVGabriel
p870
(dp871
sVPatricia
p872
(dp873
sVVecepia
p874
(dp875
sVRob
p876
(dp877
sVSean
p878
(dp879
sVPeter
p880
(dp881
ssg50
g51
sg52
g51
sg53
(dp882
g862
(dp883
g852
(dp884
g58
I1
ssg854
(dp885
g58
I1
ssg864
(dp886
g58
I1
ssg856
(dp887
g58
I7
ssg874
(dp888
g58
I5
ssg878
(dp889
g58
I4
ssg860
(dp890
g58
I7
ssg868
(dp891
g58
I1
sssg850
(dp892
g876
(dp893
g58
I3
ssg864
(dp894
g58
I1
ssg866
(dp895
g58
I1
ssg872
(dp896
g58
I1
ssg874
(dp897
g58
I2
ssg878
(dp898
g58
I2
sssg880
(dp899
sg868
(dp900
g862
g891
sg852
(dp901
g58
I2
ssg854
(dp902
g58
I5
ssg856
(dp903
g58
I2
ssg874
(dp904
g58
I3
ssg878
(dp905
g58
I2
ssg858
(dp906
g58
I3
ssg876
(dp907
g58
I1
ssg860
(dp908
g58
I2
sssg870
(dp909
sg854
(dp910
g862
g885
sg858
(dp911
g58
I3
ssg852
(dp912
g58
I2
ssg876
(dp913
g58
I1
ssg856
(dp914
g58
I2
ssg874
(dp915
g58
I3
ssg878
(dp916
g58
I2
ssg860
(dp917
g58
I2
ssg868
g902
ssg864
(dp918
g862
g886
sg850
g894
sg876
(dp919
g58
I1
ssg866
(dp920
g58
I3
ssg856
(dp921
g58
I1
ssg872
(dp922
g58
I2
ssg860
(dp923
g58
I1
sssg866
(dp924
g850
g895
sg876
(dp925
g58
I1
ssg864
g920
sg872
(dp926
g58
I2
sssg856
(dp927
g862
g887
sg858
(dp928
g58
I1
ssg852
(dp929
g58
I2
ssg854
g914
sg864
g921
sg874
(dp930
g58
I5
ssg878
(dp931
g58
I4
ssg860
(dp932
g58
I9
ssg868
g903
ssg872
(dp933
g850
g896
sg876
(dp934
g58
I1
ssg864
g922
sg866
g926
ssg874
(dp935
g862
g888
sg850
g897
sg858
(dp936
g58
I2
ssg852
(dp937
g58
I3
ssg854
g915
sg856
g930
sg878
(dp938
g58
I9
ssg860
(dp939
g58
I5
ssg876
(dp940
g58
I3
ssg868
g904
ssg878
(dp941
g862
g889
sg850
g898
sg852
(dp942
g58
I2
ssg854
g916
sg856
g931
sg874
g938
sg868
g905
sg858
(dp943
g58
I1
ssg876
(dp944
g58
I4
ssg860
(dp945
g58
I4
sssg852
(dp946
g862
g884
sg868
g901
sg854
g912
sg856
g929
sg874
g937
sg878
g942
sg858
(dp947
g58
I2
ssg876
(dp948
g58
I1
ssg860
(dp949
g58
I2
sssg858
(dp950
g852
g947
sg854
g911
sg856
g928
sg874
g936
sg878
g943
sg860
(dp951
g58
I1
ssg876
(dp952
g58
I1
ssg868
g906
ssg876
(dp953
g850
g893
sg852
g948
sg854
g913
sg864
g919
sg866
g925
sg872
g934
sg874
g940
sg878
g944
sg858
g952
sg868
g907
ssg860
(dp954
g862
g890
sg852
g949
sg854
g917
sg864
g923
sg856
g932
sg874
g939
sg868
g908
sg858
g951
sg878
g945
sssg139
(dp955
g141
S'()'
p956
ssg143
g51
sg144
g882
sbsVPearl_Islands
p957
g2
(g3
g4
Ntp958
Rp959
(dp960
g8
(dp961
VTrish
p962
(dp963
sVRyan S.
p964
(dp965
sVDarrah
p966
(dp967
sVOsten
p968
(dp969
sVShawn
p970
(dp971
sVAndrew
p972
(dp973
sVChrista
p974
(dp975
sVSandra
p976
(dp977
sVJon
p978
(dp979
sVMichelle
p980
(dp981
sVLillian
p982
(dp983
sVTijuana
p984
(dp985
sVRyan O.
p986
(dp987
sVBurton
p988
(dp989
sVRupert
p990
(dp991
sVNicole
p992
(dp993
ssg50
g51
sg52
g51
sg53
(dp994
g980
(dp995
g988
(dp996
g58
I1
ssg964
(dp997
g58
I1
ssg962
(dp998
g58
I1
sssg962
(dp999
g980
g998
sg970
(dp1000
g58
I2
ssg974
(dp1001
g58
I2
ssg964
(dp1002
g58
I1
ssg976
(dp1003
g58
I2
ssg990
(dp1004
g58
I1
ssg978
(dp1005
g58
I3
sssg968
(dp1006
g982
(dp1007
g58
I1
ssg972
(dp1008
g58
I2
ssg964
(dp1009
g58
I1
ssg986
(dp1010
g58
I2
ssg966
(dp1011
g58
I2
ssg984
(dp1012
g58
I2
sssg982
(dp1013
g968
g1007
sg972
(dp1014
g58
I1
ssg974
(dp1015
g58
I3
ssg964
(dp1016
g58
I2
ssg986
(dp1017
g58
I1
ssg976
(dp1018
g58
I5
ssg988
(dp1019
g58
I5
ssg990
(dp1020
g58
I2
ssg966
(dp1021
g58
I5
ssg978
(dp1022
g58
I6
ssg984
(dp1023
g58
I3
sssg972
(dp1024
g968
g1008
sg982
g1014
sg964
(dp1025
g58
I1
ssg986
(dp1026
g58
I3
ssg966
(dp1027
g58
I3
ssg984
(dp1028
g58
I3
sssg974
(dp1029
g962
g1001
sg982
g1015
sg970
(dp1030
g58
I3
ssg976
(dp1031
g58
I8
ssg988
(dp1032
g58
I3
ssg990
(dp1033
g58
I6
ssg966
(dp1034
g58
I1
ssg978
(dp1035
g58
I6
ssg984
(dp1036
g58
I1
sssg970
(dp1037
g962
g1000
sg990
(dp1038
g58
I2
ssg974
g1030
sg978
(dp1039
g58
I2
ssg976
(dp1040
g58
I3
sssg964
(dp1041
g980
g997
sg962
g1002
sg968
g1009
sg982
g1016
sg972
g1025
sg986
(dp1042
g58
I1
ssg966
(dp1043
g58
I1
ssg984
(dp1044
g58
I1
sssg992
(dp1045
sg986
(dp1046
g968
g1010
sg982
g1017
sg972
g1026
sg964
g1042
sg966
(dp1047
g58
I3
ssg984
(dp1048
g58
I3
sssg976
(dp1049
g962
g1003
sg982
g1018
sg974
g1031
sg970
g1040
sg988
(dp1050
g58
I3
ssg990
(dp1051
g58
I5
ssg966
(dp1052
g58
I2
ssg978
(dp1053
g58
I7
ssg984
(dp1054
g58
I1
sssg988
(dp1055
g980
g996
sg982
g1019
sg974
g1032
sg976
g1050
sg990
(dp1056
g58
I2
ssg966
(dp1057
g58
I3
ssg978
(dp1058
g58
I6
ssg984
(dp1059
g58
I2
sssg990
(dp1060
g962
g1004
sg982
g1020
sg974
g1033
sg970
g1038
sg976
g1051
sg988
g1056
sg966
(dp1061
g58
I1
ssg978
(dp1062
g58
I4
ssg984
(dp1063
g58
I1
sssg966
(dp1064
g968
g1011
sg982
g1021
sg972
g1027
sg974
g1034
sg964
g1043
sg986
g1047
sg976
g1052
sg988
g1057
sg990
g1061
sg978
(dp1065
g58
I3
ssg984
(dp1066
g58
I6
sssg978
(dp1067
g962
g1005
sg982
g1022
sg974
g1035
sg970
g1039
sg976
g1053
sg988
g1058
sg990
g1062
sg966
g1065
sg984
(dp1068
g58
I2
sssg984
(dp1069
g968
g1012
sg982
g1023
sg972
g1028
sg974
g1036
sg964
g1044
sg986
g1048
sg976
g1054
sg988
g1059
sg990
g1063
sg966
g1066
sg978
g1068
sssg139
(dp1070
g141
S'()'
p1071
ssg143
g51
sg144
g994
sbsVVanuatu
p1072
g2
(g3
g4
Ntp1073
Rp1074
(dp1075
g8
(dp1076
VMia
p1077
(dp1078
sVEliza
p1079
(dp1080
sVBrook
p1081
(dp1082
sVDolly
p1083
(dp1084
sVJohn P.
p1085
(dp1086
sVJohn K.
p1087
(dp1088
sVAmi
p1089
(dp1090
sVLea
p1091
(dp1092
sVScout
p1093
(dp1094
sVTwila
p1095
(dp1096
sVBrady
p1097
(dp1098
sVChris
p1099
(dp1100
sVRory
p1101
(dp1102
sVLisa
p1103
(dp1104
sVChad
p1105
(dp1106
sVJulie
p1107
(dp1108
sVTravis
p1109
(dp1110
sVLeann
p1111
(dp1112
ssg50
g51
sg52
g51
sg53
(dp1113
g1089
(dp1114
g1079
(dp1115
g58
I6
ssg1111
(dp1116
g58
I8
ssg1095
(dp1117
g58
I5
ssg1093
(dp1118
g58
I6
ssg1101
(dp1119
g58
I2
ssg1099
(dp1120
g58
I1
ssg1103
(dp1121
g58
I2
ssg1107
(dp1122
g58
I5
sssg1091
(dp1123
g1105
(dp1124
g58
I5
ssg1109
(dp1125
g58
I3
ssg1107
(dp1126
g58
I1
ssg1095
(dp1127
g58
I1
ssg1101
(dp1128
g58
I4
ssg1099
(dp1129
g58
I5
ssg1087
(dp1130
g58
I1
sssg1097
(dp1131
g1085
(dp1132
g58
I1
ssg1087
(dp1133
g58
I1
sssg1105
(dp1134
g1091
g1124
sg1109
(dp1135
g58
I3
ssg1107
(dp1136
g58
I1
ssg1095
(dp1137
g58
I1
ssg1101
(dp1138
g58
I4
ssg1099
(dp1139
g58
I6
ssg1087
(dp1140
g58
I1
sssg1109
(dp1141
g1099
(dp1142
g58
I3
ssg1091
g1125
sg1101
(dp1143
g58
I3
ssg1105
g1135
sg1087
(dp1144
g58
I1
sssg1077
(dp1145
g1103
(dp1146
g58
I1
ssg1079
(dp1147
g58
I1
ssg1107
(dp1148
g58
I2
ssg1083
(dp1149
g58
I1
sssg1081
(dp1150
g1085
(dp1151
g58
I1
ssg1087
(dp1152
g58
I1
sssg1079
(dp1153
g1089
g1115
sg1077
g1147
sg1107
(dp1154
g58
I5
ssg1111
(dp1155
g58
I6
ssg1095
(dp1156
g58
I6
ssg1093
(dp1157
g58
I7
ssg1101
(dp1158
g58
I2
ssg1099
(dp1159
g58
I3
ssg1103
(dp1160
g58
I1
sssg1111
(dp1161
g1089
g1116
sg1079
g1155
sg1095
(dp1162
g58
I5
ssg1093
(dp1163
g58
I6
ssg1101
(dp1164
g58
I2
ssg1099
(dp1165
g58
I1
ssg1103
(dp1166
g58
I2
ssg1107
(dp1167
g58
I4
sssg1087
(dp1168
g1091
g1130
sg1097
g1133
sg1105
g1140
sg1081
g1152
sg1109
g1144
sg1101
(dp1169
g58
I1
ssg1099
(dp1170
g58
I1
ssg1085
(dp1171
g58
I2
sssg1095
(dp1172
g1089
g1117
sg1091
g1127
sg1105
g1137
sg1079
g1156
sg1111
g1162
sg1093
(dp1173
g58
I9
ssg1099
(dp1174
g58
I6
ssg1103
(dp1175
g58
I1
ssg1107
(dp1176
g58
I4
sssg1093
(dp1177
g1089
g1118
sg1079
g1157
sg1095
g1173
sg1111
g1163
sg1101
(dp1178
g58
I1
ssg1099
(dp1179
g58
I5
ssg1103
(dp1180
g58
I3
ssg1107
(dp1181
g58
I3
sssg1083
(dp1182
g1077
g1149
sg1103
(dp1183
g58
I1
ssg1107
(dp1184
g58
I1
sssg1101
(dp1185
g1089
g1119
sg1091
g1128
sg1105
g1138
sg1079
g1158
sg1111
g1164
sg1109
g1143
sg1093
g1178
sg1099
(dp1186
g58
I4
ssg1103
(dp1187
g58
I1
ssg1087
g1169
ssg1099
(dp1188
g1089
g1120
sg1091
g1129
sg1105
g1139
sg1079
g1159
sg1111
g1165
sg1087
g1170
sg1109
g1142
sg1093
g1179
sg1101
g1186
sg1095
g1174
sg1107
(dp1189
g58
I2
sssg1103
(dp1190
g1089
g1121
sg1077
g1146
sg1079
g1160
sg1111
g1166
sg1093
g1180
sg1083
g1183
sg1101
g1187
sg1095
g1175
sg1107
(dp1191
g58
I1
sssg1085
(dp1192
g1081
g1151
sg1087
g1171
sg1097
g1132
ssg1107
(dp1193
g1089
g1122
sg1091
g1126
sg1105
g1136
sg1077
g1148
sg1079
g1154
sg1111
g1167
sg1095
g1176
sg1093
g1181
sg1083
g1184
sg1099
g1189
sg1103
g1191
sssg139
(dp1194
g141
S'()'
p1195
ssg143
g51
sg144
g1113
sbsVThe_Australian_Outback
p1196
g2
(g3
g4
Ntp1197
Rp1198
(dp1199
g8
(dp1200
VNick
p1201
(dp1202
sVColby
p1203
(dp1204
sVTina
p1205
(dp1206
sVJerri
p1207
(dp1208
sVKel
p1209
(dp1210
sVRodger
p1211
(dp1212
sVAlicia
p1213
(dp1214
sVDebb
p1215
(dp1216
sVKeith
p1217
(dp1218
sVMichael
p1219
(dp1220
sVMitchell
p1221
(dp1222
sVAmber
p1223
(dp1224
sVJeff
p1225
(dp1226
sVElisabeth
p1227
(dp1228
sVMaralyn
p1229
(dp1230
sVKimmi
p1231
(dp1232
ssg50
g51
sg52
g51
sg53
(dp1233
g1223
(dp1234
g1217
(dp1235
g58
I5
ssg1203
(dp1236
g58
I6
ssg1229
(dp1237
g58
I1
ssg1205
(dp1238
g58
I6
ssg1221
(dp1239
g58
I3
ssg1207
(dp1240
g58
I8
sssg1209
(dp1241
sg1211
(dp1242
g1225
(dp1243
g58
I3
ssg1213
(dp1244
g58
I5
ssg1219
(dp1245
g58
I2
ssg1227
(dp1246
g58
I9
ssg1201
(dp1247
g58
I6
ssg1203
(dp1248
g58
I1
ssg1205
(dp1249
g58
I2
ssg1231
(dp1250
g58
I1
ssg1217
(dp1251
g58
I2
sssg1225
(dp1252
g1211
g1243
sg1213
(dp1253
g58
I3
ssg1219
(dp1254
g58
I2
ssg1227
(dp1255
g58
I3
ssg1201
(dp1256
g58
I3
ssg1203
(dp1257
g58
I1
ssg1231
(dp1258
g58
I1
sssg1221
(dp1259
g1223
g1239
sg1203
(dp1260
g58
I2
ssg1229
(dp1261
g58
I1
ssg1205
(dp1262
g58
I2
ssg1217
(dp1263
g58
I2
ssg1207
(dp1264
g58
I3
sssg1213
(dp1265
g1211
g1244
sg1225
g1253
sg1219
(dp1266
g58
I2
ssg1227
(dp1267
g58
I5
ssg1201
(dp1268
g58
I5
ssg1231
(dp1269
g58
I1
sssg1219
(dp1270
g1211
g1245
sg1225
g1254
sg1213
g1266
sg1227
(dp1271
g58
I2
ssg1201
(dp1272
g58
I2
ssg1231
(dp1273
g58
I1
sssg1215
(dp1274
sg1227
(dp1275
g1211
g1246
sg1225
g1255
sg1213
g1267
sg1219
g1271
sg1201
(dp1276
g58
I6
ssg1203
(dp1277
g58
I1
ssg1205
(dp1278
g58
I2
ssg1231
(dp1279
g58
I1
ssg1217
(dp1280
g58
I2
sssg1201
(dp1281
g1211
g1247
sg1225
g1256
sg1213
g1268
sg1219
g1272
sg1227
g1276
sg1203
(dp1282
g58
I1
ssg1205
(dp1283
g58
I1
ssg1231
(dp1284
g58
I1
ssg1217
(dp1285
g58
I1
sssg1203
(dp1286
g1223
g1236
sg1211
g1248
sg1225
g1257
sg1221
g1260
sg1227
g1277
sg1201
g1282
sg1229
(dp1287
g58
I1
ssg1205
(dp1288
g58
I10
ssg1217
(dp1289
g58
I8
ssg1207
(dp1290
g58
I4
sssg1229
(dp1291
g1223
g1237
sg1221
g1261
sg1203
g1287
sg1205
(dp1292
g58
I1
ssg1217
(dp1293
g58
I1
ssg1207
(dp1294
g58
I1
sssg1205
(dp1295
g1223
g1238
sg1211
g1249
sg1221
g1262
sg1227
g1278
sg1201
g1283
sg1203
g1288
sg1229
g1292
sg1217
(dp1296
g58
I10
ssg1207
(dp1297
g58
I5
sssg1231
(dp1298
g1211
g1250
sg1225
g1258
sg1213
g1269
sg1219
g1273
sg1227
g1279
sg1201
g1284
ssg1217
(dp1299
g1223
g1235
sg1211
g1251
sg1227
g1280
sg1201
g1285
sg1203
g1289
sg1229
g1293
sg1205
g1296
sg1221
g1263
sg1207
(dp1300
g58
I4
sssg1207
(dp1301
g1223
g1240
sg1221
g1264
sg1203
g1290
sg1229
g1294
sg1205
g1297
sg1217
g1300
sssg139
(dp1302
g141
S'()'
p1303
ssg143
g51
sg144
g1233
sbsVHeroes_vs_Villains
p1304
g2
(g3
g4
Ntp1305
Rp1306
(dp1307
g8
(dp1308
VParvati
p1309
(dp1310
sVRussell
p1311
(dp1312
sVCourtney
p1313
(dp1314
sVSugar
p1315
(dp1316
sVRandy
p1317
(dp1318
sVColby
p1319
(dp1320
sVTom
p1321
(dp1322
sVJerri
p1323
(dp1324
sVJ.T.
p1325
(dp1326
sVStephenie
p1327
(dp1328
sVSandra
p1329
(dp1330
sVTyson
p1331
(dp1332
sVJames
p1333
(dp1334
sVAmanda
p1335
(dp1336
sVCoach
p1337
(dp1338
sVRob
p1339
(dp1340
sVCandice
p1341
(dp1342
sVDanielle
p1343
(dp1344
sVRupert
p1345
(dp1346
sVCirie
p1347
(dp1348
ssg50
g51
sg52
g51
sg53
(dp1349
g1321
(dp1350
g1325
(dp1351
g58
I2
ssg1333
(dp1352
g58
I1
ssg1327
(dp1353
g58
I2
ssg1341
(dp1354
g58
I1
ssg1319
(dp1355
g58
I4
ssg1345
(dp1356
g58
I1
ssg1335
(dp1357
g58
I1
ssg1347
(dp1358
g58
I1
sssg1337
(dp1359
g1309
(dp1360
g58
I1
ssg1311
(dp1361
g58
I2
ssg1339
(dp1362
g58
I1
ssg1329
(dp1363
g58
I1
ssg1343
(dp1364
g58
I1
ssg1313
(dp1365
g58
I2
ssg1331
(dp1366
g58
I2
ssg1323
(dp1367
g58
I3
sssg1309
(dp1368
g1337
g1360
sg1311
(dp1369
g58
I9
ssg1339
(dp1370
g58
I1
ssg1329
(dp1371
g58
I9
ssg1341
(dp1372
g58
I2
ssg1313
(dp1373
g58
I2
ssg1343
(dp1374
g58
I9
ssg1331
(dp1375
g58
I1
ssg1323
(dp1376
g58
I7
sssg1311
(dp1377
g1337
g1361
sg1309
g1369
sg1339
(dp1378
g58
I1
ssg1313
(dp1379
g58
I1
ssg1341
(dp1380
g58
I1
ssg1343
(dp1381
g58
I6
ssg1329
(dp1382
g58
I8
ssg1319
(dp1383
g58
I2
ssg1345
(dp1384
g58
I2
ssg1323
(dp1385
g58
I10
ssg1331
(dp1386
g58
I1
sssg1325
(dp1387
g1333
(dp1388
g58
I3
ssg1327
(dp1389
g58
I1
ssg1341
(dp1390
g58
I5
ssg1321
g1351
sg1319
(dp1391
g58
I4
ssg1345
(dp1392
g58
I5
ssg1335
(dp1393
g58
I5
ssg1347
(dp1394
g58
I2
sssg1333
(dp1395
g1325
g1388
sg1327
(dp1396
g58
I1
ssg1341
(dp1397
g58
I3
ssg1321
g1352
sg1319
(dp1398
g58
I1
ssg1345
(dp1399
g58
I4
ssg1335
(dp1400
g58
I3
ssg1347
(dp1401
g58
I2
sssg1339
(dp1402
g1337
g1362
sg1309
g1370
sg1311
g1378
sg1329
(dp1403
g58
I3
ssg1343
(dp1404
g58
I1
ssg1313
(dp1405
g58
I2
ssg1331
(dp1406
g58
I1
ssg1323
(dp1407
g58
I1
sssg1313
(dp1408
g1337
g1365
sg1309
g1373
sg1311
g1379
sg1339
g1405
sg1343
(dp1409
g58
I2
ssg1329
(dp1410
g58
I3
ssg1331
(dp1411
g58
I2
ssg1323
(dp1412
g58
I2
sssg1341
(dp1413
g1309
g1372
sg1311
g1380
sg1325
g1390
sg1333
g1397
sg1321
g1354
sg1347
(dp1414
g58
I3
ssg1327
(dp1415
g58
I1
ssg1319
(dp1416
g58
I3
ssg1329
(dp1417
g58
I1
ssg1343
(dp1418
g58
I2
ssg1345
(dp1419
g58
I5
ssg1335
(dp1420
g58
I6
ssg1323
(dp1421
g58
I1
sssg1347
(dp1422
g1325
g1394
sg1333
g1401
sg1327
(dp1423
g58
I1
ssg1341
g1414
sg1321
g1358
sg1319
(dp1424
g58
I1
ssg1345
(dp1425
g58
I2
ssg1335
(dp1426
g58
I3
sssg1327
(dp1427
g1325
g1389
sg1333
g1396
sg1341
g1415
sg1321
g1353
sg1319
(dp1428
g58
I2
ssg1345
(dp1429
g58
I1
ssg1335
(dp1430
g58
I1
ssg1347
g1423
ssg1317
(dp1431
sg1319
(dp1432
g1311
g1383
sg1325
g1391
sg1333
g1398
sg1321
g1355
sg1347
g1424
sg1327
g1428
sg1341
g1416
sg1329
(dp1433
g58
I1
ssg1345
(dp1434
g58
I7
ssg1335
(dp1435
g58
I4
ssg1323
(dp1436
g58
I2
sssg1329
(dp1437
g1337
g1363
sg1309
g1371
sg1311
g1382
sg1339
g1403
sg1341
g1417
sg1343
(dp1438
g58
I6
ssg1313
g1410
sg1319
g1433
sg1345
(dp1439
g58
I1
ssg1323
(dp1440
g58
I7
ssg1331
(dp1441
g58
I1
sssg1343
(dp1442
g1337
g1364
sg1309
g1374
sg1311
g1381
sg1339
g1404
sg1329
g1438
sg1341
g1418
sg1313
g1409
sg1331
(dp1443
g58
I1
ssg1323
(dp1444
g58
I5
sssg1345
(dp1445
g1311
g1384
sg1325
g1392
sg1333
g1399
sg1321
g1356
sg1347
g1425
sg1327
g1429
sg1341
g1419
sg1329
g1439
sg1319
g1434
sg1335
(dp1446
g58
I6
ssg1323
(dp1447
g58
I2
sssg1315
(dp1448
sg1335
(dp1449
g1325
g1393
sg1333
g1400
sg1327
g1430
sg1341
g1420
sg1321
g1357
sg1319
g1435
sg1345
g1446
sg1347
g1426
ssg1323
(dp1450
g1337
g1367
sg1309
g1376
sg1311
g1385
sg1339
g1407
sg1313
g1412
sg1341
g1421
sg1343
g1444
sg1329
g1440
sg1319
g1436
sg1345
g1447
sg1331
(dp1451
g58
I2
sssg1331
(dp1452
g1337
g1366
sg1309
g1375
sg1311
g1386
sg1339
g1406
sg1329
g1441
sg1343
g1443
sg1313
g1411
sg1323
g1451
sssg139
(dp1453
g141
S'()'
p1454
ssg143
g51
sg144
g1349
sbsVGuatemala
p1455
g2
(g3
g4
Ntp1456
Rp1457
(dp1458
g8
(dp1459
VBlake
p1460
(dp1461
sVCindy
p1462
(dp1463
sVRafe
p1464
(dp1465
sVJim
p1466
(dp1467
sVBrandon
p1468
(dp1469
sVBrianna
p1470
(dp1471
sVBrian
p1472
(dp1473
sVStephenie
p1474
(dp1475
sVJamie
p1476
(dp1477
sVAmy
p1478
(dp1479
sVMargaret
p1480
(dp1481
sVBobby Jon
p1482
(dp1483
sVLydia
p1484
(dp1485
sVBrooke
p1486
(dp1487
sVJudd
p1488
(dp1489
sVDanni
p1490
(dp1491
sVMorgan
p1492
(dp1493
sVGary
p1494
(dp1495
ssg50
g51
sg52
g51
sg53
(dp1496
g1478
(dp1497
g1470
(dp1498
g58
I1
ssg1464
(dp1499
g58
I2
ssg1476
(dp1500
g58
I2
ssg1468
(dp1501
g58
I1
ssg1474
(dp1502
g58
I2
ssg1472
(dp1503
g58
I3
ssg1482
(dp1504
g58
I2
ssg1490
(dp1505
g58
I2
ssg1484
(dp1506
g58
I2
ssg1494
(dp1507
g58
I4
sssg1460
(dp1508
g1468
(dp1509
g58
I2
ssg1480
(dp1510
g58
I1
ssg1482
(dp1511
g58
I1
ssg1490
(dp1512
g58
I1
ssg1462
(dp1513
g58
I1
ssg1486
(dp1514
g58
I1
ssg1488
(dp1515
g58
I1
sssg1466
(dp1516
sg1492
(dp1517
sg1480
(dp1518
g1460
g1510
sg1468
(dp1519
g58
I1
ssg1482
(dp1520
g58
I1
ssg1490
(dp1521
g58
I1
ssg1462
(dp1522
g58
I2
ssg1486
(dp1523
g58
I2
ssg1488
(dp1524
g58
I1
sssg1464
(dp1525
g1478
g1499
sg1476
(dp1526
g58
I6
ssg1488
(dp1527
g58
I5
ssg1474
(dp1528
g58
I11
ssg1472
(dp1529
g58
I2
ssg1470
(dp1530
g58
I1
ssg1490
(dp1531
g58
I5
ssg1484
(dp1532
g58
I10
ssg1462
(dp1533
g58
I5
ssg1494
(dp1534
g58
I3
sssg1476
(dp1535
g1478
g1500
sg1464
g1526
sg1488
(dp1536
g58
I5
ssg1474
(dp1537
g58
I6
ssg1472
(dp1538
g58
I2
ssg1470
(dp1539
g58
I1
ssg1484
(dp1540
g58
I6
ssg1462
(dp1541
g58
I3
ssg1494
(dp1542
g58
I2
sssg1470
(dp1543
g1478
g1498
sg1464
g1530
sg1476
g1539
sg1474
(dp1544
g58
I1
ssg1472
(dp1545
g58
I1
ssg1484
(dp1546
g58
I1
ssg1494
(dp1547
g58
I1
sssg1488
(dp1548
g1460
g1515
sg1464
g1527
sg1476
g1536
sg1468
(dp1549
g58
I1
ssg1474
(dp1550
g58
I5
ssg1480
g1524
sg1482
(dp1551
g58
I1
ssg1490
(dp1552
g58
I2
ssg1484
(dp1553
g58
I5
ssg1462
(dp1554
g58
I6
ssg1486
(dp1555
g58
I1
sssg1474
(dp1556
g1470
g1544
sg1464
g1528
sg1476
g1537
sg1488
g1550
sg1478
g1502
sg1472
(dp1557
g58
I2
ssg1490
(dp1558
g58
I5
ssg1484
(dp1559
g58
I10
ssg1462
(dp1560
g58
I5
ssg1494
(dp1561
g58
I3
sssg1472
(dp1562
g1478
g1503
sg1464
g1529
sg1476
g1538
sg1470
g1545
sg1474
g1557
sg1482
(dp1563
g58
I1
ssg1490
(dp1564
g58
I1
ssg1484
(dp1565
g58
I2
ssg1494
(dp1566
g58
I3
sssg1482
(dp1567
g1460
g1511
sg1480
g1520
sg1468
(dp1568
g58
I4
ssg1478
g1504
sg1472
g1563
sg1490
(dp1569
g58
I6
ssg1462
(dp1570
g58
I1
ssg1494
(dp1571
g58
I4
ssg1486
(dp1572
g58
I1
ssg1488
g1551
ssg1490
(dp1573
g1478
g1505
sg1460
g1512
sg1480
g1521
sg1464
g1531
sg1488
g1552
sg1474
g1558
sg1472
g1564
sg1482
g1569
sg1484
(dp1574
g58
I4
ssg1462
(dp1575
g58
I3
ssg1494
(dp1576
g58
I5
ssg1486
(dp1577
g58
I1
ssg1468
(dp1578
g58
I4
sssg1484
(dp1579
g1478
g1506
sg1464
g1532
sg1476
g1540
sg1488
g1553
sg1474
g1559
sg1472
g1565
sg1470
g1546
sg1490
g1574
sg1462
(dp1580
g58
I5
ssg1494
(dp1581
g58
I3
sssg1462
(dp1582
g1460
g1513
sg1464
g1533
sg1476
g1541
sg1488
g1554
sg1474
g1560
sg1480
g1522
sg1482
g1570
sg1490
g1575
sg1484
g1580
sg1494
(dp1583
g58
I1
ssg1486
(dp1584
g58
I2
ssg1468
(dp1585
g58
I1
sssg1494
(dp1586
g1478
g1507
sg1464
g1534
sg1476
g1542
sg1470
g1547
sg1468
(dp1587
g58
I3
ssg1474
g1561
sg1472
g1566
sg1482
g1571
sg1490
g1576
sg1484
g1581
sg1462
g1583
ssg1486
(dp1588
g1460
g1514
sg1468
(dp1589
g58
I1
ssg1480
g1523
sg1482
g1572
sg1490
g1577
sg1462
g1584
sg1488
g1555
ssg1468
(dp1590
g1460
g1509
sg1488
g1549
sg1478
g1501
sg1480
g1519
sg1482
g1568
sg1490
g1578
sg1462
g1585
sg1494
g1587
sg1486
g1589
sssg139
(dp1591
g141
S'()'
p1592
ssg143
g51
sg144
g1496
sbsVChina
p1593
g2
(g3
g4
Ntp1594
Rp1595
(dp1596
g8
(dp1597
VAaron
p1598
(dp1599
sVCourtney
p1600
(dp1601
sVDenise
p1602
(dp1603
sVDave
p1604
(dp1605
sVSherea
p1606
(dp1607
sVJean-Robert
p1608
(dp1609
sVAshley
p1610
(dp1611
sVJames
p1612
(dp1613
sVJaime
p1614
(dp1615
sVAmanda
p1616
(dp1617
sVFrosti
p1618
(dp1619
sVPeih-Gee
p1620
(dp1621
sVLeslie
p1622
(dp1623
sVErik
p1624
(dp1625
sVTodd
p1626
(dp1627
sVChicken
p1628
(dp1629
ssg50
g51
sg52
g51
sg53
(dp1630
g1620
(dp1631
g1618
(dp1632
g58
I3
ssg1612
(dp1633
g58
I1
ssg1626
(dp1634
g58
I1
ssg1602
(dp1635
g58
I1
ssg1604
(dp1636
g58
I1
ssg1614
(dp1637
g58
I5
ssg1624
(dp1638
g58
I8
ssg1600
(dp1639
g58
I1
ssg1606
(dp1640
g58
I3
ssg1616
(dp1641
g58
I1
ssg1608
(dp1642
g58
I1
sssg1610
(dp1643
sg1618
(dp1644
g1620
g1632
sg1612
(dp1645
g58
I2
ssg1626
(dp1646
g58
I3
ssg1602
(dp1647
g58
I2
ssg1604
(dp1648
g58
I1
ssg1614
(dp1649
g58
I3
ssg1624
(dp1650
g58
I3
ssg1600
(dp1651
g58
I2
ssg1606
(dp1652
g58
I3
ssg1616
(dp1653
g58
I3
ssg1608
(dp1654
g58
I2
sssg1612
(dp1655
g1620
g1633
sg1618
g1645
sg1608
(dp1656
g58
I2
ssg1626
(dp1657
g58
I4
ssg1602
(dp1658
g58
I3
ssg1598
(dp1659
g58
I1
ssg1624
(dp1660
g58
I1
ssg1600
(dp1661
g58
I3
ssg1616
(dp1662
g58
I4
sssg1626
(dp1663
g1620
g1634
sg1618
g1646
sg1612
g1657
sg1602
(dp1664
g58
I7
ssg1598
(dp1665
g58
I1
ssg1624
(dp1666
g58
I2
ssg1600
(dp1667
g58
I7
ssg1616
(dp1668
g58
I9
ssg1608
(dp1669
g58
I3
sssg1604
(dp1670
g1618
g1648
sg1620
g1636
sg1614
(dp1671
g58
I1
ssg1624
(dp1672
g58
I1
ssg1606
(dp1673
g58
I1
ssg1628
(dp1674
g58
I1
sssg1602
(dp1675
g1618
g1647
sg1612
g1658
sg1626
g1664
sg1620
g1635
sg1598
(dp1676
g58
I1
ssg1624
(dp1677
g58
I2
ssg1600
(dp1678
g58
I5
ssg1616
(dp1679
g58
I7
ssg1608
(dp1680
g58
I3
sssg1598
(dp1681
g1602
g1676
sg1612
g1659
sg1616
(dp1682
g58
I1
ssg1608
(dp1683
g58
I1
ssg1626
g1665
ssg1614
(dp1684
g1620
g1637
sg1606
(dp1685
g58
I3
ssg1604
g1671
sg1624
(dp1686
g58
I5
ssg1618
g1649
ssg1622
(dp1687
g1600
(dp1688
g58
I1
sssg1624
(dp1689
g1620
g1638
sg1618
g1650
sg1612
g1660
sg1626
g1666
sg1602
g1677
sg1604
g1672
sg1614
g1686
sg1600
(dp1690
g58
I2
ssg1606
(dp1691
g58
I3
ssg1616
(dp1692
g58
I2
ssg1608
(dp1693
g58
I1
sssg1600
(dp1694
g1620
g1639
sg1618
g1651
sg1612
g1661
sg1602
g1678
sg1622
g1688
sg1624
g1690
sg1626
g1667
sg1606
(dp1695
g58
I1
ssg1616
(dp1696
g58
I7
ssg1608
(dp1697
g58
I1
sssg1606
(dp1698
g1618
g1652
sg1620
g1640
sg1604
g1673
sg1614
g1685
sg1624
g1691
sg1600
g1695
ssg1628
(dp1699
g1604
g1674
ssg1616
(dp1700
g1620
g1641
sg1618
g1653
sg1612
g1662
sg1626
g1668
sg1602
g1679
sg1598
g1682
sg1624
g1692
sg1600
g1696
sg1608
(dp1701
g58
I3
sssg1608
(dp1702
g1620
g1642
sg1618
g1654
sg1612
g1656
sg1626
g1669
sg1602
g1680
sg1598
g1683
sg1624
g1693
sg1600
g1697
sg1616
g1701
sssg139
(dp1703
g141
S'()'
p1704
ssg143
g51
sg144
g1630
sbsVWorlds_Apart
p1705
g2
(g3
g4
Ntp1706
Rp1707
(dp1708
g8
(dp1709
VJoaquin
p1710
(dp1711
sVTyler
p1712
(dp1713
sVSierra
p1714
(dp1715
sVMike
p1716
(dp1717
sVMax
p1718
(dp1719
sVDan
p1720
(dp1721
sVJoe
p1722
(dp1723
sVHali
p1724
(dp1725
sVNina
p1726
(dp1727
sVLindsey
p1728
(dp1729
sVSo
p1730
(dp1731
sVKelly
p1732
(dp1733
sVRodney
p1734
(dp1735
sVWill
p1736
(dp1737
sVCarolyn
p1738
(dp1739
sVJenn
p1740
(dp1741
sVVince
p1742
(dp1743
sVShirin
p1744
(dp1745
ssg50
g51
sg52
g51
sg53
(dp1746
g1726
(dp1747
g1724
(dp1748
g58
I1
ssg1742
(dp1749
g58
I1
sssg1716
(dp1750
g1738
(dp1751
g58
I8
ssg1720
(dp1752
g58
I6
ssg1736
(dp1753
g58
I3
ssg1732
(dp1754
g58
I2
ssg1712
(dp1755
g58
I3
ssg1722
(dp1756
g58
I1
ssg1714
(dp1757
g58
I5
ssg1734
(dp1758
g58
I4
ssg1744
(dp1759
g58
I3
sssg1738
(dp1760
g1716
g1751
sg1732
(dp1761
g58
I2
ssg1718
(dp1762
g58
I3
ssg1720
(dp1763
g58
I3
ssg1736
(dp1764
g58
I7
ssg1724
(dp1765
g58
I3
ssg1710
(dp1766
g58
I2
ssg1712
(dp1767
g58
I7
ssg1722
(dp1768
g58
I3
ssg1740
(dp1769
g58
I3
ssg1714
(dp1770
g58
I4
ssg1734
(dp1771
g58
I4
ssg1744
(dp1772
g58
I4
sssg1728
(dp1773
g1714
(dp1774
g58
I2
ssg1734
(dp1775
g58
I1
sssg1724
(dp1776
g1726
g1748
sg1738
g1765
sg1718
(dp1777
g58
I2
ssg1736
(dp1778
g58
I4
ssg1710
(dp1779
g58
I2
ssg1712
(dp1780
g58
I2
ssg1722
(dp1781
g58
I4
ssg1740
(dp1782
g58
I6
ssg1732
(dp1783
g58
I1
ssg1744
(dp1784
g58
I4
sssg1718
(dp1785
g1738
g1762
sg1736
(dp1786
g58
I2
ssg1710
(dp1787
g58
I2
ssg1712
(dp1788
g58
I3
ssg1722
(dp1789
g58
I2
ssg1740
(dp1790
g58
I2
ssg1724
g1777
sg1744
(dp1791
g58
I4
sssg1720
(dp1792
g1716
g1752
sg1738
g1763
sg1736
(dp1793
g58
I4
ssg1732
(dp1794
g58
I2
ssg1712
(dp1795
g58
I3
ssg1722
(dp1796
g58
I1
ssg1714
(dp1797
g58
I8
ssg1734
(dp1798
g58
I8
ssg1744
(dp1799
g58
I1
sssg1736
(dp1800
g1716
g1753
sg1732
(dp1801
g58
I1
ssg1738
g1764
sg1718
g1786
sg1720
g1793
sg1724
g1778
sg1710
(dp1802
g58
I2
ssg1712
(dp1803
g58
I7
ssg1722
(dp1804
g58
I4
ssg1740
(dp1805
g58
I5
ssg1714
(dp1806
g58
I3
ssg1734
(dp1807
g58
I6
ssg1744
(dp1808
g58
I3
sssg1732
(dp1809
g1716
g1754
sg1738
g1761
sg1720
g1794
sg1736
g1801
sg1724
g1783
sg1712
(dp1810
g58
I1
ssg1740
(dp1811
g58
I1
ssg1714
(dp1812
g58
I1
ssg1734
(dp1813
g58
I2
sssg1710
(dp1814
g1738
g1766
sg1718
g1787
sg1736
g1802
sg1712
(dp1815
g58
I3
ssg1730
(dp1816
g58
I1
ssg1722
(dp1817
g58
I2
ssg1740
(dp1818
g58
I2
ssg1724
g1779
sg1734
(dp1819
g58
I1
ssg1744
(dp1820
g58
I2
sssg1712
(dp1821
g1716
g1755
sg1732
g1810
sg1738
g1767
sg1718
g1788
sg1720
g1795
sg1736
g1803
sg1724
g1780
sg1710
g1815
sg1722
(dp1822
g58
I3
ssg1740
(dp1823
g58
I2
ssg1714
(dp1824
g58
I2
ssg1734
(dp1825
g58
I4
ssg1744
(dp1826
g58
I4
sssg1730
(dp1827
g1710
g1816
ssg1722
(dp1828
g1716
g1756
sg1738
g1768
sg1718
g1789
sg1720
g1796
sg1736
g1804
sg1724
g1781
sg1710
g1817
sg1712
g1822
sg1740
(dp1829
g58
I5
ssg1714
(dp1830
g58
I1
ssg1744
(dp1831
g58
I4
sssg1740
(dp1832
g1738
g1769
sg1718
g1790
sg1736
g1805
sg1732
g1811
sg1710
g1818
sg1712
g1823
sg1722
g1829
sg1724
g1782
sg1744
(dp1833
g58
I4
sssg1714
(dp1834
g1716
g1757
sg1738
g1770
sg1728
g1774
sg1720
g1797
sg1736
g1806
sg1712
g1824
sg1722
g1830
sg1732
g1812
sg1734
(dp1835
g58
I8
ssg1744
(dp1836
g58
I1
sssg1734
(dp1837
g1716
g1758
sg1738
g1771
sg1728
g1775
sg1720
g1798
sg1736
g1807
sg1732
g1813
sg1710
g1819
sg1712
g1825
sg1714
g1835
sg1744
(dp1838
g58
I1
sssg1742
(dp1839
g1726
g1749
ssg1744
(dp1840
g1716
g1759
sg1738
g1772
sg1718
g1791
sg1720
g1799
sg1736
g1808
sg1724
g1784
sg1710
g1820
sg1712
g1826
sg1722
g1831
sg1740
g1833
sg1714
g1836
sg1734
g1838
sssg139
(dp1841
g141
S'()'
p1842
ssg143
g51
sg144
g1746
sbsVThailand
p1843
g2
(g3
g4
Ntp1844
Rp1845
(dp1846
g8
(dp1847
VJan
p1848
(dp1849
sVBrian
p1850
(dp1851
sVTanya
p1852
(dp1853
sVJed
p1854
(dp1855
sVJohn
p1856
(dp1857
sVRobb
p1858
(dp1859
sVKen
p1860
(dp1861
sVJake
p1862
(dp1863
sVHelen
p1864
(dp1865
sVGhandia
p1866
(dp1867
sVClay
p1868
(dp1869
sVShii Ann
p1870
(dp1871
sVStephanie
p1872
(dp1873
sVPenny
p1874
(dp1875
sVTed
p1876
(dp1877
sVErin
p1878
(dp1879
ssg50
g51
sg52
g51
sg53
(dp1880
g1878
(dp1881
g1860
(dp1882
g58
I4
ssg1870
(dp1883
g58
I3
ssg1862
(dp1884
g58
I4
ssg1874
(dp1885
g58
I4
sssg1874
(dp1886
g1878
g1885
sg1860
(dp1887
g58
I6
ssg1870
(dp1888
g58
I3
ssg1862
(dp1889
g58
I6
ssg1868
(dp1890
g58
I1
sssg1860
(dp1891
g1878
g1882
sg1870
(dp1892
g58
I3
ssg1862
(dp1893
g58
I6
ssg1874
g1887
ssg1868
(dp1894
g1874
g1890
sg1876
(dp1895
g58
I5
ssg1848
(dp1896
g58
I6
ssg1850
(dp1897
g58
I7
ssg1852
(dp1898
g58
I1
ssg1864
(dp1899
g58
I5
ssg1866
(dp1900
g58
I1
sssg1876
(dp1901
g1868
g1895
sg1848
(dp1902
g58
I5
ssg1850
(dp1903
g58
I6
ssg1852
(dp1904
g58
I1
ssg1864
(dp1905
g58
I5
ssg1866
(dp1906
g58
I1
sssg1858
(dp1907
g1872
(dp1908
g58
I2
ssg1854
(dp1909
g58
I1
sssg1848
(dp1910
g1868
g1896
sg1876
g1902
sg1850
(dp1911
g58
I7
ssg1852
(dp1912
g58
I1
ssg1864
(dp1913
g58
I5
ssg1866
(dp1914
g58
I2
sssg1850
(dp1915
g1868
g1897
sg1876
g1903
sg1848
g1911
sg1852
(dp1916
g58
I1
ssg1864
(dp1917
g58
I6
ssg1866
(dp1918
g58
I1
sssg1852
(dp1919
g1848
g1912
sg1850
g1916
sg1876
g1904
sg1866
(dp1920
g58
I2
ssg1868
g1898
ssg1862
(dp1921
g1878
g1884
sg1860
g1893
sg1870
(dp1922
g58
I3
ssg1874
g1889
ssg1854
(dp1923
g1872
(dp1924
g58
I1
ssg1858
g1909
ssg1864
(dp1925
g1848
g1913
sg1850
g1917
sg1876
g1905
sg1868
g1899
ssg1870
(dp1926
g1878
g1883
sg1860
g1892
sg1862
g1922
sg1874
g1888
ssg1856
(dp1927
sg1872
(dp1928
g1858
g1908
sg1854
g1924
ssg1866
(dp1929
g1848
g1914
sg1850
g1918
sg1852
g1920
sg1876
g1906
sg1868
g1900
sssg139
(dp1930
g141
S'()'
p1931
ssg143
g51
sg144
g1880
sbsVThe_Amazon
p1932
g2
(g3
g4
Ntp1933
Rp1934
(dp1935
g8
(dp1936
VButch
p1937
(dp1938
sVMatthew
p1939
(dp1940
sVDaniel
p1941
(dp1942
sVShawna
p1943
(dp1944
sVJanet
p1945
(dp1946
sVDave
p1947
(dp1948
sVChristy
p1949
(dp1950
sVDeena
p1951
(dp1952
sVJeanne
p1953
(dp1954
sVAlex
p1955
(dp1956
sVRyan
p1957
(dp1958
sVRoger
p1959
(dp1960
sVHeidi
p1961
(dp1962
sVRob
p1963
(dp1964
sVJoanna
p1965
(dp1966
sVJenna
p1967
(dp1968
ssg50
g51
sg52
g51
sg53
(dp1969
g1943
(dp1970
g1951
(dp1971
g58
I1
ssg1955
(dp1972
g58
I1
ssg1967
(dp1973
g58
I1
ssg1961
(dp1974
g58
I1
ssg1953
(dp1975
g58
I1
sssg1937
(dp1976
g1955
(dp1977
g58
I4
ssg1963
(dp1978
g58
I6
ssg1939
(dp1979
g58
I5
ssg1947
(dp1980
g58
I3
ssg1959
(dp1981
g58
I4
ssg1961
(dp1982
g58
I3
ssg1949
(dp1983
g58
I3
ssg1951
(dp1984
g58
I1
ssg1967
(dp1985
g58
I2
sssg1955
(dp1986
g1943
g1972
sg1937
g1977
sg1963
(dp1987
g58
I5
ssg1939
(dp1988
g58
I4
ssg1947
(dp1989
g58
I1
ssg1959
(dp1990
g58
I2
ssg1961
(dp1991
g58
I4
ssg1949
(dp1992
g58
I2
ssg1951
(dp1993
g58
I2
ssg1967
(dp1994
g58
I4
sssg1945
(dp1995
sg1963
(dp1996
g1937
g1978
sg1955
g1987
sg1939
(dp1997
g58
I9
ssg1947
(dp1998
g58
I1
ssg1959
(dp1999
g58
I2
ssg1961
(dp2000
g58
I4
ssg1949
(dp2001
g58
I3
ssg1951
(dp2002
g58
I3
ssg1967
(dp2003
g58
I6
sssg1957
(dp2004
g1939
(dp2005
g58
I1
ssg1941
(dp2006
g58
I1
sssg1939
(dp2007
g1937
g1979
sg1955
g1988
sg1963
g1997
sg1957
g2005
sg1947
(dp2008
g58
I1
ssg1941
(dp2009
g58
I1
ssg1959
(dp2010
g58
I1
ssg1961
(dp2011
g58
I4
ssg1949
(dp2012
g58
I3
ssg1951
(dp2013
g58
I3
ssg1967
(dp2014
g58
I6
sssg1947
(dp2015
g1937
g1980
sg1955
g1989
sg1963
g1998
sg1939
g2008
sg1959
(dp2016
g58
I3
ssg1961
(dp2017
g58
I1
sssg1941
(dp2018
g1939
g2009
sg1957
g2006
ssg1959
(dp2019
g1937
g1981
sg1955
g1990
sg1963
g1999
sg1939
g2010
sg1947
g2016
sg1961
(dp2020
g58
I1
sssg1965
(dp2021
g1953
(dp2022
g58
I1
sssg1961
(dp2023
g1943
g1974
sg1937
g1982
sg1955
g1991
sg1963
g2000
sg1939
g2011
sg1947
g2017
sg1959
g2020
sg1949
(dp2024
g58
I3
ssg1951
(dp2025
g58
I4
ssg1967
(dp2026
g58
I8
ssg1953
(dp2027
g58
I1
sssg1949
(dp2028
g1937
g1983
sg1955
g1992
sg1963
g2001
sg1939
g2012
sg1961
g2024
sg1951
(dp2029
g58
I4
ssg1967
(dp2030
g58
I3
ssg1953
(dp2031
g58
I1
sssg1951
(dp2032
g1943
g1971
sg1937
g1984
sg1955
g1993
sg1963
g2002
sg1939
g2013
sg1961
g2025
sg1949
g2029
sg1967
(dp2033
g58
I5
ssg1953
(dp2034
g58
I1
sssg1967
(dp2035
g1943
g1973
sg1937
g1985
sg1955
g1994
sg1963
g2003
sg1939
g2014
sg1961
g2026
sg1949
g2030
sg1951
g2033
sg1953
(dp2036
g58
I1
sssg1953
(dp2037
g1943
g1975
sg1965
g2022
sg1961
g2027
sg1949
g2031
sg1951
g2034
sg1967
g2036
sssg139
(dp2038
g141
S'()'
p2039
ssg143
g51
sg144
g1969
sbsVCagayan
p2040
g2
(g3
g4
Ntp2041
Rp2042
(dp2043
g8
(dp2044
VSarah
p2045
(dp2046
sVTrish
p2047
(dp2048
sVGarrett
p2049
(dp2050
sVWoo
p2051
(dp2052
sVBrice
p2053
(dp2054
sVJ'Tia
p2055
(dp2056
sVJeremiah
p2057
(dp2058
sVTasha
p2059
(dp2060
sVLJ
p2061
(dp2062
sVKass
p2063
(dp2064
sVCliff
p2065
(dp2066
sVJefra
p2067
(dp2068
sVAlexis
p2069
(dp2070
sVDavid
p2071
(dp2072
sVLindsey
p2073
(dp2074
sVMorgan
p2075
(dp2076
sVSpencer
p2077
(dp2078
sVTony
p2079
(dp2080
ssg50
g51
sg52
g51
sg53
(dp2081
g2045
(dp2082
g2059
(dp2083
g58
I2
ssg2075
(dp2084
g58
I2
ssg2077
(dp2085
g58
I2
ssg2063
(dp2086
g58
I1
ssg2057
(dp2087
g58
I2
sssg2067
(dp2088
g2047
(dp2089
g58
I8
ssg2057
(dp2090
g58
I1
ssg2061
(dp2091
g58
I6
ssg2063
(dp2092
g58
I5
ssg2051
(dp2093
g58
I5
ssg2069
(dp2094
g58
I1
ssg2079
(dp2095
g58
I6
sssg2047
(dp2096
g2079
(dp2097
g58
I7
ssg2067
g2089
sg2051
(dp2098
g58
I6
ssg2061
(dp2099
g58
I5
ssg2063
(dp2100
g58
I6
sssg2057
(dp2101
g2045
g2087
sg2067
g2090
sg2059
(dp2102
g58
I5
ssg2061
(dp2103
g58
I2
ssg2063
(dp2104
g58
I1
ssg2051
(dp2105
g58
I1
ssg2075
(dp2106
g58
I3
ssg2079
(dp2107
g58
I1
ssg2077
(dp2108
g58
I5
sssg2059
(dp2109
g2045
g2083
sg2057
g2102
sg2049
(dp2110
g58
I1
ssg2063
(dp2111
g58
I3
ssg2055
(dp2112
g58
I2
ssg2051
(dp2113
g58
I2
ssg2075
(dp2114
g58
I3
ssg2079
(dp2115
g58
I2
ssg2077
(dp2116
g58
I8
sssg2049
(dp2117
g2059
g2110
sg2055
(dp2118
g58
I1
ssg2077
(dp2119
g58
I2
sssg2061
(dp2120
g2067
g2091
sg2047
g2099
sg2057
g2103
sg2063
(dp2121
g58
I2
ssg2051
(dp2122
g58
I4
ssg2079
(dp2123
g58
I5
sssg2063
(dp2124
g2045
g2086
sg2067
g2092
sg2047
g2100
sg2057
g2104
sg2059
g2111
sg2061
g2121
sg2071
(dp2125
g58
I1
ssg2055
(dp2126
g58
I1
ssg2051
(dp2127
g58
I6
ssg2075
(dp2128
g58
I1
ssg2079
(dp2129
g58
I6
ssg2077
(dp2130
g58
I3
sssg2071
(dp2131
g2063
g2125
ssg2055
(dp2132
g2059
g2112
sg2049
g2118
sg2077
(dp2133
g58
I1
ssg2063
g2126
ssg2051
(dp2134
g2067
g2093
sg2047
g2098
sg2057
g2105
sg2059
g2113
sg2061
g2122
sg2063
g2127
sg2073
(dp2135
g58
I1
ssg2079
(dp2136
g58
I10
ssg2077
(dp2137
g58
I3
ssg2065
(dp2138
g58
I1
sssg2073
(dp2139
g2051
g2135
sg2065
(dp2140
g58
I1
sssg2053
(dp2141
g2069
(dp2142
g58
I1
ssg2075
(dp2143
g58
I2
sssg2069
(dp2144
g2067
g2094
sg2053
g2142
sg2075
(dp2145
g58
I1
sssg2075
(dp2146
g2045
g2084
sg2057
g2106
sg2059
g2114
sg2069
g2145
sg2053
g2143
sg2063
g2128
sg2077
(dp2147
g58
I3
sssg2079
(dp2148
g2067
g2095
sg2047
g2097
sg2057
g2107
sg2059
g2115
sg2061
g2123
sg2063
g2129
sg2051
g2136
sg2077
(dp2149
g58
I3
sssg2077
(dp2150
g2045
g2085
sg2057
g2108
sg2059
g2116
sg2049
g2119
sg2063
g2130
sg2055
g2133
sg2051
g2137
sg2075
g2147
sg2079
g2149
ssg2065
(dp2151
g2051
g2138
sg2073
g2140
sssg139
(dp2152
g141
S'()'
p2153
ssg143
g51
sg144
g2081
sbsVSouth_Pacific
p2154
g2
(g3
g4
Ntp2155
Rp2156
(dp2157
g8
(dp2158
VOzzy
p2159
(dp2160
sVJim
p2161
(dp2162
sVBrandon
p2163
(dp2164
sVRick
p2165
(dp2166
sVAlbert
p2167
(dp2168
sVCochran
p2169
(dp2170
sVWhitney
p2171
(dp2172
sVKeith
p2173
(dp2174
sVChristine
p2175
(dp2176
sVSemhar
p2177
(dp2178
sVSophie
p2179
(dp2180
sVMark
p2181
(dp2182
sVStacey
p2183
(dp2184
sVCoach
p2185
(dp2186
sVEdna
p2187
(dp2188
sVElyse
p2189
(dp2190
sVMikayla
p2191
(dp2192
sVDawn
p2193
(dp2194
ssg50
g51
sg52
g51
sg53
(dp2195
g2159
(dp2196
g2187
(dp2197
g58
I1
ssg2189
(dp2198
g58
I3
ssg2161
(dp2199
g58
I5
ssg2181
(dp2200
g58
I1
ssg2169
(dp2201
g58
I4
ssg2165
(dp2202
g58
I1
ssg2193
(dp2203
g58
I6
ssg2173
(dp2204
g58
I5
ssg2171
(dp2205
g58
I5
sssg2183
(dp2206
g2175
(dp2207
g58
I1
sssg2185
(dp2208
g2187
(dp2209
g58
I8
ssg2191
(dp2210
g58
I2
ssg2167
(dp2211
g58
I12
ssg2163
(dp2212
g58
I11
ssg2169
(dp2213
g58
I5
ssg2165
(dp2214
g58
I10
ssg2179
(dp2215
g58
I12
ssg2193
(dp2216
g58
I1
ssg2171
(dp2217
g58
I1
sssg2177
(dp2218
g2175
(dp2219
g58
I1
sssg2175
(dp2220
g2189
(dp2221
g58
I1
ssg2183
g2207
sg2177
g2219
sg2191
(dp2222
g58
I1
ssg2181
(dp2223
g58
I1
sssg2187
(dp2224
g2159
g2197
sg2185
g2209
sg2191
(dp2225
g58
I1
ssg2167
(dp2226
g58
I7
ssg2163
(dp2227
g58
I8
ssg2169
(dp2228
g58
I6
ssg2165
(dp2229
g58
I8
ssg2179
(dp2230
g58
I8
ssg2193
(dp2231
g58
I1
ssg2171
(dp2232
g58
I1
sssg2189
(dp2233
g2159
g2198
sg2175
g2221
sg2161
(dp2234
g58
I1
ssg2181
(dp2235
g58
I1
ssg2169
(dp2236
g58
I2
ssg2171
(dp2237
g58
I2
ssg2193
(dp2238
g58
I2
ssg2173
(dp2239
g58
I2
sssg2191
(dp2240
g2185
g2210
sg2175
g2222
sg2187
g2225
sg2167
(dp2241
g58
I3
ssg2163
(dp2242
g58
I2
ssg2165
(dp2243
g58
I1
ssg2179
(dp2244
g58
I2
sssg2167
(dp2245
g2185
g2211
sg2187
g2226
sg2191
g2241
sg2163
(dp2246
g58
I11
ssg2169
(dp2247
g58
I5
ssg2165
(dp2248
g58
I8
ssg2179
(dp2249
g58
I12
ssg2193
(dp2250
g58
I1
ssg2171
(dp2251
g58
I1
sssg2163
(dp2252
g2185
g2212
sg2187
g2227
sg2191
g2242
sg2167
g2246
sg2169
(dp2253
g58
I5
ssg2165
(dp2254
g58
I9
ssg2179
(dp2255
g58
I9
ssg2193
(dp2256
g58
I1
ssg2171
(dp2257
g58
I1
sssg2161
(dp2258
g2159
g2199
sg2189
g2234
sg2181
(dp2259
g58
I1
ssg2169
(dp2260
g58
I4
ssg2171
(dp2261
g58
I5
ssg2193
(dp2262
g58
I6
ssg2173
(dp2263
g58
I4
sssg2169
(dp2264
g2159
g2201
sg2185
g2213
sg2187
g2228
sg2189
g2236
sg2161
g2260
sg2167
g2247
sg2163
g2253
sg2165
(dp2265
g58
I4
ssg2179
(dp2266
g58
I5
ssg2181
(dp2267
g58
I1
ssg2173
(dp2268
g58
I4
ssg2193
(dp2269
g58
I6
ssg2171
(dp2270
g58
I5
sssg2165
(dp2271
g2159
g2202
sg2185
g2214
sg2187
g2229
sg2167
g2248
sg2163
g2254
sg2169
g2265
sg2171
(dp2272
g58
I1
ssg2179
(dp2273
g58
I10
ssg2173
(dp2274
g58
I1
ssg2193
(dp2275
g58
I1
ssg2191
g2243
ssg2179
(dp2276
g2185
g2215
sg2187
g2230
sg2191
g2244
sg2167
g2249
sg2163
g2255
sg2169
g2266
sg2165
g2273
sg2193
(dp2277
g58
I1
ssg2171
(dp2278
g58
I1
sssg2181
(dp2279
g2159
g2200
sg2175
g2223
sg2189
g2235
sg2161
g2259
sg2169
g2267
sg2171
(dp2280
g58
I1
ssg2193
(dp2281
g58
I1
ssg2173
(dp2282
g58
I1
sssg2173
(dp2283
g2159
g2204
sg2189
g2239
sg2161
g2263
sg2181
g2282
sg2169
g2268
sg2165
g2274
sg2193
(dp2284
g58
I4
ssg2171
(dp2285
g58
I5
sssg2193
(dp2286
g2159
g2203
sg2185
g2216
sg2187
g2231
sg2189
g2238
sg2161
g2262
sg2167
g2250
sg2163
g2256
sg2169
g2269
sg2165
g2275
sg2179
g2277
sg2181
g2281
sg2173
g2284
sg2171
(dp2287
g58
I9
sssg2171
(dp2288
g2159
g2205
sg2185
g2217
sg2187
g2232
sg2189
g2237
sg2161
g2261
sg2167
g2251
sg2163
g2257
sg2169
g2270
sg2165
g2272
sg2179
g2278
sg2181
g2280
sg2173
g2285
sg2193
g2287
sssg139
(dp2289
g141
S'()'
p2290
ssg143
g51
sg144
g2195
sbsVOne_World
p2291
g2
(g3
g4
Ntp2292
Rp2293
(dp2294
g8
(dp2295
VMatt
p2296
(dp2297
sVJay
p2298
(dp2299
sVLeif
p2300
(dp2301
sVMonica
p2302
(dp2303
sVAlicia
p2304
(dp2305
sVTarzan
p2306
(dp2307
sVJonas
p2308
(dp2309
sVKim
p2310
(dp2311
sVKat
p2312
(dp2313
sVSabrina
p2314
(dp2315
sVChristina
p2316
(dp2317
sVColton
p2318
(dp2319
sVBill
p2320
(dp2321
sVMichael
p2322
(dp2323
sVKourtney
p2324
(dp2325
sVNina
p2326
(dp2327
sVTroyzan
p2328
(dp2329
sVChelsea
p2330
(dp2331
ssg50
g51
sg52
g51
sg53
(dp2332
g2302
(dp2333
g2316
(dp2334
g58
I1
sssg2316
(dp2335
g2302
g2334
sg2298
(dp2336
g58
I1
ssg2304
(dp2337
g58
I8
ssg2322
(dp2338
g58
I1
ssg2328
(dp2339
g58
I1
ssg2306
(dp2340
g58
I3
ssg2310
(dp2341
g58
I6
ssg2312
(dp2342
g58
I2
ssg2330
(dp2343
g58
I4
ssg2314
(dp2344
g58
I5
sssg2320
(dp2345
g2318
(dp2346
g58
I1
ssg2298
(dp2347
g58
I1
ssg2328
(dp2348
g58
I1
ssg2306
(dp2349
g58
I1
ssg2308
(dp2350
g58
I1
ssg2300
(dp2351
g58
I1
sssg2298
(dp2352
g2316
g2336
sg2320
g2347
sg2318
(dp2353
g58
I2
ssg2300
(dp2354
g58
I4
ssg2304
(dp2355
g58
I1
ssg2322
(dp2356
g58
I2
ssg2328
(dp2357
g58
I4
ssg2306
(dp2358
g58
I3
ssg2308
(dp2359
g58
I2
ssg2310
(dp2360
g58
I2
ssg2312
(dp2361
g58
I2
ssg2330
(dp2362
g58
I2
ssg2314
(dp2363
g58
I2
sssg2300
(dp2364
g2320
g2351
sg2298
g2354
sg2318
(dp2365
g58
I3
ssg2304
(dp2366
g58
I1
ssg2322
(dp2367
g58
I1
ssg2328
(dp2368
g58
I4
ssg2306
(dp2369
g58
I3
ssg2308
(dp2370
g58
I4
ssg2310
(dp2371
g58
I1
ssg2312
(dp2372
g58
I1
ssg2330
(dp2373
g58
I1
ssg2314
(dp2374
g58
I1
sssg2318
(dp2375
g2320
g2346
sg2298
g2353
sg2304
(dp2376
g58
I1
ssg2322
(dp2377
g58
I1
ssg2328
(dp2378
g58
I2
ssg2306
(dp2379
g58
I3
ssg2308
(dp2380
g58
I3
ssg2300
g2365
ssg2304
(dp2381
g2316
g2337
sg2298
g2355
sg2300
g2366
sg2318
g2376
sg2322
(dp2382
g58
I1
ssg2328
(dp2383
g58
I1
ssg2306
(dp2384
g58
I4
ssg2308
(dp2385
g58
I1
ssg2310
(dp2386
g58
I7
ssg2312
(dp2387
g58
I3
ssg2330
(dp2388
g58
I5
ssg2314
(dp2389
g58
I5
sssg2322
(dp2390
g2316
g2338
sg2298
g2356
sg2300
g2367
sg2318
g2377
sg2304
g2382
sg2328
(dp2391
g58
I2
ssg2306
(dp2392
g58
I3
ssg2308
(dp2393
g58
I1
ssg2310
(dp2394
g58
I1
ssg2312
(dp2395
g58
I1
ssg2330
(dp2396
g58
I1
ssg2314
(dp2397
g58
I1
sssg2328
(dp2398
g2316
g2339
sg2320
g2348
sg2298
g2357
sg2300
g2368
sg2318
g2378
sg2304
g2383
sg2322
g2391
sg2306
(dp2399
g58
I4
ssg2308
(dp2400
g58
I2
ssg2310
(dp2401
g58
I2
ssg2312
(dp2402
g58
I2
ssg2330
(dp2403
g58
I2
ssg2314
(dp2404
g58
I3
sssg2324
(dp2405
sg2326
(dp2406
sg2306
(dp2407
g2316
g2340
sg2320
g2349
sg2298
g2358
sg2300
g2369
sg2318
g2379
sg2304
g2384
sg2322
g2392
sg2328
g2399
sg2308
(dp2408
g58
I3
ssg2310
(dp2409
g58
I3
ssg2312
(dp2410
g58
I2
ssg2330
(dp2411
g58
I3
ssg2314
(dp2412
g58
I5
sssg2308
(dp2413
g2320
g2350
sg2298
g2359
sg2318
g2380
sg2304
g2385
sg2322
g2393
sg2328
g2400
sg2306
g2408
sg2300
g2370
ssg2310
(dp2414
g2316
g2341
sg2298
g2360
sg2300
g2371
sg2304
g2386
sg2322
g2394
sg2328
g2401
sg2306
g2409
sg2312
(dp2415
g58
I4
ssg2330
(dp2416
g58
I8
ssg2314
(dp2417
g58
I8
sssg2312
(dp2418
g2316
g2342
sg2298
g2361
sg2300
g2372
sg2304
g2387
sg2322
g2395
sg2328
g2402
sg2306
g2410
sg2310
g2415
sg2330
(dp2419
g58
I6
ssg2314
(dp2420
g58
I4
sssg2296
(dp2421
sg2330
(dp2422
g2316
g2343
sg2298
g2362
sg2304
g2388
sg2322
g2396
sg2328
g2403
sg2306
g2411
sg2310
g2416
sg2312
g2419
sg2300
g2373
sg2314
(dp2423
g58
I8
sssg2314
(dp2424
g2316
g2344
sg2298
g2363
sg2300
g2374
sg2304
g2389
sg2322
g2397
sg2328
g2404
sg2306
g2412
sg2310
g2417
sg2312
g2420
sg2330
g2423
sssg139
(dp2425
g141
S'()'
p2426
ssg143
g51
sg144
g2332
sbsVPhilippines
p2427
g2
(g3
g4
Ntp2428
Rp2429
(dp2430
g8
(dp2431
VPete
p2432
(dp2433
sVRussell
p2434
(dp2435
sVZane
p2436
(dp2437
sVR.C.
p2438
(dp2439
sVRoxanne
p2440
(dp2441
sVJonathan
p2442
(dp2443
sVArtis
p2444
(dp2445
sVAbi-Maria
p2446
(dp2447
sVMichael
p2448
(dp2449
sVLisa
p2450
(dp2451
sVDana
p2452
(dp2453
sVCarter
p2454
(dp2455
sVJeff
p2456
(dp2457
sVMalcolm
p2458
(dp2459
sVDenise
p2460
(dp2461
sVDawson
p2462
(dp2463
sVAngie
p2464
(dp2465
sVKatie
p2466
(dp2467
ssg50
g51
sg52
g51
sg53
(dp2468
g2432
(dp2469
g2444
(dp2470
g58
I3
ssg2454
(dp2471
g58
I1
ssg2456
(dp2472
g58
I1
ssg2448
(dp2473
g58
I1
ssg2450
(dp2474
g58
I2
ssg2446
(dp2475
g58
I3
sssg2444
(dp2476
g2432
g2470
sg2454
(dp2477
g58
I1
ssg2456
(dp2478
g58
I1
ssg2448
(dp2479
g58
I1
ssg2450
(dp2480
g58
I2
ssg2446
(dp2481
g58
I2
sssg2464
(dp2482
g2460
(dp2483
g58
I2
ssg2458
(dp2484
g58
I2
ssg2434
(dp2485
g58
I2
ssg2440
(dp2486
g58
I1
sssg2454
(dp2487
g2432
g2471
sg2444
g2477
sg2456
(dp2488
g58
I4
ssg2458
(dp2489
g58
I3
ssg2448
(dp2490
g58
I1
ssg2460
(dp2491
g58
I4
ssg2446
(dp2492
g58
I1
ssg2442
(dp2493
g58
I5
ssg2466
(dp2494
g58
I1
sssg2456
(dp2495
g2432
g2472
sg2444
g2478
sg2454
g2488
sg2458
(dp2496
g58
I1
ssg2460
(dp2497
g58
I3
ssg2442
(dp2498
g58
I2
ssg2466
(dp2499
g58
I1
sssg2436
(dp2500
sg2458
(dp2501
g2464
g2484
sg2454
g2489
sg2456
g2496
sg2448
(dp2502
g58
I5
ssg2460
(dp2503
g58
I10
ssg2440
(dp2504
g58
I1
ssg2450
(dp2505
g58
I4
ssg2446
(dp2506
g58
I2
ssg2442
(dp2507
g58
I2
ssg2434
(dp2508
g58
I3
sssg2438
(dp2509
g2442
(dp2510
g58
I1
sssg2448
(dp2511
g2432
g2473
sg2444
g2479
sg2454
g2490
sg2458
g2502
sg2460
(dp2512
g58
I7
ssg2450
(dp2513
g58
I7
ssg2446
(dp2514
g58
I3
ssg2442
(dp2515
g58
I1
sssg2460
(dp2516
g2464
g2483
sg2454
g2491
sg2456
g2497
sg2458
g2503
sg2448
g2512
sg2440
(dp2517
g58
I1
ssg2450
(dp2518
g58
I6
ssg2446
(dp2519
g58
I2
ssg2442
(dp2520
g58
I3
ssg2434
(dp2521
g58
I3
ssg2466
(dp2522
g58
I1
sssg2452
(dp2523
sg2440
(dp2524
g2460
g2517
sg2458
g2504
sg2464
g2486
sg2434
(dp2525
g58
I1
sssg2450
(dp2526
g2432
g2474
sg2444
g2480
sg2458
g2505
sg2448
g2513
sg2460
g2518
sg2446
(dp2527
g58
I4
sssg2446
(dp2528
g2432
g2475
sg2444
g2481
sg2454
g2492
sg2458
g2506
sg2448
g2514
sg2460
g2519
sg2450
g2527
sg2442
(dp2529
g58
I1
sssg2442
(dp2530
g2454
g2493
sg2456
g2498
sg2458
g2507
sg2438
g2510
sg2448
g2515
sg2460
g2520
sg2446
g2529
sg2466
(dp2531
g58
I1
sssg2462
(dp2532
sg2434
(dp2533
g2460
g2521
sg2458
g2508
sg2464
g2485
sg2440
g2525
ssg2466
(dp2534
g2460
g2522
sg2442
g2531
sg2454
g2494
sg2456
g2499
sssg139
(dp2535
g141
S'()'
p2536
ssg143
g51
sg144
g2468
sbsVCaramoan
p2537
g2
(g3
g4
Ntp2538
Rp2539
(dp2540
g8
(dp2541
V Shamar
p2542
(dp2543
sV Andrea
p2544
(dp2545
sV Cochran
p2546
(dp2547
sV Reynold
p2548
(dp2549
sV Michael
p2550
(dp2551
sV Phillip
p2552
(dp2553
sV Corinne
p2554
(dp2555
sV Malcolm
p2556
(dp2557
sV Brenda
p2558
(dp2559
sV Julia
p2560
(dp2561
sV Eddie
p2562
(dp2563
sV Laura
p2564
(dp2565
sV Erik
p2566
(dp2567
sV Francesca
p2568
(dp2569
sV Dawn
p2570
(dp2571
sV Allie
p2572
(dp2573
sV Brandon
p2574
(dp2575
sV Matt
p2576
(dp2577
sV Sherri
p2578
(dp2579
sV Hope
p2580
(dp2581
ssg50
g51
sg52
g51
sg53
(dp2582
g2574
(dp2583
g2568
(dp2584
g58
I1
ssg2566
(dp2585
g58
I1
ssg2558
(dp2586
g58
I1
sssg2580
(dp2587
g2562
(dp2588
g58
I3
ssg2572
(dp2589
g58
I1
ssg2548
(dp2590
g58
I2
ssg2542
(dp2591
g58
I1
sssg2550
(dp2592
g2576
(dp2593
g58
I5
ssg2548
(dp2594
g58
I3
ssg2578
(dp2595
g58
I3
ssg2542
(dp2596
g58
I2
ssg2560
(dp2597
g58
I4
ssg2562
(dp2598
g58
I3
ssg2564
(dp2599
g58
I2
ssg2570
(dp2600
g58
I1
ssg2554
(dp2601
g58
I2
ssg2556
(dp2602
g58
I1
sssg2556
(dp2603
g2550
g2602
sg2548
(dp2604
g58
I4
ssg2552
(dp2605
g58
I2
ssg2558
(dp2606
g58
I1
ssg2562
(dp2607
g58
I3
ssg2566
(dp2608
g58
I2
ssg2554
(dp2609
g58
I3
ssg2544
(dp2610
g58
I3
ssg2570
(dp2611
g58
I2
ssg2546
(dp2612
g58
I2
sssg2552
(dp2613
g2556
g2605
sg2558
(dp2614
g58
I3
ssg2578
(dp2615
g58
I2
ssg2560
(dp2616
g58
I1
ssg2566
(dp2617
g58
I3
ssg2554
(dp2618
g58
I4
ssg2544
(dp2619
g58
I4
ssg2570
(dp2620
g58
I6
ssg2546
(dp2621
g58
I8
sssg2558
(dp2622
g2574
g2586
sg2556
g2606
sg2552
g2614
sg2578
(dp2623
g58
I7
ssg2562
(dp2624
g58
I1
ssg2566
(dp2625
g58
I7
ssg2554
(dp2626
g58
I1
ssg2544
(dp2627
g58
I5
ssg2570
(dp2628
g58
I7
ssg2568
(dp2629
g58
I1
ssg2546
(dp2630
g58
I4
sssg2578
(dp2631
g2550
g2595
sg2548
(dp2632
g58
I1
ssg2552
g2615
sg2558
g2623
sg2560
(dp2633
g58
I4
ssg2564
(dp2634
g58
I3
ssg2562
(dp2635
g58
I2
ssg2576
(dp2636
g58
I3
ssg2566
(dp2637
g58
I4
ssg2544
(dp2638
g58
I4
ssg2570
(dp2639
g58
I8
ssg2546
(dp2640
g58
I5
ssg2542
(dp2641
g58
I1
sssg2568
(dp2642
g2574
g2584
sg2566
(dp2643
g58
I1
ssg2558
g2629
ssg2542
(dp2644
g2550
g2596
sg2578
g2641
sg2560
(dp2645
g58
I1
ssg2562
(dp2646
g58
I1
ssg2564
(dp2647
g58
I1
ssg2580
g2591
sg2576
(dp2648
g58
I2
sssg2560
(dp2649
g2550
g2597
sg2548
(dp2650
g58
I1
ssg2552
g2616
sg2578
g2633
sg2564
(dp2651
g58
I3
ssg2562
(dp2652
g58
I1
ssg2576
(dp2653
g58
I3
ssg2546
(dp2654
g58
I1
ssg2542
g2645
ssg2564
(dp2655
g2578
g2634
sg2550
g2599
sg2542
g2647
sg2560
g2651
sg2576
(dp2656
g58
I2
sssg2562
(dp2657
g2580
g2588
sg2550
g2598
sg2548
(dp2658
g58
I7
ssg2558
g2624
sg2578
g2635
sg2542
g2646
sg2560
g2652
sg2576
(dp2659
g58
I1
ssg2566
(dp2660
g58
I2
ssg2554
(dp2661
g58
I1
ssg2544
(dp2662
g58
I1
ssg2570
(dp2663
g58
I1
ssg2572
(dp2664
g58
I1
ssg2546
(dp2665
g58
I1
ssg2556
g2607
ssg2576
(dp2666
g2550
g2593
sg2548
(dp2667
g58
I1
ssg2578
g2636
sg2560
g2653
sg2562
g2659
sg2564
g2656
sg2542
g2648
ssg2566
(dp2668
g2574
g2585
sg2548
(dp2669
g58
I1
ssg2552
g2617
sg2558
g2625
sg2578
g2637
sg2562
g2660
sg2554
(dp2670
g58
I1
ssg2544
(dp2671
g58
I4
ssg2570
(dp2672
g58
I4
ssg2568
g2643
sg2546
(dp2673
g58
I6
ssg2556
g2608
ssg2554
(dp2674
g2550
g2601
sg2548
(dp2675
g58
I1
ssg2552
g2618
sg2558
g2626
sg2562
g2661
sg2566
g2670
sg2544
(dp2676
g58
I2
ssg2570
(dp2677
g58
I5
ssg2546
(dp2678
g58
I4
ssg2556
g2609
ssg2544
(dp2679
g2548
(dp2680
g58
I1
ssg2552
g2619
sg2558
g2627
sg2578
g2638
sg2562
g2662
sg2566
g2671
sg2554
g2676
sg2570
(dp2681
g58
I6
ssg2546
(dp2682
g58
I5
ssg2556
g2610
ssg2570
(dp2683
g2550
g2600
sg2556
g2611
sg2552
g2620
sg2558
g2628
sg2578
g2639
sg2562
g2663
sg2566
g2672
sg2554
g2677
sg2544
g2681
sg2546
(dp2684
g58
I10
sssg2572
(dp2685
g2562
g2664
sg2548
(dp2686
g58
I1
ssg2580
g2589
ssg2546
(dp2687
g2556
g2612
sg2552
g2621
sg2558
g2630
sg2578
g2640
sg2560
g2654
sg2562
g2665
sg2566
g2673
sg2544
g2682
sg2570
g2684
sg2554
g2678
ssg2548
(dp2688
g2550
g2594
sg2556
g2604
sg2578
g2632
sg2560
g2650
sg2562
g2658
sg2576
g2667
sg2566
g2669
sg2544
g2680
sg2572
g2686
sg2554
g2675
sg2580
g2590
sssg139
(dp2689
g141
S'()'
p2690
ssg143
g51
sg144
g2582
sbsVGabon
p2691
g2
(g3
g4
Ntp2692
Rp2693
(dp2694
g8
(dp2695
VMichelle
p2696
(dp2697
sVSugar
p2698
(dp2699
sVRandy
p2700
(dp2701
sVPaloma
p2702
(dp2703
sVKen
p2704
(dp2705
sVSusie
p2706
(dp2707
sVDan
p2708
(dp2709
sVG.C.
p2710
(dp2711
sVMarcus
p2712
(dp2713
sVAce
p2714
(dp2715
sVCharlie
p2716
(dp2717
sVCrystal
p2718
(dp2719
sVKelly
p2720
(dp2721
sVBob
p2722
(dp2723
sVGillian
p2724
(dp2725
sVCorinne
p2726
(dp2727
sVMatty
p2728
(dp2729
sVJacquie
p2730
(dp2731
ssg50
g51
sg52
g51
sg53
(dp2732
g2704
(dp2733
g2724
(dp2734
g58
I1
ssg2706
(dp2735
g58
I5
ssg2714
(dp2736
g58
I2
ssg2726
(dp2737
g58
I1
ssg2708
(dp2738
g58
I2
ssg2728
(dp2739
g58
I7
ssg2698
(dp2740
g58
I5
ssg2718
(dp2741
g58
I10
ssg2700
(dp2742
g58
I2
ssg2720
(dp2743
g58
I2
ssg2722
(dp2744
g58
I1
ssg2710
(dp2745
g58
I3
sssg2724
(dp2746
g2704
g2734
sg2706
(dp2747
g58
I1
ssg2708
(dp2748
g58
I1
ssg2728
(dp2749
g58
I1
ssg2718
(dp2750
g58
I1
ssg2700
(dp2751
g58
I1
ssg2710
(dp2752
g58
I1
sssg2706
(dp2753
g2704
g2735
sg2724
g2747
sg2718
(dp2754
g58
I6
ssg2716
(dp2755
g58
I1
ssg2708
(dp2756
g58
I2
ssg2728
(dp2757
g58
I8
ssg2698
(dp2758
g58
I5
ssg2726
(dp2759
g58
I1
ssg2700
(dp2760
g58
I2
ssg2722
(dp2761
g58
I3
ssg2710
(dp2762
g58
I2
sssg2714
(dp2763
g2704
g2736
sg2718
(dp2764
g58
I2
ssg2716
(dp2765
g58
I1
ssg2728
(dp2766
g58
I3
ssg2698
(dp2767
g58
I3
ssg2726
(dp2768
g58
I1
ssg2712
(dp2769
g58
I1
ssg2720
(dp2770
g58
I1
ssg2722
(dp2771
g58
I1
ssg2730
(dp2772
g58
I2
sssg2712
(dp2773
g2714
g2769
sg2716
(dp2774
g58
I1
ssg2708
(dp2775
g58
I1
ssg2698
(dp2776
g58
I1
ssg2726
(dp2777
g58
I1
ssg2700
(dp2778
g58
I1
ssg2722
(dp2779
g58
I2
ssg2730
(dp2780
g58
I1
sssg2716
(dp2781
g2712
g2774
sg2706
g2755
sg2714
g2765
sg2698
(dp2782
g58
I1
ssg2726
(dp2783
g58
I3
ssg2700
(dp2784
g58
I1
ssg2722
(dp2785
g58
I3
ssg2730
(dp2786
g58
I1
sssg2708
(dp2787
g2704
g2738
sg2724
g2748
sg2706
g2756
sg2712
g2775
sg2728
(dp2788
g58
I2
ssg2718
(dp2789
g58
I2
ssg2700
(dp2790
g58
I3
ssg2710
(dp2791
g58
I2
sssg2718
(dp2792
g2704
g2741
sg2724
g2750
sg2706
g2754
sg2714
g2764
sg2708
g2789
sg2728
(dp2793
g58
I8
ssg2698
(dp2794
g58
I6
ssg2700
(dp2795
g58
I2
ssg2720
(dp2796
g58
I2
ssg2710
(dp2797
g58
I3
sssg2728
(dp2798
g2704
g2739
sg2724
g2749
sg2706
g2757
sg2714
g2766
sg2708
g2788
sg2698
(dp2799
g58
I7
ssg2718
g2793
sg2700
(dp2800
g58
I2
ssg2720
(dp2801
g58
I2
ssg2722
(dp2802
g58
I2
ssg2710
(dp2803
g58
I3
sssg2698
(dp2804
g2704
g2740
sg2706
g2758
sg2714
g2767
sg2718
g2794
sg2716
g2782
sg2728
g2799
sg2726
(dp2805
g58
I1
ssg2712
g2776
sg2720
(dp2806
g58
I1
ssg2722
(dp2807
g58
I4
ssg2730
(dp2808
g58
I1
sssg2726
(dp2809
g2704
g2737
sg2706
g2759
sg2714
g2768
sg2712
g2777
sg2716
g2783
sg2698
g2805
sg2700
(dp2810
g58
I2
ssg2722
(dp2811
g58
I5
ssg2730
(dp2812
g58
I1
sssg2700
(dp2813
g2704
g2742
sg2724
g2751
sg2706
g2760
sg2718
g2795
sg2716
g2784
sg2708
g2790
sg2728
g2800
sg2726
g2810
sg2712
g2778
sg2722
(dp2814
g58
I2
ssg2710
(dp2815
g58
I2
sssg2696
(dp2816
sg2702
(dp2817
g2720
(dp2818
g58
I1
sssg2720
(dp2819
g2704
g2743
sg2714
g2770
sg2728
g2801
sg2698
g2806
sg2718
g2796
sg2702
g2818
sg2710
(dp2820
g58
I1
sssg2722
(dp2821
g2704
g2744
sg2706
g2761
sg2714
g2771
sg2712
g2779
sg2716
g2785
sg2728
g2802
sg2698
g2807
sg2726
g2811
sg2700
g2814
sg2730
(dp2822
g58
I1
sssg2710
(dp2823
g2704
g2745
sg2724
g2752
sg2706
g2762
sg2708
g2791
sg2728
g2803
sg2718
g2797
sg2700
g2815
sg2720
g2820
ssg2730
(dp2824
g2712
g2780
sg2714
g2772
sg2716
g2786
sg2698
g2808
sg2726
g2812
sg2722
g2822
sssg139
(dp2825
g141
S'()'
p2826
ssg143
g51
sg144
g2732
sbsVMicronesia
p2827
g2
(g3
g4
Ntp2828
Rp2829
(dp2830
g8
(dp2831
VOzzy
p2832
(dp2833
sVParvati
p2834
(dp2835
sVEliza
p2836
(dp2837
sVJonathan
p2838
(dp2839
sVMary
p2840
(dp2841
sVAmi
p2842
(dp2843
sVMikey B.
p2844
(dp2845
sVTracy
p2846
(dp2847
sVJon
p2848
(dp2849
sVKathy
p2850
(dp2851
sVNatalie
p2852
(dp2853
sVJames
p2854
(dp2855
sVJoel
p2856
(dp2857
sVAlexis
p2858
(dp2859
sVAmanda
p2860
(dp2861
sVChet
p2862
(dp2863
sVJason
p2864
(dp2865
sVYau-Man
p2866
(dp2867
sVErik
p2868
(dp2869
sVCirie
p2870
(dp2871
ssg50
g51
sg52
g51
sg53
(dp2872
g2832
(dp2873
g2842
(dp2874
g58
I4
ssg2862
(dp2875
g58
I1
ssg2852
(dp2876
g58
I1
ssg2834
(dp2877
g58
I3
ssg2866
(dp2878
g58
I1
ssg2854
(dp2879
g58
I4
ssg2836
(dp2880
g58
I2
ssg2858
(dp2881
g58
I1
ssg2868
(dp2882
g58
I5
ssg2846
(dp2883
g58
I1
ssg2838
(dp2884
g58
I1
ssg2860
(dp2885
g58
I8
ssg2870
(dp2886
g58
I7
sssg2842
(dp2887
g2832
g2874
sg2862
(dp2888
g58
I1
ssg2834
(dp2889
g58
I1
ssg2866
(dp2890
g58
I1
ssg2854
(dp2891
g58
I1
ssg2836
(dp2892
g58
I1
ssg2868
(dp2893
g58
I2
ssg2846
(dp2894
g58
I1
ssg2838
(dp2895
g58
I1
ssg2860
(dp2896
g58
I4
ssg2870
(dp2897
g58
I4
sssg2862
(dp2898
g2832
g2875
sg2842
g2888
sg2852
(dp2899
g58
I2
ssg2850
(dp2900
g58
I2
ssg2856
(dp2901
g58
I1
ssg2858
(dp2902
g58
I1
ssg2868
(dp2903
g58
I2
ssg2846
(dp2904
g58
I4
ssg2860
(dp2905
g58
I1
ssg2870
(dp2906
g58
I1
sssg2852
(dp2907
g2832
g2876
sg2850
(dp2908
g58
I2
ssg2862
g2899
sg2834
(dp2909
g58
I3
ssg2854
(dp2910
g58
I1
ssg2856
(dp2911
g58
I1
ssg2858
(dp2912
g58
I5
ssg2868
(dp2913
g58
I4
ssg2864
(dp2914
g58
I2
ssg2846
(dp2915
g58
I2
ssg2860
(dp2916
g58
I2
ssg2870
(dp2917
g58
I4
sssg2834
(dp2918
g2832
g2877
sg2842
g2889
sg2852
g2909
sg2864
(dp2919
g58
I1
ssg2866
(dp2920
g58
I1
ssg2854
(dp2921
g58
I3
ssg2836
(dp2922
g58
I2
ssg2858
(dp2923
g58
I2
ssg2868
(dp2924
g58
I2
ssg2838
(dp2925
g58
I1
ssg2860
(dp2926
g58
I7
ssg2870
(dp2927
g58
I7
sssg2844
(dp2928
g2864
(dp2929
g58
I2
ssg2858
(dp2930
g58
I1
sssg2866
(dp2931
g2832
g2878
sg2842
g2890
sg2834
g2920
sg2854
(dp2932
g58
I1
ssg2836
(dp2933
g58
I1
ssg2838
(dp2934
g58
I2
ssg2860
(dp2935
g58
I1
ssg2870
(dp2936
g58
I1
sssg2854
(dp2937
g2832
g2879
sg2842
g2891
sg2852
g2910
sg2834
g2921
sg2866
g2932
sg2836
(dp2938
g58
I2
ssg2858
(dp2939
g58
I1
ssg2868
(dp2940
g58
I2
ssg2838
(dp2941
g58
I1
ssg2860
(dp2942
g58
I4
ssg2870
(dp2943
g58
I3
sssg2836
(dp2944
g2832
g2880
sg2842
g2892
sg2834
g2922
sg2866
g2933
sg2854
g2938
sg2864
(dp2945
g58
I1
ssg2838
(dp2946
g58
I1
ssg2860
(dp2947
g58
I2
ssg2870
(dp2948
g58
I2
sssg2840
(dp2949
g2856
(dp2950
g58
I1
sssg2858
(dp2951
g2832
g2881
sg2850
(dp2952
g58
I1
ssg2862
g2902
sg2852
g2912
sg2834
g2923
sg2844
g2930
sg2854
g2939
sg2868
(dp2953
g58
I3
ssg2864
(dp2954
g58
I3
ssg2846
(dp2955
g58
I1
ssg2860
(dp2956
g58
I1
ssg2870
(dp2957
g58
I3
sssg2856
(dp2958
g2850
(dp2959
g58
I1
ssg2862
g2901
sg2852
g2911
sg2868
(dp2960
g58
I2
ssg2846
(dp2961
g58
I1
ssg2840
g2950
ssg2868
(dp2962
g2832
g2882
sg2842
g2893
sg2862
g2903
sg2852
g2913
sg2834
g2924
sg2850
(dp2963
g58
I2
ssg2854
g2940
sg2856
g2960
sg2858
g2953
sg2846
(dp2964
g58
I2
ssg2860
(dp2965
g58
I6
ssg2870
(dp2966
g58
I6
sssg2864
(dp2967
g2852
g2914
sg2834
g2919
sg2844
g2929
sg2836
g2945
sg2858
g2954
sg2870
(dp2968
g58
I1
sssg2846
(dp2969
g2832
g2883
sg2842
g2894
sg2862
g2904
sg2852
g2915
sg2850
(dp2970
g58
I2
ssg2856
g2961
sg2858
g2955
sg2868
g2964
sg2860
(dp2971
g58
I1
ssg2870
(dp2972
g58
I1
sssg2838
(dp2973
g2832
g2884
sg2842
g2895
sg2834
g2925
sg2866
g2934
sg2854
g2941
sg2836
g2946
sg2860
(dp2974
g58
I1
ssg2870
(dp2975
g58
I1
sssg2860
(dp2976
g2832
g2885
sg2842
g2896
sg2862
g2905
sg2852
g2916
sg2834
g2926
sg2866
g2935
sg2854
g2942
sg2836
g2947
sg2858
g2956
sg2868
g2965
sg2846
g2971
sg2838
g2974
sg2870
(dp2977
g58
I10
sssg2870
(dp2978
g2832
g2886
sg2842
g2897
sg2862
g2906
sg2852
g2917
sg2834
g2927
sg2866
g2936
sg2854
g2943
sg2836
g2948
sg2858
g2957
sg2868
g2966
sg2864
g2968
sg2846
g2972
sg2838
g2975
sg2860
g2977
ssg2848
(dp2979
sg2850
(dp2980
g2862
g2900
sg2852
g2908
sg2856
g2959
sg2858
g2952
sg2868
g2963
sg2846
g2970
sssg139
(dp2981
g141
S'()'
p2982
ssg143
g51
sg144
g2872
sbsVSamoa
p2983
g2
(g3
g4
Ntp2984
Rp2985
(dp2986
g8
(dp2987
VRussell S.
p2988
(dp2989
sVRussell H.
p2990
(dp2991
sVBetsy
p2992
(dp2993
sVBen
p2994
(dp2995
sVJohn
p2996
(dp2997
sVLiz
p2998
(dp2999
sVMarisa
p3000
(dp3001
sVMonica
p3002
(dp3003
sVMike
p3004
(dp3005
sVBrett
p3006
(dp3007
sVJaison
p3008
(dp3009
sVDave
p3010
(dp3011
sVMick
p3012
(dp3013
sVNatalie
p3014
(dp3015
sVAshley
p3016
(dp3017
sVYasmin
p3018
(dp3019
sVKelly
p3020
(dp3021
sVLaura
p3022
(dp3023
sVErik
p3024
(dp3025
sVShambo
p3026
(dp3027
ssg50
g51
sg52
g51
sg53
(dp3028
g3002
(dp3029
g3022
(dp3030
g58
I4
ssg3014
(dp3031
g58
I3
ssg2988
(dp3032
g58
I1
ssg2990
(dp3033
g58
I3
ssg3006
(dp3034
g58
I8
ssg3008
(dp3035
g58
I3
ssg3026
(dp3036
g58
I2
ssg3010
(dp3037
g58
I6
ssg3012
(dp3038
g58
I3
ssg3024
(dp3039
g58
I1
ssg3020
(dp3040
g58
I3
ssg2996
(dp3041
g58
I4
sssg3004
(dp3042
g3014
(dp3043
g58
I1
ssg2994
(dp3044
g58
I1
ssg2990
(dp3045
g58
I1
ssg3008
(dp3046
g58
I1
ssg3016
(dp3047
g58
I1
ssg2998
(dp3048
g58
I1
sssg3014
(dp3049
g3002
g3031
sg3004
g3043
sg3016
(dp3050
g58
I3
ssg2990
(dp3051
g58
I14
ssg3006
(dp3052
g58
I5
ssg3022
(dp3053
g58
I2
ssg3008
(dp3054
g58
I12
ssg3026
(dp3055
g58
I3
ssg3010
(dp3056
g58
I2
ssg3012
(dp3057
g58
I13
ssg3020
(dp3058
g58
I1
ssg2994
(dp3059
g58
I2
ssg2996
(dp3060
g58
I1
ssg2998
(dp3061
g58
I4
sssg3016
(dp3062
g3004
g3047
sg3014
g3050
sg2994
(dp3063
g58
I2
ssg2990
(dp3064
g58
I3
ssg3008
(dp3065
g58
I3
ssg3012
(dp3066
g58
I2
ssg2998
(dp3067
g58
I3
sssg2992
(dp3068
g3012
(dp3069
g58
I1
ssg3000
(dp3070
g58
I1
sssg2988
(dp3071
g3002
g3032
sg3006
(dp3072
g58
I1
ssg3022
(dp3073
g58
I1
ssg3010
(dp3074
g58
I1
ssg3024
(dp3075
g58
I1
ssg3020
(dp3076
g58
I1
ssg2996
(dp3077
g58
I1
sssg2990
(dp3078
g3002
g3033
sg3004
g3045
sg3014
g3051
sg3016
g3064
sg3006
(dp3079
g58
I5
ssg3022
(dp3080
g58
I1
ssg3008
(dp3081
g58
I13
ssg3026
(dp3082
g58
I4
ssg3010
(dp3083
g58
I2
ssg3012
(dp3084
g58
I14
ssg3020
(dp3085
g58
I1
ssg2994
(dp3086
g58
I2
ssg2996
(dp3087
g58
I2
ssg2998
(dp3088
g58
I4
sssg3006
(dp3089
g3002
g3034
sg3014
g3052
sg2988
g3072
sg2990
g3079
sg3022
(dp3090
g58
I4
ssg3008
(dp3091
g58
I4
ssg3026
(dp3092
g58
I2
ssg3010
(dp3093
g58
I6
ssg3012
(dp3094
g58
I5
ssg3024
(dp3095
g58
I1
ssg3020
(dp3096
g58
I3
ssg2996
(dp3097
g58
I4
sssg3022
(dp3098
g3002
g3030
sg3014
g3053
sg2988
g3073
sg2990
g3080
sg3006
g3090
sg3008
(dp3099
g58
I1
ssg3026
(dp3100
g58
I1
ssg3010
(dp3101
g58
I4
ssg3012
(dp3102
g58
I1
ssg3024
(dp3103
g58
I1
ssg3020
(dp3104
g58
I3
ssg2996
(dp3105
g58
I4
sssg3008
(dp3106
g3002
g3035
sg3004
g3046
sg3014
g3054
sg3016
g3065
sg2990
g3081
sg3006
g3091
sg3022
g3099
sg3026
(dp3107
g58
I4
ssg3010
(dp3108
g58
I2
ssg3012
(dp3109
g58
I12
ssg3020
(dp3110
g58
I1
ssg2994
(dp3111
g58
I2
ssg2996
(dp3112
g58
I2
ssg2998
(dp3113
g58
I4
sssg3018
(dp3114
g3026
(dp3115
g58
I1
sssg3026
(dp3116
g3002
g3036
sg3014
g3055
sg2990
g3082
sg3006
g3092
sg3018
g3115
sg3008
g3107
sg3022
g3100
sg3010
(dp3117
g58
I1
ssg3012
(dp3118
g58
I4
ssg3024
(dp3119
g58
I1
ssg3020
(dp3120
g58
I1
ssg2996
(dp3121
g58
I2
sssg3010
(dp3122
g3002
g3037
sg3014
g3056
sg2988
g3074
sg2990
g3083
sg3006
g3093
sg3022
g3101
sg3008
g3108
sg3026
g3117
sg3012
(dp3123
g58
I2
ssg3024
(dp3124
g58
I1
ssg3020
(dp3125
g58
I3
ssg2996
(dp3126
g58
I4
sssg3012
(dp3127
g3002
g3038
sg3014
g3057
sg3016
g3066
sg2992
g3069
sg2990
g3084
sg3006
g3094
sg3022
g3102
sg3008
g3109
sg3026
g3118
sg3010
g3123
sg3020
(dp3128
g58
I1
ssg2994
(dp3129
g58
I1
ssg2996
(dp3130
g58
I2
ssg2998
(dp3131
g58
I3
ssg3000
(dp3132
g58
I1
sssg3024
(dp3133
g3002
g3039
sg2988
g3075
sg3006
g3095
sg3022
g3103
sg3026
g3119
sg3010
g3124
sg3020
(dp3134
g58
I1
ssg2996
(dp3135
g58
I1
sssg3020
(dp3136
g3002
g3040
sg3014
g3058
sg2988
g3076
sg2990
g3085
sg3006
g3096
sg3022
g3104
sg3008
g3110
sg3026
g3120
sg3010
g3125
sg3012
g3128
sg3024
g3134
sg2996
(dp3137
g58
I3
sssg2994
(dp3138
g3004
g3044
sg3014
g3059
sg3016
g3063
sg2990
g3086
sg3008
g3111
sg3012
g3129
sg2998
(dp3139
g58
I2
sssg2996
(dp3140
g3002
g3041
sg3014
g3060
sg2988
g3077
sg2990
g3087
sg3006
g3097
sg3022
g3105
sg3008
g3112
sg3026
g3121
sg3010
g3126
sg3012
g3130
sg3024
g3135
sg3020
g3137
ssg2998
(dp3141
g3004
g3048
sg3014
g3061
sg2994
g3139
sg2990
g3088
sg3008
g3113
sg3012
g3131
sg3016
g3067
ssg3000
(dp3142
g2992
g3070
sg3012
g3132
sssg139
(dp3143
g141
S'()'
p3144
ssg143
g51
sg144
g3028
sbsVAll-Stars
p3145
g2
(g3
g4
Ntp3146
Rp3147
(dp3148
g8
(dp3149
VRichard
p3150
(dp3151
sVColby
p3152
(dp3153
sVEthan
p3154
(dp3155
sVTina
p3156
(dp3157
sVTom
p3158
(dp3159
sVJenna L.
p3160
(dp3161
sVJerri
p3162
(dp3163
sVRob C.
p3164
(dp3165
sVKathy
p3166
(dp3167
sVAlicia
p3168
(dp3169
sVLex
p3170
(dp3171
sVRudy
p3172
(dp3173
sVSusan
p3174
(dp3175
sVJenna M.
p3176
(dp3177
sVShii Ann
p3178
(dp3179
sVAmber
p3180
(dp3181
sVRupert
p3182
(dp3183
sVRob M.
p3184
(dp3185
ssg50
g51
sg52
g51
sg53
(dp3186
g3180
(dp3187
g3166
(dp3188
g58
I1
ssg3174
(dp3189
g58
I1
ssg3168
(dp3190
g58
I3
ssg3182
(dp3191
g58
I5
ssg3158
(dp3192
g58
I5
ssg3170
(dp3193
g58
I1
ssg3178
(dp3194
g58
I3
ssg3184
(dp3195
g58
I7
ssg3160
(dp3196
g58
I6
sssg3166
(dp3197
g3180
g3188
sg3152
(dp3198
g58
I1
ssg3154
(dp3199
g58
I1
ssg3170
(dp3200
g58
I4
ssg3178
(dp3201
g58
I4
ssg3162
(dp3202
g58
I2
sssg3150
(dp3203
sg3172
(dp3204
g3160
(dp3205
g58
I1
ssg3182
(dp3206
g58
I2
ssg3162
(dp3207
g58
I1
sssg3174
(dp3208
g3180
g3189
sg3168
(dp3209
g58
I1
ssg3184
(dp3210
g58
I1
ssg3158
(dp3211
g58
I1
sssg3168
(dp3212
g3180
g3190
sg3174
g3209
sg3182
(dp3213
g58
I2
ssg3158
(dp3214
g58
I3
ssg3160
(dp3215
g58
I2
ssg3184
(dp3216
g58
I3
ssg3178
(dp3217
g58
I1
sssg3162
(dp3218
g3166
g3202
sg3172
g3207
sg3182
(dp3219
g58
I1
ssg3152
(dp3220
g58
I1
ssg3154
(dp3221
g58
I2
ssg3170
(dp3222
g58
I3
ssg3178
(dp3223
g58
I3
ssg3160
(dp3224
g58
I2
sssg3182
(dp3225
g3180
g3191
sg3172
g3206
sg3168
g3213
sg3162
g3219
sg3158
(dp3226
g58
I4
ssg3160
(dp3227
g58
I6
ssg3184
(dp3228
g58
I5
ssg3178
(dp3229
g58
I2
sssg3152
(dp3230
g3166
g3198
sg3170
(dp3231
g58
I1
ssg3178
(dp3232
g58
I1
ssg3162
g3220
sg3154
(dp3233
g58
I2
sssg3154
(dp3234
g3166
g3199
sg3162
g3221
sg3152
g3233
sg3156
(dp3235
g58
I1
ssg3170
(dp3236
g58
I1
ssg3160
(dp3237
g58
I1
ssg3178
(dp3238
g58
I1
sssg3156
(dp3239
g3154
g3235
ssg3158
(dp3240
g3180
g3192
sg3174
g3211
sg3168
g3214
sg3182
g3226
sg3160
(dp3241
g58
I4
ssg3184
(dp3242
g58
I5
ssg3178
(dp3243
g58
I2
sssg3170
(dp3244
g3180
g3193
sg3166
g3200
sg3152
g3231
sg3154
g3236
sg3178
(dp3245
g58
I4
ssg3162
g3222
ssg3176
(dp3246
sg3160
(dp3247
g3180
g3196
sg3172
g3205
sg3168
g3215
sg3162
g3224
sg3154
g3237
sg3158
g3241
sg3182
g3227
sg3184
(dp3248
g58
I6
ssg3178
(dp3249
g58
I2
sssg3184
(dp3250
g3180
g3195
sg3174
g3210
sg3168
g3216
sg3182
g3228
sg3158
g3242
sg3160
g3248
sg3178
(dp3251
g58
I2
sssg3178
(dp3252
g3180
g3194
sg3166
g3201
sg3168
g3217
sg3162
g3223
sg3152
g3232
sg3154
g3238
sg3158
g3243
sg3170
g3245
sg3160
g3249
sg3184
g3251
sg3182
g3229
ssg3164
(dp3253
ssg139
(dp3254
g141
S'()'
p3255
ssg143
g51
sg144
g3186
sbsVFiji
p3256
g2
(g3
g4
Ntp3257
Rp3258
(dp3259
g8
(dp3260
VSylvia
p3261
(dp3262
sVRita
p3263
(dp3264
sVJessica
p3265
(dp3266
sVStacy
p3267
(dp3268
sVAnthony
p3269
(dp3270
sVDreamz
p3271
(dp3272
sVEarl
p3273
(dp3274
sVMichelle
p3275
(dp3276
sVAlex
p3277
(dp3278
sVRocky
p3279
(dp3280
sVErica
p3281
(dp3282
sVLisi
p3283
(dp3284
sVBoo
p3285
(dp3286
sVEdgardo
p3287
(dp3288
sVLiliana
p3289
(dp3290
sVMookie
p3291
(dp3292
sVYau-Man
p3293
(dp3294
sVGary
p3295
(dp3296
sVCassandra
p3297
(dp3298
ssg50
g51
sg52
g51
sg53
(dp3299
g3273
(dp3300
g3275
(dp3301
g58
I2
ssg3279
(dp3302
g58
I1
ssg3293
(dp3303
g58
I8
ssg3291
(dp3304
g58
I2
ssg3285
(dp3305
g58
I3
ssg3267
(dp3306
g58
I2
ssg3269
(dp3307
g58
I3
ssg3271
(dp3308
g58
I3
ssg3263
(dp3309
g58
I1
ssg3297
(dp3310
g58
I4
sssg3275
(dp3311
g3273
g3301
sg3279
(dp3312
g58
I1
ssg3293
(dp3313
g58
I3
ssg3291
(dp3314
g58
I3
ssg3269
(dp3315
g58
I2
ssg3261
(dp3316
g58
I1
ssg3263
(dp3317
g58
I3
sssg3287
(dp3318
g3277
(dp3319
g58
I5
ssg3279
(dp3320
g58
I1
ssg3291
(dp3321
g58
I3
ssg3271
(dp3322
g58
I4
ssg3267
(dp3323
g58
I1
ssg3283
(dp3324
g58
I2
ssg3285
(dp3325
g58
I1
sssg3277
(dp3326
g3279
(dp3327
g58
I1
ssg3287
g3319
sg3291
(dp3328
g58
I3
ssg3285
(dp3329
g58
I1
ssg3267
(dp3330
g58
I3
ssg3283
(dp3331
g58
I2
ssg3271
(dp3332
g58
I6
ssg3297
(dp3333
g58
I1
sssg3279
(dp3334
g3273
g3302
sg3275
g3312
sg3277
g3327
sg3287
g3320
sg3291
(dp3335
g58
I5
ssg3293
(dp3336
g58
I2
ssg3269
(dp3337
g58
I1
ssg3271
(dp3338
g58
I1
ssg3261
(dp3339
g58
I2
ssg3263
(dp3340
g58
I1
sssg3293
(dp3341
g3273
g3303
sg3275
g3313
sg3279
g3336
sg3291
(dp3342
g58
I3
ssg3285
(dp3343
g58
I3
ssg3267
(dp3344
g58
I2
ssg3269
(dp3345
g58
I3
ssg3271
(dp3346
g58
I2
ssg3261
(dp3347
g58
I1
ssg3263
(dp3348
g58
I2
ssg3297
(dp3349
g58
I3
sssg3289
(dp3350
sg3291
(dp3351
g3273
g3304
sg3275
g3314
sg3277
g3328
sg3279
g3335
sg3287
g3321
sg3293
g3342
sg3269
(dp3352
g58
I2
ssg3271
(dp3353
g58
I2
ssg3261
(dp3354
g58
I2
ssg3263
(dp3355
g58
I2
sssg3285
(dp3356
g3273
g3305
sg3277
g3329
sg3293
g3343
sg3287
g3325
sg3267
(dp3357
g58
I4
ssg3283
(dp3358
g58
I1
ssg3271
(dp3359
g58
I3
ssg3297
(dp3360
g58
I3
sssg3265
(dp3361
sg3295
(dp3362
sg3267
(dp3363
g3273
g3306
sg3287
g3323
sg3277
g3330
sg3293
g3344
sg3285
g3357
sg3283
(dp3364
g58
I1
ssg3271
(dp3365
g58
I5
ssg3297
(dp3366
g58
I4
sssg3269
(dp3367
g3273
g3307
sg3275
g3315
sg3279
g3337
sg3293
g3345
sg3291
g3352
sg3281
(dp3368
g58
I1
ssg3263
(dp3369
g58
I1
sssg3283
(dp3370
g3287
g3324
sg3285
g3358
sg3277
g3331
sg3267
g3364
sg3271
(dp3371
g58
I2
sssg3271
(dp3372
g3273
g3308
sg3277
g3332
sg3279
g3338
sg3293
g3346
sg3291
g3353
sg3287
g3322
sg3267
g3365
sg3283
g3371
sg3285
g3359
sg3297
(dp3373
g58
I5
sssg3261
(dp3374
g3275
g3316
sg3291
g3354
sg3279
g3339
sg3263
(dp3375
g58
I1
ssg3293
g3347
ssg3281
(dp3376
g3269
g3368
ssg3263
(dp3377
g3273
g3309
sg3275
g3317
sg3279
g3340
sg3293
g3348
sg3291
g3355
sg3269
g3369
sg3261
g3375
ssg3297
(dp3378
g3273
g3310
sg3277
g3333
sg3293
g3349
sg3271
g3373
sg3267
g3366
sg3285
g3360
sssg139
(dp3379
g141
S'()'
p3380
ssg143
g51
sg144
g3299
sbsVAfrica
p3381
g2
(g3
g4
Ntp3382
Rp3383
(dp3384
g8
(dp3385
VJessie
p3386
(dp3387
sVTeresa
p3388
(dp3389
sVKim J.
p3390
(dp3391
sVBrandon
p3392
(dp3393
sVEthan
p3394
(dp3395
sVTom
p3396
(dp3397
sVLinda
p3398
(dp3399
sVClarence
p3400
(dp3401
sVFrank
p3402
(dp3403
sVKim P.
p3404
(dp3405
sVCarl
p3406
(dp3407
sVLex
p3408
(dp3409
sVLindsey
p3410
(dp3411
sVKelly
p3412
(dp3413
sVDiane
p3414
(dp3415
sVSilas
p3416
(dp3417
ssg50
g51
sg52
g51
sg53
(dp3418
g3386
(dp3419
g3400
(dp3420
g58
I1
ssg3390
(dp3421
g58
I1
ssg3412
(dp3422
g58
I1
ssg3394
(dp3423
g58
I1
ssg3396
(dp3424
g58
I1
ssg3408
(dp3425
g58
I1
sssg3400
(dp3426
g3386
g3420
sg3402
(dp3427
g58
I1
ssg3388
(dp3428
g58
I2
ssg3390
(dp3429
g58
I3
ssg3412
(dp3430
g58
I2
ssg3394
(dp3431
g58
I3
ssg3408
(dp3432
g58
I2
sssg3414
(dp3433
g3396
(dp3434
g58
I1
sssg3402
(dp3435
g3400
g3427
sg3388
(dp3436
g58
I6
ssg3390
(dp3437
g58
I3
ssg3404
(dp3438
g58
I3
ssg3412
(dp3439
g58
I2
ssg3394
(dp3440
g58
I3
ssg3406
(dp3441
g58
I1
ssg3396
(dp3442
g58
I2
ssg3408
(dp3443
g58
I1
ssg3398
(dp3444
g58
I3
ssg3392
(dp3445
g58
I1
sssg3416
(dp3446
g3392
(dp3447
g58
I3
ssg3410
(dp3448
g58
I2
ssg3404
(dp3449
g58
I3
sssg3388
(dp3450
g3400
g3428
sg3402
g3436
sg3390
(dp3451
g58
I3
ssg3404
(dp3452
g58
I4
ssg3412
(dp3453
g58
I1
ssg3394
(dp3454
g58
I3
ssg3406
(dp3455
g58
I1
ssg3396
(dp3456
g58
I2
ssg3408
(dp3457
g58
I1
ssg3398
(dp3458
g58
I3
sssg3390
(dp3459
g3386
g3421
sg3400
g3429
sg3402
g3437
sg3388
g3451
sg3404
(dp3460
g58
I3
ssg3412
(dp3461
g58
I3
ssg3394
(dp3462
g58
I10
ssg3396
(dp3463
g58
I6
ssg3408
(dp3464
g58
I8
ssg3392
(dp3465
g58
I2
sssg3404
(dp3466
g3402
g3438
sg3416
g3449
sg3388
g3452
sg3390
g3460
sg3392
(dp3467
g58
I6
ssg3412
(dp3468
g58
I2
ssg3410
(dp3469
g58
I3
ssg3394
(dp3470
g58
I3
ssg3396
(dp3471
g58
I3
ssg3408
(dp3472
g58
I2
sssg3412
(dp3473
g3386
g3422
sg3400
g3430
sg3402
g3439
sg3388
g3453
sg3390
g3461
sg3404
g3468
sg3394
(dp3474
g58
I3
ssg3396
(dp3475
g58
I2
ssg3408
(dp3476
g58
I5
ssg3392
(dp3477
g58
I1
sssg3410
(dp3478
g3416
g3448
sg3404
g3469
sg3392
(dp3479
g58
I3
ssg3406
(dp3480
g58
I1
ssg3396
(dp3481
g58
I1
sssg3394
(dp3482
g3386
g3423
sg3400
g3431
sg3402
g3440
sg3388
g3454
sg3390
g3462
sg3404
g3470
sg3412
g3474
sg3396
(dp3483
g58
I6
ssg3408
(dp3484
g58
I8
ssg3392
(dp3485
g58
I2
sssg3406
(dp3486
g3402
g3441
sg3410
g3480
sg3388
g3455
sg3398
(dp3487
g58
I1
sssg3396
(dp3488
g3386
g3424
sg3414
g3434
sg3402
g3442
sg3388
g3456
sg3390
g3463
sg3404
g3471
sg3412
g3475
sg3410
g3481
sg3394
g3483
sg3408
(dp3489
g58
I6
ssg3392
(dp3490
g58
I2
sssg3408
(dp3491
g3386
g3425
sg3400
g3432
sg3402
g3443
sg3388
g3457
sg3390
g3464
sg3404
g3472
sg3394
g3484
sg3396
g3489
sg3412
g3476
sg3392
(dp3492
g58
I3
sssg3398
(dp3493
g3402
g3444
sg3388
g3458
sg3406
g3487
ssg3392
(dp3494
g3402
g3445
sg3416
g3447
sg3390
g3465
sg3404
g3467
sg3412
g3477
sg3410
g3479
sg3394
g3485
sg3396
g3490
sg3408
g3492
sssg139
(dp3495
g141
S'()'
p3496
ssg143
g51
sg144
g3418
sbsVSan_Juan_del_Sur
p3497
g2
(g3
g4
Ntp3498
Rp3499
(dp3500
g8
(dp3501
VJeremy
p3502
(dp3503
sVNadiya
p3504
(dp3505
sVJosh
p3506
(dp3507
sVWes
p3508
(dp3509
sVMissy
p3510
(dp3511
sVJohn
p3512
(dp3513
sVDale
p3514
(dp3515
sVVal
p3516
(dp3517
sVDrew
p3518
(dp3519
sVReed
p3520
(dp3521
sVJaclyn
p3522
(dp3523
sVKeith
p3524
(dp3525
sVJon
p3526
(dp3527
sVNatalie
p3528
(dp3529
sVBaylor
p3530
(dp3531
sVAlec
p3532
(dp3533
sVJulie
p3534
(dp3535
sVKelley
p3536
(dp3537
ssg50
g51
sg52
g51
sg53
(dp3538
g3514
(dp3539
g3506
(dp3540
g58
I2
ssg3508
(dp3541
g58
I3
ssg3530
(dp3542
g58
I2
ssg3512
(dp3543
g58
I3
ssg3536
(dp3544
g58
I1
ssg3532
(dp3545
g58
I2
sssg3528
(dp3546
g3502
(dp3547
g58
I3
ssg3536
(dp3548
g58
I1
ssg3534
(dp3549
g58
I1
ssg3530
(dp3550
g58
I5
ssg3510
(dp3551
g58
I6
ssg3522
(dp3552
g58
I4
ssg3524
(dp3553
g58
I3
ssg3526
(dp3554
g58
I2
ssg3532
(dp3555
g58
I1
sssg3502
(dp3556
g3528
g3547
sg3534
(dp3557
g58
I1
ssg3530
(dp3558
g58
I1
ssg3510
(dp3559
g58
I2
ssg3522
(dp3560
g58
I1
ssg3536
(dp3561
g58
I1
ssg3526
(dp3562
g58
I1
sssg3504
(dp3563
g3522
(dp3564
g58
I1
ssg3516
(dp3565
g58
I1
sssg3516
(dp3566
g3522
(dp3567
g58
I2
ssg3532
(dp3568
g58
I1
ssg3512
(dp3569
g58
I1
ssg3504
g3565
sg3530
(dp3570
g58
I1
sssg3536
(dp3571
g3514
g3544
sg3502
g3561
sg3534
(dp3572
g58
I1
ssg3528
g3548
sg3510
(dp3573
g58
I1
sssg3534
(dp3574
g3502
g3557
sg3528
g3549
sg3510
(dp3575
g58
I1
ssg3536
g3572
ssg3506
(dp3576
g3514
g3540
sg3508
(dp3577
g58
I4
ssg3530
(dp3578
g58
I2
ssg3520
(dp3579
g58
I1
ssg3522
(dp3580
g58
I1
ssg3512
(dp3581
g58
I1
ssg3524
(dp3582
g58
I1
ssg3532
(dp3583
g58
I3
sssg3518
(dp3584
sg3508
(dp3585
g3514
g3541
sg3506
g3577
sg3530
(dp3586
g58
I3
ssg3520
(dp3587
g58
I2
ssg3522
(dp3588
g58
I1
ssg3512
(dp3589
g58
I2
ssg3524
(dp3590
g58
I3
ssg3532
(dp3591
g58
I6
sssg3530
(dp3592
g3514
g3542
sg3528
g3550
sg3502
g3558
sg3516
g3570
sg3506
g3578
sg3508
g3586
sg3510
(dp3593
g58
I9
ssg3520
(dp3594
g58
I1
ssg3522
(dp3595
g58
I5
ssg3512
(dp3596
g58
I1
ssg3524
(dp3597
g58
I3
ssg3526
(dp3598
g58
I3
ssg3532
(dp3599
g58
I3
sssg3510
(dp3600
g3528
g3551
sg3502
g3559
sg3536
g3573
sg3534
g3575
sg3530
g3593
sg3520
(dp3601
g58
I1
ssg3522
(dp3602
g58
I5
ssg3524
(dp3603
g58
I3
ssg3526
(dp3604
g58
I3
ssg3532
(dp3605
g58
I1
sssg3520
(dp3606
g3506
g3579
sg3508
g3587
sg3530
g3594
sg3510
g3601
sg3522
(dp3607
g58
I1
ssg3524
(dp3608
g58
I3
ssg3526
(dp3609
g58
I1
ssg3532
(dp3610
g58
I2
sssg3522
(dp3611
g3528
g3552
sg3502
g3560
sg3504
g3564
sg3516
g3567
sg3506
g3580
sg3508
g3588
sg3530
g3595
sg3510
g3602
sg3520
g3607
sg3512
(dp3612
g58
I1
ssg3524
(dp3613
g58
I3
ssg3526
(dp3614
g58
I8
ssg3532
(dp3615
g58
I4
sssg3512
(dp3616
g3514
g3543
sg3516
g3569
sg3506
g3581
sg3508
g3589
sg3530
g3596
sg3522
g3612
sg3532
(dp3617
g58
I3
sssg3524
(dp3618
g3528
g3553
sg3506
g3582
sg3508
g3590
sg3530
g3597
sg3510
g3603
sg3520
g3608
sg3522
g3613
sg3526
(dp3619
g58
I4
ssg3532
(dp3620
g58
I4
sssg3526
(dp3621
g3528
g3554
sg3502
g3562
sg3530
g3598
sg3510
g3604
sg3520
g3609
sg3522
g3614
sg3524
g3619
sg3532
(dp3622
g58
I2
sssg3532
(dp3623
g3514
g3545
sg3528
g3555
sg3516
g3568
sg3506
g3583
sg3508
g3591
sg3530
g3599
sg3510
g3605
sg3520
g3610
sg3522
g3615
sg3512
g3617
sg3524
g3620
sg3526
g3622
sssg139
(dp3624
g141
S'()'
p3625
ssg143
g51
sg144
g3538
sbsVCook_Islands
p3626
g2
(g3
g4
Ntp3627
Rp3628
(dp3629
g8
(dp3630
VOzzy
p3631
(dp3632
sVParvati
p3633
(dp3634
sVSekou
p3635
(dp3636
sVCao Boi
p3637
(dp3638
sVJonathan
p3639
(dp3640
sVNate
p3641
(dp3642
sVBecky
p3643
(dp3644
sVJessica
p3645
(dp3646
sVJ.P.
p3647
(dp3648
sVStephannie
p3649
(dp3650
sVSundra
p3651
(dp3652
sVRebecca
p3653
(dp3654
sVBilly
p3655
(dp3656
sVYul
p3657
(dp3658
sVBrad
p3659
(dp3660
sVCecilia
p3661
(dp3662
sVJenny
p3663
(dp3664
sVCandice
p3665
(dp3666
sVCristina
p3667
(dp3668
sVAdam
p3669
(dp3670
ssg50
g51
sg52
g51
sg53
(dp3671
g3631
(dp3672
g3643
(dp3673
g58
I7
ssg3633
(dp3674
g58
I1
ssg3661
(dp3675
g58
I2
ssg3647
(dp3676
g58
I1
ssg3651
(dp3677
g58
I9
ssg3665
(dp3678
g58
I2
ssg3657
(dp3679
g58
I7
ssg3639
(dp3680
g58
I4
ssg3667
(dp3681
g58
I1
ssg3669
(dp3682
g58
I1
sssg3659
(dp3683
g3633
(dp3684
g58
I2
ssg3663
(dp3685
g58
I2
ssg3649
(dp3686
g58
I1
ssg3669
(dp3687
g58
I2
ssg3653
(dp3688
g58
I2
ssg3667
(dp3689
g58
I3
ssg3641
(dp3690
g58
I1
sssg3643
(dp3691
g3631
g3673
sg3633
(dp3692
g58
I1
ssg3645
(dp3693
g58
I1
ssg3651
(dp3694
g58
I7
ssg3665
(dp3695
g58
I2
ssg3657
(dp3696
g58
I9
ssg3637
(dp3697
g58
I1
ssg3639
(dp3698
g58
I5
ssg3669
(dp3699
g58
I1
sssg3633
(dp3700
g3631
g3674
sg3643
g3692
sg3663
(dp3701
g58
I5
ssg3649
(dp3702
g58
I1
ssg3651
(dp3703
g58
I1
ssg3665
(dp3704
g58
I5
ssg3657
(dp3705
g58
I1
ssg3659
g3684
sg3639
(dp3706
g58
I3
ssg3653
(dp3707
g58
I4
ssg3667
(dp3708
g58
I2
ssg3641
(dp3709
g58
I4
ssg3669
(dp3710
g58
I10
sssg3645
(dp3711
g3643
g3693
sg3639
(dp3712
g58
I1
ssg3657
(dp3713
g58
I1
ssg3637
(dp3714
g58
I1
sssg3635
(dp3715
g3641
(dp3716
g58
I1
sssg3647
(dp3717
g3631
g3676
sg3667
(dp3718
g58
I1
ssg3641
(dp3719
g58
I1
ssg3661
(dp3720
g58
I1
sssg3649
(dp3721
g3633
g3702
sg3663
(dp3722
g58
I1
ssg3651
(dp3723
g58
I1
ssg3669
(dp3724
g58
I1
ssg3659
g3686
sg3653
(dp3725
g58
I2
ssg3667
(dp3726
g58
I1
sssg3661
(dp3727
g3631
g3675
sg3647
g3720
sg3651
(dp3728
g58
I1
ssg3667
(dp3729
g58
I1
sssg3655
(dp3730
sg3651
(dp3731
g3631
g3677
sg3643
g3694
sg3633
g3703
sg3661
g3728
sg3649
g3723
sg3665
(dp3732
g58
I2
ssg3657
(dp3733
g58
I7
ssg3639
(dp3734
g58
I4
ssg3653
(dp3735
g58
I1
ssg3669
(dp3736
g58
I1
sssg3665
(dp3737
g3631
g3678
sg3643
g3695
sg3633
g3704
sg3663
(dp3738
g58
I2
ssg3651
g3732
sg3657
(dp3739
g58
I2
ssg3639
(dp3740
g58
I5
ssg3653
(dp3741
g58
I1
ssg3641
(dp3742
g58
I3
ssg3669
(dp3743
g58
I5
sssg3657
(dp3744
g3631
g3679
sg3643
g3696
sg3633
g3705
sg3645
g3713
sg3651
g3733
sg3665
g3739
sg3669
(dp3745
g58
I1
ssg3637
(dp3746
g58
I1
ssg3639
(dp3747
g58
I5
sssg3637
(dp3748
g3643
g3697
sg3639
(dp3749
g58
I1
ssg3657
g3746
sg3645
g3714
ssg3663
(dp3750
g3633
g3701
sg3649
g3722
sg3665
g3738
sg3669
(dp3751
g58
I5
ssg3659
g3685
sg3639
(dp3752
g58
I2
ssg3653
(dp3753
g58
I4
ssg3667
(dp3754
g58
I2
ssg3641
(dp3755
g58
I4
sssg3639
(dp3756
g3631
g3680
sg3645
g3712
sg3643
g3698
sg3633
g3706
sg3663
g3752
sg3651
g3734
sg3665
g3740
sg3657
g3747
sg3637
g3749
sg3653
(dp3757
g58
I1
ssg3641
(dp3758
g58
I2
ssg3669
(dp3759
g58
I3
sssg3653
(dp3760
g3633
g3707
sg3663
g3753
sg3649
g3725
sg3651
g3735
sg3665
g3741
sg3669
(dp3761
g58
I4
ssg3659
g3688
sg3639
g3757
sg3667
(dp3762
g58
I2
ssg3641
(dp3763
g58
I2
sssg3667
(dp3764
g3631
g3681
sg3633
g3708
sg3663
g3754
sg3647
g3718
sg3649
g3726
sg3669
(dp3765
g58
I2
ssg3659
g3689
sg3653
g3762
sg3641
(dp3766
g58
I1
ssg3661
g3729
ssg3641
(dp3767
g3633
g3709
sg3663
g3755
sg3635
g3716
sg3647
g3719
sg3665
g3742
sg3669
(dp3768
g58
I4
ssg3659
g3690
sg3639
g3758
sg3653
g3763
sg3667
g3766
ssg3669
(dp3769
g3631
g3682
sg3643
g3699
sg3633
g3710
sg3663
g3751
sg3649
g3724
sg3651
g3736
sg3665
g3743
sg3657
g3745
sg3659
g3687
sg3639
g3759
sg3653
g3761
sg3667
g3765
sg3641
g3768
sssg139
(dp3770
g141
S'()'
p3771
ssg143
g51
sg144
g3671
sbsVRedemption_Island
p3772
g2
(g3
g4
Ntp3773
Rp3774
(dp3775
g8
(dp3776
VRussell
p3777
(dp3778
sVGrant
p3779
(dp3780
sVKrista
p3781
(dp3782
sVMatthew
p3783
(dp3784
sVSarita
p3785
(dp3786
sVMike
p3787
(dp3788
sVAndrea
p3789
(dp3790
sVNatalie
p3791
(dp3792
sVAshley
p3793
(dp3794
sVPhillip
p3795
(dp3796
sVDavid
p3797
(dp3798
sVStephanie
p3799
(dp3800
sVRob
p3801
(dp3802
sV Ralph
p3803
(dp3804
sVSteve
p3805
(dp3806
sVKristina
p3807
(dp3808
sVFrancesca
p3809
(dp3810
sVJulie
p3811
(dp3812
ssg50
g51
sg52
g51
sg53
(dp3813
g3781
(dp3814
g3783
(dp3815
g58
I1
ssg3799
(dp3816
g58
I2
ssg3777
(dp3817
g58
I1
sssg3787
(dp3818
g3785
(dp3819
g58
I3
ssg3779
(dp3820
g58
I1
ssg3811
(dp3821
g58
I7
ssg3803
(dp3822
g58
I8
ssg3805
(dp3823
g58
I7
ssg3783
(dp3824
g58
I7
ssg3789
(dp3825
g58
I1
ssg3797
(dp3826
g58
I7
sssg3791
(dp3827
g3795
(dp3828
g58
I10
ssg3801
(dp3829
g58
I10
ssg3789
(dp3830
g58
I8
ssg3793
(dp3831
g58
I12
ssg3779
(dp3832
g58
I8
sssg3793
(dp3833
g3795
(dp3834
g58
I10
ssg3801
(dp3835
g58
I10
ssg3791
g3831
sg3789
(dp3836
g58
I8
ssg3779
(dp3837
g58
I8
sssg3777
(dp3838
g3781
g3817
sg3783
(dp3839
g58
I1
ssg3799
(dp3840
g58
I2
ssg3803
(dp3841
g58
I1
sssg3779
(dp3842
g3787
g3820
sg3791
g3832
sg3793
g3837
sg3795
(dp3843
g58
I8
ssg3801
(dp3844
g58
I10
ssg3783
(dp3845
g58
I2
ssg3807
(dp3846
g58
I1
ssg3789
(dp3847
g58
I6
sssg3795
(dp3848
g3791
g3828
sg3793
g3834
sg3779
g3843
sg3801
(dp3849
g58
I10
ssg3783
(dp3850
g58
I1
ssg3789
(dp3851
g58
I8
sssg3801
(dp3852
g3791
g3829
sg3793
g3835
sg3779
g3844
sg3795
g3849
sg3783
(dp3853
g58
I1
ssg3807
(dp3854
g58
I1
ssg3789
(dp3855
g58
I6
sssg3803
(dp3856
g3787
g3822
sg3785
(dp3857
g58
I3
ssg3777
g3841
sg3811
(dp3858
g58
I6
ssg3797
(dp3859
g58
I5
ssg3805
(dp3860
g58
I8
ssg3783
(dp3861
g58
I3
ssg3789
(dp3862
g58
I1
ssg3799
(dp3863
g58
I1
sssg3805
(dp3864
g3787
g3823
sg3785
(dp3865
g58
I4
ssg3811
(dp3866
g58
I9
ssg3797
(dp3867
g58
I6
ssg3783
(dp3868
g58
I1
ssg3803
g3860
ssg3783
(dp3869
g3781
g3815
sg3787
g3824
sg3777
g3839
sg3779
g3845
sg3795
g3850
sg3801
g3853
sg3803
g3861
sg3805
g3868
sg3807
(dp3870
g58
I2
ssg3809
(dp3871
g58
I2
ssg3789
(dp3872
g58
I1
ssg3799
(dp3873
g58
I1
ssg3811
(dp3874
g58
I1
ssg3797
(dp3875
g58
I1
sssg3807
(dp3876
g3783
g3870
sg3801
g3854
sg3809
(dp3877
g58
I1
ssg3779
g3846
ssg3809
(dp3878
g3783
g3871
sg3807
g3877
ssg3785
(dp3879
g3805
g3865
sg3787
g3819
sg3797
(dp3880
g58
I2
ssg3811
(dp3881
g58
I4
ssg3803
g3857
ssg3789
(dp3882
g3787
g3825
sg3791
g3830
sg3793
g3836
sg3779
g3847
sg3795
g3851
sg3801
g3855
sg3803
g3862
sg3783
g3872
ssg3799
(dp3883
g3781
g3816
sg3783
g3873
sg3797
(dp3884
g58
I1
ssg3777
g3840
sg3803
g3863
ssg3811
(dp3885
g3787
g3821
sg3785
g3881
sg3797
(dp3886
g58
I6
ssg3805
g3866
sg3783
g3874
sg3803
g3858
ssg3797
(dp3887
g3787
g3826
sg3785
g3880
sg3811
g3886
sg3803
g3859
sg3805
g3867
sg3783
g3875
sg3799
g3884
sssg139
(dp3888
g141
S'()'
p3889
ssg143
g51
sg144
g3813
sbsVNicaragua
p3890
g2
(g3
g4
Ntp3891
Rp3892
(dp3893
g8
(dp3894
VJimmy T.
p3895
(dp3896
sVBenry
p3897
(dp3898
sVTyrone
p3899
(dp3900
sVWendy
p3901
(dp3902
sVJane
p3903
(dp3904
sVHolly
p3905
(dp3906
sVFabio
p3907
(dp3908
sVDan
p3909
(dp3910
sVJill
p3911
(dp3912
sVMarty
p3913
(dp3914
sVKelly S.
p3915
(dp3916
sVAlina
p3917
(dp3918
sVJimmy J.
p3919
(dp3920
sVKelly B.
p3921
(dp3922
sVSash
p3923
(dp3924
sVBrenda
p3925
(dp3926
sVYve
p3927
(dp3928
sVNaOnka
p3929
(dp3930
sVShannon
p3931
(dp3932
sVChase
p3933
(dp3934
ssg50
g51
sg52
g51
sg53
(dp3935
g3913
(dp3936
g3895
(dp3937
g58
I2
ssg3907
(dp3938
g58
I2
ssg3915
(dp3939
g58
I1
ssg3921
(dp3940
g58
I1
ssg3925
(dp3941
g58
I1
ssg3899
(dp3942
g58
I3
ssg3897
(dp3943
g58
I2
ssg3909
(dp3944
g58
I5
ssg3919
(dp3945
g58
I1
ssg3927
(dp3946
g58
I3
ssg3929
(dp3947
g58
I1
ssg3911
(dp3948
g58
I5
ssg3903
(dp3949
g58
I2
ssg3905
(dp3950
g58
I3
ssg3923
(dp3951
g58
I1
ssg3933
(dp3952
g58
I1
sssg3895
(dp3953
g3913
g3937
sg3899
(dp3954
g58
I2
ssg3909
(dp3955
g58
I2
ssg3927
(dp3956
g58
I2
ssg3919
(dp3957
g58
I1
ssg3911
(dp3958
g58
I2
ssg3903
(dp3959
g58
I3
ssg3905
(dp3960
g58
I3
sssg3907
(dp3961
g3913
g3938
sg3917
(dp3962
g58
I1
ssg3915
(dp3963
g58
I3
ssg3925
(dp3964
g58
I3
ssg3897
(dp3965
g58
I3
ssg3909
(dp3966
g58
I4
ssg3929
(dp3967
g58
I2
ssg3911
(dp3968
g58
I1
ssg3903
(dp3969
g58
I2
ssg3905
(dp3970
g58
I4
ssg3923
(dp3971
g58
I6
ssg3931
(dp3972
g58
I1
ssg3933
(dp3973
g58
I5
sssg3919
(dp3974
g3913
g3945
sg3895
g3957
sg3899
(dp3975
g58
I1
ssg3909
(dp3976
g58
I1
ssg3927
(dp3977
g58
I1
ssg3911
(dp3978
g58
I1
ssg3903
(dp3979
g58
I1
ssg3905
(dp3980
g58
I1
sssg3915
(dp3981
g3913
g3939
sg3907
g3963
sg3921
(dp3982
g58
I1
ssg3925
(dp3983
g58
I6
ssg3897
(dp3984
g58
I2
ssg3909
(dp3985
g58
I1
ssg3929
(dp3986
g58
I5
ssg3911
(dp3987
g58
I1
ssg3903
(dp3988
g58
I1
ssg3905
(dp3989
g58
I2
ssg3923
(dp3990
g58
I5
ssg3933
(dp3991
g58
I3
sssg3921
(dp3992
g3913
g3940
sg3915
g3982
sg3925
(dp3993
g58
I1
ssg3897
(dp3994
g58
I1
ssg3929
(dp3995
g58
I1
ssg3903
(dp3996
g58
I1
ssg3923
(dp3997
g58
I2
ssg3933
(dp3998
g58
I1
sssg3925
(dp3999
g3913
g3941
sg3907
g3964
sg3915
g3983
sg3921
g3993
sg3897
(dp4000
g58
I2
ssg3909
(dp4001
g58
I1
ssg3929
(dp4002
g58
I3
ssg3911
(dp4003
g58
I1
ssg3903
(dp4004
g58
I1
ssg3905
(dp4005
g58
I2
ssg3923
(dp4006
g58
I5
ssg3933
(dp4007
g58
I3
sssg3899
(dp4008
g3913
g3942
sg3895
g3954
sg3909
(dp4009
g58
I3
ssg3927
(dp4010
g58
I4
ssg3919
g3975
sg3911
(dp4011
g58
I3
ssg3903
(dp4012
g58
I2
ssg3905
(dp4013
g58
I2
sssg3897
(dp4014
g3913
g3943
sg3907
g3965
sg3915
g3984
sg3925
g4000
sg3909
(dp4015
g58
I6
ssg3917
(dp4016
g58
I2
ssg3929
(dp4017
g58
I5
ssg3921
g3994
sg3903
(dp4018
g58
I1
ssg3905
(dp4019
g58
I4
ssg3923
(dp4020
g58
I3
ssg3933
(dp4021
g58
I5
sssg3909
(dp4022
g3913
g3944
sg3895
g3955
sg3907
g3966
sg3919
g3976
sg3915
g3985
sg3925
g4001
sg3899
g4009
sg3897
g4015
sg3917
(dp4023
g58
I2
ssg3927
(dp4024
g58
I3
ssg3929
(dp4025
g58
I4
ssg3911
(dp4026
g58
I3
ssg3903
(dp4027
g58
I3
ssg3905
(dp4028
g58
I7
ssg3923
(dp4029
g58
I3
ssg3933
(dp4030
g58
I5
sssg3917
(dp4031
g3907
g3962
sg3897
g4016
sg3909
g4023
sg3929
(dp4032
g58
I2
ssg3903
(dp4033
g58
I1
ssg3905
(dp4034
g58
I2
ssg3931
(dp4035
g58
I1
ssg3933
(dp4036
g58
I2
sssg3927
(dp4037
g3913
g3946
sg3895
g3956
sg3909
g4024
sg3899
g4010
sg3919
g3977
sg3911
(dp4038
g58
I3
ssg3903
(dp4039
g58
I2
ssg3905
(dp4040
g58
I2
sssg3929
(dp4041
g3913
g3947
sg3907
g3967
sg3915
g3986
sg3925
g4002
sg3897
g4017
sg3909
g4025
sg3917
g4032
sg3921
g3995
sg3903
(dp4042
g58
I2
ssg3905
(dp4043
g58
I5
ssg3923
(dp4044
g58
I4
ssg3933
(dp4045
g58
I6
sssg3911
(dp4046
g3913
g3948
sg3895
g3958
sg3907
g3968
sg3915
g3987
sg3925
g4003
sg3899
g4011
sg3909
g4026
sg3927
g4038
sg3919
g3978
sg3903
(dp4047
g58
I2
ssg3905
(dp4048
g58
I2
ssg3923
(dp4049
g58
I1
sssg3901
(dp4050
sg3903
(dp4051
g3913
g3949
sg3895
g3959
sg3907
g3969
sg3919
g3979
sg3915
g3988
sg3921
g3996
sg3925
g4004
sg3899
g4012
sg3897
g4018
sg3909
g4027
sg3917
g4033
sg3927
g4039
sg3929
g4042
sg3911
g4047
sg3905
(dp4052
g58
I6
ssg3923
(dp4053
g58
I4
ssg3933
(dp4054
g58
I3
sssg3905
(dp4055
g3913
g3950
sg3895
g3960
sg3907
g3970
sg3919
g3980
sg3915
g3989
sg3925
g4005
sg3899
g4013
sg3897
g4019
sg3909
g4028
sg3917
g4034
sg3927
g4040
sg3929
g4043
sg3911
g4048
sg3903
g4052
sg3923
(dp4056
g58
I6
ssg3933
(dp4057
g58
I8
sssg3923
(dp4058
g3913
g3951
sg3907
g3971
sg3915
g3990
sg3921
g3997
sg3925
g4006
sg3897
g4020
sg3909
g4029
sg3929
g4044
sg3911
g4049
sg3903
g4053
sg3905
g4056
sg3933
(dp4059
g58
I8
sssg3931
(dp4060
g3907
g3972
sg3917
g4035
ssg3933
(dp4061
g3913
g3952
sg3907
g3973
sg3915
g3991
sg3925
g4007
sg3897
g4021
sg3909
g4030
sg3917
g4036
sg3929
g4045
sg3921
g3998
sg3903
g4054
sg3905
g4057
sg3923
g4059
sssg139
(dp4062
g141
S'()'
p4063
ssg143
g51
sg144
g3935
sbs.