(dp0
VPalau
p1
(dp2
S'url'
p3
Vhttp://survivor.wikia.com/wiki/Survivor:_Palau
p4
sS'votes'
p5
ccopy_reg
_reconstructor
p6
(cpandas.core.frame
DataFrame
p7
c__builtin__
object
p8
Ntp9
Rp10
(dp11
S'_metadata'
p12
(lp13
sS'_typ'
p14
S'dataframe'
p15
sS'_data'
p16
g6
(cpandas.core.internals
BlockManager
p17
g8
Ntp18
Rp19
((lp20
cpandas.core.index
_new_Index
p21
(cpandas.core.index
Index
p22
(dp23
S'data'
p24
cnumpy.core.multiarray
_reconstruct
p25
(cnumpy
ndarray
p26
(I0
tp27
S'b'
p28
tp29
Rp30
(I1
(L23L
tp31
cnumpy
dtype
p32
(S'O8'
p33
I0
I1
tp34
Rp35
(I3
S'|'
p36
NNNI-1
I-1
I63
tp37
bI00
(lp38
VJonathan
p39
aVWanda
p40
aVJolanda
p41
aVAshlee
p42
aVJeff
p43
aVKim
p44
aVWillard
p45
aVAngie
p46
aVAngie
p47
aVJames
p48
aVJames
p49
aVIbrehem
p50
aVBobby Jon
p51
aVCoby
p52
aVJanu
p53
aVStephenie
p54
aVGregg
p55
aVCaryn
p56
aVJenn
p57
aVJenn
p58
aVIan
p59
aVKatie
p60
aVTom
p61
atp62
bsS'name'
p63
Nstp64
Rp65
ag21
(g22
(dp66
g24
g25
(g26
(I0
tp67
g28
tp68
Rp69
(I1
(L20L
tp70
g35
I00
(lp71
VTom
p72
aVKatie
p73
aVIan
p74
aVJenn
p75
aVCaryn
p76
aVGregg
p77
aVStephenie
p78
aVJanu
p79
aVCoby
p80
aVBobby Jon
p81
aVIbrehem
p82
aVJames
p83
aVAngie
p84
aVWillard
p85
aVKim
p86
aVJeff
p87
aVAshlee
p88
aVJolanda
p89
aVWanda
p90
aVJonathan
p91
atp92
bsg63
cnumpy.core.multiarray
scalar
p93
(g32
(S'i8'
p94
I0
I1
tp95
Rp96
(I3
S'<'
p97
NNNI-1
I-1
I0
tp98
bS'\x01\x00\x00\x00\x00\x00\x00\x00'
p99
tp100
Rp101
stp102
Rp103
a(lp104
g25
(g26
(I0
tp105
g28
tp106
Rp107
(I1
(L23L
L20L
tp108
g35
I00
(lp109
V \u2014
p110
aV \u2014
p111
aV \u2014
p112
aV\u2014
p113
aV \u2014
p114
aV\u2014
p115
aV \u2014
p116
aV \u2014
p117
aV \u2014
p118
aV \u2014
p119
aV \u2014
p120
aV \u2014
p121
aV \u2014
p122
aV\u2014
p123
aV \u2014
p124
aV \u2014
p125
aV \u2014
p126
aV \u2014
p127
aVEliminated
p128
aV
p129
ag110
ag111
ag112
ag113
ag114
ag115
ag116
ag117
ag118
ag119
ag120
ag121
ag122
ag123
ag124
ag125
ag126
ag127
ag128
ag129
aV \u2014
p130
aV \u2014
p131
aV \u2014
p132
aV \u2014
p133
aV \u2014
p134
aV \u2014
p135
aV Jolanda
p136
aV \u2014
p137
aV \u2014
p138
aV Angie
p139
aV Angie
p140
aV Jolanda
p141
aV Jolanda
p142
aV \u2014
p143
aV Jolanda
p144
aV Jolanda
p145
aV Jolanda
p146
aV Angie
p147
ag129
ag129
aV \u2014
p148
aV \u2014
p149
aV \u2014
p150
aV \u2014
p151
aV \u2014
p152
aV \u2014
p153
aV Ashlee
p154
aV \u2014
p155
aV \u2014
p156
aV Ashlee
p157
aV Kim
p158
aV Ashlee
p159
aV Ashlee
p160
aV \u2014
p161
aV Ashlee
p162
aV Ashlee
p163
aV Jeff
p164
ag129
ag129
ag129
aV \u2014
p165
aV \u2014
p166
aV \u2014
p167
aV \u2014
p168
aV \u2014
p169
aV \u2014
p170
aV Jeff
p171
aV \u2014
p172
aV \u2014
p173
aV Kim
p174
aV Jeff
p175
aV Kim
p176
aV Jeff
p177
aV \u2014
p178
aV Jeff
p179
aV James
p180
ag129
ag129
ag129
ag129
aV \u2014
p181
aV \u2014
p182
aV \u2014
p183
aV \u2014
p184
aV \u2014
p185
aV \u2014
p186
aV Kim
p187
aV \u2014
p188
aV \u2014
p189
aV Kim
p190
aV Kim
p191
aV Kim
p192
aV Kim
p193
aV \u2014
p194
aV James
p195
ag129
ag129
ag129
ag129
ag129
aV Willard
p196
aV Willard
p197
aV Willard
p198
aV Willard
p199
aV Willard
p200
aV Willard
p201
aV \u2014
p202
aV Willard
p203
aV Willard
p204
aV \u2014
p205
aV \u2014
p206
aV \u2014
p207
aV \u2014
p208
aV Katie
p209
ag129
ag129
ag129
ag129
ag129
ag129
aV \u2014
p210
aV \u2014
p211
aV \u2014
p212
aV \u2014
p213
aV\u2014
p214
aV \u2014
p215
aV Bobby Jon
p216
aV \u2014
p217
aV \u2014
p218
aV Angie
p219
aV James
p220
aV Angie
p221
aV Bobby Jon
p222
ag129
ag129
ag129
ag129
ag129
ag129
ag129
ag210
ag211
ag212
ag213
ag214
ag215
aV Angie
p223
ag217
ag218
aVNone
p224
aV Angie
p225
aV Angie
p226
aVNone 
p227
ag129
ag129
ag129
ag129
ag129
ag129
ag129
aV \u2014
p228
aV \u2014
p229
aV \u2014
p230
aV \u2014
p231
aV \u2014
p232
aV \u2014
p233
aV Ibrehem
p234
aV \u2014
p235
aV \u2014
p236
aV James
p237
aV James
p238
aV Ibrehem
p239
ag129
ag129
ag129
ag129
ag129
ag129
ag129
ag129
aV \u2014
p240
aV \u2014
p241
aV \u2014
p242
aV \u2014
p243
aV \u2014
p244
aV \u2014
p245
aV James
p246
aV \u2014
p247
aV \u2014
p248
aV James
p249
aVNone
p250
aVNone
p251
ag129
ag129
ag129
ag129
ag129
ag129
ag129
ag129
aV \u2014
p252
aV \u2014
p253
aV \u2014
p254
aV \u2014
p255
aV \u2014
p256
aV \u2014
p257
aV Ibrehem
p258
aV \u2014
p259
aV \u2014
p260
aV Ibrehem
p261
aV Stephenie
p262
ag129
ag129
ag129
ag129
ag129
ag129
ag129
ag129
ag129
aV \u2014
p263
aV \u2014
p264
aV \u2014
p265
aV \u2014
p266
aV \u2014
p267
aV \u2014
p268
aV \u2014
p269
aV \u2014
p270
aV \u2014
p271
aVEliminated
p272
ag129
ag129
ag129
ag129
ag129
ag129
ag129
ag129
ag129
ag129
aV Coby
p273
aV Coby
p274
aV Coby
p275
aV Coby
p276
aV Coby
p277
aV Coby
p278
aV Coby
p279
aV Stephenie
p280
aV Janu
p281
ag129
ag129
ag129
ag129
ag129
ag129
ag129
ag129
ag129
ag129
ag129
aV \u2014
p282
aV \u2014
p283
aV \u2014
p284
aV \u2014
p285
aV \u2014
p286
aV \u2014
p287
aV \u2014
p288
aVQuit
p289
ag129
ag129
ag129
ag129
ag129
ag129
ag129
ag129
ag129
ag129
ag129
ag129
aV Stephenie
p290
aV Stephenie
p291
aV Stephenie
p292
aV Stephenie
p293
aV Stephenie
p294
aV Stephenie
p295
aV Caryn
p296
ag129
ag129
ag129
ag129
ag129
ag129
ag129
ag129
ag129
ag129
ag129
ag129
ag129
aV Gregg
p297
aV Gregg
p298
aV Gregg
p299
aV Caryn
p300
aV Gregg
p301
aV Caryn
p302
ag129
ag129
ag129
ag129
ag129
ag129
ag129
ag129
ag129
ag129
ag129
ag129
ag129
ag129
aV Caryn
p303
aV Caryn
p304
aV Caryn
p305
aV Caryn
p306
aV Ian
p307
ag129
ag129
ag129
ag129
ag129
ag129
ag129
ag129
ag129
ag129
ag129
ag129
ag129
ag129
ag129
aV Ian
p308
aV Jenn
p309
aV Jenn
p310
aV Ian
p311
ag129
ag129
ag129
ag129
ag129
ag129
ag129
ag129
ag129
ag129
ag129
ag129
ag129
ag129
ag129
ag129
aV Ian
p312
aV Jenn
p313
aVNone
p314
aVNone
p315
ag129
ag129
ag129
ag129
ag129
ag129
ag129
ag129
ag129
ag129
ag129
ag129
ag129
ag129
ag129
ag129
aV Ian
p316
aV \u2014
p317
aV \u2014
p318
ag129
ag129
ag129
ag129
ag129
ag129
ag129
ag129
ag129
ag129
ag129
ag129
ag129
ag129
ag129
ag129
ag129
aS'Jury Vote'
p319
ag319
ag129
ag129
ag129
ag129
ag129
ag129
aV Katie
p320
ag129
ag129
ag129
ag129
ag129
ag129
ag129
ag129
ag129
ag129
aNag319
ag319
aV Tom
p321
aV Tom
p322
aV Tom
p323
aV Tom
p324
aV Tom
p325
aV Tom
p326
ag129
ag129
ag129
ag129
ag129
ag129
ag129
ag129
ag129
ag129
ag129
aNatp327
ba(lp328
g21
(g22
(dp329
g24
g25
(g26
(I0
tp330
g28
tp331
Rp332
(I1
(L23L
tp333
g35
I00
(lp334
g39
ag40
ag41
ag42
ag43
ag44
ag45
ag46
ag47
ag48
ag49
ag50
ag51
ag52
ag53
ag54
ag55
ag56
ag57
ag58
ag59
ag60
ag61
atp335
bsg63
Nstp336
Rp337
a(dp338
S'0.14.1'
p339
(dp340
S'axes'
p341
g20
sS'blocks'
p342
(lp343
(dp344
S'mgr_locs'
p345
c__builtin__
slice
p346
(I0
I23
I1
tp347
Rp348
sS'values'
p349
g107
sasstp350
bsbsS'num'
p351
I10
ssVTocantins
p352
(dp353
g3
Vhttp://survivor.wikia.com/wiki/Survivor:_Tocantins
p354
sg5
g6
(g7
g8
Ntp355
Rp356
(dp357
g12
g13
sg14
g15
sg16
g6
(g17
g8
Ntp358
Rp359
((lp360
g21
(g22
(dp361
g24
g25
(g26
(I0
tp362
g28
tp363
Rp364
(I1
(L16L
tp365
g35
I00
(lp366
VCarolina
p367
aVCandace
p368
aVJerry
p369
aVSandy
p370
aVSpencer
p371
aVSydney
p372
aVJoe
p373
aVBrendan
p374
aVTyson
p375
aVSierra
p376
aVDebbie
p377
aVCoach
p378
aVTaj
p379
aVErinn
p380
aVStephen
p381
aVJ.T.
p382
atp383
bsg63
Nstp384
Rp385
ag21
(g22
(dp386
g24
g25
(g26
(I0
tp387
g28
tp388
Rp389
(I1
(L16L
tp390
g35
I00
(lp391
VJ.T.
p392
aVStephen
p393
aVErinn
p394
aVTaj
p395
aVCoach
p396
aVDebbie
p397
aVSierra
p398
aVTyson
p399
aVBrendan
p400
aVJoe
p401
aVSydney
p402
aVSpencer
p403
aVSandy
p404
aVJerry
p405
aVCandace
p406
aVCarolina
p407
atp408
bsg63
g93
(g96
S'\x01\x00\x00\x00\x00\x00\x00\x00'
p409
tp410
Rp411
stp412
Rp413
a(lp414
g25
(g26
(I0
tp415
g28
tp416
Rp417
(I1
(L16L
L16L
tp418
g35
I00
(lp419
V Carolina
p420
aV Carolina
p421
aV \u2014
p422
aV Carolina
p423
aV \u2014
p424
aV \u2014
p425
aV \u2014
p426
aV \u2014
p427
aV \u2014
p428
aV Carolina
p429
aV Carolina
p430
aV Carolina
p431
aV Carolina
p432
aV \u2014
p433
aV \u2014
p434
aV Sandy
p435
aV \u2014
p436
aV \u2014
p437
aV Candace
p438
aV \u2014
p439
aV Candace
p440
aV Candace
p441
aV Candace
p442
aV Candace
p443
aV Candace
p444
aV \u2014
p445
aV \u2014
p446
aV \u2014
p447
aV \u2014
p448
aV Candace
p449
aV Sierra
p450
ag129
aV \u2014
p451
aV \u2014
p452
aV Jerry
p453
aV \u2014
p454
aV Jerry
p455
aV Jerry
p456
aV Jerry
p457
aV Jerry
p458
aV Jerry
p459
aV \u2014
p460
aV \u2014
p461
aV \u2014
p462
aV \u2014
p463
aV Erinn
p464
ag129
ag129
aV Sandy
p465
aV Sandy
p466
aV \u2014
p467
aV Joe
p468
aV \u2014
p469
aV \u2014
p470
aV \u2014
p471
aV \u2014
p472
aV \u2014
p473
aV Sandy
p474
aV Sandy
p475
aV Sandy
p476
aV Sydney
p477
ag129
ag129
ag129
aV Spencer
p478
aV Spencer
p479
aV \u2014
p480
aV Spencer
p481
aV \u2014
p482
aV \u2014
p483
aV \u2014
p484
aV \u2014
p485
aV \u2014
p486
aV Spencer
p487
aV Spencer
p488
aV Taj
p489
ag129
ag129
ag129
ag129
aV Sydney
p490
aV Sydney
p491
aV \u2014
p492
aV Sydney
p493
aV \u2014
p494
aV \u2014
p495
aV \u2014
p496
aV \u2014
p497
aV \u2014
p498
aV Taj
p499
aV Taj
p500
ag129
ag129
ag129
ag129
ag129
aV \u2014
p501
aV \u2014
p502
aV \u2014
p503
aV \u2014
p504
aV \u2014
p505
aV \u2014
p506
aV \u2014
p507
aV \u2014
p508
aV \u2014
p509
aVEvacuated
p510
ag129
ag129
ag129
ag129
ag129
ag129
aV Sierra
p511
aV Brendan
p512
aV Sierra
p513
aV Brendan
p514
aV Brendan
p515
aV Brendan
p516
aV Coach
p517
aV Sierra
p518
aV Coach
p519
ag129
ag129
ag129
ag129
ag129
ag129
ag129
aV Tyson
p520
aV Tyson
p521
aV Tyson
p522
aV Tyson
p523
aV Sierra
p524
aV Sierra
p525
aV Tyson
p526
aV Sierra
p527
ag129
ag129
ag129
ag129
ag129
ag129
ag129
ag129
aV Sierra
p528
aV Sierra
p529
aV Stephen
p530
aV Debbie
p531
aV Sierra
p532
aV Sierra
p533
aV Debbie
p534
ag129
ag129
ag129
ag129
ag129
ag129
ag129
ag129
ag129
aV Debbie
p535
aV Debbie
p536
aV Debbie
p537
aV Debbie
p538
aV Taj
p539
aV Coach
p540
ag129
ag129
ag129
ag129
ag129
ag129
ag129
ag129
ag129
ag129
aV Erinn
p541
aV Coach
p542
aV Coach
p543
aV Coach
p544
aV Erinn
p545
ag129
ag129
ag129
ag129
ag129
ag129
ag129
ag129
ag129
ag129
ag129
aV Taj
p546
aV Taj
p547
aV Taj
p548
aV Erinn
p549
ag129
ag129
ag129
ag129
ag129
ag129
ag129
ag129
ag129
ag129
ag129
ag129
aV Erinn
p550
aV \u2014
p551
aV \u2014
p552
ag129
ag129
ag129
ag129
ag129
ag129
ag129
ag129
ag129
ag129
ag129
ag129
ag129
ag319
ag319
ag129
ag129
ag129
ag129
ag129
ag129
ag129
ag129
ag129
ag129
ag129
ag129
ag129
ag129
ag319
ag319
aV J.T.
p553
aV J.T.
p554
aV J.T.
p555
aV J.T.
p556
aV J.T.
p557
aV J.T.
p558
aV J.T.
p559
ag129
ag129
ag129
ag129
ag129
ag129
ag129
atp560
ba(lp561
g21
(g22
(dp562
g24
g25
(g26
(I0
tp563
g28
tp564
Rp565
(I1
(L16L
tp566
g35
I00
(lp567
g367
ag368
ag369
ag370
ag371
ag372
ag373
ag374
ag375
ag376
ag377
ag378
ag379
ag380
ag381
ag382
atp568
bsg63
Nstp569
Rp570
a(dp571
g339
(dp572
g341
g360
sg342
(lp573
(dp574
g345
g346
(I0
I16
I1
tp575
Rp576
sg349
g417
sasstp577
bsbsg351
I18
ssVBorneo
p578
(dp579
g3
Vhttp://survivor.wikia.com/wiki/Survivor:_Borneo
p580
sg5
g6
(g7
g8
Ntp581
Rp582
(dp583
g12
g13
sg14
g15
sg16
g6
(g17
g8
Ntp584
Rp585
((lp586
g21
(g22
(dp587
g24
g25
(g26
(I0
tp588
g28
tp589
Rp590
(I1
(L17L
tp591
g35
I00
(lp592
VSonja
p593
aVB.B.
p594
aVStacey
p595
aVRamona
p596
aVDirk
p597
aVJoel
p598
aVGretchen
p599
aVGreg
p600
aVJenna
p601
aVGervase
p602
aVColleen
p603
aVSean
p604
aVSusan
p605
aVSusan
p606
aVRudy
p607
aVKelly
p608
aVRichard
p609
atp610
bsg63
Nstp611
Rp612
ag21
(g22
(dp613
g24
g25
(g26
(I0
tp614
g28
tp615
Rp616
(I1
(L16L
tp617
g35
I00
(lp618
VRichard
p619
aVKelly
p620
aVRudy
p621
aVSusan
p622
aVSean
p623
aVColleen
p624
aVGervase
p625
aVJenna
p626
aVGreg
p627
aVGretchen
p628
aVJoel
p629
aVDirk
p630
aVRamona
p631
aVStacey
p632
aVB.B.
p633
aVSonja
p634
atp635
bsg63
g93
(g96
S'\x01\x00\x00\x00\x00\x00\x00\x00'
p636
tp637
Rp638
stp639
Rp640
a(lp641
g25
(g26
(I0
tp642
g28
tp643
Rp644
(I1
(L17L
L16L
tp645
g35
I00
(lp646
V Stacey
p647
aV Rudy
p648
aV Sonja
p649
aV Sonja
p650
aV Sonja
p651
aV \u2014
p652
aV \u2014
p653
aV \u2014
p654
aV \u2014
p655
aV \u2014
p656
aV \u2014
p657
aV Sonja
p658
aV \u2014
p659
aV Rudy
p660
aV \u2014
p661
aV Rudy
p662
aV \u2014
p663
aV \u2014
p664
aV \u2014
p665
aV \u2014
p666
aV \u2014
p667
aV B.B.
p668
aV B.B.
p669
aV B.B.
p670
aV Ramona
p671
aV B.B.
p672
aV B.B.
p673
aV \u2014
p674
aV B.B.
p675
aV \u2014
p676
aV Ramona
p677
ag129
aV Stacey
p678
aV Rudy
p679
aV Stacey
p680
aV Stacey
p681
aV Stacey
p682
aV \u2014
p683
aV \u2014
p684
aV \u2014
p685
aV \u2014
p686
aV \u2014
p687
aV \u2014
p688
aV Stacey
p689
aV \u2014
p690
aV Rudy
p691
ag129
ag129
aV \u2014
p692
aV \u2014
p693
aV \u2014
p694
aV \u2014
p695
aV \u2014
p696
aV Ramona
p697
aV Colleen
p698
aV Ramona
p699
aV Jenna
p700
aV Ramona
p701
aV Ramona
p702
aV \u2014
p703
aV Colleen
p704
ag129
ag129
ag129
aV Dirk
p705
aV Dirk
p706
aV Dirk
p707
aV Dirk
p708
aV Rudy
p709
aV \u2014
p710
aV \u2014
p711
aV \u2014
p712
aV \u2014
p713
aV \u2014
p714
aV \u2014
p715
aV Susan
p716
ag129
ag129
ag129
ag129
aV \u2014
p717
aV \u2014
p718
aV \u2014
p719
aV \u2014
p720
aV \u2014
p721
aV Joel
p722
aV Jenna
p723
aV Joel
p724
aV Joel
p725
aV Joel
p726
aV Jenna
p727
ag129
ag129
ag129
ag129
ag129
aV Gretchen
p728
aV Gretchen
p729
aV Gretchen
p730
aV Gretchen
p731
aV Colleen
p732
aV Richard
p733
aV Susan
p734
aV Gervase
p735
aV Jenna
p736
aV Rudy
p737
ag129
ag129
ag129
ag129
ag129
ag129
aV Greg
p738
aV Greg
p739
aV Greg
p740
aV Greg
p741
aV Greg
p742
aV Jenna
p743
aV Jenna
p744
aV Greg
p745
aV Jenna
p746
ag129
ag129
ag129
ag129
ag129
ag129
ag129
aV Jenna
p747
aV Sean
p748
aV Jenna
p749
aV Jenna
p750
aV Jenna
p751
aV Richard
p752
aV Richard
p753
aV Richard
p754
ag129
ag129
ag129
ag129
ag129
ag129
ag129
ag129
aV Gervase
p755
aV Gervase
p756
aV Gervase
p757
aV Gervase
p758
aV Gervase
p759
aV Sean
p760
aV Sean
p761
ag129
ag129
ag129
ag129
ag129
ag129
ag129
ag129
ag129
aV Colleen
p762
aV Sean
p763
aV Colleen
p764
aV Colleen
p765
aV Colleen
p766
aV Sean
p767
ag129
ag129
ag129
ag129
ag129
ag129
ag129
ag129
ag129
ag129
aV Sean
p768
aV Sean
p769
aV Sean
p770
aV Sean
p771
aV Susan
p772
ag129
ag129
ag129
ag129
ag129
ag129
ag129
ag129
ag129
ag129
ag129
aV Susan
p773
aV Richard
p774
aV Susan
p775
aV Richard
p776
ag129
ag129
ag129
ag129
ag129
ag129
ag129
ag129
ag129
ag129
ag129
ag129
aVNone
p777
aV Susan
p778
aV Susan
p779
aVNone 
p780
ag129
ag129
ag129
ag129
ag129
ag129
ag129
ag129
ag129
ag129
ag129
ag129
aV \u2014
p781
aV Rudy
p782
aV \u2014
p783
ag129
ag129
ag129
ag129
ag129
ag129
ag129
ag129
ag129
ag129
ag129
ag129
ag129
ag319
ag319
ag129
ag129
ag129
aV Kelly
p784
aV Kelly
p785
aV Kelly
p786
ag129
ag129
ag129
ag129
ag129
ag129
ag129
ag129
ag319
ag319
aV Richard
p787
aV Richard
p788
aV Richard
p789
ag129
ag129
ag129
aV Richard
p790
ag129
ag129
ag129
ag129
ag129
ag129
ag129
atp791
ba(lp792
g21
(g22
(dp793
g24
g25
(g26
(I0
tp794
g28
tp795
Rp796
(I1
(L17L
tp797
g35
I00
(lp798
g593
ag594
ag595
ag596
ag597
ag598
ag599
ag600
ag601
ag602
ag603
ag604
ag605
ag606
ag607
ag608
ag609
atp799
bsg63
Nstp800
Rp801
a(dp802
g339
(dp803
g341
g586
sg342
(lp804
(dp805
g345
g346
(I0
I17
I1
tp806
Rp807
sg349
g644
sasstp808
bsbsg351
I1
ssVPanama
p809
(dp810
g3
Vhttp://survivor.wikia.com/wiki/Survivor:_Panama
p811
sg5
g6
(g7
g8
Ntp812
Rp813
(dp814
g12
g13
sg14
g15
sg16
g6
(g17
g8
Ntp815
Rp816
((lp817
g21
(g22
(dp818
g24
g25
(g26
(I0
tp819
g28
tp820
Rp821
(I1
(L16L
tp822
g35
I00
(lp823
VTina
p824
aVMelinda
p825
aVMisty
p826
aVRuth-Marie
p827
aVBobby
p828
aVDan
p829
aVNick
p830
aVAustin
p831
aVSally
p832
aVBruce
p833
aVCourtney
p834
aVShane
p835
aVCirie
p836
aVTerry
p837
aVDanielle
p838
aVAras
p839
atp840
bsg63
Nstp841
Rp842
ag21
(g22
(dp843
g24
g25
(g26
(I0
tp844
g28
tp845
Rp846
(I1
(L16L
tp847
g35
I00
(lp848
VAras
p849
aVDanielle
p850
aVTerry
p851
aVCirie
p852
aVShane
p853
aVCourtney
p854
aVBruce
p855
aVSally
p856
aVAustin
p857
aVNick
p858
aVDan
p859
aVBobby
p860
aVRuth-Marie
p861
aVMisty
p862
aVMelinda
p863
aVTina
p864
atp865
bsg63
g93
(g96
S'\x01\x00\x00\x00\x00\x00\x00\x00'
p866
tp867
Rp868
stp869
Rp870
a(lp871
g25
(g26
(I0
tp872
g28
tp873
Rp874
(I1
(L16L
L16L
tp875
g35
I00
(lp876
V \u2014
p877
aV \u2014
p878
aV \u2014
p879
aV Tina
p880
aV \u2014
p881
aV \u2014
p882
aV \u2014
p883
aV \u2014
p884
aV \u2014
p885
aV \u2014
p886
aV \u2014
p887
aV \u2014
p888
aV Tina
p889
aV \u2014
p890
aV Tina
p891
aV Cirie
p892
aV Melinda
p893
aV Melinda
p894
aV \u2014
p895
aV Shane
p896
aV Melinda
p897
aV Melinda
p898
aVExiled 
p899
aV \u2014
p900
aV \u2014
p901
aV \u2014
p902
aV \u2014
p903
aV Melinda
p904
aV \u2014
p905
aV \u2014
p906
aV Shane
p907
ag129
aV \u2014
p908
aV \u2014
p909
aV Misty
p910
aV \u2014
p911
aV \u2014
p912
aV \u2014
p913
aV \u2014
p914
aV Ruth-Marie
p915
aV Misty
p916
aV Misty
p917
aV Misty
p918
aV \u2014
p919
aV Misty
p920
aV Ruth-Marie
p921
ag129
ag129
aV \u2014
p922
aV \u2014
p923
aV Ruth-Marie
p924
aV \u2014
p925
aV \u2014
p926
aV \u2014
p927
aV \u2014
p928
aV Ruth-Marie
p929
aV Ruth-Marie
p930
aV Ruth-Marie
p931
aV Sally
p932
aV \u2014
p933
aV Sally
p934
ag129
ag129
ag129
aV Bruce
p935
aV Bobby
p936
aV \u2014
p937
aV Bobby
p938
aV Aras
p939
aV Bobby
p940
aV Courtney
p941
aV \u2014
p942
aV \u2014
p943
aV \u2014
p944
aV \u2014
p945
aV Bruce
p946
ag129
ag129
ag129
ag129
aV \u2014
p947
aV \u2014
p948
aV Dan
p949
aV \u2014
p950
aV \u2014
p951
aV \u2014
p952
aV \u2014
p953
aVExiled 
p954
aV Dan
p955
aV Dan
p956
aV Austin
p957
ag129
ag129
ag129
ag129
ag129
aV Nick
p958
aV Nick
p959
aV Shane
p960
aV Nick
p961
aV Nick
p962
aV Nick
p963
aV Nick
p964
aV Shane
p965
aV Shane
p966
aV Shane
p967
ag129
ag129
ag129
ag129
ag129
ag129
aV Austin
p968
aV Austin
p969
aV Aras
p970
aV Austin
p971
aV Austin
p972
aV Austin
p973
aV Austin
p974
aV Aras
p975
aV Aras
p976
ag129
ag129
ag129
ag129
ag129
ag129
ag129
aV Sally
p977
aV Sally
p978
aV Aras
p979
aV Sally
p980
aV Sally
p981
aV Sally
p982
aV Sally
p983
aV Aras
p984
ag129
ag129
ag129
ag129
ag129
ag129
ag129
ag129
aV \u2014
p985
aV \u2014
p986
aV \u2014
p987
aV \u2014
p988
aV \u2014
p989
aV \u2014
p990
aVEvacuated
p991
ag129
ag129
ag129
ag129
ag129
ag129
ag129
ag129
ag129
aV Courtney
p992
aV Courtney
p993
aV Aras
p994
aV Courtney
p995
aV Danielle
p996
aV Aras
p997
ag129
ag129
ag129
ag129
ag129
ag129
ag129
ag129
ag129
ag129
aV Shane
p998
aV Shane
p999
aV Aras
p1000
aV Shane
p1001
aV Danielle
p1002
ag129
ag129
ag129
ag129
ag129
ag129
ag129
ag129
ag129
ag129
ag129
aV Danielle
p1003
aV Cirie
p1004
aV Cirie
p1005
aV Danielle
p1006
ag129
ag129
ag129
ag129
ag129
ag129
ag129
ag129
ag129
ag129
ag129
ag129
aV \u2014
p1007
aV Terry
p1008
aV \u2014
p1009
ag129
ag129
ag129
ag129
ag129
ag129
ag129
ag129
ag129
ag129
ag129
ag129
ag129
ag319
ag319
ag129
ag129
aV Danielle
p1010
ag129
aV Danielle
p1011
ag129
ag129
ag129
ag129
ag129
ag129
ag129
ag129
ag129
ag319
ag319
aV Aras
p1012
aV Aras
p1013
ag129
aV Aras
p1014
ag129
aV Aras
p1015
aV Aras
p1016
ag129
ag129
ag129
ag129
ag129
ag129
ag129
atp1017
ba(lp1018
g21
(g22
(dp1019
g24
g25
(g26
(I0
tp1020
g28
tp1021
Rp1022
(I1
(L16L
tp1023
g35
I00
(lp1024
g824
ag825
ag826
ag827
ag828
ag829
ag830
ag831
ag832
ag833
ag834
ag835
ag836
ag837
ag838
ag839
atp1025
bsg63
Nstp1026
Rp1027
a(dp1028
g339
(dp1029
g341
g817
sg342
(lp1030
(dp1031
g345
g346
(I0
I16
I1
tp1032
Rp1033
sg349
g874
sasstp1034
bsbsg351
I12
ssVCambodia
p1035
(dp1036
g3
Vhttp://survivor.wikia.com/wiki/Survivor:_Cambodia
p1037
sg5
g6
(g7
g8
Ntp1038
Rp1039
(dp1040
g12
g13
sg14
g15
sg16
g6
(g17
g8
Ntp1041
Rp1042
((lp1043
g21
(g22
(dp1044
g24
g25
(g26
(I0
tp1045
g28
tp1046
Rp1047
(I1
(L16L
tp1048
g35
I00
(lp1049
VVytas
p1050
aVShirin
p1051
aVPeih-Gee
p1052
aVJeff
p1053
aVMonica
p1054
aVTerry
p1055
aVWoo
p1056
aVKass
p1057
aVAndrew
p1058
aVKelly
p1059
aVCiera
p1060
aVStephen
p1061
aVStephen
p1062
aVJoe
p1063
aVAbi-Maria
p1064
aVTBA
p1065
atp1066
bsg63
Nstp1067
Rp1068
ag21
(g22
(dp1069
g24
g25
(g26
(I0
tp1070
g28
tp1071
Rp1072
(I1
(L20L
tp1073
g35
I00
(lp1074
VJeremy
p1075
aVKeith
p1076
aVKelley
p1077
aVKimmi
p1078
aVSpencer
p1079
aVTasha
p1080
aVAbi-Maria
p1081
aVJoe
p1082
aVStephen
p1083
aVCiera
p1084
aVKelly
p1085
aVAndrew
p1086
aVKass
p1087
aVWoo
p1088
aVTerry
p1089
aVMonica
p1090
aVJeff
p1091
aVPeih-Gee
p1092
aVShirin
p1093
aVVytas
p1094
atp1095
bsg63
g93
(g96
S'\x01\x00\x00\x00\x00\x00\x00\x00'
p1096
tp1097
Rp1098
stp1099
Rp1100
a(lp1101
g25
(g26
(I0
tp1102
g28
tp1103
Rp1104
(I1
(L16L
L20L
tp1105
g35
I00
(lp1106
V \u2014
p1107
aV \u2014
p1108
aV Vytas
p1109
aV \u2014
p1110
aV Vytas
p1111
aV \u2014
p1112
aV Vytas
p1113
aV \u2014
p1114
aV \u2014
p1115
aV \u2014
p1116
aV Abi-Maria
p1117
aV \u2014
p1118
aV \u2014
p1119
aV Abi-Maria
p1120
aV Abi-Maria
p1121
aV \u2014
p1122
aV Vytas
p1123
aV Vytas
p1124
aV Vytas
p1125
aV Abi-Maria
p1126
aV \u2014
p1127
aV \u2014
p1128
aV Spencer
p1129
aV \u2014
p1130
aV Shirin
p1131
aV \u2014
p1132
aV Spencer
p1133
aV \u2014
p1134
aV \u2014
p1135
aV \u2014
p1136
aV Shirin
p1137
aV \u2014
p1138
aV \u2014
p1139
aV Shirin
p1140
aV Spencer
p1141
aV \u2014
p1142
aV Shirin
p1143
aV Shirin
p1144
aV Spencer
p1145
ag129
aV \u2014
p1146
aV \u2014
p1147
aV \u2014
p1148
aV \u2014
p1149
aV \u2014
p1150
aV Peih-Gee
p1151
aV Peih-Gee
p1152
aV \u2014
p1153
aV \u2014
p1154
aV \u2014
p1155
aV \u2014
p1156
aV Peih-Gee
p1157
aV \u2014
p1158
aV Abi-Maria
p1159
aV \u2014
p1160
aV \u2014
p1161
aV Peih-Gee
p1162
aV Abi-Maria
p1163
ag129
ag129
aV \u2014
p1164
aV \u2014
p1165
aV \u2014
p1166
aV \u2014
p1167
aV \u2014
p1168
aV Jeff
p1169
aV Jeff
p1170
aV \u2014
p1171
aV \u2014
p1172
aV \u2014
p1173
aV \u2014
p1174
aV Jeff
p1175
aV \u2014
p1176
aV Jeff
p1177
aV \u2014
p1178
aV \u2014
p1179
aV Woo
p1180
ag129
ag129
ag129
aV Monica
p1181
aV \u2014
p1182
aV \u2014
p1183
aV Monica
p1184
aV Kelly
p1185
aV \u2014
p1186
aV \u2014
p1187
aV \u2014
p1188
aV Monica
p1189
aV \u2014
p1190
aV Spencer
p1191
aV \u2014
p1192
aV \u2014
p1193
aV \u2014
p1194
aV \u2014
p1195
aV Kelly
p1196
ag129
ag129
ag129
ag129
aV \u2014
p1197
aV \u2014
p1198
aV \u2014
p1199
aV \u2014
p1200
aV \u2014
p1201
aV \u2014
p1202
aV \u2014
p1203
aV \u2014
p1204
aV \u2014
p1205
aV \u2014
p1206
aV \u2014
p1207
aV \u2014
p1208
aV \u2014
p1209
aV \u2014
p1210
aV Evacuated
p1211
ag129
ag129
ag129
ag129
ag129
aV \u2014
p1212
aV \u2014
p1213
aV \u2014
p1214
aV \u2014
p1215
aV Woo
p1216
aV \u2014
p1217
aV Woo
p1218
aV \u2014
p1219
aV \u2014
p1220
aV Woo
p1221
aV Spencer
p1222
aV Spencer
p1223
aV Woo
p1224
aV Spencer
p1225
ag129
ag129
ag129
ag129
ag129
ag129
aV Ciera
p1226
aV Kass
p1227
aV Kass
p1228
aV Kass
p1229
aV Ciera
p1230
aV Kass
p1231
aV Tasha
p1232
aV Ciera
p1233
aV Kass
p1234
aV Andrew
p1235
aV Ciera
p1236
aV Kass
p1237
aV Tasha
p1238
ag129
ag129
ag129
ag129
ag129
ag129
ag129
aV Kelley
p1239
aV Kelley
p1240
aV Andrew
p1241
aV Kelley
p1242
aV Kelley
p1243
aV Kelley
p1244
aV Andrew
p1245
aV Kelley
p1246
aV Kelley
p1247
aV Andrew
p1248
aV Kelley
p1249
aV Kelley
p1250
ag129
ag129
ag129
ag129
ag129
ag129
ag129
ag129
aV Kelly
p1251
aV Kelley
p1252
aV Kelly
p1253
aV Ciera
p1254
aV Kelly
p1255
aV Ciera
p1256
aV Kelly
p1257
aV Kelley
p1258
aV Kelly
p1259
aV Kelly
p1260
aV Ciera
p1261
ag129
ag129
ag129
ag129
ag129
ag129
ag129
ag129
ag129
aV Ciera
p1262
aV Stephen
p1263
aV Kimmi
p1264
aV Ciera
p1265
aV Stephen
p1266
aV Stephen
p1267
aV Stephen
p1268
aV Stephen
p1269
aV Ciera
p1270
aV Kimmi
p1271
ag129
ag129
ag129
ag129
ag129
ag129
ag129
ag129
ag129
ag129
aV Joe
p1272
aV Stephen
p1273
aV Stephen
p1274
aV Abi-Maria
p1275
aV Stephen
p1276
aV Abi-Maria
p1277
aV Stephen
p1278
aV None
p1279
aV Abi-Maria
p1280
ag129
ag129
ag129
ag129
ag129
ag129
ag129
ag129
ag129
ag129
ag129
ag1272
ag1273
ag1274
ag1275
ag1276
ag1277
ag1278
ag1279
aV Joe
p1281
ag129
ag129
ag129
ag129
ag129
ag129
ag129
ag129
ag129
ag129
ag129
ag319
ag319
ag319
aV Joe
p1282
aV Joe
p1283
aV Joe
p1284
aV Joe
p1285
aV Abi-Maria
p1286
ag129
ag129
ag129
ag129
ag129
ag129
ag129
ag129
ag129
ag129
ag129
ag129
ag319
ag319
ag319
aV Abi-Maria
p1287
aV Abi-Maria
p1288
aV Abi-Maria
p1289
aV Keith
p1290
ag129
ag129
ag129
ag129
ag129
ag129
ag129
ag129
ag129
ag129
ag129
ag129
ag129
ag319
ag319
ag319
aV TBA
p1291
aV TBA
p1292
aV TBA
p1293
ag129
ag129
ag129
ag129
ag129
ag129
ag129
ag129
ag129
ag129
ag129
ag129
ag129
ag129
atp1294
ba(lp1295
g21
(g22
(dp1296
g24
g25
(g26
(I0
tp1297
g28
tp1298
Rp1299
(I1
(L16L
tp1300
g35
I00
(lp1301
g1050
ag1051
ag1052
ag1053
ag1054
ag1055
ag1056
ag1057
ag1058
ag1059
ag1060
ag1061
ag1062
ag1063
ag1064
ag1065
atp1302
bsg63
Nstp1303
Rp1304
a(dp1305
g339
(dp1306
g341
g1043
sg342
(lp1307
(dp1308
g345
g346
(I0
I16
I1
tp1309
Rp1310
sg349
g1104
sasstp1311
bsbsg351
I31
ssVBlood_vs._Water
p1312
(dp1313
g3
Vhttp://survivor.wikia.com/wiki/Survivor:_Blood_vs._Water
p1314
sg5
g6
(g7
g8
Ntp1315
Rp1316
(dp1317
g12
g13
sg14
g15
sg16
g6
(g17
g8
Ntp1318
Rp1319
((lp1320
g21
(g22
(dp1321
g24
g25
(g26
(I0
tp1322
g28
tp1323
Rp1324
(I1
(L25L
tp1325
g35
I00
(lp1326
VLaura B.
p1327
aVCandice
p1328
aVRupert
p1329
aVMarissa
p1330
aVRachel
p1331
aVColton
p1332
aVJohn
p1333
aVBrad
p1334
aVBrad
p1335
aVLaura M.
p1336
aVKat
p1337
aVLaura B.
p1338
aVAras
p1339
aVVytas
p1340
aVTina
p1341
aVLaura M.
p1342
aVCaleb
p1343
aVKatie
p1344
aVKatie
p1345
aVHayden
p1346
aVCiera
p1347
aVTina
p1348
aVGervase
p1349
aVMonica
p1350
aVTyson
p1351
atp1352
bsg63
Nstp1353
Rp1354
ag21
(g22
(dp1355
g24
g25
(g26
(I0
tp1356
g28
tp1357
Rp1358
(I1
(L20L
tp1359
g35
I00
(lp1360
VTyson
p1361
aVMonica
p1362
aVGervase
p1363
aVTina
p1364
aVCiera
p1365
aVLaura M.
p1366
aVHayden
p1367
aVKatie
p1368
aVCaleb
p1369
aVVytas
p1370
aVAras
p1371
aVLaura B.
p1372
aVJohn
p1373
aVKat
p1374
aVBrad
p1375
aVCandice
p1376
aVMarissa
p1377
aVRachel
p1378
aVColton
p1379
aVRupert
p1380
atp1381
bsg63
g93
(g96
S'\x01\x00\x00\x00\x00\x00\x00\x00'
p1382
tp1383
Rp1384
stp1385
Rp1386
a(lp1387
g25
(g26
(I0
tp1388
g28
tp1389
Rp1390
(I1
(L25L
L20L
tp1391
g35
I00
(lp1392
V\u2014
p1393
aV\u2014
p1394
aV\u2014
p1395
aV\u2014
p1396
aV Laura B.
p1397
aV\u2014
p1398
aV Laura B.
p1399
aV Marissa
p1400
aV Laura B.
p1401
aV Laura B.
p1402
aV\u2014
p1403
aV Marissa
p1404
aV Laura B.
p1405
aV\u2014
p1406
aV Laura B.
p1407
aV\u2014
p1408
aV Brad
p1409
aV Katie
p1410
aV\u2014
p1411
aV\u2014
p1412
aV Laura M.
p1413
aV Candice
p1414
aV Candice
p1415
aV Candice
p1416
aV\u2014
p1417
aV Candice
p1418
aV\u2014
p1419
aV\u2014
p1420
aV\u2014
p1421
aV\u2014
p1422
aV Gervase
p1423
ag129
aV\u2014
p1424
aV Candice
p1425
aV\u2014
p1426
aV Laura M.
p1427
aV\u2014
p1428
aV\u2014
p1429
aV Candice
p1430
aV Laura M.
p1431
aV\u2014
p1432
aV\u2014
p1433
aV\u2014
p1434
aV\u2014
p1435
ag1417
aV\u2014
p1436
ag1419
ag1420
ag1421
ag1422
aV\u2014
p1437
aV Switched
p1438
ag1424
aV\u2014
p1439
ag1426
ag129
ag1428
ag1429
aV\u2014
p1440
aVSwitched
p1441
ag1432
ag1433
ag1434
ag1435
aV Marissa
p1442
ag1436
aV Marissa
p1443
aV Marissa
p1444
aV Marissa
p1445
aV Marissa
p1446
ag1437
aV\u2014
p1447
aV Marissa
p1448
ag1439
aV Marissa
p1449
ag129
aV Katie
p1450
aV Marissa
p1451
ag1440
ag129
aV\u2014
p1452
aV\u2014
p1453
aV\u2014
p1454
aV\u2014
p1455
aV John
p1456
aV\u2014
p1457
aV Rachel
p1458
aV John
p1459
aV Rachel
p1460
aV Rachel
p1461
aV\u2014
p1462
aV\u2014
p1463
aV Rachel
p1464
aV\u2014
p1465
aV Rachel
p1466
ag129
ag129
aV Ciera
p1467
aV\u2014
p1468
ag129
aV\u2014
p1469
aV\u2014
p1470
aV\u2014
p1471
aV\u2014
p1472
aV\u2014
p1473
aV\u2014
p1474
aV\u2014
p1475
aV\u2014
p1476
aV\u2014
p1477
aV\u2014
p1478
aV\u2014
p1479
aV\u2014
p1480
aV\u2014
p1481
aV\u2014
p1482
aV\u2014
p1483
ag129
ag129
ag129
aVQuit
p1484
ag129
ag1469
ag1470
ag1471
ag1472
aV John
p1485
ag1474
aV John
p1486
aV John
p1487
aV John
p1488
aV John
p1489
ag1479
ag1480
aV Ciera
p1490
ag1482
aV John
p1491
ag129
ag129
ag129
ag129
ag129
aV\u2014
p1492
aV\u2014
p1493
aV\u2014
p1494
aV\u2014
p1495
aV Brad
p1496
aV\u2014
p1497
aV Ciera
p1498
aV Brad
p1499
aV Brad
p1500
aV Ciera
p1501
aV\u2014
p1502
aV\u2014
p1503
ag129
aV\u2014
p1504
aV Ciera
p1505
ag129
ag129
ag129
ag129
ag129
ag1492
ag1493
ag1494
ag1495
aVNone
p1506
ag1497
aV Ciera
p1507
aV Brad
p1508
aV Brad
p1509
aV Brad
p1510
ag1502
ag1503
ag129
ag1504
aVNone
p1511
ag129
ag129
ag129
ag129
ag129
aV Laura M.
p1512
aV Laura M.
p1513
aV Laura M.
p1514
aV Laura M.
p1515
aV\u2014
p1516
aV Laura B.
p1517
aV\u2014
p1518
aV\u2014
p1519
aV\u2014
p1520
aV\u2014
p1521
aV Laura M.
p1522
aV Laura M.
p1523
ag129
aV Laura M.
p1524
ag129
ag129
ag129
ag129
ag129
ag129
aV\u2014
p1525
aV Kat
p1526
aV\u2014
p1527
aV Kat
p1528
aV\u2014
p1529
ag129
aV\u2014
p1530
aV Kat
p1531
aV\u2014
p1532
aV Kat
p1533
aV\u2014
p1534
aV Kat
p1535
ag129
aV Vytas
p1536
ag129
ag129
ag129
ag129
ag129
ag129
aV\u2014
p1537
aV Laura B.
p1538
aV\u2014
p1539
aV Laura B.
p1540
aV\u2014
p1541
ag129
aV\u2014
p1542
aV Laura B.
p1543
aV\u2014
p1544
aV Laura B.
p1545
aV\u2014
p1546
aV Vytas
p1547
ag129
ag129
ag129
ag129
ag129
ag129
ag129
ag129
aV Aras
p1548
aV Aras
p1549
aV Aras
p1550
aV Ciera
p1551
aV Aras
p1552
aV Aras
p1553
aV Aras
p1554
aV Ciera
p1555
aV Aras
p1556
aV Laura M.
p1557
aV Laura M.
p1558
ag129
ag129
ag129
ag129
ag129
ag129
ag129
ag129
ag129
aV Vytas
p1559
aV Vytas
p1560
aV Vytas
p1561
aV Vytas
p1562
aV Katie
p1563
aV Vytas
p1564
aV Vytas
p1565
aV Vytas
p1566
aV Vytas
p1567
aV Tyson
p1568
ag129
ag129
ag129
ag129
ag129
ag129
ag129
ag129
ag129
ag129
aV Tina
p1569
aV Tina
p1570
aV Tina
p1571
aV Tyson
p1572
aV Tina
p1573
aV Tina
p1574
aV Tina
p1575
aV Monica
p1576
aV Tina
p1577
ag129
ag129
ag129
ag129
ag129
ag129
ag129
ag129
ag129
ag129
ag129
aV Laura M.
p1578
aV Laura M.
p1579
aV Laura M.
p1580
ag129
aV Laura M.
p1581
aV Katie
p1582
aV Laura M.
p1583
aV Laura M.
p1584
aV Laura M.
p1585
ag129
ag129
ag129
ag129
ag129
ag129
ag129
ag129
ag129
ag129
ag129
aV Caleb
p1586
aV Caleb
p1587
aV Caleb
p1588
ag129
aV Caleb
p1589
ag129
aV Ciera
p1590
aV Ciera
p1591
aV Ciera
p1592
ag129
ag129
ag129
ag129
ag129
ag129
ag129
ag129
ag129
ag129
ag129
aV Hayden
p1593
aV Hayden
p1594
aV Hayden
p1595
ag129
aV Monica
p1596
ag129
aV Monica
p1597
aV Monica
p1598
ag129
ag129
ag129
ag129
ag129
ag129
ag129
ag129
ag129
ag129
ag129
ag129
aV Hayden
p1599
aVNone
p1600
aV Hayden
p1601
ag129
aV Monica
p1602
ag129
aVNone
p1603
aV Monica
p1604
ag129
ag129
ag129
ag129
ag129
ag129
ag129
ag129
ag129
ag129
ag129
ag129
aV Hayden
p1605
aV Hayden
p1606
aV Hayden
p1607
ag129
aV Gervase
p1608
ag129
aV Gervase
p1609
ag129
ag129
ag129
ag129
ag129
ag129
ag129
ag129
ag129
ag129
ag129
ag129
ag129
aV Ciera
p1610
aV Ciera
p1611
aV Ciera
p1612
aV Gervase
p1613
aV Gervase
p1614
ag129
ag129
ag129
ag129
ag129
ag129
ag129
ag129
ag129
ag129
ag129
ag129
ag129
ag129
ag129
aV Tina
p1615
aV Tina
p1616
aV Tina
p1617
aV Gervase
p1618
ag129
ag129
ag129
ag129
ag129
ag129
ag129
ag129
ag129
ag129
ag129
ag129
ag129
ag129
ag129
ag129
ag319
ag319
ag319
ag129
ag129
ag129
ag129
ag129
ag129
ag129
ag129
ag129
ag129
ag129
ag129
ag129
ag129
ag129
ag129
ag129
ag319
ag319
ag319
ag129
ag129
ag129
ag129
ag129
ag129
aV Monica
p1619
ag129
ag129
ag129
ag129
ag129
ag129
ag129
ag129
ag129
ag129
ag319
ag319
ag319
aV Tyson
p1620
aV Tyson
p1621
aV Tyson
p1622
aV Tyson
p1623
aV Tyson
p1624
aV Tyson
p1625
ag129
aV Tyson
p1626
ag129
ag129
ag129
ag129
ag129
ag129
ag129
ag129
ag129
atp1627
ba(lp1628
g21
(g22
(dp1629
g24
g25
(g26
(I0
tp1630
g28
tp1631
Rp1632
(I1
(L25L
tp1633
g35
I00
(lp1634
g1327
ag1328
ag1329
ag1330
ag1331
ag1332
ag1333
ag1334
ag1335
ag1336
ag1337
ag1338
ag1339
ag1340
ag1341
ag1342
ag1343
ag1344
ag1345
ag1346
ag1347
ag1348
ag1349
ag1350
ag1351
atp1635
bsg63
Nstp1636
Rp1637
a(dp1638
g339
(dp1639
g341
g1320
sg342
(lp1640
(dp1641
g345
g346
(I0
I25
I1
tp1642
Rp1643
sg349
g1390
sasstp1644
bsbsg351
I27
ssVMarquesas
p1645
(dp1646
g3
Vhttp://survivor.wikia.com/wiki/Survivor:_Marquesas
p1647
sg5
g6
(g7
g8
Ntp1648
Rp1649
(dp1650
g12
g13
sg14
g15
sg16
g6
(g17
g8
Ntp1651
Rp1652
((lp1653
g21
(g22
(dp1654
g24
g25
(g26
(I0
tp1655
g28
tp1656
Rp1657
(I1
(L17L
tp1658
g35
I00
(lp1659
VPeter
p1660
aVPatricia
p1661
aVHunter
p1662
aVSarah
p1663
aVGabriel
p1664
aVGina
p1665
aVRob
p1666
aVJohn
p1667
aVZoe
p1668
aVTammy
p1669
aVRobert
p1670
aVSean
p1671
aVPaschal
p1672
aVPaschal
p1673
aVKathy
p1674
aVNeleh
p1675
aVVecepia
p1676
atp1677
bsg63
Nstp1678
Rp1679
ag21
(g22
(dp1680
g24
g25
(g26
(I0
tp1681
g28
tp1682
Rp1683
(I1
(L16L
tp1684
g35
I00
(lp1685
VVecepia
p1686
aVNeleh
p1687
aVKathy
p1688
aVPaschal
p1689
aVSean
p1690
aVRobert
p1691
aVTammy
p1692
aVZoe
p1693
aVJohn
p1694
aVRob
p1695
aVGina
p1696
aVGabriel
p1697
aVSarah
p1698
aVHunter
p1699
aVPatricia
p1700
aVPeter
p1701
atp1702
bsg63
g93
(g96
S'\x01\x00\x00\x00\x00\x00\x00\x00'
p1703
tp1704
Rp1705
stp1706
Rp1707
a(lp1708
g25
(g26
(I0
tp1709
g28
tp1710
Rp1711
(I1
(L17L
L16L
tp1712
g35
I00
(lp1713
V Sarah
p1714
aV \u2014
p1715
aV \u2014
p1716
aV \u2014
p1717
aV Sarah
p1718
aV \u2014
p1719
aV \u2014
p1720
aV \u2014
p1721
aV \u2014
p1722
aV Peter
p1723
aV Peter
p1724
aV \u2014
p1725
aV Peter
p1726
aV Peter
p1727
aV Peter
p1728
aV Patricia
p1729
aV Patricia
p1730
aV \u2014
p1731
aV \u2014
p1732
aV \u2014
p1733
aV Patricia
p1734
aV \u2014
p1735
aV \u2014
p1736
aV \u2014
p1737
aV \u2014
p1738
aV Patricia
p1739
aV Sarah
p1740
aV \u2014
p1741
aV Patricia
p1742
aV Sarah
p1743
aV Sarah
p1744
ag129
aV Hunter
p1745
aV \u2014
p1746
aV \u2014
p1747
aV \u2014
p1748
aV Hunter
p1749
aV \u2014
p1750
aV \u2014
p1751
aV \u2014
p1752
aV \u2014
p1753
aV Hunter
p1754
aV Sarah
p1755
aV \u2014
p1756
aV Hunter
p1757
aV Sarah
p1758
ag129
ag129
aV \u2014
p1759
aV Sarah
p1760
aV Sarah
p1761
aV Sarah
p1762
aV \u2014
p1763
aV \u2014
p1764
aV \u2014
p1765
aV \u2014
p1766
aV \u2014
p1767
aV \u2014
p1768
aV Sarah
p1769
aV \u2014
p1770
aV Kathy
p1771
ag129
ag129
ag129
aV Gabriel
p1772
aV \u2014
p1773
aV \u2014
p1774
aV \u2014
p1775
aV Gabriel
p1776
aV Gabriel
p1777
aV Gabriel
p1778
aV Gabriel
p1779
aV Gabriel
p1780
aV Gabriel
p1781
aV \u2014
p1782
aV Rob
p1783
ag129
ag129
ag129
ag129
aV \u2014
p1784
aV Gina
p1785
aV Gina
p1786
aV Gina
p1787
aV \u2014
p1788
aV \u2014
p1789
aV \u2014
p1790
aV \u2014
p1791
aV \u2014
p1792
aV \u2014
p1793
aV Kathy
p1794
ag129
ag129
ag129
ag129
ag129
aV Rob
p1795
aV Rob
p1796
aV Zoe
p1797
aV Rob
p1798
aV John
p1799
aV Rob
p1800
aV Rob
p1801
aV Rob
p1802
aV Rob
p1803
aV John
p1804
ag129
ag129
ag129
ag129
ag129
ag129
aV John
p1805
aV John
p1806
aV John
p1807
aV John
p1808
aV John
p1809
aV Sean
p1810
aV Sean
p1811
aV John
p1812
aV Sean
p1813
ag129
ag129
ag129
ag129
ag129
ag129
ag129
aV Zoe
p1814
aV Zoe
p1815
aV Zoe
p1816
aV Zoe
p1817
aV Zoe
p1818
aV Zoe
p1819
aV Zoe
p1820
aV Robert
p1821
ag129
ag129
ag129
ag129
ag129
ag129
ag129
ag129
aV Tammy
p1822
aV Tammy
p1823
aV Tammy
p1824
aV Tammy
p1825
aV Tammy
p1826
aV Vecepia
p1827
aV Vecepia
p1828
ag129
ag129
ag129
ag129
ag129
ag129
ag129
ag129
ag129
aV Robert
p1829
aV Robert
p1830
aV Robert
p1831
aV Robert
p1832
aV Robert
p1833
aV Sean
p1834
ag129
ag129
ag129
ag129
ag129
ag129
ag129
ag129
ag129
ag129
aV Neleh
p1835
aV Sean
p1836
aV Sean
p1837
aV Sean
p1838
aV Neleh
p1839
ag129
ag129
ag129
ag129
ag129
ag129
ag129
ag129
ag129
ag129
ag129
aV Neleh
p1840
aV Kathy
p1841
aV Neleh
p1842
aV Kathy
p1843
ag129
ag129
ag129
ag129
ag129
ag129
ag129
ag129
ag129
ag129
ag129
ag129
aV \u2014
p1844
aV \u2014
p1845
aV \u2014
p1846
aVEliminated
p1847
ag129
ag129
ag129
ag129
ag129
ag129
ag129
ag129
ag129
ag129
ag129
ag129
aV \u2014
p1848
aV Kathy
p1849
aV \u2014
p1850
ag129
ag129
ag129
ag129
ag129
ag129
ag129
ag129
ag129
ag129
ag129
ag129
ag129
ag319
ag319
aV Neleh
p1851
aV Neleh
p1852
ag129
ag129
ag129
aV Neleh
p1853
ag129
ag129
ag129
ag129
ag129
ag129
ag129
ag129
ag319
ag319
ag129
ag129
aV Vecepia
p1854
aV Vecepia
p1855
aV Vecepia
p1856
ag129
aV Vecepia
p1857
ag129
ag129
ag129
ag129
ag129
ag129
ag129
atp1858
ba(lp1859
g21
(g22
(dp1860
g24
g25
(g26
(I0
tp1861
g28
tp1862
Rp1863
(I1
(L17L
tp1864
g35
I00
(lp1865
g1660
ag1661
ag1662
ag1663
ag1664
ag1665
ag1666
ag1667
ag1668
ag1669
ag1670
ag1671
ag1672
ag1673
ag1674
ag1675
ag1676
atp1866
bsg63
Nstp1867
Rp1868
a(dp1869
g339
(dp1870
g341
g1653
sg342
(lp1871
(dp1872
g345
g346
(I0
I17
I1
tp1873
Rp1874
sg349
g1711
sasstp1875
bsbsg351
I4
ssVPearl_Islands
p1876
(dp1877
g3
Vhttp://survivor.wikia.com/wiki/Survivor:_Pearl_Islands
p1878
sg5
g6
(g7
g8
Ntp1879
Rp1880
(dp1881
g12
g13
sg14
g15
sg16
g6
(g17
g8
Ntp1882
Rp1883
((lp1884
g21
(g22
(dp1885
g24
g25
(g26
(I0
tp1886
g28
tp1887
Rp1888
(I1
(L20L
tp1889
g35
I00
(lp1890
VNicole
p1891
aVRyan S.
p1892
aVLillian
p1893
aVBurton
p1894
aVMichelle
p1895
aVTrish
p1896
aVShawn
p1897
aVOsten
p1898
aVBurton
p1899
aVLillian
p1900
aVAndrew
p1901
aVRyan O.
p1902
aVRupert
p1903
aVTijuana
p1904
aVChrista
p1905
aVBurton
p1906
aVDarrah
p1907
aVJon
p1908
aVLillian
p1909
aVSandra
p1910
atp1911
bsg63
Nstp1912
Rp1913
ag21
(g22
(dp1914
g24
g25
(g26
(I0
tp1915
g28
tp1916
Rp1917
(I1
(L16L
tp1918
g35
I00
(lp1919
VSandra
p1920
aVLillian
p1921
aVJon
p1922
aVDarrah
p1923
aVBurton
p1924
aVChrista
p1925
aVTijuana
p1926
aVRupert
p1927
aVRyan O.
p1928
aVAndrew
p1929
aVOsten
p1930
aVShawn
p1931
aVTrish
p1932
aVMichelle
p1933
aVRyan S.
p1934
aVNicole
p1935
atp1936
bsg63
g93
(g96
S'\x01\x00\x00\x00\x00\x00\x00\x00'
p1937
tp1938
Rp1939
stp1940
Rp1941
a(lp1942
g25
(g26
(I0
tp1943
g28
tp1944
Rp1945
(I1
(L20L
L16L
tp1946
g35
I00
(lp1947
V \u2014
p1948
aV Nicole
p1949
aV \u2014
p1950
aV Nicole
p1951
aV \u2014
p1952
aV \u2014
p1953
aV Nicole
p1954
aV \u2014
p1955
aV Nicole
p1956
aV Nicole
p1957
aV Nicole
p1958
aV \u2014
p1959
aV \u2014
p1960
aV \u2014
p1961
aV Nicole
p1962
aV Ryan S.
p1963
aV \u2014
p1964
aV Osten
p1965
aV \u2014
p1966
aV Ryan S.
p1967
aV \u2014
p1968
aV \u2014
p1969
aV Ryan S.
p1970
aV \u2014
p1971
aV Ryan S.
p1972
aV Ryan S.
p1973
aV Ryan S.
p1974
aV \u2014
p1975
aV \u2014
p1976
aV \u2014
p1977
aV Osten
p1978
ag129
aV \u2014
p1979
aV Darrah
p1980
aV \u2014
p1981
aV Lillian
p1982
aV \u2014
p1983
aV \u2014
p1984
aV Lillian
p1985
aV \u2014
p1986
aV Lillian
p1987
aV Lillian
p1988
aV Lillian
p1989
aV \u2014
p1990
aV \u2014
p1991
aV \u2014
p1992
ag129
ag129
aV Burton
p1993
ag129
aV Burton
p1994
aV \u2014
p1995
aV Christa
p1996
aV Burton
p1997
aV \u2014
p1998
aVKidnapped 
p1999
aV \u2014
p2000
aV \u2014
p2001
aV \u2014
p2002
aV Burton
p2003
aV Burton
p2004
aV Christa
p2005
ag129
ag129
aV Michelle
p2006
ag129
aV Michelle
p2007
aV \u2014
p2008
ag129
aV Michelle
p2009
aV \u2014
p2010
aV Michelle
p2011
aV \u2014
p2012
aV \u2014
p2013
aV \u2014
p2014
aV Michelle
p2015
aV Michelle
p2016
aV Shawn
p2017
ag129
ag129
aV Trish
p2018
ag129
aV Rupert
p2019
aV \u2014
p2020
ag129
aV Trish
p2021
aV \u2014
p2022
aV Trish
p2023
aV \u2014
p2024
aV \u2014
p2025
aV \u2014
p2026
aV Trish
p2027
aV Rupert
p2028
ag129
ag129
ag129
aV Shawn
p2029
ag129
aV Shawn
p2030
aV \u2014
p2031
ag129
aV Shawn
p2032
aV \u2014
p2033
aV Shawn
p2034
aV \u2014
p2035
aV \u2014
p2036
aV \u2014
p2037
aV Jon
p2038
ag129
ag129
ag129
ag129
aV \u2014
p2039
ag129
aV \u2014
p2040
aV \u2014
p2041
ag129
aV \u2014
p2042
aV \u2014
p2043
aV \u2014
p2044
aV \u2014
p2045
aV \u2014
p2046
aVQuit
p2047
ag129
ag129
ag129
ag129
ag129
aV \u2014
p2048
aV Ryan S.
p2049
aV \u2014
p2050
aV \u2014
p2051
aV Michelle
p2052
aV \u2014
p2053
aV \u2014
p2054
aV \u2014
p2055
aV \u2014
p2056
aV \u2014
p2057
ag129
ag129
aV Burton
p2058
aV Burton
p2059
aV Burton
p2060
aV Lillian
p2061
ag2048
aV Trish
p2062
ag2050
ag2051
aV Nicole
p2063
ag2053
ag2054
ag2055
ag2056
ag2057
ag129
ag129
aV Lillian
p2064
aV Nicole
p2065
aV Lillian
p2066
aV Ryan S.
p2067
aV Andrew
p2068
aV Andrew
p2069
aV Andrew
p2070
aV Jon
p2071
aV Andrew
p2072
aV Andrew
p2073
aV Jon
p2074
aV Andrew
p2075
aV Jon
p2076
aV Jon
p2077
ag129
ag129
ag129
ag129
ag129
ag129
aV Ryan O.
p2078
aV Ryan O.
p2079
aV Ryan O.
p2080
aV Ryan O.
p2081
aV Ryan O.
p2082
aV Ryan O.
p2083
aV Ryan O.
p2084
aV Ryan O.
p2085
aV Christa
p2086
ag129
ag129
ag129
ag129
ag129
ag129
ag129
aV Jon
p2087
aV Rupert
p2088
aV Rupert
p2089
aV Rupert
p2090
aV Rupert
p2091
aV Darrah
p2092
aV Rupert
p2093
aV Darrah
p2094
ag129
ag129
ag129
ag129
ag129
ag129
ag129
ag129
aV Tijuana
p2095
aV Tijuana
p2096
aV Tijuana
p2097
aV Burton
p2098
aV Tijuana
p2099
aV Tijuana
p2100
aV Burton
p2101
ag129
ag129
ag129
ag129
ag129
ag129
ag129
ag129
ag129
aV Lillian
p2102
aV Christa
p2103
aV Christa
p2104
aV Christa
p2105
aV Christa
p2106
aV Lillian
p2107
ag129
ag129
ag129
ag129
ag129
ag129
ag129
ag129
ag129
ag129
aV Burton
p2108
aV Burton
p2109
aV Lillian
p2110
aV Burton
p2111
aV Lillian
p2112
ag129
ag129
ag129
ag129
ag129
ag129
ag129
ag129
ag129
ag129
ag129
aV Darrah
p2113
aV Darrah
p2114
aV Darrah
p2115
aV Lillian
p2116
ag129
ag129
ag129
ag129
ag129
ag129
ag129
ag129
ag129
ag129
ag129
ag129
aV \u2014
p2117
aV Jon
p2118
aV \u2014
p2119
ag129
ag129
ag129
ag129
ag129
ag129
ag129
ag129
ag129
ag129
ag129
ag129
ag129
ag319
ag319
ag129
ag129
ag129
ag129
aV Lillian
p2120
ag129
ag129
ag129
ag129
ag129
ag129
ag129
ag129
ag129
ag319
ag319
aV Sandra
p2121
aV Sandra
p2122
aV Sandra
p2123
aV Sandra
p2124
ag129
aV Sandra
p2125
aV Sandra
p2126
ag129
ag129
ag129
ag129
ag129
ag129
ag129
atp2127
ba(lp2128
g21
(g22
(dp2129
g24
g25
(g26
(I0
tp2130
g28
tp2131
Rp2132
(I1
(L20L
tp2133
g35
I00
(lp2134
g1891
ag1892
ag1893
ag1894
ag1895
ag1896
ag1897
ag1898
ag1899
ag1900
ag1901
ag1902
ag1903
ag1904
ag1905
ag1906
ag1907
ag1908
ag1909
ag1910
atp2135
bsg63
Nstp2136
Rp2137
a(dp2138
g339
(dp2139
g341
g1884
sg342
(lp2140
(dp2141
g345
g346
(I0
I20
I1
tp2142
Rp2143
sg349
g1945
sasstp2144
bsbsg351
I7
ssVVanuatu
p2145
(dp2146
g3
Vhttp://survivor.wikia.com/wiki/Survivor:_Vanuatu
p2147
sg5
g6
(g7
g8
Ntp2148
Rp2149
(dp2150
g12
g13
sg14
g15
sg16
g6
(g17
g8
Ntp2151
Rp2152
((lp2153
g21
(g22
(dp2154
g24
g25
(g26
(I0
tp2155
g28
tp2156
Rp2157
(I1
(L18L
tp2158
g35
I00
(lp2159
VBrook
p2160
aVDolly
p2161
aVJohn P.
p2162
aVMia
p2163
aVBrady
p2164
aVTravis
p2165
aVLisa
p2166
aVJohn K.
p2167
aVRory
p2168
aVLea
p2169
aVChad
p2170
aVLeann
p2171
aVAmi
p2172
aVJulie
p2173
aVEliza
p2174
aVScout
p2175
aVTwila
p2176
aVChris
p2177
atp2178
bsg63
Nstp2179
Rp2180
ag21
(g22
(dp2181
g24
g25
(g26
(I0
tp2182
g28
tp2183
Rp2184
(I1
(L18L
tp2185
g35
I00
(lp2186
VChris
p2187
aVTwila
p2188
aVScout
p2189
aVEliza
p2190
aVJulie
p2191
aVAmi
p2192
aVLeann
p2193
aVChad
p2194
aVLea
p2195
aVRory
p2196
aVJohn K.
p2197
aVLisa
p2198
aVTravis
p2199
aVBrady
p2200
aVMia
p2201
aVJohn P.
p2202
aVDolly
p2203
aVBrook
p2204
atp2205
bsg63
g93
(g96
S'\x01\x00\x00\x00\x00\x00\x00\x00'
p2206
tp2207
Rp2208
stp2209
Rp2210
a(lp2211
g25
(g26
(I0
tp2212
g28
tp2213
Rp2214
(I1
(L18L
L18L
tp2215
g35
I00
(lp2216
V Brook
p2217
aV \u2014
p2218
aV \u2014
p2219
aV \u2014
p2220
aV \u2014
p2221
aV \u2014
p2222
aV \u2014
p2223
aV Brook
p2224
aV Brook
p2225
aV Brook
p2226
aV Chris
p2227
aV \u2014
p2228
aV Brook
p2229
aV Rory
p2230
aV \u2014
p2231
aV Chris
p2232
aV \u2014
p2233
aV Chris
p2234
aV \u2014
p2235
aV Dolly
p2236
aV Dolly
p2237
aV Dolly
p2238
aV Leann
p2239
aV Dolly
p2240
aV Dolly
p2241
aV \u2014
p2242
aV \u2014
p2243
aV \u2014
p2244
aV \u2014
p2245
aV Leann
p2246
aV \u2014
p2247
aV \u2014
p2248
aV Leann
p2249
aV \u2014
p2250
aV Leann
p2251
ag129
aV John P.
p2252
aV \u2014
p2253
aV \u2014
p2254
aV \u2014
p2255
aV \u2014
p2256
aV \u2014
p2257
aV \u2014
p2258
aV John P.
p2259
aV John P.
p2260
aV John P.
p2261
aV Rory
p2262
aV \u2014
p2263
aV John P.
p2264
aV Rory
p2265
aV \u2014
p2266
aV Rory
p2267
ag129
ag129
aV \u2014
p2268
aV Mia
p2269
aV Mia
p2270
aV Twila
p2271
aV Twila
p2272
aV Mia
p2273
aV Mia
p2274
aV \u2014
p2275
aV \u2014
p2276
aV \u2014
p2277
aV \u2014
p2278
aV Mia
p2279
aV \u2014
p2280
aV \u2014
p2281
aV Twila
p2282
ag129
ag129
ag129
aV Brady
p2283
aV \u2014
p2284
aV \u2014
p2285
aV \u2014
p2286
aV \u2014
p2287
aV \u2014
p2288
aV \u2014
p2289
aV Brady
p2290
aV Brady
p2291
aV Brady
p2292
aV Brady
p2293
aV \u2014
p2294
aV Brady
p2295
aV Rory
p2296
ag129
ag129
ag129
ag129
aV \u2014
p2297
aV \u2014
p2298
aV Travis
p2299
aV Travis
p2300
aV \u2014
p2301
aV Travis
p2302
aV Travis
p2303
aV \u2014
p2304
aV \u2014
p2305
aV Travis
p2306
aV \u2014
p2307
aV Travis
p2308
aV Rory
p2309
ag129
ag129
ag129
ag129
ag129
aV \u2014
p2310
aV \u2014
p2311
aV Rory
p2312
aV Lisa
p2313
aV \u2014
p2314
aV Lisa
p2315
aV Lisa
p2316
aV \u2014
p2317
aV \u2014
p2318
aV Lisa
p2319
aV \u2014
p2320
aV Rory
p2321
ag129
ag129
ag129
ag129
ag129
ag129
aV John K.
p2322
aV John K.
p2323
aV \u2014
p2324
aV \u2014
p2325
aV John K.
p2326
aV \u2014
p2327
aV \u2014
p2328
aV John K.
p2329
aV John K.
p2330
aV \u2014
p2331
aV Chad
p2332
ag129
ag129
ag129
ag129
ag129
ag129
ag129
aV Ami
p2333
aV Rory
p2334
aV Rory
p2335
aV Rory
p2336
aV Rory
p2337
aV Rory
p2338
aV Rory
p2339
aV Ami
p2340
aV Ami
p2341
aV Ami
p2342
ag129
ag129
ag129
ag129
ag129
ag129
ag129
ag129
aV Lea
p2343
aV Lea
p2344
aV Lea
p2345
aV Lea
p2346
aV Lea
p2347
aV Lea
p2348
aV Lea
p2349
aV Julie
p2350
aV Eliza
p2351
ag129
ag129
ag129
ag129
ag129
ag129
ag129
ag129
ag129
aV Eliza
p2352
aV Chad
p2353
aV Chad
p2354
aV Chad
p2355
aV Chad
p2356
aV Chad
p2357
aV Chad
p2358
aV Eliza
p2359
ag129
ag129
ag129
ag129
ag129
ag129
ag129
ag129
ag129
ag129
aV Leann
p2360
aV Leann
p2361
aV Leann
p2362
aV Leann
p2363
aV Eliza
p2364
aV Eliza
p2365
aV Eliza
p2366
ag129
ag129
ag129
ag129
ag129
ag129
ag129
ag129
ag129
ag129
ag129
aV Ami
p2367
aV Ami
p2368
aV Ami
p2369
aV Ami
p2370
aV Scout
p2371
aV Scout
p2372
ag129
ag129
ag129
ag129
ag129
ag129
ag129
ag129
ag129
ag129
ag129
ag129
aV Julie
p2373
aV Julie
p2374
aV Julie
p2375
aV Twila
p2376
aV Twila
p2377
ag129
ag129
ag129
ag129
ag129
ag129
ag129
ag129
ag129
ag129
ag129
ag129
ag129
aV Eliza
p2378
aV Eliza
p2379
aV Eliza
p2380
aV Twila
p2381
ag129
ag129
ag129
ag129
ag129
ag129
ag129
ag129
ag129
ag129
ag129
ag129
ag129
ag129
aV Scout
p2382
aV \u2014
p2383
aV \u2014
p2384
ag129
ag129
ag129
ag129
ag129
ag129
ag129
ag129
ag129
ag129
ag129
ag129
ag129
ag129
ag129
ag319
ag319
aV Twila
p2385
ag129
ag129
aV Twila
p2386
ag129
ag129
ag129
ag129
ag129
ag129
ag129
ag129
ag129
ag129
ag129
ag129
ag319
ag319
ag129
aV Chris
p2387
aV Chris
p2388
ag129
aV Chris
p2389
aV Chris
p2390
aV Chris
p2391
ag129
ag129
ag129
ag129
ag129
ag129
ag129
ag129
ag129
atp2392
ba(lp2393
g21
(g22
(dp2394
g24
g25
(g26
(I0
tp2395
g28
tp2396
Rp2397
(I1
(L18L
tp2398
g35
I00
(lp2399
g2160
ag2161
ag2162
ag2163
ag2164
ag2165
ag2166
ag2167
ag2168
ag2169
ag2170
ag2171
ag2172
ag2173
ag2174
ag2175
ag2176
ag2177
atp2400
bsg63
Nstp2401
Rp2402
a(dp2403
g339
(dp2404
g341
g2153
sg342
(lp2405
(dp2406
g345
g346
(I0
I18
I1
tp2407
Rp2408
sg349
g2214
sasstp2409
bsbsg351
I9
ssVThe_Australian_Outback
p2410
(dp2411
g3
Vhttp://survivor.wikia.com/wiki/Survivor:_The_Australian_Outback
p2412
sg5
g6
(g7
g8
Ntp2413
Rp2414
(dp2415
g12
g13
sg14
g15
sg16
g6
(g17
g8
Ntp2416
Rp2417
((lp2418
g21
(g22
(dp2419
g24
g25
(g26
(I0
tp2420
g28
tp2421
Rp2422
(I1
(L18L
tp2423
g35
I00
(lp2424
VDebb
p2425
aVKel
p2426
aVMaralyn
p2427
aVMitchell
p2428
aVMitchell
p2429
aVKimmi
p2430
aVMichael
p2431
aVJeff
p2432
aVJeff
p2433
aVAlicia
p2434
aVJerri
p2435
aVNick
p2436
aVAmber
p2437
aVRodger
p2438
aVElisabeth
p2439
aVKeith
p2440
aVColby
p2441
aVTina
p2442
atp2443
bsg63
Nstp2444
Rp2445
ag21
(g22
(dp2446
g24
g25
(g26
(I0
tp2447
g28
tp2448
Rp2449
(I1
(L16L
tp2450
g35
I00
(lp2451
VTina
p2452
aVColby
p2453
aVKeith
p2454
aVElisabeth
p2455
aVRodger
p2456
aVAmber
p2457
aVNick
p2458
aVJerri
p2459
aVAlicia
p2460
aVJeff
p2461
aVMichael
p2462
aVKimmi
p2463
aVMitchell
p2464
aVMaralyn
p2465
aVKel
p2466
aVDebb
p2467
atp2468
bsg63
g93
(g96
S'\x01\x00\x00\x00\x00\x00\x00\x00'
p2469
tp2470
Rp2471
stp2472
Rp2473
a(lp2474
g25
(g26
(I0
tp2475
g28
tp2476
Rp2477
(I1
(L18L
L16L
tp2478
g35
I00
(lp2479
V \u2014
p2480
aV \u2014
p2481
aV \u2014
p2482
aV Debb
p2483
aV Debb
p2484
aV \u2014
p2485
aV Debb
p2486
aV \u2014
p2487
aV Debb
p2488
aV Debb
p2489
aV Debb
p2490
aV Debb
p2491
aV \u2014
p2492
aV \u2014
p2493
aV \u2014
p2494
aV Jeff
p2495
aV Kel
p2496
aV Kel
p2497
aV Kel
p2498
aV \u2014
p2499
aV \u2014
p2500
aV Kel
p2501
aV \u2014
p2502
aV Kel
p2503
aV \u2014
p2504
aV \u2014
p2505
aV \u2014
p2506
aV \u2014
p2507
aV Kel
p2508
aV Kel
p2509
aV Jerri
p2510
ag129
aV Maralyn
p2511
aV Maralyn
p2512
aV Mitchell
p2513
aV \u2014
p2514
aV \u2014
p2515
aV Maralyn
p2516
aV \u2014
p2517
aV Maralyn
p2518
aV \u2014
p2519
aV \u2014
p2520
aV \u2014
p2521
aV \u2014
p2522
aV Maralyn
p2523
aV Jerri
p2524
ag129
ag129
aV Mitchell
p2525
aV Mitchell
p2526
aV Mitchell
p2527
aV \u2014
p2528
aV \u2014
p2529
aV Keith
p2530
aV \u2014
p2531
aV Keith
p2532
aV \u2014
p2533
aV \u2014
p2534
aV \u2014
p2535
aV \u2014
p2536
aV Keith
p2537
ag129
ag129
ag129
aV Mitchell
p2538
aV Mitchell
p2539
aVNone
p2540
ag2528
ag2529
aV Keith
p2541
ag2531
aV Keith
p2542
ag2533
ag2534
ag2535
ag2536
aVNone
p2543
ag129
ag129
ag129
aV \u2014
p2544
aV \u2014
p2545
aV \u2014
p2546
aV Kimmi
p2547
aV Kimmi
p2548
aV \u2014
p2549
aV Kimmi
p2550
aV \u2014
p2551
aV Kimmi
p2552
aV Kimmi
p2553
aV Kimmi
p2554
aV Jeff
p2555
ag129
ag129
ag129
ag129
aV \u2014
p2556
aV \u2014
p2557
aV \u2014
p2558
aV \u2014
p2559
aV \u2014
p2560
aV \u2014
p2561
aV \u2014
p2562
aV \u2014
p2563
aV \u2014
p2564
aV \u2014
p2565
aVEvacuated
p2566
ag129
ag129
ag129
ag129
ag129
aV Jeff
p2567
aV Jeff
p2568
aV Jeff
p2569
aV Colby
p2570
aV Colby
p2571
aV Jeff
p2572
aV Colby
p2573
aV Jeff
p2574
aV Colby
p2575
aV Colby
p2576
ag129
ag129
ag129
ag129
ag129
ag129
aV Jeff
p2577
aVNone
p2578
aV Jeff
p2579
aV Colby
p2580
aV Colby
p2581
aV Jeff
p2582
aV Colby
p2583
aV Jeff
p2584
aV Colby
p2585
aVNone
p2586
ag129
ag129
ag129
ag129
ag129
ag129
aV Alicia
p2587
aV Alicia
p2588
aV Alicia
p2589
aV Jerri
p2590
aV Jerri
p2591
aV Alicia
p2592
aV Jerri
p2593
aV Alicia
p2594
aV Jerri
p2595
ag129
ag129
ag129
ag129
ag129
ag129
ag129
aV Jerri
p2596
aV Jerri
p2597
aV Jerri
p2598
aV Jerri
p2599
aV Jerri
p2600
aV Elisabeth
p2601
aV Jerri
p2602
aV Elisabeth
p2603
ag129
ag129
ag129
ag129
ag129
ag129
ag129
ag129
aV Nick
p2604
aV Nick
p2605
aV Nick
p2606
aV Amber
p2607
aV Amber
p2608
aV Nick
p2609
aV Keith
p2610
ag129
ag129
ag129
ag129
ag129
ag129
ag129
ag129
ag129
aV Amber
p2611
aV Rodger
p2612
aV Amber
p2613
aV Amber
p2614
aV Amber
p2615
aV Rodger
p2616
ag129
ag129
ag129
ag129
ag129
ag129
ag129
ag129
ag129
ag129
aV Rodger
p2617
aV Rodger
p2618
aV Rodger
p2619
aV Keith
p2620
aV Keith
p2621
ag129
ag129
ag129
ag129
ag129
ag129
ag129
ag129
ag129
ag129
ag129
aV Elisabeth
p2622
aV Elisabeth
p2623
aV Elisabeth
p2624
aV Keith
p2625
ag129
ag129
ag129
ag129
ag129
ag129
ag129
ag129
ag129
ag129
ag129
ag129
aV \u2014
p2626
aV Keith
p2627
aV \u2014
p2628
ag129
ag129
ag129
ag129
ag129
ag129
ag129
ag129
ag129
ag129
ag129
ag129
ag129
ag319
ag319
ag129
ag129
aV Colby
p2629
aV Colby
p2630
aV Colby
p2631
ag129
ag129
ag129
ag129
ag129
ag129
ag129
ag129
ag129
ag319
ag319
aV Tina
p2632
aV Tina
p2633
ag129
ag129
ag129
aV Tina
p2634
aV Tina
p2635
ag129
ag129
ag129
ag129
ag129
ag129
ag129
atp2636
ba(lp2637
g21
(g22
(dp2638
g24
g25
(g26
(I0
tp2639
g28
tp2640
Rp2641
(I1
(L18L
tp2642
g35
I00
(lp2643
g2425
ag2426
ag2427
ag2428
ag2429
ag2430
ag2431
ag2432
ag2433
ag2434
ag2435
ag2436
ag2437
ag2438
ag2439
ag2440
ag2441
ag2442
atp2644
bsg63
Nstp2645
Rp2646
a(dp2647
g339
(dp2648
g341
g2418
sg342
(lp2649
(dp2650
g345
g346
(I0
I18
I1
tp2651
Rp2652
sg349
g2477
sasstp2653
bsbsg351
I2
ssVHeroes_vs_Villains
p2654
(dp2655
g3
Vhttp://survivor.wikia.com/wiki/Survivor:_Heroes_vs_Villains
p2656
sg5
g6
(g7
g8
Ntp2657
Rp2658
(dp2659
g12
g13
sg14
g15
sg16
g6
(g17
g8
Ntp2660
Rp2661
((lp2662
g21
(g22
(dp2663
g24
g25
(g26
(I0
tp2664
g28
tp2665
Rp2666
(I1
(L20L
tp2667
g35
I00
(lp2668
VSugar
p2669
aVStephenie
p2670
aVRandy
p2671
aVCirie
p2672
aVTom
p2673
aVTyson
p2674
aVJames
p2675
aVRob
p2676
aVCoach
p2677
aVCourtney
p2678
aVJ.T.
p2679
aVAmanda
p2680
aVCandice
p2681
aVDanielle
p2682
aVRupert
p2683
aVColby
p2684
aVJerri
p2685
aVRussell
p2686
aVParvati
p2687
aVSandra
p2688
atp2689
bsg63
Nstp2690
Rp2691
ag21
(g22
(dp2692
g24
g25
(g26
(I0
tp2693
g28
tp2694
Rp2695
(I1
(L20L
tp2696
g35
I00
(lp2697
VSandra
p2698
aVParvati
p2699
aVRussell
p2700
aVJerri
p2701
aVColby
p2702
aVRupert
p2703
aVDanielle
p2704
aVCandice
p2705
aVAmanda
p2706
aVJ.T.
p2707
aVCourtney
p2708
aVCoach
p2709
aVRob
p2710
aVJames
p2711
aVTyson
p2712
aVTom
p2713
aVCirie
p2714
aVRandy
p2715
aVStephenie
p2716
aVSugar
p2717
atp2718
bsg63
g93
(g96
S'\x01\x00\x00\x00\x00\x00\x00\x00'
p2719
tp2720
Rp2721
stp2722
Rp2723
a(lp2724
g25
(g26
(I0
tp2725
g28
tp2726
Rp2727
(I1
(L20L
L20L
tp2728
g35
I00
(lp2729
V \u2014
p2730
aV \u2014
p2731
aV \u2014
p2732
aV \u2014
p2733
aV Sugar
p2734
aV Sugar
p2735
aV \u2014
p2736
aV Sugar
p2737
aV Sugar
p2738
aV Sugar
p2739
aV \u2014
p2740
aV \u2014
p2741
aV \u2014
p2742
aV Sugar
p2743
aV \u2014
p2744
aV Sugar
p2745
aV Sugar
p2746
aV \u2014
p2747
aV Sugar
p2748
aV Amanda
p2749
aV \u2014
p2750
aV \u2014
p2751
aV \u2014
p2752
aV \u2014
p2753
aV Amanda
p2754
aV Stephenie
p2755
aV \u2014
p2756
aV Stephenie
p2757
aV Stephenie
p2758
aV Stephenie
p2759
aV \u2014
p2760
aV \u2014
p2761
aV \u2014
p2762
aV Stephenie
p2763
aV \u2014
p2764
aV Amanda
p2765
aV Stephenie
p2766
aV \u2014
p2767
aV Amanda
p2768
ag129
aV Randy
p2769
aV Randy
p2770
aV Randy
p2771
aV Randy
p2772
aV \u2014
p2773
aV \u2014
p2774
aV Randy
p2775
aV \u2014
p2776
aV \u2014
p2777
aV \u2014
p2778
aV Randy
p2779
aV Randy
p2780
aV Randy
p2781
aV \u2014
p2782
aV Randy
p2783
aV \u2014
p2784
aV \u2014
p2785
aV Rob
p2786
ag129
ag129
aV \u2014
p2787
aV \u2014
p2788
aV \u2014
p2789
aV \u2014
p2790
aV Cirie
p2791
aV Colby
p2792
aV \u2014
p2793
aV Tom
p2794
aV Tom
p2795
aV Cirie
p2796
aV \u2014
p2797
aV \u2014
p2798
aV \u2014
p2799
aV Colby
p2800
aV \u2014
p2801
aV Cirie
p2802
aV Tom
p2803
ag129
ag129
ag129
aV \u2014
p2804
aV \u2014
p2805
aV \u2014
p2806
aV \u2014
p2807
aV James
p2808
aV Tom
p2809
aV \u2014
p2810
aV Tom
p2811
aV Tom
p2812
aV Tom
p2813
aV \u2014
p2814
aV \u2014
p2815
aV \u2014
p2816
aV Tom
p2817
aV \u2014
p2818
aV James
p2819
ag129
ag129
ag129
ag129
aV Russell
p2820
aV Tyson
p2821
aV Tyson
p2822
aV Parvati
p2823
aV \u2014
p2824
aV \u2014
p2825
aV Tyson
p2826
aV \u2014
p2827
aV \u2014
p2828
aV \u2014
p2829
aV Parvati
p2830
aV Parvati
p2831
aV Russell
p2832
aV \u2014
p2833
aV Parvati
p2834
ag129
ag129
ag129
ag129
ag129
aV \u2014
p2835
aV \u2014
p2836
aV \u2014
p2837
aV \u2014
p2838
aV James
p2839
aV James
p2840
aV \u2014
p2841
aV James
p2842
aV James
p2843
aV James
p2844
aV \u2014
p2845
aV \u2014
p2846
aV \u2014
p2847
aV Colby
p2848
ag129
ag129
ag129
ag129
ag129
ag129
aV Russell
p2849
aV Rob
p2850
aV Rob
p2851
aV Rob
p2852
aV \u2014
p2853
aV \u2014
p2854
aV Rob
p2855
aV \u2014
p2856
aV \u2014
p2857
aV \u2014
p2858
aV Russell
p2859
aV Courtney
p2860
aV Russell
p2861
ag129
ag129
ag129
ag129
ag129
ag129
ag129
aV Coach
p2862
aV Coach
p2863
aV Courtney
p2864
aV Courtney
p2865
aV \u2014
p2866
aV \u2014
p2867
aV Coach
p2868
aV \u2014
p2869
aV \u2014
p2870
aV \u2014
p2871
aV Coach
p2872
aV Courtney
p2873
ag129
ag129
ag129
ag129
ag129
ag129
ag129
ag129
aV Courtney
p2874
aV Courtney
p2875
aV Courtney
p2876
aV Courtney
p2877
aV \u2014
p2878
aV \u2014
p2879
aV Courtney
p2880
aV \u2014
p2881
aV \u2014
p2882
aV \u2014
p2883
aV Jerri
p2884
ag129
ag129
ag129
ag129
ag129
ag129
ag129
ag129
ag129
aV J.T.
p2885
aV J.T.
p2886
aV J.T.
p2887
aV J.T.
p2888
aV Jerri
p2889
aV Jerri
p2890
aV J.T.
p2891
aV Jerri
p2892
aV Jerri
p2893
aV Jerri
p2894
ag129
ag129
ag129
ag129
ag129
ag129
ag129
ag129
ag129
ag129
aV Amanda
p2895
aV Amanda
p2896
aV Amanda
p2897
aV Amanda
p2898
aV Parvati
p2899
aV Parvati
p2900
aV Amanda
p2901
aV Amanda
p2902
aV Parvati
p2903
ag129
ag129
ag129
ag129
ag129
ag129
ag129
ag129
ag129
ag129
ag129
aV Candice
p2904
aV Rupert
p2905
aV Candice
p2906
aV Candice
p2907
aV Candice
p2908
aV Candice
p2909
aV Rupert
p2910
aV Rupert
p2911
ag129
ag129
ag129
ag129
ag129
ag129
ag129
ag129
ag129
ag129
ag129
ag129
aV Rupert
p2912
aV Rupert
p2913
aV Danielle
p2914
aV Danielle
p2915
aV Danielle
p2916
aV Danielle
p2917
aV Rupert
p2918
ag129
ag129
ag129
ag129
ag129
ag129
ag129
ag129
ag129
ag129
ag129
ag129
ag129
aV Rupert
p2919
aV Rupert
p2920
aV Rupert
p2921
aV Rupert
p2922
aV Sandra
p2923
aV Sandra
p2924
ag129
ag129
ag129
ag129
ag129
ag129
ag129
ag129
ag129
ag129
ag129
ag129
ag129
ag129
aV Colby
p2925
aV Colby
p2926
aV Colby
p2927
aV Colby
p2928
aV Sandra
p2929
ag129
ag129
ag129
ag129
ag129
ag129
ag129
ag129
ag129
ag129
ag129
ag129
ag129
ag129
ag129
aV Jerri
p2930
aV Jerri
p2931
aV Jerri
p2932
aV Parvati
p2933
ag129
ag129
ag129
ag129
ag129
ag129
ag129
ag129
ag129
ag129
ag129
ag129
ag129
ag129
ag129
ag129
ag319
ag319
ag319
ag129
ag129
ag129
ag129
ag129
ag129
ag129
ag129
ag129
ag129
ag129
ag129
ag129
ag129
ag129
ag129
ag129
ag319
ag319
ag319
aV Parvati
p2934
ag129
ag129
aV Parvati
p2935
ag129
ag129
ag129
ag129
aV Parvati
p2936
ag129
ag129
ag129
ag129
ag129
ag129
ag129
ag129
ag319
ag319
ag319
ag129
aV Sandra
p2937
aV Sandra
p2938
ag129
aV Sandra
p2939
aV Sandra
p2940
aV Sandra
p2941
aV Sandra
p2942
ag129
ag129
ag129
ag129
ag129
ag129
ag129
ag129
ag129
atp2943
ba(lp2944
g21
(g22
(dp2945
g24
g25
(g26
(I0
tp2946
g28
tp2947
Rp2948
(I1
(L20L
tp2949
g35
I00
(lp2950
g2669
ag2670
ag2671
ag2672
ag2673
ag2674
ag2675
ag2676
ag2677
ag2678
ag2679
ag2680
ag2681
ag2682
ag2683
ag2684
ag2685
ag2686
ag2687
ag2688
atp2951
bsg63
Nstp2952
Rp2953
a(dp2954
g339
(dp2955
g341
g2662
sg342
(lp2956
(dp2957
g345
g346
(I0
I20
I1
tp2958
Rp2959
sg349
g2727
sasstp2960
bsbsg351
I20
ssVGuatemala
p2961
(dp2962
g3
Vhttp://survivor.wikia.com/wiki/Survivor:_Guatemala
p2963
sg5
g6
(g7
g8
Ntp2964
Rp2965
(dp2966
g12
g13
sg14
g15
sg16
g6
(g17
g8
Ntp2967
Rp2968
((lp2969
g21
(g22
(dp2970
g24
g25
(g26
(I0
tp2971
g28
tp2972
Rp2973
(I1
(L18L
tp2974
g35
I00
(lp2975
VJim
p2976
aVMorgan
p2977
aVBrianna
p2978
aVBrooke
p2979
aVBlake
p2980
aVMargaret
p2981
aVBrian
p2982
aVAmy
p2983
aVBrandon
p2984
aVBobby Jon
p2985
aVJamie
p2986
aVGary
p2987
aVJudd
p2988
aVCindy
p2989
aVLydia
p2990
aVRafe
p2991
aVStephenie
p2992
aVDanni
p2993
atp2994
bsg63
Nstp2995
Rp2996
ag21
(g22
(dp2997
g24
g25
(g26
(I0
tp2998
g28
tp2999
Rp3000
(I1
(L18L
tp3001
g35
I00
(lp3002
VDanni
p3003
aVStephenie
p3004
aVRafe
p3005
aVLydia
p3006
aVCindy
p3007
aVJudd
p3008
aVGary
p3009
aVJamie
p3010
aVBobby Jon
p3011
aVBrandon
p3012
aVAmy
p3013
aVBrian
p3014
aVMargaret
p3015
aVBlake
p3016
aVBrooke
p3017
aVBrianna
p3018
aVMorgan
p3019
aVJim
p3020
atp3021
bsg63
g93
(g96
S'\x01\x00\x00\x00\x00\x00\x00\x00'
p3022
tp3023
Rp3024
stp3025
Rp3026
a(lp3027
g25
(g26
(I0
tp3028
g28
tp3029
Rp3030
(I1
(L18L
L18L
tp3031
g35
I00
(lp3032
V Jim
p3033
aV \u2014
p3034
aV \u2014
p3035
aV \u2014
p3036
aV Jim
p3037
aV Jim
p3038
aV \u2014
p3039
aV \u2014
p3040
aV Jim
p3041
aV Jim
p3042
aV \u2014
p3043
aV \u2014
p3044
aV Jim
p3045
aV Jim
p3046
aV Jim
p3047
aV \u2014
p3048
aV \u2014
p3049
aV Margaret
p3050
aV \u2014
p3051
aV Morgan
p3052
aV Morgan
p3053
aV Morgan
p3054
aV \u2014
p3055
aV \u2014
p3056
aV Morgan
p3057
aV Morgan
p3058
aV \u2014
p3059
aV \u2014
p3060
aV Morgan
p3061
aV Morgan
p3062
aV \u2014
p3063
aV \u2014
p3064
aV \u2014
p3065
aV Morgan
p3066
aV Lydia
p3067
ag129
aV \u2014
p3068
aV Brianna
p3069
aV Brianna
p3070
aV Brianna
p3071
aV \u2014
p3072
aV \u2014
p3073
aV Brianna
p3074
aV Brianna
p3075
aV \u2014
p3076
aV \u2014
p3077
aV Brianna
p3078
aV Brianna
p3079
aV \u2014
p3080
aV \u2014
p3081
aV \u2014
p3082
aV Lydia
p3083
ag129
ag129
aV \u2014
p3084
aV Brooke
p3085
aV Brooke
p3086
aV Brooke
p3087
aV Lydia
p3088
aV Brooke
p3089
aV \u2014
p3090
aV Brooke
p3091
aV \u2014
p3092
aV \u2014
p3093
aV \u2014
p3094
aV \u2014
p3095
aV Lydia
p3096
aV \u2014
p3097
aV Lydia
p3098
ag129
ag129
ag129
aV Blake
p3099
aV \u2014
p3100
aV \u2014
p3101
aV \u2014
p3102
aV \u2014
p3103
aV \u2014
p3104
aV Blake
p3105
aV \u2014
p3106
aV Blake
p3107
aV Brian
p3108
aV Blake
p3109
aV Blake
p3110
aV \u2014
p3111
aV Brian
p3112
ag129
ag129
ag129
ag129
aV \u2014
p3113
aV Margaret
p3114
aV Margaret
p3115
aV Margaret
p3116
aV Margaret
p3117
aV Margaret
p3118
aV \u2014
p3119
aV Margaret
p3120
aV \u2014
p3121
aV \u2014
p3122
aV \u2014
p3123
aV \u2014
p3124
aV Judd
p3125
ag129
ag129
ag129
ag129
ag129
aV Brian
p3126
aV \u2014
p3127
aV \u2014
p3128
aV \u2014
p3129
aV \u2014
p3130
aV \u2014
p3131
aV Brian
p3132
aV \u2014
p3133
aV Brian
p3134
aV Brian
p3135
aV Brian
p3136
aV Bobby Jon
p3137
ag129
ag129
ag129
ag129
ag129
ag129
aV Amy
p3138
aV \u2014
p3139
aV \u2014
p3140
aV \u2014
p3141
aV \u2014
p3142
aV \u2014
p3143
aV Amy
p3144
aV \u2014
p3145
aV Amy
p3146
aV Amy
p3147
aV Bobby Jon
p3148
ag129
ag129
ag129
ag129
ag129
ag129
ag129
aV Jamie
p3149
aV Brandon
p3150
aV Brandon
p3151
aV Brandon
p3152
aV Brandon
p3153
aV Brandon
p3154
aV Jamie
p3155
aV Brandon
p3156
aV Jamie
p3157
aV Jamie
p3158
ag129
ag129
ag129
ag129
ag129
ag129
ag129
ag129
aV Stephenie
p3159
aV Bobby Jon
p3160
aV Bobby Jon
p3161
aV Bobby Jon
p3162
aV Bobby Jon
p3163
aV Bobby Jon
p3164
aV Cindy
p3165
aV Bobby Jon
p3166
aV Stephenie
p3167
ag129
ag129
ag129
ag129
ag129
ag129
ag129
ag129
ag129
aV Jamie
p3168
aV Jamie
p3169
aV Jamie
p3170
aV Jamie
p3171
aV Jamie
p3172
aV Gary
p3173
aV Jamie
p3174
aV Gary
p3175
ag129
ag129
ag129
ag129
ag129
ag129
ag129
ag129
ag129
ag129
aV Gary
p3176
aV Gary
p3177
aV Gary
p3178
aV Gary
p3179
aV Gary
p3180
aV Gary
p3181
aV Cindy
p3182
ag129
ag129
ag129
ag129
ag129
ag129
ag129
ag129
ag129
ag129
ag129
aV Judd
p3183
aV Judd
p3184
aV Judd
p3185
aV Judd
p3186
aV Lydia
p3187
aV Lydia
p3188
ag129
ag129
ag129
ag129
ag129
ag129
ag129
ag129
ag129
ag129
ag129
ag129
aV Cindy
p3189
aV Cindy
p3190
aV Cindy
p3191
aV Cindy
p3192
aV Rafe
p3193
ag129
ag129
ag129
ag129
ag129
ag129
ag129
ag129
ag129
ag129
ag129
ag129
ag129
aV Lydia
p3194
aV Lydia
p3195
aV Lydia
p3196
aV Danni
p3197
ag129
ag129
ag129
ag129
ag129
ag129
ag129
ag129
ag129
ag129
ag129
ag129
ag129
ag129
aV Rafe
p3198
aV \u2014
p3199
aV  \u2014
p3200
ag129
ag129
ag129
ag129
ag129
ag129
ag129
ag129
ag129
ag129
ag129
ag129
ag129
ag129
ag129
ag319
ag319
aV Stephenie
p3201
ag129
ag129
ag129
ag129
ag129
ag129
ag129
ag129
ag129
ag129
ag129
ag129
ag129
ag129
ag129
ag319
ag319
ag129
aV Danni
p3202
aV Danni
p3203
aV Danni
p3204
aV Danni
p3205
aV Danni
p3206
aV Danni
p3207
ag129
ag129
ag129
ag129
ag129
ag129
ag129
ag129
ag129
atp3208
ba(lp3209
g21
(g22
(dp3210
g24
g25
(g26
(I0
tp3211
g28
tp3212
Rp3213
(I1
(L18L
tp3214
g35
I00
(lp3215
g2976
ag2977
ag2978
ag2979
ag2980
ag2981
ag2982
ag2983
ag2984
ag2985
ag2986
ag2987
ag2988
ag2989
ag2990
ag2991
ag2992
ag2993
atp3216
bsg63
Nstp3217
Rp3218
a(dp3219
g339
(dp3220
g341
g2969
sg342
(lp3221
(dp3222
g345
g346
(I0
I18
I1
tp3223
Rp3224
sg349
g3030
sasstp3225
bsbsg351
I11
ssVChina
p3226
(dp3227
g3
Vhttp://survivor.wikia.com/wiki/Survivor:_China
p3228
sg5
g6
(g7
g8
Ntp3229
Rp3230
(dp3231
g12
g13
sg14
g15
sg16
g6
(g17
g8
Ntp3232
Rp3233
((lp3234
g21
(g22
(dp3235
g24
g25
(g26
(I0
tp3236
g28
tp3237
Rp3238
(I1
(L16L
tp3239
g35
I00
(lp3240
VChicken
p3241
aVAshley
p3242
aVLeslie
p3243
aVDave
p3244
aVAaron
p3245
aVSherea
p3246
aVJaime
p3247
aVJean-Robert
p3248
aVFrosti
p3249
aVJames
p3250
aVErik
p3251
aVPeih-Gee
p3252
aVDenise
p3253
aVAmanda
p3254
aVCourtney
p3255
aVTodd
p3256
atp3257
bsg63
Nstp3258
Rp3259
ag21
(g22
(dp3260
g24
g25
(g26
(I0
tp3261
g28
tp3262
Rp3263
(I1
(L16L
tp3264
g35
I00
(lp3265
VTodd
p3266
aVCourtney
p3267
aVAmanda
p3268
aVDenise
p3269
aVPeih-Gee
p3270
aVErik
p3271
aVJames
p3272
aVFrosti
p3273
aVJean-Robert
p3274
aVJaime
p3275
aVSherea
p3276
aVAaron
p3277
aVDave
p3278
aVLeslie
p3279
aVAshley
p3280
aVChicken
p3281
atp3282
bsg63
g93
(g96
S'\x01\x00\x00\x00\x00\x00\x00\x00'
p3283
tp3284
Rp3285
stp3286
Rp3287
a(lp3288
g25
(g26
(I0
tp3289
g28
tp3290
Rp3291
(I1
(L16L
L16L
tp3292
g35
I00
(lp3293
V \u2014
p3294
aV \u2014
p3295
aV \u2014
p3296
aV \u2014
p3297
aV Chicken
p3298
aV Chicken
p3299
aV \u2014
p3300
aV Chicken
p3301
aV \u2014
p3302
aV Chicken
p3303
aV Chicken
p3304
aV \u2014
p3305
aV Ashley
p3306
aV \u2014
p3307
aV Peih-Gee
p3308
aV Ashley
p3309
aV \u2014
p3310
aV \u2014
p3311
aV \u2014
p3312
aV \u2014
p3313
aV Ashley
p3314
aV Ashley
p3315
aV \u2014
p3316
aV Ashley
p3317
aV \u2014
p3318
aV Ashley
p3319
aV Ashley
p3320
aV \u2014
p3321
aV Ashley
p3322
aV \u2014
p3323
aV Dave
p3324
ag129
aV Leslie
p3325
aV Jean-Robert
p3326
aV Leslie
p3327
aV Leslie
p3328
aV \u2014
p3329
aV \u2014
p3330
aV Leslie
p3331
aV \u2014
p3332
aV Leslie
p3333
aV \u2014
p3334
aV \u2014
p3335
aV Leslie
p3336
aV \u2014
p3337
aV Jean-Robert
p3338
ag129
ag129
aV \u2014
p3339
aV \u2014
p3340
aV \u2014
p3341
aV \u2014
p3342
aV Dave
p3343
aV Dave
p3344
aV \u2014
p3345
aV Dave
p3346
aV \u2014
p3347
aV Dave
p3348
aV Dave
p3349
aV \u2014
p3350
aV Sherea
p3351
ag129
ag129
ag129
aV \u2014
p3352
aV \u2014
p3353
aV \u2014
p3354
aV \u2014
p3355
aV Aaron
p3356
aV Aaron
p3357
aV Peih-Gee
p3358
aV \u2014
p3359
aV \u2014
p3360
aV Aaron
p3361
aV \u2014
p3362
aV James
p3363
ag129
ag129
ag129
ag129
aV Sherea
p3364
aV Jean-Robert
p3365
aV Sherea
p3366
aV Sherea
p3367
aV \u2014
p3368
aV \u2014
p3369
aV \u2014
p3370
aV Sherea
p3371
aV Sherea
p3372
aV \u2014
p3373
aV Jean-Robert
p3374
ag129
ag129
ag129
ag129
ag129
aV Jaime
p3375
aV Jaime
p3376
aV Jaime
p3377
aV Jaime
p3378
aV Jean-Robert
p3379
aV Jean-Robert
p3380
aV Jaime
p3381
aV Jaime
p3382
aV Jaime
p3383
aV Jean-Robert
p3384
ag129
ag129
ag129
ag129
ag129
ag129
aV Jean-Robert
p3385
aV Jean-Robert
p3386
aV Jean-Robert
p3387
aV Peih-Gee
p3388
aV James
p3389
aV James
p3390
aV Jean-Robert
p3391
aV Jean-Robert
p3392
aV James
p3393
ag129
ag129
ag129
ag129
ag129
ag129
ag129
aV Frosti
p3394
aV Frosti
p3395
aV Frosti
p3396
aV Frosti
p3397
aV Frosti
p3398
aV Frosti
p3399
aV Frosti
p3400
aV Erik
p3401
ag129
ag129
ag129
ag129
ag129
ag129
ag129
ag129
aV James
p3402
aV James
p3403
aV James
p3404
aV James
p3405
aV Todd
p3406
aV James
p3407
aV Peih-Gee
p3408
ag129
ag129
ag129
ag129
ag129
ag129
ag129
ag129
ag129
aV Erik
p3409
aV Erik
p3410
aV Erik
p3411
aV Erik
p3412
aV Todd
p3413
aV Todd
p3414
ag129
ag129
ag129
ag129
ag129
ag129
ag129
ag129
ag129
ag129
aV Peih-Gee
p3415
aV Peih-Gee
p3416
aV Peih-Gee
p3417
aV Peih-Gee
p3418
aV Todd
p3419
ag129
ag129
ag129
ag129
ag129
ag129
ag129
ag129
ag129
ag129
ag129
aV Denise
p3420
aV Denise
p3421
aV Denise
p3422
aV Todd
p3423
ag129
ag129
ag129
ag129
ag129
ag129
ag129
ag129
ag129
ag129
ag129
ag129
ag319
ag319
ag319
ag129
ag129
aV Amanda
p3424
ag129
ag129
ag129
ag129
ag129
ag129
ag129
ag129
ag129
ag129
ag319
ag319
ag319
aV Courtney
p3425
ag129
ag129
aV Courtney
p3426
ag129
ag129
ag129
ag129
ag129
ag129
ag129
ag129
ag129
ag319
ag319
ag319
ag129
aV Todd
p3427
ag129
ag129
aV Todd
p3428
aV Todd
p3429
aV Todd
p3430
ag129
ag129
ag129
ag129
ag129
ag129
atp3431
ba(lp3432
g21
(g22
(dp3433
g24
g25
(g26
(I0
tp3434
g28
tp3435
Rp3436
(I1
(L16L
tp3437
g35
I00
(lp3438
g3241
ag3242
ag3243
ag3244
ag3245
ag3246
ag3247
ag3248
ag3249
ag3250
ag3251
ag3252
ag3253
ag3254
ag3255
ag3256
atp3439
bsg63
Nstp3440
Rp3441
a(dp3442
g339
(dp3443
g341
g3234
sg342
(lp3444
(dp3445
g345
g346
(I0
I16
I1
tp3446
Rp3447
sg349
g3291
sasstp3448
bsbsg351
I15
ssVWorlds_Apart
p3449
(dp3450
g3
Vhttp://survivor.wikia.com/wiki/Survivor:_Worlds_Apart
p3451
sg5
g6
(g7
g8
Ntp3452
Rp3453
(dp3454
g12
g13
sg14
g15
sg16
g6
(g17
g8
Ntp3455
Rp3456
((lp3457
g21
(g22
(dp3458
g24
g25
(g26
(I0
tp3459
g28
tp3460
Rp3461
(I1
(L20L
tp3462
g35
I00
(lp3463
VSo
p3464
aVVince
p3465
aVNina
p3466
aVLindsey
p3467
aVLindsey
p3468
aVMax
p3469
aVJoaquin
p3470
aVKelly
p3471
aVHali
p3472
aVJoe
p3473
aVJenn
p3474
aVShirin
p3475
aVTyler
p3476
aVDan
p3477
aVDan
p3478
aVSierra
p3479
aVRodney
p3480
aVWill
p3481
aVCarolyn
p3482
aVMike
p3483
atp3484
bsg63
Nstp3485
Rp3486
ag21
(g22
(dp3487
g24
g25
(g26
(I0
tp3488
g28
tp3489
Rp3490
(I1
(L18L
tp3491
g35
I00
(lp3492
VMike
p3493
aVCarolyn
p3494
aVWill
p3495
aVRodney
p3496
aVSierra
p3497
aVDan
p3498
aVTyler
p3499
aVShirin
p3500
aVJenn
p3501
aVJoe
p3502
aVHali
p3503
aVKelly
p3504
aVJoaquin
p3505
aVMax
p3506
aVLindsey
p3507
aVNina
p3508
aVVince
p3509
aVSo
p3510
atp3511
bsg63
g93
(g96
S'\x01\x00\x00\x00\x00\x00\x00\x00'
p3512
tp3513
Rp3514
stp3515
Rp3516
a(lp3517
g25
(g26
(I0
tp3518
g28
tp3519
Rp3520
(I1
(L20L
L18L
tp3521
g35
I00
(lp3522
V \u2014
p3523
aV So
p3524
aV \u2014
p3525
aV \u2014
p3526
aV \u2014
p3527
aV \u2014
p3528
aV So
p3529
aV So
p3530
aV \u2014
p3531
aV \u2014
p3532
aV \u2014
p3533
aV \u2014
p3534
aV Carolyn
p3535
aV So
p3536
aV \u2014
p3537
aV \u2014
p3538
aV \u2014
p3539
aV Carolyn
p3540
aV \u2014
p3541
aV \u2014
p3542
aV Vince
p3543
aV \u2014
p3544
aV \u2014
p3545
aV \u2014
p3546
aV \u2014
p3547
aV \u2014
p3548
aV Vince
p3549
aV Nina
p3550
aV Vince
p3551
aV \u2014
p3552
aV \u2014
p3553
aV \u2014
p3554
aV \u2014
p3555
aV Jenn
p3556
aV Jenn
p3557
ag129
aV \u2014
p3558
aV \u2014
p3559
aV Nina
p3560
aV \u2014
p3561
aV \u2014
p3562
aV \u2014
p3563
aV \u2014
p3564
aV \u2014
p3565
aV Nina
p3566
aV Nina
p3567
aV Will
p3568
aV \u2014
p3569
aV \u2014
p3570
aV \u2014
p3571
aV \u2014
p3572
aV Will
p3573
ag129
ag129
aV Lindsey
p3574
aV\u2014
p3575
aV\u2014
p3576
aV Sierra
p3577
aV Rodney
p3578
aV Lindsey
p3579
aV\u2014
p3580
aV\u2014
p3581
aV\u2014
p3582
aV\u2014
p3583
aV\u2014
p3584
aV Sierra
p3585
aV\u2014
p3586
aV\u2014
p3587
aV Rodney
p3588
ag129
ag129
ag129
aV Lindsey
p3589
ag3575
ag3576
aV None
p3590
aV None
p3591
aV Lindsey
p3592
ag3580
ag3581
ag3582
ag3583
ag3584
aV Lindsey
p3593
ag3586
ag3587
aV None
p3594
ag129
ag129
ag129
aV \u2014
p3595
aV Max
p3596
aV Max
p3597
aV \u2014
p3598
aV \u2014
p3599
aV \u2014
p3600
aV \u2014
p3601
aV Will
p3602
aV Max
p3603
aV \u2014
p3604
aV Max
p3605
aV Max
p3606
aV \u2014
p3607
aV Will
p3608
ag129
ag129
ag129
ag129
aV Joaquin
p3609
aV \u2014
p3610
aV \u2014
p3611
aV Joe
p3612
aV Joaquin
p3613
aV Joaquin
p3614
aV Joe
p3615
aV \u2014
p3616
aV \u2014
p3617
aV Joaquin
p3618
aV \u2014
p3619
aV \u2014
p3620
aV Joe
p3621
ag129
ag129
ag129
ag129
ag129
aV Jenn
p3622
aV Jenn
p3623
aV Hali
p3624
aV Jenn
p3625
aV Jenn
p3626
aV Jenn
p3627
aV Jenn
p3628
aV Kelly
p3629
aV Kelly
p3630
aV Kelly
p3631
aV Kelly
p3632
aV Jenn
p3633
ag129
ag129
ag129
ag129
ag129
ag129
aV Hali
p3634
aV Hali
p3635
aV Hali
p3636
aV Hali
p3637
aV Hali
p3638
aV Hali
p3639
aV Hali
p3640
aV Dan
p3641
aV Dan
p3642
aV Dan
p3643
aV Dan
p3644
ag129
ag129
ag129
ag129
ag129
ag129
ag129
aV Joe
p3645
aV Jenn
p3646
aV Jenn
p3647
aV Joe
p3648
aV Joe
p3649
aV Joe
p3650
aV Jenn
p3651
aV Joe
p3652
aV Dan
p3653
aV Jenn
p3654
ag129
ag129
ag129
ag129
ag129
ag129
ag129
ag129
aV Jenn
p3655
aV Jenn
p3656
aV Jenn
p3657
aV Shirin
p3658
aV Shirin
p3659
aV Shirin
p3660
aV Jenn
p3661
aV Jenn
p3662
aV Carolyn
p3663
ag129
ag129
ag129
ag129
ag129
ag129
ag129
ag129
ag129
aV Tyler
p3664
aV Shirin
p3665
aV Dan
p3666
aV Shirin
p3667
aV Shirin
p3668
aV Shirin
p3669
aV Dan
p3670
aV Tyler
p3671
ag129
ag129
ag129
ag129
ag129
ag129
ag129
ag129
ag129
ag129
aV Tyler
p3672
aV Tyler
p3673
aV Mike
p3674
aV Mike
p3675
aV Tyler
p3676
aV Mike
p3677
aV Mike
p3678
ag129
ag129
ag129
ag129
ag129
ag129
ag129
ag129
ag129
ag129
ag129
aV Dan
p3679
aV Dan
p3680
aV Carolyn
p3681
aV Carolyn
p3682
aV Carolyn
p3683
aV Carolyn
p3684
ag129
ag129
ag129
ag129
ag129
ag129
ag129
ag129
ag129
ag129
ag129
ag129
ag3679
ag3680
ag3681
ag3682
ag3683
aV Carolyn
p3685
ag129
ag129
ag129
ag129
ag129
ag129
ag129
ag129
ag129
ag129
ag129
ag129
aV Sierra
p3686
aV Sierra
p3687
aV Sierra
p3688
aV Sierra
p3689
aV Rodney
p3690
ag129
ag129
ag129
ag129
ag129
ag129
ag129
ag129
ag129
ag129
ag129
ag129
ag129
aV Rodney
p3691
aV Rodney
p3692
aV Carolyn
p3693
aV Carolyn
p3694
ag129
ag129
ag129
ag129
ag129
ag129
ag129
ag129
ag129
ag129
ag129
ag129
ag129
ag129
ag319
ag319
ag319
aV Will
p3695
ag129
ag129
ag129
ag129
ag129
ag129
ag129
ag129
ag129
ag129
ag129
ag129
ag129
ag129
ag319
ag319
ag319
ag129
aV Carolyn
p3696
ag129
ag129
ag129
ag129
ag129
ag129
ag129
ag129
ag129
ag129
ag129
ag129
ag129
ag319
ag319
ag319
ag129
ag129
aV Mike
p3697
aV Mike
p3698
aV Mike
p3699
aV Mike
p3700
aV Mike
p3701
aV Mike
p3702
ag129
ag129
ag129
ag129
ag129
ag129
ag129
atp3703
ba(lp3704
g21
(g22
(dp3705
g24
g25
(g26
(I0
tp3706
g28
tp3707
Rp3708
(I1
(L20L
tp3709
g35
I00
(lp3710
g3464
ag3465
ag3466
ag3467
ag3468
ag3469
ag3470
ag3471
ag3472
ag3473
ag3474
ag3475
ag3476
ag3477
ag3478
ag3479
ag3480
ag3481
ag3482
ag3483
atp3711
bsg63
Nstp3712
Rp3713
a(dp3714
g339
(dp3715
g341
g3457
sg342
(lp3716
(dp3717
g345
g346
(I0
I20
I1
tp3718
Rp3719
sg349
g3520
sasstp3720
bsbsg351
I30
ssVThailand
p3721
(dp3722
g3
Vhttp://survivor.wikia.com/wiki/Survivor:_Thailand
p3723
sg5
g6
(g7
g8
Ntp3724
Rp3725
(dp3726
g12
g13
sg14
g15
sg16
g6
(g17
g8
Ntp3727
Rp3728
((lp3729
g21
(g22
(dp3730
g24
g25
(g26
(I0
tp3731
g28
tp3732
Rp3733
(I1
(L16L
tp3734
g35
I00
(lp3735
VJohn
p3736
aVTanya
p3737
aVJed
p3738
aVGhandia
p3739
aVStephanie
p3740
aVRobb
p3741
aVShii Ann
p3742
aVErin
p3743
aVKen
p3744
aVPenny
p3745
aVJake
p3746
aVTed
p3747
aVHelen
p3748
aVJan
p3749
aVClay
p3750
aVBrian
p3751
atp3752
bsg63
Nstp3753
Rp3754
ag21
(g22
(dp3755
g24
g25
(g26
(I0
tp3756
g28
tp3757
Rp3758
(I1
(L16L
tp3759
g35
I00
(lp3760
VBrian
p3761
aVClay
p3762
aVJan
p3763
aVHelen
p3764
aVTed
p3765
aVJake
p3766
aVPenny
p3767
aVKen
p3768
aVErin
p3769
aVShii Ann
p3770
aVRobb
p3771
aVStephanie
p3772
aVGhandia
p3773
aVJed
p3774
aVTanya
p3775
aVJohn
p3776
atp3777
bsg63
g93
(g96
S'\x01\x00\x00\x00\x00\x00\x00\x00'
p3778
tp3779
Rp3780
stp3781
Rp3782
a(lp3783
g25
(g26
(I0
tp3784
g28
tp3785
Rp3786
(I1
(L16L
L16L
tp3787
g35
I00
(lp3788
V John
p3789
aV John
p3790
aV John
p3791
aV Clay
p3792
aV John
p3793
aV \u2014
p3794
aV \u2014
p3795
aV \u2014
p3796
aV \u2014
p3797
aV \u2014
p3798
aV \u2014
p3799
aV \u2014
p3800
aV John
p3801
aV \u2014
p3802
aV John
p3803
aV Ghandia
p3804
aV Tanya
p3805
aV Tanya
p3806
aV Tanya
p3807
aV Tanya
p3808
aV Tanya
p3809
aV \u2014
p3810
aV \u2014
p3811
aV \u2014
p3812
aV \u2014
p3813
aV \u2014
p3814
aV \u2014
p3815
aV \u2014
p3816
aV Helen
p3817
aV \u2014
p3818
aV Helen
p3819
ag129
aV \u2014
p3820
aV \u2014
p3821
aV \u2014
p3822
aV \u2014
p3823
aV \u2014
p3824
aV Jed
p3825
aV Jed
p3826
aV Jed
p3827
aV Jed
p3828
aV Jed
p3829
aV Shii Ann
p3830
aV Shii Ann
p3831
aV \u2014
p3832
aV Shii Ann
p3833
ag129
ag129
aV Ghandia
p3834
aV Ghandia
p3835
aV Clay
p3836
aV Ghandia
p3837
aV Ghandia
p3838
aV \u2014
p3839
aV \u2014
p3840
aV \u2014
p3841
aV \u2014
p3842
aV \u2014
p3843
aV \u2014
p3844
aV \u2014
p3845
aV Clay
p3846
ag129
ag129
ag129
aV \u2014
p3847
aV \u2014
p3848
aV \u2014
p3849
aV \u2014
p3850
aV \u2014
p3851
aV Stephanie
p3852
aV Stephanie
p3853
aV Stephanie
p3854
aV Stephanie
p3855
aV Stephanie
p3856
aV Shii Ann
p3857
aV Shii Ann
p3858
ag129
ag129
ag129
ag129
aV \u2014
p3859
aV \u2014
p3860
aV \u2014
p3861
aV \u2014
p3862
aV \u2014
p3863
aV Robb
p3864
aV Robb
p3865
aV Robb
p3866
aV Robb
p3867
aV Robb
p3868
aV Shii Ann
p3869
ag129
ag129
ag129
ag129
ag129
aV \u2014
p3870
aV \u2014
p3871
aV \u2014
p3872
aV \u2014
p3873
aV \u2014
p3874
aV Shii Ann
p3875
aV Shii Ann
p3876
aV Shii Ann
p3877
aV Shii Ann
p3878
aV Penny
p3879
ag129
ag129
ag129
ag129
ag129
ag129
aV \u2014
p3880
aV \u2014
p3881
aV \u2014
p3882
aV \u2014
p3883
aV \u2014
p3884
aV Erin
p3885
aV Erin
p3886
aV Erin
p3887
aV Ken
p3888
ag129
ag129
ag129
ag129
ag129
ag129
ag129
aV Ken
p3889
aV Ken
p3890
aV Ken
p3891
aV Ken
p3892
aV Ken
p3893
aV Ted
p3894
aV Ted
p3895
aV Ted
p3896
ag129
ag129
ag129
ag129
ag129
ag129
ag129
ag129
aV Penny
p3897
aV Jake
p3898
aV Penny
p3899
aV Penny
p3900
aV Penny
p3901
aV Jan
p3902
aV Jake
p3903
ag129
ag129
ag129
ag129
ag129
ag129
ag129
ag129
ag129
aV Jake
p3904
aV Jake
p3905
aV Jake
p3906
aV Jake
p3907
aV Jake
p3908
aV Jan
p3909
ag129
ag129
ag129
ag129
ag129
ag129
ag129
ag129
ag129
ag129
aV Ted
p3910
aV Ted
p3911
aV Ted
p3912
aV Ted
p3913
aV Jan
p3914
ag129
ag129
ag129
ag129
ag129
ag129
ag129
ag129
ag129
ag129
ag129
aV Helen
p3915
aV Helen
p3916
aV Helen
p3917
aV Jan
p3918
ag129
ag129
ag129
ag129
ag129
ag129
ag129
ag129
ag129
ag129
ag129
ag129
aV Jan
p3919
aV \u2014
p3920
aV \u2014
p3921
ag129
ag129
ag129
ag129
ag129
ag129
ag129
ag129
ag129
ag129
ag129
ag129
ag129
ag319
ag319
ag129
ag129
ag129
ag129
aV Clay
p3922
aV Clay
p3923
aV Clay
p3924
ag129
ag129
ag129
ag129
ag129
ag129
ag129
ag319
ag319
aV Brian
p3925
aV Brian
p3926
aV Brian
p3927
aV Brian
p3928
ag129
ag129
ag129
ag129
ag129
ag129
ag129
ag129
ag129
ag129
atp3929
ba(lp3930
g21
(g22
(dp3931
g24
g25
(g26
(I0
tp3932
g28
tp3933
Rp3934
(I1
(L16L
tp3935
g35
I00
(lp3936
g3736
ag3737
ag3738
ag3739
ag3740
ag3741
ag3742
ag3743
ag3744
ag3745
ag3746
ag3747
ag3748
ag3749
ag3750
ag3751
atp3937
bsg63
Nstp3938
Rp3939
a(dp3940
g339
(dp3941
g341
g3729
sg342
(lp3942
(dp3943
g345
g346
(I0
I16
I1
tp3944
Rp3945
sg349
g3786
sasstp3946
bsbsg351
I5
ssVThe_Amazon
p3947
(dp3948
g3
Vhttp://survivor.wikia.com/wiki/Survivor:_The_Amazon
p3949
sg5
g6
(g7
g8
Ntp3950
Rp3951
(dp3952
g12
g13
sg14
g15
sg16
g6
(g17
g8
Ntp3953
Rp3954
((lp3955
g21
(g22
(dp3956
g24
g25
(g26
(I0
tp3957
g28
tp3958
Rp3959
(I1
(L16L
tp3960
g35
I00
(lp3961
VRyan
p3962
aVJanet
p3963
aVDaniel
p3964
aVJoanna
p3965
aVJeanne
p3966
aVShawna
p3967
aVRoger
p3968
aVDave
p3969
aVDeena
p3970
aVAlex
p3971
aVChristy
p3972
aVHeidi
p3973
aVButch
p3974
aVRob
p3975
aVMatthew
p3976
aVJenna
p3977
atp3978
bsg63
Nstp3979
Rp3980
ag21
(g22
(dp3981
g24
g25
(g26
(I0
tp3982
g28
tp3983
Rp3984
(I1
(L16L
tp3985
g35
I00
(lp3986
VJenna
p3987
aVMatthew
p3988
aVRob
p3989
aVButch
p3990
aVHeidi
p3991
aVChristy
p3992
aVAlex
p3993
aVDeena
p3994
aVDave
p3995
aVRoger
p3996
aVShawna
p3997
aVJeanne
p3998
aVJoanna
p3999
aVDaniel
p4000
aVJanet
p4001
aVRyan
p4002
atp4003
bsg63
g93
(g96
S'\x01\x00\x00\x00\x00\x00\x00\x00'
p4004
tp4005
Rp4006
stp4007
Rp4008
a(lp4009
g25
(g26
(I0
tp4010
g28
tp4011
Rp4012
(I1
(L16L
L16L
tp4013
g35
I00
(lp4014
V \u2014
p4015
aV Roger
p4016
aV Ryan
p4017
aV Ryan
p4018
aV \u2014
p4019
aV \u2014
p4020
aV Ryan
p4021
aV \u2014
p4022
aV Daniel
p4023
aV Ryan
p4024
aV \u2014
p4025
aV \u2014
p4026
aV \u2014
p4027
aV Roger
p4028
aV \u2014
p4029
aV Roger
p4030
aV Janet
p4031
aV \u2014
p4032
aV \u2014
p4033
aV \u2014
p4034
aV Janet
p4035
aV Jenna
p4036
aV \u2014
p4037
aV Janet
p4038
aV \u2014
p4039
aV \u2014
p4040
aV Janet
p4041
aV Janet
p4042
aV Christy
p4043
aV \u2014
p4044
aV Jeanne
p4045
ag129
aV \u2014
p4046
aV Daniel
p4047
aV Daniel
p4048
aV Daniel
p4049
aV \u2014
p4050
aV \u2014
p4051
aV Daniel
p4052
aV \u2014
p4053
aV Daniel
p4054
aV Daniel
p4055
aV \u2014
p4056
aV \u2014
p4057
aV \u2014
p4058
aV Roger
p4059
ag129
ag129
aV Joanna
p4060
aV \u2014
p4061
aV \u2014
p4062
aV \u2014
p4063
aV Joanna
p4064
aV Joanna
p4065
aV \u2014
p4066
aV Joanna
p4067
aV \u2014
p4068
aV \u2014
p4069
aV Christy
p4070
aV Shawna
p4071
aV Shawna
p4072
ag129
ag129
ag129
aV \u2014
p4073
aV \u2014
p4074
aV \u2014
p4075
aV Jeanne
p4076
aV Jeanne
p4077
aV Butch
p4078
aV \u2014
p4079
aV \u2014
p4080
aV Jeanne
p4081
aV Jeanne
p4082
aV \u2014
p4083
aV Butch
p4084
ag129
ag129
ag129
ag129
aV Shawna
p4085
aV Shawna
p4086
aV Shawna
p4087
aV \u2014
p4088
aV \u2014
p4089
aV \u2014
p4090
aV Matthew
p4091
aV Shawna
p4092
aV \u2014
p4093
aV \u2014
p4094
aV Matthew
p4095
ag129
ag129
ag129
ag129
ag129
aV Roger
p4096
aV Roger
p4097
aV Roger
p4098
aV Christy
p4099
aV Roger
p4100
aV Roger
p4101
aV Roger
p4102
aV Roger
p4103
aV Christy
p4104
aV Christy
p4105
ag129
ag129
ag129
ag129
ag129
ag129
aV Dave
p4106
aV Dave
p4107
aV Dave
p4108
aV Dave
p4109
aV Dave
p4110
aV Dave
p4111
aV Dave
p4112
aV Dave
p4113
aV Matthew
p4114
ag129
ag129
ag129
ag129
ag129
ag129
ag129
aV Deena
p4115
aV Deena
p4116
aV Deena
p4117
aV Deena
p4118
aV Deena
p4119
aV Alex
p4120
aV Deena
p4121
aV Alex
p4122
ag129
ag129
ag129
ag129
ag129
ag129
ag129
ag129
aV Matthew
p4123
aV Alex
p4124
aV Alex
p4125
aV Alex
p4126
aV Matthew
p4127
aV Alex
p4128
aV Matthew
p4129
ag129
ag129
ag129
ag129
ag129
ag129
ag129
ag129
ag129
aV Christy
p4130
aV Christy
p4131
aV Christy
p4132
aV Jenna
p4133
aV Christy
p4134
aV Jenna
p4135
ag129
ag129
ag129
ag129
ag129
ag129
ag129
ag129
ag129
ag129
aV Rob
p4136
aV Heidi
p4137
aV Heidi
p4138
aV Heidi
p4139
aV Rob
p4140
ag129
ag129
ag129
ag129
ag129
ag129
ag129
ag129
ag129
ag129
ag129
aV Butch
p4141
aV Butch
p4142
aV Butch
p4143
aV Rob
p4144
ag129
ag129
ag129
ag129
ag129
ag129
ag129
ag129
ag129
ag129
ag129
ag129
aV Rob
p4145
aV \u2014
p4146
aV \u2014
p4147
ag129
ag129
ag129
ag129
ag129
ag129
ag129
ag129
ag129
ag129
ag129
ag129
ag129
ag319
ag319
ag129
aV Matthew
p4148
ag129
ag129
ag129
ag129
ag129
ag129
ag129
ag129
ag129
ag129
ag129
ag129
ag319
ag319
aV Jenna
p4149
ag129
aV Jenna
p4150
aV Jenna
p4151
aV Jenna
p4152
aV Jenna
p4153
aV Jenna
p4154
ag129
ag129
ag129
ag129
ag129
ag129
ag129
atp4155
ba(lp4156
g21
(g22
(dp4157
g24
g25
(g26
(I0
tp4158
g28
tp4159
Rp4160
(I1
(L16L
tp4161
g35
I00
(lp4162
g3962
ag3963
ag3964
ag3965
ag3966
ag3967
ag3968
ag3969
ag3970
ag3971
ag3972
ag3973
ag3974
ag3975
ag3976
ag3977
atp4163
bsg63
Nstp4164
Rp4165
a(dp4166
g339
(dp4167
g341
g3955
sg342
(lp4168
(dp4169
g345
g346
(I0
I16
I1
tp4170
Rp4171
sg349
g4012
sasstp4172
bsbsg351
I6
ssVCagayan
p4173
(dp4174
g3
Vhttp://survivor.wikia.com/wiki/Survivor:_Cagayan
p4175
sg5
g6
(g7
g8
Ntp4176
Rp4177
(dp4178
g12
g13
sg14
g15
sg16
g6
(g17
g8
Ntp4179
Rp4180
((lp4181
g21
(g22
(dp4182
g24
g25
(g26
(I0
tp4183
g28
tp4184
Rp4185
(I1
(L19L
tp4186
g35
I00
(lp4187
VDavid
p4188
aVGarrett
p4189
aVBrice
p4190
aVBrice
p4191
aVJ'Tia
p4192
aVCliff
p4193
aVLindsey
p4194
aVAlexis
p4195
aVSarah
p4196
aVMorgan
p4197
aVLJ
p4198
aVJeremiah
p4199
aVJefra
p4200
aVTasha
p4201
aVTrish
p4202
aVSpencer
p4203
aVKass
p4204
aVWoo
p4205
aVTony
p4206
atp4207
bsg63
Nstp4208
Rp4209
ag21
(g22
(dp4210
g24
g25
(g26
(I0
tp4211
g28
tp4212
Rp4213
(I1
(L18L
tp4214
g35
I00
(lp4215
VTony
p4216
aVWoo
p4217
aVKass
p4218
aVSpencer
p4219
aVTrish
p4220
aVTasha
p4221
aVJefra
p4222
aVJeremiah
p4223
aVLJ
p4224
aVMorgan
p4225
aVSarah
p4226
aVAlexis
p4227
aVLindsey
p4228
aVCliff
p4229
aVJ'Tia
p4230
aVBrice
p4231
aVGarrett
p4232
aVDavid
p4233
atp4234
bsg63
g93
(g96
S'\x01\x00\x00\x00\x00\x00\x00\x00'
p4235
tp4236
Rp4237
stp4238
Rp4239
a(lp4240
g25
(g26
(I0
tp4241
g28
tp4242
Rp4243
(I1
(L19L
L18L
tp4244
g35
I00
(lp4245
V \u2014
p4246
aV \u2014
p4247
aV J'Tia
p4248
aV David
p4249
aV \u2014
p4250
aV David
p4251
aV \u2014
p4252
aV \u2014
p4253
aV \u2014
p4254
aV \u2014
p4255
aV \u2014
p4256
aV \u2014
p4257
aV \u2014
p4258
aV \u2014
p4259
aV David
p4260
aV \u2014
p4261
aV David
p4262
aV J'Tia
p4263
aV \u2014
p4264
aV \u2014
p4265
aV Garrett
p4266
aV J'Tia
p4267
aV \u2014
p4268
aV Garrett
p4269
aV \u2014
p4270
aV \u2014
p4271
aV \u2014
p4272
aV \u2014
p4273
aV \u2014
p4274
aV \u2014
p4275
aV \u2014
p4276
aV \u2014
p4277
aV Garrett
p4278
aV \u2014
p4279
aV J'Tia
p4280
ag129
aV \u2014
p4281
aV \u2014
p4282
aV \u2014
p4283
aV \u2014
p4284
aV \u2014
p4285
aV \u2014
p4286
aV Brice
p4287
aV Morgan
p4288
aV Morgan
p4289
aV Alexis
p4290
aV \u2014
p4291
aV Brice
p4292
aV \u2014
p4293
aV \u2014
p4294
aV \u2014
p4295
aV Alexis
p4296
ag129
ag129
ag4281
ag4282
ag4283
ag4284
ag4285
ag4286
aV Brice
p4297
aV Brice
p4298
aV Brice
p4299
aV None
p4300
ag4291
aV None
p4301
ag4293
ag4294
ag4295
aV None
p4302
ag129
ag129
aV \u2014
p4303
aV \u2014
p4304
aV J'Tia
p4305
aV J'Tia
p4306
aV \u2014
p4307
aV J'Tia
p4308
aV \u2014
p4309
aV \u2014
p4310
aV \u2014
p4311
aV \u2014
p4312
aV \u2014
p4313
aV \u2014
p4314
aV \u2014
p4315
aV \u2014
p4316
aV Spencer
p4317
ag129
ag129
ag129
aV Cliff
p4318
aV LJ
p4319
aV \u2014
p4320
aV \u2014
p4321
aV Cliff
p4322
aV \u2014
p4323
aV Cliff
p4324
aV \u2014
p4325
aV Cliff
p4326
aV \u2014
p4327
aV \u2014
p4328
aV \u2014
p4329
aV LJ
p4330
aV LJ
p4331
ag129
ag129
ag129
ag129
aV\u2014
p4332
aV\u2014
p4333
aV \u2014
p4334
aV \u2014
p4335
aV\u2014
p4336
aV \u2014
p4337
aV\u2014
p4338
aV \u2014
p4339
aV\u2014
p4340
aV \u2014
p4341
aV \u2014
p4342
aV \u2014
p4343
aV Quit
p4344
ag129
ag129
ag129
ag129
ag129
ag4332
ag4333
aV Alexis
p4345
aV Alexis
p4346
ag4336
aV Alexis
p4347
ag4338
aV Alexis
p4348
ag4340
aV Alexis
p4349
aV Alexis
p4350
aV Jeremiah
p4351
ag129
ag129
ag129
ag129
ag129
ag129
aV Sarah
p4352
aV Sarah
p4353
aV Sarah
p4354
aV Jefra
p4355
aV Sarah
p4356
aV Jefra
p4357
aV Sarah
p4358
aV Jefra
p4359
aV Sarah
p4360
aV Jefra
p4361
aV Jefra
p4362
ag129
ag129
ag129
ag129
ag129
ag129
ag129
aV Morgan
p4363
aV Morgan
p4364
aV Morgan
p4365
aV Tony
p4366
aV Morgan
p4367
aV Tony
p4368
aV Morgan
p4369
aV Tony
p4370
aV Morgan
p4371
aV Tony
p4372
ag129
ag129
ag129
ag129
ag129
ag129
ag129
ag129
aV LJ
p4373
aV LJ
p4374
aV Jeremiah
p4375
aV LJ
p4376
aV Jeremiah
p4377
aV LJ
p4378
aV Jeremiah
p4379
aV LJ
p4380
aV Spencer
p4381
ag129
ag129
ag129
ag129
ag129
ag129
ag129
ag129
ag129
aV Jeremiah
p4382
aV Jeremiah
p4383
aV Jeremiah
p4384
aV Woo
p4385
aV Jeremiah
p4386
aV Woo
p4387
aV Jeremiah
p4388
aV Woo
p4389
ag129
ag129
ag129
ag129
ag129
ag129
ag129
ag129
ag129
ag129
aV Jefra
p4390
aV Jefra
p4391
aV Spencer
p4392
aV Jefra
p4393
aV Spencer
p4394
aV Jefra
p4395
aV Spencer
p4396
ag129
ag129
ag129
ag129
ag129
ag129
ag129
ag129
ag129
ag129
ag129
aV Tasha
p4397
aV Tasha
p4398
aV Tasha
p4399
aV Tony
p4400
aV Tasha
p4401
aV Trish
p4402
ag129
ag129
ag129
ag129
ag129
ag129
ag129
ag129
ag129
ag129
ag129
ag129
aV Trish
p4403
aV Trish
p4404
aV Trish
p4405
aV Trish
p4406
aV Kass
p4407
ag129
ag129
ag129
ag129
ag129
ag129
ag129
ag129
ag129
ag129
ag129
ag129
ag129
aV Spencer
p4408
aV Spencer
p4409
aV Spencer
p4410
aV Woo
p4411
ag129
ag129
ag129
ag129
ag129
ag129
ag129
ag129
ag129
ag129
ag129
ag129
ag129
ag129
aV \u2014
p4412
aV Kass
p4413
aV \u2014
p4414
ag129
ag129
ag129
ag129
ag129
ag129
ag129
ag129
ag129
ag129
ag129
ag129
ag129
ag129
ag129
ag319
ag319
ag129
ag129
ag129
aV Woo
p4415
ag129
ag129
ag129
ag129
ag129
ag129
ag129
ag129
ag129
ag129
ag129
ag129
ag319
ag319
aV Tony
p4416
aV Tony
p4417
aV Tony
p4418
ag129
aV Tony
p4419
aV Tony
p4420
aV Tony
p4421
aV Tony
p4422
aV Tony
p4423
ag129
ag129
ag129
ag129
ag129
ag129
ag129
atp4424
ba(lp4425
g21
(g22
(dp4426
g24
g25
(g26
(I0
tp4427
g28
tp4428
Rp4429
(I1
(L19L
tp4430
g35
I00
(lp4431
g4188
ag4189
ag4190
ag4191
ag4192
ag4193
ag4194
ag4195
ag4196
ag4197
ag4198
ag4199
ag4200
ag4201
ag4202
ag4203
ag4204
ag4205
ag4206
atp4432
bsg63
Nstp4433
Rp4434
a(dp4435
g339
(dp4436
g341
g4181
sg342
(lp4437
(dp4438
g345
g346
(I0
I19
I1
tp4439
Rp4440
sg349
g4243
sasstp4441
bsbsg351
I28
ssVSouth_Pacific
p4442
(dp4443
g3
Vhttp://survivor.wikia.com/wiki/Survivor:_South_Pacific
p4444
sg5
g6
(g7
g8
Ntp4445
Rp4446
(dp4447
g12
g13
sg14
g15
sg16
g6
(g17
g8
Ntp4448
Rp4449
((lp4450
g21
(g22
(dp4451
g24
g25
(g26
(I0
tp4452
g28
tp4453
Rp4454
(I1
(L21L
tp4455
g35
I00
(lp4456
VSemhar
p4457
aVChristine
p4458
aVMark
p4459
aVStacey
p4460
aVElyse
p4461
aVMikayla
p4462
aVOzzy
p4463
aVKeith
p4464
aVKeith
p4465
aVOzzy
p4466
aVJim
p4467
aVDawn
p4468
aVWhitney
p4469
aVCochran
p4470
aVEdna
p4471
aVBrandon
p4472
aVRick
p4473
aVOzzy
p4474
aVAlbert
p4475
aVCoach
p4476
aVSophie
p4477
atp4478
bsg63
Nstp4479
Rp4480
ag21
(g22
(dp4481
g24
g25
(g26
(I0
tp4482
g28
tp4483
Rp4484
(I1
(L18L
tp4485
g35
I00
(lp4486
VSophie
p4487
aVCoach
p4488
aVAlbert
p4489
aVOzzy
p4490
aVRick
p4491
aVBrandon
p4492
aVEdna
p4493
aVCochran
p4494
aVWhitney
p4495
aVDawn
p4496
aVKeith
p4497
aVJim
p4498
aVChristine
p4499
aVMikayla
p4500
aVElyse
p4501
aVStacey
p4502
aVMark
p4503
aVSemhar
p4504
atp4505
bsg63
g93
(g96
S'\x01\x00\x00\x00\x00\x00\x00\x00'
p4506
tp4507
Rp4508
stp4509
Rp4510
a(lp4511
g25
(g26
(I0
tp4512
g28
tp4513
Rp4514
(I1
(L21L
L18L
tp4515
g35
I00
(lp4516
V \u2014
p4517
aV \u2014
p4518
aV \u2014
p4519
aV Semhar
p4520
aV \u2014
p4521
aV \u2014
p4522
aV \u2014
p4523
aV Semhar
p4524
aV Semhar
p4525
aV Semhar
p4526
aV Semhar
p4527
aV Semhar
p4528
aV \u2014
p4529
aV \u2014
p4530
aV Semhar
p4531
aV \u2014
p4532
aV Semhar
p4533
aV Cochran
p4534
aV Stacey
p4535
aV Christine
p4536
aV Christine
p4537
aV \u2014
p4538
aV Stacey
p4539
aV Christine
p4540
aV Stacey
p4541
aV \u2014
p4542
aV \u2014
p4543
aV \u2014
p4544
aV \u2014
p4545
aV \u2014
p4546
aV Edna
p4547
aV Christine
p4548
aV \u2014
p4549
aV Sophie
p4550
aV \u2014
p4551
aV 
p4552
aV \u2014
p4553
aV \u2014
p4554
aV \u2014
p4555
aV Mark
p4556
aV \u2014
p4557
aV \u2014
p4558
aV \u2014
p4559
aV Mark
p4560
aV Mark
p4561
aV Mark
p4562
aV Mark
p4563
aV Cochran
p4564
ag4552
aV \u2014
p4565
aV Mark
p4566
aV \u2014
p4567
aV Jim
p4568
ag4552
aV Stacey
p4569
aV Stacey
p4570
aV Stacey
p4571
aV \u2014
p4572
aV Stacey
p4573
aV Stacey
p4574
aV Stacey
p4575
aV \u2014
p4576
aV \u2014
p4577
aV \u2014
p4578
aV \u2014
p4579
aV \u2014
p4580
ag4552
aV Stacey
p4581
aV \u2014
p4582
aV Edna
p4583
ag4552
ag129
aV \u2014
p4584
aV \u2014
p4585
aV \u2014
p4586
aV Cochran
p4587
aV \u2014
p4588
aV \u2014
p4589
aV \u2014
p4590
aV Elyse
p4591
aV Dawn
p4592
aV Elyse
p4593
aV Dawn
p4594
aV Elyse
p4595
ag4552
aV \u2014
p4596
aV Cochran
p4597
ag4552
ag129
ag129
aV Edna
p4598
aV Mikayla
p4599
aV Edna
p4600
aV \u2014
p4601
aV Mikayla
p4602
aV Mikayla
p4603
aV Mikayla
p4604
aV \u2014
p4605
aV \u2014
p4606
aV \u2014
p4607
aV \u2014
p4608
aV \u2014
p4609
ag4552
aV Edna
p4610
ag4552
ag129
ag129
ag129
aV \u2014
p4611
aV \u2014
p4612
aV \u2014
p4613
aV Cochran
p4614
aV \u2014
p4615
aV \u2014
p4616
aV \u2014
p4617
aV Ozzy
p4618
aV Ozzy
p4619
aV Ozzy
p4620
aV Ozzy
p4621
aV Ozzy
p4622
ag4552
ag4552
ag129
ag129
ag129
ag129
aV Keith
p4623
aV Keith
p4624
aV Keith
p4625
aV Rick
p4626
aV Keith
p4627
aV Keith
p4628
aV Keith
p4629
aV Rick
p4630
aV Rick
p4631
aV Rick
p4632
aV Rick
p4633
aV Rick
p4634
ag4552
ag129
ag129
ag129
ag129
ag129
aV Keith
p4635
aV Keith
p4636
aV Keith
p4637
aV Rick
p4638
aVNone
p4639
aV Keith
p4640
aV Keith
p4641
aV Keith
p4642
aV Rick
p4643
aV Rick
p4644
aVNone
p4645
aV Rick
p4646
ag4552
ag129
ag129
ag129
ag129
ag129
aV Ozzy
p4647
aV Ozzy
p4648
aV Ozzy
p4649
aV Cochran
p4650
aV Ozzy
p4651
aV Ozzy
p4652
aV Ozzy
p4653
aV Ozzy
p4654
aV Ozzy
p4655
aV Ozzy
p4656
ag4552
aV Cochran
p4657
ag129
ag129
ag129
ag129
ag129
ag129
aV Jim
p4658
aV Jim
p4659
aV Jim
p4660
ag4552
aV Jim
p4661
aV Jim
p4662
aV Jim
p4663
aV Jim
p4664
aV Edna
p4665
aV Edna
p4666
ag4552
aV Edna
p4667
ag129
ag129
ag129
ag129
ag129
ag129
aV Dawn
p4668
aV Dawn
p4669
aV Dawn
p4670
ag4552
aV Dawn
p4671
aV Dawn
p4672
aV Dawn
p4673
aV Dawn
p4674
aV Edna
p4675
aV Edna
p4676
ag4552
ag4552
ag129
ag129
ag129
ag129
ag129
ag129
aV Whitney
p4677
aV Whitney
p4678
aV Whitney
p4679
ag4552
aV Whitney
p4680
aV Whitney
p4681
aV Whitney
p4682
aV Whitney
p4683
aV Cochran
p4684
ag4552
ag129
ag129
ag129
ag129
ag129
ag129
ag129
ag129
aV Cochran
p4685
aV Cochran
p4686
aV Cochran
p4687
ag4552
aV Cochran
p4688
aV Cochran
p4689
aV Rick
p4690
aV Rick
p4691
ag4552
ag4552
ag129
ag129
ag129
ag129
ag129
ag129
ag129
ag129
aV Edna
p4692
aV Edna
p4693
aV Edna
p4694
ag4552
aV Edna
p4695
aV Edna
p4696
aV Brandon
p4697
ag4552
ag129
ag129
ag129
ag129
ag129
ag129
ag129
ag129
ag129
ag129
aV Brandon
p4698
aV Brandon
p4699
aV Sophie
p4700
ag4552
aV Brandon
p4701
aV Sophie
p4702
ag4552
ag129
ag129
ag129
ag129
ag129
ag129
ag129
ag129
ag129
ag129
ag129
aV Rick
p4703
aV Rick
p4704
aV Rick
p4705
aV Sophie
p4706
aV Sophie
p4707
ag4552
ag129
ag129
ag129
ag129
ag129
ag129
ag129
ag129
ag129
ag129
ag129
ag129
aV Ozzy
p4708
aV Ozzy
p4709
aV Ozzy
p4710
aV Albert
p4711
ag129
ag129
ag129
ag129
ag129
ag129
ag129
ag129
ag129
ag129
ag129
ag129
ag129
ag129
ag319
ag319
ag319
ag129
ag129
ag129
ag129
ag129
ag129
ag129
ag129
ag129
ag129
ag129
ag129
ag129
ag129
ag129
ag319
ag319
ag319
ag129
aV Coach
p4712
ag129
aV Coach
p4713
aV Coach
p4714
ag129
ag129
ag129
ag129
ag129
ag129
ag129
ag129
ag129
ag129
ag319
ag319
ag319
aV Sophie
p4715
ag129
aV Sophie
p4716
ag129
ag129
aV Sophie
p4717
aV Sophie
p4718
aV Sophie
p4719
aV Sophie
p4720
ag129
ag129
ag129
ag129
ag129
ag129
atp4721
ba(lp4722
g21
(g22
(dp4723
g24
g25
(g26
(I0
tp4724
g28
tp4725
Rp4726
(I1
(L21L
tp4727
g35
I00
(lp4728
g4457
ag4458
ag4459
ag4460
ag4461
ag4462
ag4463
ag4464
ag4465
ag4466
ag4467
ag4468
ag4469
ag4470
ag4471
ag4472
ag4473
ag4474
ag4475
ag4476
ag4477
atp4729
bsg63
Nstp4730
Rp4731
a(dp4732
g339
(dp4733
g341
g4450
sg342
(lp4734
(dp4735
g345
g346
(I0
I21
I1
tp4736
Rp4737
sg349
g4514
sasstp4738
bsbsg351
I23
ssVOne_World
p4739
(dp4740
g3
Vhttp://survivor.wikia.com/wiki/Survivor:_One_World
p4741
sg5
g6
(g7
g8
Ntp4742
Rp4743
(dp4744
g12
g13
sg14
g15
sg16
g6
(g17
g8
Ntp4745
Rp4746
((lp4747
g21
(g22
(dp4748
g24
g25
(g26
(I0
tp4749
g28
tp4750
Rp4751
(I1
(L18L
tp4752
g35
I00
(lp4753
VKourtney
p4754
aVNina
p4755
aVMatt
p4756
aVBill
p4757
aVMonica
p4758
aVColton
p4759
aVJonas
p4760
aVMichael
p4761
aVJay
p4762
aVLeif
p4763
aVTroyzan
p4764
aVKat
p4765
aVTarzan
p4766
aVAlicia
p4767
aVChristina
p4768
aVChelsea
p4769
aVSabrina
p4770
aVKim
p4771
atp4772
bsg63
Nstp4773
Rp4774
ag21
(g22
(dp4775
g24
g25
(g26
(I0
tp4776
g28
tp4777
Rp4778
(I1
(L18L
tp4779
g35
I00
(lp4780
VKim
p4781
aVSabrina
p4782
aVChelsea
p4783
aVChristina
p4784
aVAlicia
p4785
aVTarzan
p4786
aVKat
p4787
aVTroyzan
p4788
aVLeif
p4789
aVJay
p4790
aVMichael
p4791
aVJonas
p4792
aVColton
p4793
aVMonica
p4794
aVBill
p4795
aVMatt
p4796
aVNina
p4797
aVKourtney
p4798
atp4799
bsg63
g93
(g96
S'\x01\x00\x00\x00\x00\x00\x00\x00'
p4800
tp4801
Rp4802
stp4803
Rp4804
a(lp4805
g25
(g26
(I0
tp4806
g28
tp4807
Rp4808
(I1
(L18L
L18L
tp4809
g35
I00
(lp4810
V \u2014
p4811
aV \u2014
p4812
aV \u2014
p4813
aV \u2014
p4814
aV \u2014
p4815
aV \u2014
p4816
aV \u2014
p4817
aV \u2014
p4818
aV \u2014
p4819
aV \u2014
p4820
aV \u2014
p4821
aV \u2014
p4822
aV \u2014
p4823
aV \u2014
p4824
aV \u2014
p4825
aV \u2014
p4826
aV \u2014
p4827
aVEvacuated
p4828
aV Nina
p4829
aV Nina
p4830
aV Nina
p4831
aV Nina
p4832
aV Nina
p4833
aV \u2014
p4834
aV Nina
p4835
aV \u2014
p4836
aV \u2014
p4837
aV \u2014
p4838
aV \u2014
p4839
aV \u2014
p4840
aV \u2014
p4841
aV Christina
p4842
aV \u2014
p4843
aV \u2014
p4844
aV Kat
p4845
ag129
aV \u2014
p4846
aV \u2014
p4847
aV \u2014
p4848
aV \u2014
p4849
aV \u2014
p4850
aV Matt
p4851
aV \u2014
p4852
aV Matt
p4853
aV Matt
p4854
aV Matt
p4855
aV Bill
p4856
aV Matt
p4857
aV Matt
p4858
aV \u2014
p4859
aV Matt
p4860
aV Colton
p4861
ag129
ag129
aV \u2014
p4862
aV \u2014
p4863
aV \u2014
p4864
aV \u2014
p4865
aV \u2014
p4866
aV Bill
p4867
aV \u2014
p4868
aV Bill
p4869
aV Bill
p4870
aV Bill
p4871
aV Bill
p4872
aV Bill
p4873
aV Bill
p4874
aV \u2014
p4875
aV Leif
p4876
ag129
ag129
ag129
aV \u2014
p4877
aV \u2014
p4878
aV \u2014
p4879
aV Tarzan
p4880
aV Monica
p4881
aV Monica
p4882
aV \u2014
p4883
aV \u2014
p4884
aV Monica
p4885
aV \u2014
p4886
aV \u2014
p4887
aV Monica
p4888
aV Monica
p4889
aV Tarzan
p4890
ag129
ag129
ag129
ag129
aV \u2014
p4891
aV \u2014
p4892
aV \u2014
p4893
aV \u2014
p4894
aV\u2014
p4895
aV \u2014
p4896
aV \u2014
p4897
aV \u2014
p4898
aV \u2014
p4899
aV \u2014
p4900
aV \u2014
p4901
aV \u2014
p4902
aVEvacuated
p4903
ag129
ag129
ag129
ag129
ag129
aV Jonas
p4904
aV Jonas
p4905
aV Jonas
p4906
aV Jonas
p4907
aV Jonas
p4908
aV Jonas
p4909
aV Jonas
p4910
aV Jonas
p4911
aV Michael
p4912
aV Jonas
p4913
aV Jonas
p4914
aV Michael
p4915
ag129
ag129
ag129
ag129
ag129
ag129
aV Michael
p4916
aV Michael
p4917
aV Michael
p4918
aV Tarzan
p4919
aV Tarzan
p4920
aV Christina
p4921
aV Michael
p4922
aV Michael
p4923
aV Michael
p4924
aV Michael
p4925
aV Christina
p4926
ag129
ag129
ag129
ag129
ag129
ag129
ag129
aV Jay
p4927
aV Jay
p4928
aV Troyzan
p4929
aV Jay
p4930
aV Jay
p4931
aV Jay
p4932
aV Troyzan
p4933
aV Kim
p4934
aV Alicia
p4935
aV Alicia
p4936
ag129
ag129
ag129
ag129
ag129
ag129
ag129
ag129
aV Tarzan
p4937
aV Leif
p4938
aV Leif
p4939
aV Tarzan
p4940
aV Tarzan
p4941
aV Leif
p4942
aV Leif
p4943
aV Kim
p4944
aV Kim
p4945
ag129
ag129
ag129
ag129
ag129
ag129
ag129
ag129
ag129
aV Troyzan
p4946
aV Christina
p4947
aV Troyzan
p4948
aV Chelsea
p4949
aV Troyzan
p4950
aV Christina
p4951
aV Troyzan
p4952
aV Christina
p4953
ag129
ag129
ag129
ag129
ag129
ag129
ag129
ag129
ag129
ag129
aV Kat
p4954
aV Kat
p4955
aV Kat
p4956
aV Kat
p4957
aV Kat
p4958
aV Kat
p4959
aV Sabrina
p4960
ag129
ag129
ag129
ag129
ag129
ag129
ag129
ag129
ag129
ag129
ag129
aV Tarzan
p4961
aV Tarzan
p4962
aV Tarzan
p4963
aV Tarzan
p4964
aV Tarzan
p4965
aV Chelsea
p4966
ag129
ag129
ag129
ag129
ag129
ag129
ag129
ag129
ag129
ag129
ag129
ag129
aV Alicia
p4967
aV Alicia
p4968
aV Alicia
p4969
aV Chelsea
p4970
aV Chelsea
p4971
ag129
ag129
ag129
ag129
ag129
ag129
ag129
ag129
ag129
ag129
ag129
ag129
ag129
aV Christina
p4972
aV Christina
p4973
aV Christina
p4974
aV Sabrina
p4975
ag129
ag129
ag129
ag129
ag129
ag129
ag129
ag129
ag129
ag129
ag129
ag129
ag129
ag129
ag319
ag319
ag319
ag129
ag129
ag129
ag129
ag129
ag129
ag129
ag129
ag129
ag129
ag129
ag129
ag129
ag129
ag129
ag319
ag319
ag319
ag129
ag129
ag129
ag129
aV Sabrina
p4976
aV Sabrina
p4977
ag129
ag129
ag129
ag129
ag129
ag129
ag129
ag129
ag129
ag319
ag319
ag319
aV Kim
p4978
aV Kim
p4979
aV Kim
p4980
aV Kim
p4981
ag129
ag129
aV Kim
p4982
aV Kim
p4983
aV Kim
p4984
ag129
ag129
ag129
ag129
ag129
ag129
atp4985
ba(lp4986
g21
(g22
(dp4987
g24
g25
(g26
(I0
tp4988
g28
tp4989
Rp4990
(I1
(L18L
tp4991
g35
I00
(lp4992
g4754
ag4755
ag4756
ag4757
ag4758
ag4759
ag4760
ag4761
ag4762
ag4763
ag4764
ag4765
ag4766
ag4767
ag4768
ag4769
ag4770
ag4771
atp4993
bsg63
Nstp4994
Rp4995
a(dp4996
g339
(dp4997
g341
g4747
sg342
(lp4998
(dp4999
g345
g346
(I0
I18
I1
tp5000
Rp5001
sg349
g4808
sasstp5002
bsbsg351
I24
ssVPhilippines
p5003
(dp5004
g3
Vhttp://survivor.wikia.com/wiki/Survivor:_Philippines
p5005
sg5
g6
(g7
g8
Ntp5006
Rp5007
(dp5008
g12
g13
sg14
g15
sg16
g6
(g17
g8
Ntp5009
Rp5010
((lp5011
g21
(g22
(dp5012
g24
g25
(g26
(I0
tp5013
g28
tp5014
Rp5015
(I1
(L18L
tp5016
g35
I00
(lp5017
VZane
p5018
aVRoxanne
p5019
aVAngie
p5020
aVRussell
p5021
aVDana
p5022
aVDawson
p5023
aVKatie
p5024
aVR.C.
p5025
aVJeff
p5026
aVArtis
p5027
aVPete
p5028
aVJonathan
p5029
aVCarter
p5030
aVAbi-Maria
p5031
aVMalcolm
p5032
aVMichael
p5033
aVLisa
p5034
aVDenise
p5035
atp5036
bsg63
Nstp5037
Rp5038
ag21
(g22
(dp5039
g24
g25
(g26
(I0
tp5040
g28
tp5041
Rp5042
(I1
(L18L
tp5043
g35
I00
(lp5044
VDenise
p5045
aVLisa
p5046
aVMichael
p5047
aVMalcolm
p5048
aVAbi-Maria
p5049
aVCarter
p5050
aVJonathan
p5051
aVPete
p5052
aVArtis
p5053
aVJeff
p5054
aVR.C.
p5055
aVKatie
p5056
aVDawson
p5057
aVDana
p5058
aVRussell
p5059
aVAngie
p5060
aVRoxanne
p5061
aVZane
p5062
atp5063
bsg63
g93
(g96
S'\x01\x00\x00\x00\x00\x00\x00\x00'
p5064
tp5065
Rp5066
stp5067
Rp5068
a(lp5069
g25
(g26
(I0
tp5070
g28
tp5071
Rp5072
(I1
(L18L
L18L
tp5073
g35
I00
(lp5074
V Zane
p5075
aV \u2014
p5076
aV \u2014
p5077
aV Zane
p5078
aV \u2014
p5079
aV \u2014
p5080
aV \u2014
p5081
aV \u2014
p5082
aV \u2014
p5083
aV \u2014
p5084
aV \u2014
p5085
aV \u2014
p5086
aV \u2014
p5087
aV \u2014
p5088
aV Zane
p5089
aV Zane
p5090
aV Zane
p5091
aV Russell
p5092
aV Roxanne
p5093
aV \u2014
p5094
aV \u2014
p5095
aV Roxanne
p5096
aV \u2014
p5097
aV \u2014
p5098
aV \u2014
p5099
aV \u2014
p5100
aV \u2014
p5101
aV \u2014
p5102
aV \u2014
p5103
aV \u2014
p5104
aV \u2014
p5105
aV \u2014
p5106
aV Roxanne
p5107
aV Roxanne
p5108
aV Angie
p5109
ag129
aV Angie
p5110
aV \u2014
p5111
aV \u2014
p5112
aV Angie
p5113
aV \u2014
p5114
aV \u2014
p5115
aV \u2014
p5116
aV \u2014
p5117
aV \u2014
p5118
aV \u2014
p5119
aV \u2014
p5120
aV \u2014
p5121
aV \u2014
p5122
aV \u2014
p5123
aV Angie
p5124
aV Russell
p5125
ag129
ag129
aV Russell
p5126
aV \u2014
p5127
aV \u2014
p5128
aV Russell
p5129
aV \u2014
p5130
aV \u2014
p5131
aV \u2014
p5132
aV \u2014
p5133
aV \u2014
p5134
aV \u2014
p5135
aV \u2014
p5136
aV \u2014
p5137
aV \u2014
p5138
aV \u2014
p5139
aV Malcolm
p5140
ag129
ag129
ag129
aV \u2014
p5141
aV \u2014
p5142
aV \u2014
p5143
aV \u2014
p5144
aV \u2014
p5145
aV \u2014
p5146
aV \u2014
p5147
aV \u2014
p5148
aV \u2014
p5149
aV \u2014
p5150
aV \u2014
p5151
aV \u2014
p5152
aV \u2014
p5153
aVQuit
p5154
ag129
ag129
ag129
ag129
aV Dawson
p5155
aV \u2014
p5156
aV \u2014
p5157
aV \u2014
p5158
aV \u2014
p5159
aV Dawson
p5160
aV Dawson
p5161
aV \u2014
p5162
aV \u2014
p5163
aV Dawson
p5164
aV \u2014
p5165
aV Dawson
p5166
aV Denise
p5167
ag129
ag129
ag129
ag129
ag129
aV Katie
p5168
aV \u2014
p5169
aV \u2014
p5170
aV \u2014
p5171
aV \u2014
p5172
aV Katie
p5173
aV Katie
p5174
aV \u2014
p5175
aV \u2014
p5176
aV Katie
p5177
aV \u2014
p5178
aV Jonathan
p5179
ag129
ag129
ag129
ag129
ag129
ag129
aV Jonathan
p5180
aV Jonathan
p5181
aV Jonathan
p5182
aV Jonathan
p5183
aV Jonathan
p5184
aV R.C.
p5185
aV Pete
p5186
aV R.C.
p5187
aV R.C.
p5188
aV R.C.
p5189
aV Pete
p5190
ag129
ag129
ag129
ag129
ag129
ag129
ag129
aV Pete
p5191
aV Jeff
p5192
aV Jeff
p5193
aV Pete
p5194
aV Jeff
p5195
aV Pete
p5196
aV Abi-Maria
p5197
aV Jeff
p5198
aV Jeff
p5199
aV Pete
p5200
ag129
ag129
ag129
ag129
ag129
ag129
ag129
ag129
aV Artis
p5201
aV Jonathan
p5202
aV Artis
p5203
aV Artis
p5204
aV Jonathan
p5205
aV Artis
p5206
aV Artis
p5207
aV Jonathan
p5208
aV Jonathan
p5209
ag129
ag129
ag129
ag129
ag129
ag129
ag129
ag129
ag129
aV Abi-Maria
p5210
aV Abi-Maria
p5211
aV Abi-Maria
p5212
aV Pete
p5213
aV Malcolm
p5214
aV Pete
p5215
aV Pete
p5216
aV Malcolm
p5217
ag129
ag129
ag129
ag129
ag129
ag129
ag129
ag129
ag129
ag129
aV Jonathan
p5218
aV Jonathan
p5219
aV Jonathan
p5220
aV Jonathan
p5221
aV Denise
p5222
aV Denise
p5223
aV Denise
p5224
ag129
ag129
ag129
ag129
ag129
ag129
ag129
ag129
ag129
ag129
ag129
aV Carter
p5225
aV Carter
p5226
aV Carter
p5227
aV Carter
p5228
aV Carter
p5229
aV Abi-Maria
p5230
ag129
ag129
ag129
ag129
ag129
ag129
ag129
ag129
ag129
ag129
ag129
ag129
aV Abi-Maria
p5231
aV Abi-Maria
p5232
aV Abi-Maria
p5233
aV Abi-Maria
p5234
aV Denise
p5235
ag129
ag129
ag129
ag129
ag129
ag129
ag129
ag129
ag129
ag129
ag129
ag129
ag129
aV Malcolm
p5236
aV Malcolm
p5237
aV Malcolm
p5238
aV Denise
p5239
ag129
ag129
ag129
ag129
ag129
ag129
ag129
ag129
ag129
ag129
ag129
ag129
ag129
ag129
ag319
ag319
ag319
ag129
ag129
aV Michael
p5240
ag129
ag129
ag129
ag129
ag129
ag129
ag129
ag129
ag129
ag129
ag129
ag129
ag319
ag319
ag319
ag129
ag129
ag129
ag129
ag129
ag129
ag129
aV Lisa
p5241
ag129
ag129
ag129
ag129
ag129
ag129
ag129
ag319
ag319
ag319
aV Denise
p5242
aV Denise
p5243
ag129
aV Denise
p5244
aV Denise
p5245
aV Denise
p5246
aV Denise
p5247
ag129
ag129
ag129
ag129
ag129
ag129
ag129
ag129
atp5248
ba(lp5249
g21
(g22
(dp5250
g24
g25
(g26
(I0
tp5251
g28
tp5252
Rp5253
(I1
(L18L
tp5254
g35
I00
(lp5255
g5018
ag5019
ag5020
ag5021
ag5022
ag5023
ag5024
ag5025
ag5026
ag5027
ag5028
ag5029
ag5030
ag5031
ag5032
ag5033
ag5034
ag5035
atp5256
bsg63
Nstp5257
Rp5258
a(dp5259
g339
(dp5260
g341
g5011
sg342
(lp5261
(dp5262
g345
g346
(I0
I18
I1
tp5263
Rp5264
sg349
g5072
sasstp5265
bsbsg351
I25
ssVCaramoan
p5266
(dp5267
g3
Vhttp://survivor.wikia.com/wiki/Survivor:_Caramoan
p5268
sg5
g6
(g7
g8
Ntp5269
Rp5270
(dp5271
g12
g13
sg14
g15
sg16
g6
(g17
g8
Ntp5272
Rp5273
((lp5274
g21
(g22
(dp5275
g24
g25
(g26
(I0
tp5276
g28
tp5277
Rp5278
(I1
(L23L
tp5279
g35
I00
(lp5280
VFrancesca
p5281
aVAllie
p5282
aVHope
p5283
aVHope
p5284
aVShamar
p5285
aVLaura
p5286
aVBrandon
p5287
aVMatt
p5288
aVJulia
p5289
aVJulia
p5290
aVCorinne
p5291
aVMichael
p5292
aVPhillip
p5293
aVMalcolm
p5294
aVMalcolm
p5295
aVReynold
p5296
aVAndrea
p5297
aVBrenda
p5298
aVErik
p5299
aVEddie
p5300
aVSherri
p5301
aVDawn
p5302
aVCochran
p5303
atp5304
bsg63
Nstp5305
Rp5306
ag21
(g22
(dp5307
g24
g25
(g26
(I0
tp5308
g28
tp5309
Rp5310
(I1
(L20L
tp5311
g35
I00
(lp5312
V Cochran
p5313
aV Dawn
p5314
aV Sherri
p5315
aV Eddie
p5316
aV Erik
p5317
aV Brenda
p5318
aV Andrea
p5319
aV Reynold
p5320
aV Malcolm
p5321
aV Phillip
p5322
aV Michael
p5323
aV Corinne
p5324
aV Julia
p5325
aV Matt
p5326
aV Brandon
p5327
aV Laura
p5328
aV Shamar
p5329
aV Hope
p5330
aV Allie
p5331
aV Francesca
p5332
atp5333
bsg63
g93
(g96
S'\x01\x00\x00\x00\x00\x00\x00\x00'
p5334
tp5335
Rp5336
stp5337
Rp5338
a(lp5339
g25
(g26
(I0
tp5340
g28
tp5341
Rp5342
(I1
(L23L
L20L
tp5343
g35
I00
(lp5344
V Francesca
p5345
aV Francesca
p5346
aV \u2014
p5347
aV \u2014
p5348
aV Andrea
p5349
aV Andrea
p5350
aV Francesca
p5351
aV \u2014
p5352
aV Francesca
p5353
aV Francesca
p5354
aV \u2014
p5355
aV Francesca
p5356
aV \u2014
p5357
aV \u2014
p5358
aV Andrea
p5359
aV \u2014
p5360
aV \u2014
p5361
aV \u2014
p5362
aV \u2014
p5363
aV Andrea
p5364
aV \u2014
p5365
aV \u2014
p5366
aV Allie
p5367
aV Shamar
p5368
aV \u2014
p5369
aV \u2014
p5370
aV \u2014
p5371
aV Shamar
p5372
aV \u2014
p5373
aV \u2014
p5374
aV Allie
p5375
aV \u2014
p5376
aV Allie
p5377
aV Allie
p5378
aV \u2014
p5379
aV Allie
p5380
aV Allie
p5381
aV Shamar
p5382
aV Shamar
p5383
ag129
aV \u2014
p5384
aV \u2014
p5385
aV Hope
p5386
aV Shamar
p5387
aV \u2014
p5388
aV \u2014
p5389
aV \u2014
p5390
aV Shamar
p5391
aV \u2014
p5392
aV \u2014
p5393
aV Eddie
p5394
aV \u2014
p5395
aV Hope
p5396
aV Eddie
p5397
aV \u2014
p5398
aV Hope
p5399
aV Eddie
p5400
aV Shamar
p5401
ag129
ag129
ag5384
ag5385
aV Hope
p5402
aVNone
p5403
ag5388
ag5389
ag5390
aV Shamar
p5404
ag5392
ag5393
aV Hope
p5405
ag5395
aV Hope
p5406
aV Hope
p5407
ag5398
aV Hope
p5408
aVNone
p5409
aVNone
p5410
ag129
ag129
aV \u2014
p5411
aV \u2014
p5412
aV \u2014
p5413
aV \u2014
p5414
aV \u2014
p5415
aV \u2014
p5416
aV \u2014
p5417
aV \u2014
p5418
aV \u2014
p5419
aV \u2014
p5420
aV \u2014
p5421
aV \u2014
p5422
aV \u2014
p5423
aV \u2014
p5424
aV \u2014
p5425
aV \u2014
p5426
aVEvacuated
p5427
ag129
ag129
ag129
aV \u2014
p5428
aV \u2014
p5429
aV Laura
p5430
aV Laura
p5431
aV \u2014
p5432
aV \u2014
p5433
aV \u2014
p5434
aV Laura
p5435
aV \u2014
p5436
aV \u2014
p5437
aV Laura
p5438
aV \u2014
p5439
aV Laura
p5440
aV Laura
p5441
aV \u2014
p5442
aV Reynold
p5443
ag129
ag129
ag129
ag129
aV Brandon
p5444
aV Brandon
p5445
aV \u2014
p5446
aV \u2014
p5447
aV Brandon
p5448
aV Brandon
p5449
aV Brandon
p5450
aV \u2014
p5451
aV Brandon
p5452
aV Brandon
p5453
aV \u2014
p5454
aV Brandon
p5455
aV \u2014
p5456
aV \u2014
p5457
aV Phillip
p5458
ag129
ag129
ag129
ag129
ag129
aV Matt
p5459
aV Matt
p5460
aV \u2014
p5461
aV \u2014
p5462
aV \u2014
p5463
aV \u2014
p5464
aV \u2014
p5465
aV \u2014
p5466
aV \u2014
p5467
aV Matt
p5468
aV Julia
p5469
aV Matt
p5470
aV Dawn
p5471
aV Julia
p5472
ag129
ag129
ag129
ag129
ag129
ag129
aV Michael
p5473
aV Julia
p5474
aV \u2014
p5475
aV \u2014
p5476
aV \u2014
p5477
aV \u2014
p5478
aV \u2014
p5479
aV \u2014
p5480
aV \u2014
p5481
aV Michael
p5482
aV Julia
p5483
aV Julia
p5484
aV Michael
p5485
ag129
ag129
ag129
ag129
ag129
ag129
ag129
aV Julia
p5486
aV Julia
p5487
ag5475
ag5476
ag5477
ag5478
ag5479
ag5480
ag5481
aV Julia
p5488
aVNone
p5489
aV Julia
p5490
aVNone
p5491
ag129
ag129
ag129
ag129
ag129
ag129
ag129
aV Corinne
p5492
aV Corinne
p5493
aV Corinne
p5494
aV Sherri
p5495
aV Corinne
p5496
aV Corinne
p5497
aV Corinne
p5498
aV Sherri
p5499
aV Sherri
p5500
aV Corinne
p5501
aV Sherri
p5502
aV Sherri
p5503
ag129
ag129
ag129
ag129
ag129
ag129
ag129
ag129
aV Michael
p5504
aV Michael
p5505
aV Michael
p5506
aV Andrea
p5507
aV Michael
p5508
aV Michael
p5509
aV Michael
p5510
aV Andrea
p5511
aV Reynold
p5512
aV Michael
p5513
aV Andrea
p5514
ag129
ag129
ag129
ag129
ag129
ag129
ag129
ag129
ag129
aV Malcolm
p5515
aV Eddie
p5516
aV Eddie
p5517
aV Phillip
p5518
aV Phillip
p5519
aV Eddie
p5520
aV Eddie
p5521
aV Phillip
p5522
aV Phillip
p5523
aV Malcolm
p5524
ag129
ag129
ag129
ag129
ag129
ag129
ag129
ag129
ag129
ag129
aV Malcolm
p5525
aV Reynold
p5526
aV Reynold
p5527
aV Andrea
p5528
aV Malcolm
p5529
aV Reynold
p5530
aV Malcolm
p5531
aV Andrea
p5532
aV Andrea
p5533
ag129
ag129
ag129
ag129
ag129
ag129
ag129
ag129
ag129
ag129
ag129
aV Malcolm
p5534
aV Malcolm
p5535
aV Malcolm
p5536
aV Malcolm
p5537
aV Malcolm
p5538
aV Malcolm
p5539
aVNone
p5540
aVNone
p5541
aVNone
p5542
ag129
ag129
ag129
ag129
ag129
ag129
ag129
ag129
ag129
ag129
ag129
aV Eddie
p5543
aV Reynold
p5544
aV Reynold
p5545
aV Sherri
p5546
aV Eddie
p5547
aV Reynold
p5548
aV Reynold
p5549
aV Erik
p5550
ag129
ag129
ag129
ag129
ag129
ag129
ag129
ag129
ag129
ag129
ag129
ag129
aV Eddie
p5551
aV Eddie
p5552
aV Andrea
p5553
aV Brenda
p5554
aV Andrea
p5555
aV Andrea
p5556
aV Brenda
p5557
ag129
ag129
ag129
ag129
ag129
ag129
ag129
ag129
ag129
ag129
ag129
ag129
ag129
aV Brenda
p5558
aV Brenda
p5559
aV Brenda
p5560
aV Erik
p5561
aV Eddie
p5562
aV Eddie
p5563
ag129
ag129
ag129
ag129
ag129
ag129
ag129
ag129
ag129
ag129
ag129
ag129
ag129
ag129
aV \u2014
p5564
aV \u2014
p5565
aV \u2014
p5566
aV \u2014
p5567
aVEvacuated
p5568
ag129
ag129
ag129
ag129
ag129
ag129
ag129
ag129
ag129
ag129
ag129
ag129
ag129
ag129
ag129
aV Eddie
p5569
aV Eddie
p5570
aV Eddie
p5571
aV Dawn
p5572
ag129
ag129
ag129
ag129
ag129
ag129
ag129
ag129
ag129
ag129
ag129
ag129
ag129
ag129
ag129
ag129
ag319
ag319
ag319
ag129
ag129
ag129
ag129
ag129
ag129
ag129
ag129
ag129
ag129
ag129
ag129
ag129
ag129
ag129
ag129
ag129
ag319
ag319
ag319
ag129
ag129
ag129
ag129
ag129
ag129
ag129
ag129
ag129
ag129
ag129
ag129
ag129
ag129
ag129
ag129
ag129
ag319
ag319
ag319
aV Cochran
p5573
aV Cochran
p5574
aV Cochran
p5575
aV Cochran
p5576
aV Cochran
p5577
aV Cochran
p5578
aV Cochran
p5579
aV Cochran
p5580
ag129
ag129
ag129
ag129
ag129
ag129
ag129
ag129
ag129
atp5581
ba(lp5582
g21
(g22
(dp5583
g24
g25
(g26
(I0
tp5584
g28
tp5585
Rp5586
(I1
(L23L
tp5587
g35
I00
(lp5588
g5281
ag5282
ag5283
ag5284
ag5285
ag5286
ag5287
ag5288
ag5289
ag5290
ag5291
ag5292
ag5293
ag5294
ag5295
ag5296
ag5297
ag5298
ag5299
ag5300
ag5301
ag5302
ag5303
atp5589
bsg63
Nstp5590
Rp5591
a(dp5592
g339
(dp5593
g341
g5274
sg342
(lp5594
(dp5595
g345
g346
(I0
I23
I1
tp5596
Rp5597
sg349
g5342
sasstp5598
bsbsg351
I26
ssVGabon
p5599
(dp5600
g3
Vhttp://survivor.wikia.com/wiki/Survivor:_Gabon
p5601
sg5
g6
(g7
g8
Ntp5602
Rp5603
(dp5604
g12
g13
sg14
g15
sg16
g6
(g17
g8
Ntp5605
Rp5606
((lp5607
g21
(g22
(dp5608
g24
g25
(g26
(I0
tp5609
g28
tp5610
Rp5611
(I1
(L18L
tp5612
g35
I00
(lp5613
VMichelle
p5614
aVGillian
p5615
aVPaloma
p5616
aVJacquie
p5617
aVG.C.
p5618
aVKelly
p5619
aVAce
p5620
aVDan
p5621
aVMarcus
p5622
aVCharlie
p5623
aVRandy
p5624
aVCorinne
p5625
aVCrystal
p5626
aVKen
p5627
aVMatty
p5628
aVSugar
p5629
aVSusie
p5630
aVBob
p5631
atp5632
bsg63
Nstp5633
Rp5634
ag21
(g22
(dp5635
g24
g25
(g26
(I0
tp5636
g28
tp5637
Rp5638
(I1
(L18L
tp5639
g35
I00
(lp5640
VBob
p5641
aVSusie
p5642
aVSugar
p5643
aVMatty
p5644
aVKen
p5645
aVCrystal
p5646
aVCorinne
p5647
aVRandy
p5648
aVCharlie
p5649
aVMarcus
p5650
aVDan
p5651
aVAce
p5652
aVKelly
p5653
aVG.C.
p5654
aVJacquie
p5655
aVPaloma
p5656
aVGillian
p5657
aVMichelle
p5658
atp5659
bsg63
g93
(g96
S'\x01\x00\x00\x00\x00\x00\x00\x00'
p5660
tp5661
Rp5662
stp5663
Rp5664
a(lp5665
g25
(g26
(I0
tp5666
g28
tp5667
Rp5668
(I1
(L18L
L18L
tp5669
g35
I00
(lp5670
V \u2014
p5671
aV Michelle
p5672
aV \u2014
p5673
aV Michelle
p5674
aV Michelle
p5675
aV Michelle
p5676
aV \u2014
p5677
aV Michelle
p5678
aV \u2014
p5679
aV \u2014
p5680
aV Michelle
p5681
aV \u2014
p5682
aV \u2014
p5683
aV Michelle
p5684
aV \u2014
p5685
aV \u2014
p5686
aV Michelle
p5687
aV Gillian
p5688
aV \u2014
p5689
aV Gillian
p5690
aV \u2014
p5691
aV Gillian
p5692
aV Gillian
p5693
aV Gillian
p5694
aV \u2014
p5695
aV Gillian
p5696
aV \u2014
p5697
aV \u2014
p5698
aV Gillian
p5699
aV \u2014
p5700
aV \u2014
p5701
aV Gillian
p5702
aV \u2014
p5703
aV \u2014
p5704
aV Ken
p5705
ag129
aV Paloma
p5706
aV \u2014
p5707
aV Paloma
p5708
aV \u2014
p5709
aV \u2014
p5710
aV \u2014
p5711
aV Paloma
p5712
aV \u2014
p5713
aV Paloma
p5714
aV Paloma
p5715
aV \u2014
p5716
aV Paloma
p5717
aV Ace
p5718
aV \u2014
p5719
aV Paloma
p5720
aV Ace
p5721
ag129
ag129
aV \u2014
p5722
aV \u2014
p5723
aVExiled
p5724
aV Jacquie
p5725
aV Jacquie
p5726
aV Jacquie
p5727
aV \u2014
p5728
aV \u2014
p5729
aV \u2014
p5730
aV \u2014
p5731
aV \u2014
p5732
aV Kelly
p5733
aV Jacquie
p5734
aV Jacquie
p5735
aV Kelly
p5736
ag129
ag129
ag129
aV \u2014
p5737
aV \u2014
p5738
aV G.C.
p5739
aV G.C.
p5740
aV G.C.
p5741
aV G.C.
p5742
aV \u2014
p5743
aV \u2014
p5744
aV \u2014
p5745
aV \u2014
p5746
aV \u2014
p5747
aV G.C.
p5748
aV G.C.
p5749
aV Kelly
p5750
ag129
ag129
ag129
ag129
aV \u2014
p5751
aV \u2014
p5752
aV Kelly
p5753
aV Kelly
p5754
aV Kelly
p5755
aV Kelly
p5756
aV \u2014
p5757
aV \u2014
p5758
aV \u2014
p5759
aV \u2014
p5760
aV \u2014
p5761
aV Kelly
p5762
aV Crystal
p5763
ag129
ag129
ag129
ag129
ag129
aV \u2014
p5764
aV \u2014
p5765
aV Ace
p5766
aV Crystal
p5767
aV Ace
p5768
aV Ace
p5769
aV \u2014
p5770
aV \u2014
p5771
aV \u2014
p5772
aV \u2014
p5773
aV \u2014
p5774
aV Crystal
p5775
ag129
ag129
ag129
ag129
ag129
ag129
aV Dan
p5776
aV Dan
p5777
aV \u2014
p5778
aV \u2014
p5779
aV \u2014
p5780
aV \u2014
p5781
aV Dan
p5782
aV Susie
p5783
aV Dan
p5784
aV Susie
p5785
aV Susie
p5786
ag129
ag129
ag129
ag129
ag129
ag129
ag129
aV Ken
p5787
aV Marcus
p5788
aV \u2014
p5789
aV \u2014
p5790
aV Marcus
p5791
aV Marcus
p5792
aV \u2014
p5793
aV \u2014
p5794
aV \u2014
p5795
aV Ken
p5796
ag129
ag129
ag129
ag129
ag129
ag129
ag129
ag129
aV Crystal
p5797
aV Charlie
p5798
aV Charlie
p5799
aV Charlie
p5800
aV Charlie
p5801
aV Charlie
p5802
aV Crystal
p5803
aV Crystal
p5804
aV Crystal
p5805
ag129
ag129
ag129
ag129
ag129
ag129
ag129
ag129
ag129
aV Susie
p5806
aV Randy
p5807
aV Randy
p5808
aV Randy
p5809
aV Randy
p5810
aV Randy
p5811
aV Susie
p5812
aV Susie
p5813
ag129
ag129
ag129
ag129
ag129
ag129
ag129
ag129
ag129
ag129
aV Matty
p5814
aV Corinne
p5815
aV Corinne
p5816
aV Corinne
p5817
aV Matty
p5818
aV Corinne
p5819
aV Matty
p5820
ag129
ag129
ag129
ag129
ag129
ag129
ag129
ag129
ag129
ag129
ag129
aV Crystal
p5821
aV Crystal
p5822
aV Crystal
p5823
aV Crystal
p5824
aV Matty
p5825
aV Matty
p5826
ag129
ag129
ag129
ag129
ag129
ag129
ag129
ag129
ag129
ag129
ag129
ag129
aV Ken
p5827
aV Ken
p5828
aV Ken
p5829
aV Ken
p5830
aV Susie
p5831
ag129
ag129
ag129
ag129
ag129
ag129
ag129
ag129
ag129
ag129
ag129
ag129
ag129
aV Matty
p5832
aV Bob
p5833
aV Matty
p5834
aV Bob
p5835
ag129
ag129
ag129
ag129
ag129
ag129
ag129
ag129
ag129
ag129
ag129
ag129
ag129
ag129
ag319
ag319
ag319
ag129
ag129
ag129
ag129
ag129
ag129
ag129
ag129
ag129
ag129
ag129
ag129
ag129
ag129
ag129
ag319
ag319
ag319
aV Susie
p5836
aV Susie
p5837
aV Susie
p5838
ag129
ag129
ag129
ag129
ag129
ag129
ag129
ag129
ag129
ag129
ag129
ag129
ag319
ag319
ag319
ag129
ag129
ag129
aV Bob
p5839
aV Bob
p5840
aV Bob
p5841
aV Bob
p5842
ag129
ag129
ag129
ag129
ag129
ag129
ag129
ag129
atp5843
ba(lp5844
g21
(g22
(dp5845
g24
g25
(g26
(I0
tp5846
g28
tp5847
Rp5848
(I1
(L18L
tp5849
g35
I00
(lp5850
g5614
ag5615
ag5616
ag5617
ag5618
ag5619
ag5620
ag5621
ag5622
ag5623
ag5624
ag5625
ag5626
ag5627
ag5628
ag5629
ag5630
ag5631
atp5851
bsg63
Nstp5852
Rp5853
a(dp5854
g339
(dp5855
g341
g5607
sg342
(lp5856
(dp5857
g345
g346
(I0
I18
I1
tp5858
Rp5859
sg349
g5668
sasstp5860
bsbsg351
I17
ssVMicronesia
p5861
(dp5862
g3
Vhttp://survivor.wikia.com/wiki/Survivor:_Micronesia
p5863
sg5
g6
(g7
g8
Ntp5864
Rp5865
(dp5866
g12
g13
sg14
g15
sg16
g6
(g17
g8
Ntp5867
Rp5868
((lp5869
g21
(g22
(dp5870
g24
g25
(g26
(I0
tp5871
g28
tp5872
Rp5873
(I1
(L20L
tp5874
g35
I00
(lp5875
VJon
p5876
aVMary
p5877
aVYau-Man
p5878
aVMikey B.
p5879
aVJoel
p5880
aVJonathan
p5881
aVChet
p5882
aVKathy
p5883
aVTracy
p5884
aVAmi
p5885
aVEliza
p5886
aVOzzy
p5887
aVJason
p5888
aVJames
p5889
aVAlexis
p5890
aVErik
p5891
aVNatalie
p5892
aVCirie
p5893
aVAmanda
p5894
aVParvati
p5895
atp5896
bsg63
Nstp5897
Rp5898
ag21
(g22
(dp5899
g24
g25
(g26
(I0
tp5900
g28
tp5901
Rp5902
(I1
(L20L
tp5903
g35
I00
(lp5904
VParvati
p5905
aVAmanda
p5906
aVCirie
p5907
aVNatalie
p5908
aVErik
p5909
aVAlexis
p5910
aVJames
p5911
aVJason
p5912
aVOzzy
p5913
aVEliza
p5914
aVAmi
p5915
aVTracy
p5916
aVKathy
p5917
aVChet
p5918
aVJonathan
p5919
aVJoel
p5920
aVMikey B.
p5921
aVYau-Man
p5922
aVMary
p5923
aVJon
p5924
atp5925
bsg63
g93
(g96
S'\x01\x00\x00\x00\x00\x00\x00\x00'
p5926
tp5927
Rp5928
stp5929
Rp5930
a(lp5931
g25
(g26
(I0
tp5932
g28
tp5933
Rp5934
(I1
(L20L
L20L
tp5935
g35
I00
(lp5936
V Jon
p5937
aV Jon
p5938
aV Jon
p5939
aV \u2014
p5940
aV \u2014
p5941
aV \u2014
p5942
aV Jon
p5943
aV \u2014
p5944
aV Jon
p5945
aV Jon
p5946
aV Jon
p5947
aV \u2014
p5948
aV \u2014
p5949
aV \u2014
p5950
aV Jon
p5951
aV \u2014
p5952
aV \u2014
p5953
aV Jon
p5954
aV\u2014
p5955
aV Ozzy
p5956
aV \u2014
p5957
aV \u2014
p5958
aV \u2014
p5959
aV Mary
p5960
aV Mary
p5961
aV Mary
p5962
aV \u2014
p5963
aV Chet
p5964
aV \u2014
p5965
aV \u2014
p5966
aV \u2014
p5967
aV Mary
p5968
aV Mary
p5969
aV Mary
p5970
aV \u2014
p5971
aV Tracy
p5972
aV Chet
p5973
aV \u2014
p5974
aV Tracy
p5975
ag129
aV Yau-Man
p5976
aV Yau-Man
p5977
aV Yau-Man
p5978
aV \u2014
p5979
aV \u2014
p5980
aV \u2014
p5981
aV Yau-Man
p5982
aV \u2014
p5983
aV Yau-Man
p5984
aV Yau-Man
p5985
aV Cirie
p5986
aV \u2014
p5987
aV \u2014
p5988
aV \u2014
p5989
aV Parvati
p5990
aV \u2014
p5991
aV \u2014
p5992
aV Parvati
p5993
ag129
ag129
aV \u2014
p5994
aV \u2014
p5995
aV \u2014
p5996
aV Mikey B.
p5997
aV Mikey B.
p5998
aV Chet
p5999
aV \u2014
p6000
aV Chet
p6001
aV \u2014
p6002
aV \u2014
p6003
aV \u2014
p6004
aV Mikey B.
p6005
aV Mikey B.
p6006
aV Mikey B.
p6007
aV \u2014
p6008
aV Mikey B.
p6009
aV Chet
p6010
ag129
ag129
ag129
aV \u2014
p6011
aV Joel
p6012
aV Joel
p6013
aV \u2014
p6014
aV Chet
p6015
aV \u2014
p6016
aV \u2014
p6017
aV \u2014
p6018
aV Joel
p6019
aV \u2014
p6020
aV Joel
p6021
aV Joel
p6022
aV \u2014
p6023
aV Joel
p6024
aV \u2014
p6025
aV Chet
p6026
ag129
ag129
ag129
ag129
aV \u2014
p6027
aV \u2014
p6028
aV \u2014
p6029
aV \u2014
p6030
aV \u2014
p6031
aV \u2014
p6032
aV \u2014
p6033
aV \u2014
p6034
aV \u2014
p6035
aV \u2014
p6036
aV \u2014
p6037
aV \u2014
p6038
aV \u2014
p6039
aV \u2014
p6040
aVEvacuated
p6041
ag129
ag129
ag129
ag129
ag129
aV \u2014
p6042
aV Chet
p6043
aV Chet
p6044
aV \u2014
p6045
aV Chet
p6046
aV \u2014
p6047
aV \u2014
p6048
aV \u2014
p6049
aV Chet
p6050
aV \u2014
p6051
aV Chet
p6052
aV Erik
p6053
aV \u2014
p6054
aV Erik
p6055
ag129
ag129
ag129
ag129
ag129
ag129
aV \u2014
p6056
aV \u2014
p6057
aV \u2014
p6058
aV \u2014
p6059
aV \u2014
p6060
aV \u2014
p6061
aV \u2014
p6062
aV \u2014
p6063
aV \u2014
p6064
aV \u2014
p6065
aV \u2014
p6066
aV \u2014
p6067
aVQuit
p6068
ag129
ag129
ag129
ag129
ag129
ag129
ag129
aV \u2014
p6069
aV Tracy
p6070
aV Tracy
p6071
aV \u2014
p6072
aV Tracy
p6073
aV \u2014
p6074
aV \u2014
p6075
aV \u2014
p6076
aV Tracy
p6077
aV \u2014
p6078
aV Tracy
p6079
aV Ozzy
p6080
ag129
ag129
ag129
ag129
ag129
ag129
ag129
ag129
aV \u2014
p6081
aV Ami
p6082
aV Ami
p6083
aV \u2014
p6084
aV Ami
p6085
aV \u2014
p6086
aV \u2014
p6087
aV \u2014
p6088
aV Ami
p6089
aV \u2014
p6090
aV Erik
p6091
ag129
ag129
ag129
ag129
ag129
ag129
ag129
ag129
ag129
aV Eliza
p6092
aV Eliza
p6093
aV Eliza
p6094
aV Eliza
p6095
aV Eliza
p6096
aV Eliza
p6097
aV Eliza
p6098
aV Ozzy
p6099
aV Eliza
p6100
aV Ozzy
p6101
ag129
ag129
ag129
ag129
ag129
ag129
ag129
ag129
ag129
ag129
aV Ozzy
p6102
aV Jason
p6103
aV Ozzy
p6104
aV Ozzy
p6105
aV Jason
p6106
aV Ozzy
p6107
aV Jason
p6108
aV Ozzy
p6109
aV Jason
p6110
ag129
ag129
ag129
ag129
ag129
ag129
ag129
ag129
ag129
ag129
ag129
aV Jason
p6111
aV Jason
p6112
aV Jason
p6113
aV James
p6114
aV Jason
p6115
aV James
p6116
aV Parvati
p6117
aV James
p6118
ag129
ag129
ag129
ag129
ag129
ag129
ag129
ag129
ag129
ag129
ag129
ag129
aV \u2014
p6119
aV \u2014
p6120
aV \u2014
p6121
aV \u2014
p6122
aV \u2014
p6123
aV \u2014
p6124
aVEvacuated
p6125
ag129
ag129
ag129
ag129
ag129
ag129
ag129
ag129
ag129
ag129
ag129
ag129
ag129
aV Alexis
p6126
aV Alexis
p6127
aV Amanda
p6128
aV Amanda
p6129
aV Amanda
p6130
aV Amanda
p6131
ag129
ag129
ag129
ag129
ag129
ag129
ag129
ag129
ag129
ag129
ag129
ag129
ag129
ag129
aV Erik
p6132
aV Erik
p6133
aV Erik
p6134
aV Erik
p6135
aV Parvati
p6136
ag129
ag129
ag129
ag129
ag129
ag129
ag129
ag129
ag129
ag129
ag129
ag129
ag129
ag129
ag129
aV Natalie
p6137
aV Natalie
p6138
aV Natalie
p6139
aV Cirie
p6140
ag129
ag129
ag129
ag129
ag129
ag129
ag129
ag129
ag129
ag129
ag129
ag129
ag129
ag129
ag129
ag129
aV \u2014
p6141
aV Cirie
p6142
aV \u2014
p6143
ag129
ag129
ag129
ag129
ag129
ag129
ag129
ag129
ag129
ag129
ag129
ag129
ag129
ag129
ag129
ag129
ag129
ag319
ag319
ag129
ag129
aV Amanda
p6144
ag129
aV Amanda
p6145
ag129
aV Amanda
p6146
ag129
ag129
ag129
ag129
ag129
ag129
ag129
ag129
ag129
ag129
ag129
ag319
ag319
aV Parvati
p6147
aV Parvati
p6148
ag129
aV Parvati
p6149
ag129
aV Parvati
p6150
ag129
aV Parvati
p6151
ag129
ag129
ag129
ag129
ag129
ag129
ag129
ag129
ag129
ag129
atp6152
ba(lp6153
g21
(g22
(dp6154
g24
g25
(g26
(I0
tp6155
g28
tp6156
Rp6157
(I1
(L20L
tp6158
g35
I00
(lp6159
g5876
ag5877
ag5878
ag5879
ag5880
ag5881
ag5882
ag5883
ag5884
ag5885
ag5886
ag5887
ag5888
ag5889
ag5890
ag5891
ag5892
ag5893
ag5894
ag5895
atp6160
bsg63
Nstp6161
Rp6162
a(dp6163
g339
(dp6164
g341
g5869
sg342
(lp6165
(dp6166
g345
g346
(I0
I20
I1
tp6167
Rp6168
sg349
g5934
sasstp6169
bsbsg351
I16
ssVSamoa
p6170
(dp6171
g3
Vhttp://survivor.wikia.com/wiki/Survivor:_Samoa
p6172
sg5
g6
(g7
g8
Ntp6173
Rp6174
(dp6175
g12
g13
sg14
g15
sg16
g6
(g17
g8
Ntp6176
Rp6177
((lp6178
g21
(g22
(dp6179
g24
g25
(g26
(I0
tp6180
g28
tp6181
Rp6182
(I1
(L21L
tp6183
g35
I00
(lp6184
VMarisa
p6185
aVMike
p6186
aVBetsy
p6187
aVBen
p6188
aVYasmin
p6189
aVAshley
p6190
aVRussell S.
p6191
aVLiz
p6192
aVErik
p6193
aVKelly
p6194
aVLaura
p6195
aVLaura
p6196
aVJohn
p6197
aVDave
p6198
aVMonica
p6199
aVShambo
p6200
aVJaison
p6201
aVBrett
p6202
aVMick
p6203
aVRussell H.
p6204
aVNatalie
p6205
atp6206
bsg63
Nstp6207
Rp6208
ag21
(g22
(dp6209
g24
g25
(g26
(I0
tp6210
g28
tp6211
Rp6212
(I1
(L20L
tp6213
g35
I00
(lp6214
VNatalie
p6215
aVRussell H.
p6216
aVMick
p6217
aVBrett
p6218
aVJaison
p6219
aVShambo
p6220
aVMonica
p6221
aVDave
p6222
aVJohn
p6223
aVLaura
p6224
aVKelly
p6225
aVErik
p6226
aVLiz
p6227
aVRussell S.
p6228
aVAshley
p6229
aVYasmin
p6230
aVBen
p6231
aVBetsy
p6232
aVMike
p6233
aVMarisa
p6234
atp6235
bsg63
g93
(g96
S'\x01\x00\x00\x00\x00\x00\x00\x00'
p6236
tp6237
Rp6238
stp6239
Rp6240
a(lp6241
g25
(g26
(I0
tp6242
g28
tp6243
Rp6244
(I1
(L21L
L20L
tp6245
g35
I00
(lp6246
V Marisa
p6247
aV Marisa
p6248
aV Ashley
p6249
aV \u2014
p6250
aV Marisa
p6251
aV \u2014
p6252
aV \u2014
p6253
aV \u2014
p6254
aV \u2014
p6255
aV \u2014
p6256
aV \u2014
p6257
aV \u2014
p6258
aV Marisa
p6259
aV \u2014
p6260
aV Marisa
p6261
aV \u2014
p6262
aV Marisa
p6263
aV Ashley
p6264
aV Marisa
p6265
aV Ashley
p6266
aV \u2014
p6267
aV \u2014
p6268
aV \u2014
p6269
aV \u2014
p6270
aV \u2014
p6271
aV \u2014
p6272
aV \u2014
p6273
aV \u2014
p6274
aV \u2014
p6275
aV \u2014
p6276
aV \u2014
p6277
aV \u2014
p6278
aV \u2014
p6279
aV \u2014
p6280
aV \u2014
p6281
aV \u2014
p6282
aV \u2014
p6283
aV \u2014
p6284
aVEvacuated
p6285
ag129
aV Betsy
p6286
aV Betsy
p6287
aV Betsy
p6288
aV \u2014
p6289
aV Betsy
p6290
aV \u2014
p6291
aV \u2014
p6292
aV \u2014
p6293
aV \u2014
p6294
aV \u2014
p6295
aV \u2014
p6296
aV \u2014
p6297
aV Betsy
p6298
aV \u2014
p6299
aV Betsy
p6300
aV \u2014
p6301
aV Betsy
p6302
aV Ben
p6303
ag129
ag129
aV Ben
p6304
aV Ben
p6305
aV Ben
p6306
aV \u2014
p6307
aV Ben
p6308
aV \u2014
p6309
aV \u2014
p6310
aV \u2014
p6311
aV \u2014
p6312
aV \u2014
p6313
aV \u2014
p6314
aV \u2014
p6315
aV Ben
p6316
aV \u2014
p6317
aV Ben
p6318
aV \u2014
p6319
aV Ashley
p6320
ag129
ag129
ag129
aV \u2014
p6321
aV \u2014
p6322
aV \u2014
p6323
aV Yasmin
p6324
aV \u2014
p6325
aV Monica
p6326
aV Yasmin
p6327
aV Yasmin
p6328
aV Yasmin
p6329
aV Yasmin
p6330
aV Yasmin
p6331
aV Yasmin
p6332
aV \u2014
p6333
aV Yasmin
p6334
aV \u2014
p6335
aV Monica
p6336
ag129
ag129
ag129
ag129
aV Ashley
p6337
aV Ashley
p6338
aV Ashley
p6339
aV \u2014
p6340
aV Ashley
p6341
aV \u2014
p6342
aV \u2014
p6343
aV \u2014
p6344
aV \u2014
p6345
aV \u2014
p6346
aV \u2014
p6347
aV \u2014
p6348
aV Ashley
p6349
aV \u2014
p6350
aV Liz
p6351
ag129
ag129
ag129
ag129
ag129
aV \u2014
p6352
aV \u2014
p6353
aV \u2014
p6354
aV \u2014
p6355
aV \u2014
p6356
aV \u2014
p6357
aV \u2014
p6358
aV \u2014
p6359
aV \u2014
p6360
aV \u2014
p6361
aV \u2014
p6362
aV \u2014
p6363
aV \u2014
p6364
aVEvacuated
p6365
ag129
ag129
ag129
ag129
ag129
ag129
aV Liz
p6366
aV Liz
p6367
aV Liz
p6368
aV \u2014
p6369
aV Liz
p6370
aV \u2014
p6371
aV \u2014
p6372
aV \u2014
p6373
aV \u2014
p6374
aV \u2014
p6375
aV \u2014
p6376
aV \u2014
p6377
aV Jaison
p6378
ag129
ag129
ag129
ag129
ag129
ag129
ag129
aV Erik
p6379
aV Erik
p6380
aV Erik
p6381
aV Erik
p6382
aV Erik
p6383
aV Jaison
p6384
aV Erik
p6385
aV Erik
p6386
aV Erik
p6387
aV Erik
p6388
aV Erik
p6389
aV Jaison
p6390
ag129
ag129
ag129
ag129
ag129
ag129
ag129
ag129
aV Kelly
p6391
aV Kelly
p6392
aV Kelly
p6393
aV Russell H.
p6394
aV Kelly
p6395
aV Russell H.
p6396
aV Russell H.
p6397
aV Russell H.
p6398
aV Russell H.
p6399
aV Russell H.
p6400
aV Russell H.
p6401
ag129
ag129
ag129
ag129
ag129
ag129
ag129
ag129
ag129
aV Laura
p6402
aV Laura
p6403
aV Laura
p6404
aV Natalie
p6405
aV Laura
p6406
aV Laura
p6407
aV Natalie
p6408
aV Natalie
p6409
aV Natalie
p6410
aV Natalie
p6411
ag129
ag129
ag129
ag129
ag129
ag129
ag129
ag129
ag129
ag129
aVNone
p6412
aV Laura
p6413
aV Laura
p6414
aV Natalie
p6415
aV Laura
p6416
aV Laura
p6417
aV Natalie
p6418
aV Natalie
p6419
aV Laura
p6420
aVNone
p6421
ag129
ag129
ag129
ag129
ag129
ag129
ag129
ag129
ag129
ag129
aV John
p6422
aV John
p6423
aV John
p6424
aV John
p6425
aV John
p6426
aV Dave
p6427
aV John
p6428
aV John
p6429
aV Mick
p6430
ag129
ag129
ag129
ag129
ag129
ag129
ag129
ag129
ag129
ag129
ag129
aV Dave
p6431
aV Dave
p6432
aV Dave
p6433
aV Dave
p6434
aV Dave
p6435
aV Dave
p6436
aV Dave
p6437
aV Shambo
p6438
ag129
ag129
ag129
ag129
ag129
ag129
ag129
ag129
ag129
ag129
ag129
ag129
aV Monica
p6439
aV Monica
p6440
aV Monica
p6441
aV Russell H.
p6442
aV Monica
p6443
aV Monica
p6444
aV Russell H.
p6445
ag129
ag129
ag129
ag129
ag129
ag129
ag129
ag129
ag129
ag129
ag129
ag129
ag129
aV Shambo
p6446
aV Shambo
p6447
aV Shambo
p6448
aV Shambo
p6449
aV Shambo
p6450
aV Mick
p6451
ag129
ag129
ag129
ag129
ag129
ag129
ag129
ag129
ag129
ag129
ag129
ag129
ag129
ag129
aV Jaison
p6452
aV Jaison
p6453
aV Jaison
p6454
aV Jaison
p6455
aV Mick
p6456
ag129
ag129
ag129
ag129
ag129
ag129
ag129
ag129
ag129
ag129
ag129
ag129
ag129
ag129
ag129
aV Brett
p6457
aV Brett
p6458
aV Brett
p6459
aV Mick
p6460
ag129
ag129
ag129
ag129
ag129
ag129
ag129
ag129
ag129
ag129
ag129
ag129
ag129
ag129
ag129
ag129
ag319
ag319
ag319
ag129
ag129
ag129
ag129
ag129
ag129
ag129
ag129
ag129
ag129
ag129
ag129
ag129
ag129
ag129
ag129
ag129
ag319
ag319
ag319
ag129
ag129
aV Russell H.
p6461
ag129
ag129
aV Russell H.
p6462
ag129
ag129
ag129
ag129
ag129
ag129
ag129
ag129
ag129
ag129
ag129
ag319
ag319
ag319
aV Natalie
p6463
aV Natalie
p6464
ag129
aV Natalie
p6465
aV Natalie
p6466
ag129
aV Natalie
p6467
aV Natalie
p6468
aV Natalie
p6469
ag129
ag129
ag129
ag129
ag129
ag129
ag129
ag129
atp6470
ba(lp6471
g21
(g22
(dp6472
g24
g25
(g26
(I0
tp6473
g28
tp6474
Rp6475
(I1
(L21L
tp6476
g35
I00
(lp6477
g6185
ag6186
ag6187
ag6188
ag6189
ag6190
ag6191
ag6192
ag6193
ag6194
ag6195
ag6196
ag6197
ag6198
ag6199
ag6200
ag6201
ag6202
ag6203
ag6204
ag6205
atp6478
bsg63
Nstp6479
Rp6480
a(dp6481
g339
(dp6482
g341
g6178
sg342
(lp6483
(dp6484
g345
g346
(I0
I21
I1
tp6485
Rp6486
sg349
g6244
sasstp6487
bsbsg351
I19
ssVAll-Stars
p6488
(dp6489
g3
Vhttp://survivor.wikia.com/wiki/Survivor:_All-Stars
p6490
sg5
g6
(g7
g8
Ntp6491
Rp6492
(dp6493
g12
g13
sg14
g15
sg16
g6
(g17
g8
Ntp6494
Rp6495
((lp6496
g21
(g22
(dp6497
g24
g25
(g26
(I0
tp6498
g28
tp6499
Rp6500
(I1
(L18L
tp6501
g35
I00
(lp6502
VTina
p6503
aVRudy
p6504
aVJenna M.
p6505
aVRob C.
p6506
aVRichard
p6507
aVSusan
p6508
aVColby
p6509
aVEthan
p6510
aVJerri
p6511
aVLex
p6512
aVKathy
p6513
aVAlicia
p6514
aVShii Ann
p6515
aVTom
p6516
aVRupert
p6517
aVJenna L.
p6518
aVRob M.
p6519
aVAmber
p6520
atp6521
bsg63
Nstp6522
Rp6523
ag21
(g22
(dp6524
g24
g25
(g26
(I0
tp6525
g28
tp6526
Rp6527
(I1
(L18L
tp6528
g35
I00
(lp6529
VAmber
p6530
aVRob M.
p6531
aVJenna L.
p6532
aVRupert
p6533
aVTom
p6534
aVShii Ann
p6535
aVAlicia
p6536
aVKathy
p6537
aVLex
p6538
aVJerri
p6539
aVEthan
p6540
aVColby
p6541
aVSusan
p6542
aVRichard
p6543
aVRob C.
p6544
aVJenna M.
p6545
aVRudy
p6546
aVTina
p6547
atp6548
bsg63
g93
(g96
S'\x01\x00\x00\x00\x00\x00\x00\x00'
p6549
tp6550
Rp6551
stp6552
Rp6553
a(lp6554
g25
(g26
(I0
tp6555
g28
tp6556
Rp6557
(I1
(L18L
L18L
tp6558
g35
I00
(lp6559
V\u2014
p6560
aV \u2014
p6561
aV Tina
p6562
aV Tina
p6563
aV \u2014
p6564
aV \u2014
p6565
aV \u2014
p6566
aV \u2014
p6567
aV \u2014
p6568
aV Tina
p6569
aV Jenna L.
p6570
aV \u2014
p6571
aV \u2014
p6572
aV \u2014
p6573
aV \u2014
p6574
aV \u2014
p6575
aV Tina
p6576
aV Jenna L.
p6577
aV\u2014
p6578
aV \u2014
p6579
aV Rudy
p6580
aV Ethan
p6581
aV \u2014
p6582
aV \u2014
p6583
aV \u2014
p6584
aV \u2014
p6585
aV \u2014
p6586
aV Rudy
p6587
aV Rudy
p6588
aV \u2014
p6589
aV \u2014
p6590
aV \u2014
p6591
aV \u2014
p6592
aV \u2014
p6593
aV Ethan
p6594
ag129
aV\u2014
p6595
aV \u2014
p6596
aV \u2014
p6597
aV \u2014
p6598
aV \u2014
p6599
aV \u2014
p6600
aV \u2014
p6601
aV \u2014
p6602
aV \u2014
p6603
aV \u2014
p6604
aV \u2014
p6605
aV \u2014
p6606
aV \u2014
p6607
aV \u2014
p6608
aV \u2014
p6609
aVQuit
p6610
ag129
ag129
aV Rob C.
p6611
aV Rob C.
p6612
aV \u2014
p6613
aV \u2014
p6614
aV Rob C.
p6615
aV \u2014
p6616
aV Rob C.
p6617
aV \u2014
p6618
aV \u2014
p6619
aV \u2014
p6620
aV \u2014
p6621
aV \u2014
p6622
aV Rob C.
p6623
aV \u2014
p6624
aV Alicia
p6625
ag129
ag129
ag129
aV \u2014
p6626
aV \u2014
p6627
aV \u2014
p6628
aV \u2014
p6629
aV \u2014
p6630
aV Richard
p6631
aV \u2014
p6632
aV Richard
p6633
aV Richard
p6634
aV Richard
p6635
aV Richard
p6636
aV Richard
p6637
aV \u2014
p6638
aV Colby
p6639
ag129
ag129
ag129
ag129
aV \u2014
p6640
aV \u2014
p6641
aV \u2014
p6642
aV \u2014
p6643
aV \u2014
p6644
aV \u2014
p6645
aV \u2014
p6646
aV \u2014
p6647
aV \u2014
p6648
aV \u2014
p6649
aV \u2014
p6650
aV \u2014
p6651
aVQuit
p6652
ag129
ag129
ag129
ag129
ag129
aV \u2014
p6653
aV \u2014
p6654
aV \u2014
p6655
aV \u2014
p6656
aV \u2014
p6657
aV Colby
p6658
aV \u2014
p6659
aVKidnapped
p6660
aV Colby
p6661
aV Colby
p6662
aV Jerri
p6663
aV Jerri
p6664
ag129
ag129
ag129
ag129
ag129
ag129
aV \u2014
p6665
aV \u2014
p6666
aV \u2014
p6667
aV \u2014
p6668
aV \u2014
p6669
aV Ethan
p6670
aV \u2014
p6671
aV Ethan
p6672
aV Ethan
p6673
aV Ethan
p6674
aV Jerri
p6675
ag129
ag129
ag129
ag129
ag129
ag129
ag129
aV Jerri
p6676
aV \u2014
p6677
aV \u2014
p6678
aV \u2014
p6679
aV \u2014
p6680
aV Jerri
p6681
aV \u2014
p6682
aV Jerri
p6683
aV Jerri
p6684
aV Amber
p6685
ag129
ag129
ag129
ag129
ag129
ag129
ag129
ag129
aV Lex
p6686
aV Lex
p6687
aV Lex
p6688
aV Lex
p6689
aV Lex
p6690
aV Lex
p6691
aV Lex
p6692
aV Amber
p6693
aV Amber
p6694
ag129
ag129
ag129
ag129
ag129
ag129
ag129
ag129
ag129
aV Kathy
p6695
aV Kathy
p6696
aV Kathy
p6697
aV Kathy
p6698
aV Kathy
p6699
aV Amber
p6700
aV Kathy
p6701
aV Amber
p6702
ag129
ag129
ag129
ag129
ag129
ag129
ag129
ag129
ag129
ag129
aV Alicia
p6703
aV Alicia
p6704
aV Alicia
p6705
aV Alicia
p6706
aV Alicia
p6707
aV Alicia
p6708
aV Rupert
p6709
ag129
ag129
ag129
ag129
ag129
ag129
ag129
ag129
ag129
ag129
ag129
aV Shii Ann
p6710
aV Shii Ann
p6711
aV Shii Ann
p6712
aV Shii Ann
p6713
aV Shii Ann
p6714
aV Amber
p6715
ag129
ag129
ag129
ag129
ag129
ag129
ag129
ag129
ag129
ag129
ag129
ag129
aV Tom
p6716
aV Tom
p6717
aV Tom
p6718
aV Tom
p6719
aV Jenna L.
p6720
ag129
ag129
ag129
ag129
ag129
ag129
ag129
ag129
ag129
ag129
ag129
ag129
ag129
aV Rupert
p6721
aV Rupert
p6722
aV Rupert
p6723
aV Rob M.
p6724
ag129
ag129
ag129
ag129
ag129
ag129
ag129
ag129
ag129
ag129
ag129
ag129
ag129
ag129
aV \u2014
p6725
aV Jenna L.
p6726
aV \u2014
p6727
ag129
ag129
ag129
ag129
ag129
ag129
ag129
ag129
ag129
ag129
ag129
ag129
ag129
ag129
ag129
ag319
ag319
aV Rob M.
p6728
aV Rob M.
p6729
ag129
ag129
ag129
aV Rob M.
p6730
ag129
ag129
ag129
ag129
ag129
ag129
ag129
ag129
ag129
ag129
ag319
ag319
ag129
ag129
aV Amber
p6731
aV Amber
p6732
aV Amber
p6733
ag129
aV Amber
p6734
ag129
ag129
ag129
ag129
ag129
ag129
ag129
ag129
ag129
atp6735
ba(lp6736
g21
(g22
(dp6737
g24
g25
(g26
(I0
tp6738
g28
tp6739
Rp6740
(I1
(L18L
tp6741
g35
I00
(lp6742
g6503
ag6504
ag6505
ag6506
ag6507
ag6508
ag6509
ag6510
ag6511
ag6512
ag6513
ag6514
ag6515
ag6516
ag6517
ag6518
ag6519
ag6520
atp6743
bsg63
Nstp6744
Rp6745
a(dp6746
g339
(dp6747
g341
g6496
sg342
(lp6748
(dp6749
g345
g346
(I0
I18
I1
tp6750
Rp6751
sg349
g6557
sasstp6752
bsbsg351
I8
ssVFiji
p6753
(dp6754
g3
Vhttp://survivor.wikia.com/wiki/Survivor:_Fiji
p6755
sg5
g6
(g7
g8
Ntp6756
Rp6757
(dp6758
g12
g13
sg14
g15
sg16
g6
(g17
g8
Ntp6759
Rp6760
((lp6761
g21
(g22
(dp6762
g24
g25
(g26
(I0
tp6763
g28
tp6764
Rp6765
(I1
(L19L
tp6766
g35
I00
(lp6767
VJessica
p6768
aVErica
p6769
aVSylvia
p6770
aVGary
p6771
aVLiliana
p6772
aVRita
p6773
aVAnthony
p6774
aVRocky
p6775
aVLisi
p6776
aVMichelle
p6777
aVEdgardo
p6778
aVMookie
p6779
aVAlex
p6780
aVStacy
p6781
aVBoo
p6782
aVYau-Man
p6783
aVDreamz
p6784
aVCassandra
p6785
aVEarl
p6786
atp6787
bsg63
Nstp6788
Rp6789
ag21
(g22
(dp6790
g24
g25
(g26
(I0
tp6791
g28
tp6792
Rp6793
(I1
(L19L
tp6794
g35
I00
(lp6795
VEarl
p6796
aVCassandra
p6797
aVDreamz
p6798
aVYau-Man
p6799
aVBoo
p6800
aVStacy
p6801
aVAlex
p6802
aVMookie
p6803
aVEdgardo
p6804
aVMichelle
p6805
aVLisi
p6806
aVRocky
p6807
aVAnthony
p6808
aVRita
p6809
aVLiliana
p6810
aVGary
p6811
aVSylvia
p6812
aVErica
p6813
aVJessica
p6814
atp6815
bsg63
g93
(g96
S'\x01\x00\x00\x00\x00\x00\x00\x00'
p6816
tp6817
Rp6818
stp6819
Rp6820
a(lp6821
g25
(g26
(I0
tp6822
g28
tp6823
Rp6824
(I1
(L19L
L19L
tp6825
g35
I00
(lp6826
V Jessica
p6827
aV \u2014
p6828
aV \u2014
p6829
aV Jessica
p6830
aV \u2014
p6831
aV \u2014
p6832
aV \u2014
p6833
aV Jessica
p6834
aV \u2014
p6835
aV Jessica
p6836
aV \u2014
p6837
aV Mookie
p6838
aV Jessica
p6839
aV Jessica
p6840
aV \u2014
p6841
aV \u2014
p6842
aVExiled
p6843
aV Yau-Man
p6844
aV Rita
p6845
aVExiled
p6846
aV \u2014
p6847
aV \u2014
p6848
aV Erica
p6849
aV \u2014
p6850
aV \u2014
p6851
aV \u2014
p6852
aV Erica
p6853
aV \u2014
p6854
aV Erica
p6855
aV \u2014
p6856
aV Erica
p6857
aV Sylvia
p6858
aV Erica
p6859
aV \u2014
p6860
aV \u2014
p6861
aV Erica
p6862
aV Sylvia
p6863
ag129
aV Sylvia
p6864
aV \u2014
p6865
aV \u2014
p6866
aV Sylvia
p6867
aV \u2014
p6868
aV \u2014
p6869
aV \u2014
p6870
aV Anthony
p6871
aV \u2014
p6872
aV Sylvia
p6873
aV \u2014
p6874
aV Anthony
p6875
aV Sylvia
p6876
aV Earl
p6877
aV \u2014
p6878
aV \u2014
p6879
aV Anthony
p6880
ag129
ag129
aV \u2014
p6881
aV \u2014
p6882
aV \u2014
p6883
aV \u2014
p6884
aV \u2014
p6885
aV \u2014
p6886
aV \u2014
p6887
aV \u2014
p6888
aV \u2014
p6889
aV \u2014
p6890
aV \u2014
p6891
aV \u2014
p6892
aV \u2014
p6893
aV \u2014
p6894
aV \u2014
p6895
aVQuit
p6896
ag129
ag129
ag129
aV \u2014
p6897
aV Lisi
p6898
aV Liliana
p6899
aV \u2014
p6900
aV Liliana
p6901
aV Liliana
p6902
aV Liliana
p6903
aV \u2014
p6904
aV Liliana
p6905
aV \u2014
p6906
aV Liliana
p6907
aV \u2014
p6908
aV \u2014
p6909
aV \u2014
p6910
aV Cassandra
p6911
ag129
ag129
ag129
ag129
aV Rita
p6912
aV \u2014
p6913
aV \u2014
p6914
aV Rita
p6915
aV \u2014
p6916
aV \u2014
p6917
aV \u2014
p6918
aV Rita
p6919
aV \u2014
p6920
aV Anthony
p6921
aV \u2014
p6922
aV Rita
p6923
aV Rita
p6924
aV Anthony
p6925
ag129
ag129
ag129
ag129
ag129
aV \u2014
p6926
aV \u2014
p6927
aV Anthony
p6928
aV \u2014
p6929
aV \u2014
p6930
aV \u2014
p6931
aV Anthony
p6932
aV Anthony
p6933
aV Anthony
p6934
aV \u2014
p6935
aVExiled
p6936
aV Anthony
p6937
aV Rocky
p6938
ag129
ag129
ag129
ag129
ag129
ag129
aV \u2014
p6939
aV \u2014
p6940
aV Rocky
p6941
aV \u2014
p6942
aV \u2014
p6943
aV \u2014
p6944
aV Rocky
p6945
aV Lisi
p6946
aV Rocky
p6947
aV \u2014
p6948
aV Rocky
p6949
aV Lisi
p6950
ag129
ag129
ag129
ag129
ag129
ag129
ag129
aV \u2014
p6951
aV \u2014
p6952
aV Lisi
p6953
aV \u2014
p6954
aV \u2014
p6955
aV \u2014
p6956
aV Lisi
p6957
aV Lisi
p6958
aV Lisi
p6959
aV \u2014
p6960
aV Dreamz
p6961
ag129
ag129
ag129
ag129
ag129
ag129
ag129
ag129
aV \u2014
p6962
aV \u2014
p6963
aV Michelle
p6964
aV \u2014
p6965
aV \u2014
p6966
aV Michelle
p6967
aV Michelle
p6968
aV Stacy
p6969
aV \u2014
p6970
aV Stacy
p6971
ag129
ag129
ag129
ag129
ag129
ag129
ag129
ag129
ag129
aV Edgardo
p6972
aV Edgardo
p6973
aV Mookie
p6974
aV Edgardo
p6975
aV Edgardo
p6976
aV Edgardo
p6977
aV Cassandra
p6978
aV Cassandra
p6979
aV Cassandra
p6980
ag129
ag129
ag129
ag129
ag129
ag129
ag129
ag129
ag129
ag129
aV Alex
p6981
aV Mookie
p6982
aV Mookie
p6983
aV Alex
p6984
aV Alex
p6985
aV Mookie
p6986
aV Mookie
p6987
aV Boo
p6988
ag129
ag129
ag129
ag129
ag129
ag129
ag129
ag129
ag129
ag129
ag129
aV Alex
p6989
aV Alex
p6990
aV Alex
p6991
aV Alex
p6992
aV Alex
p6993
aV Alex
p6994
aV Yau-Man
p6995
ag129
ag129
ag129
ag129
ag129
ag129
ag129
ag129
ag129
ag129
ag129
ag129
aV Stacy
p6996
aV Yau-Man
p6997
aV Yau-Man
p6998
aV Stacy
p6999
aV Yau-Man
p7000
aV Yau-Man
p7001
ag129
ag129
ag129
ag129
ag129
ag129
ag129
ag129
ag129
ag129
ag129
ag129
ag129
aV Boo
p7002
aV Boo
p7003
aV Boo
p7004
aV Boo
p7005
aV Dreamz
p7006
ag129
ag129
ag129
ag129
ag129
ag129
ag129
ag129
ag129
ag129
ag129
ag129
ag129
ag129
aV Yau-Man
p7007
aV Yau-Man
p7008
aV Yau-Man
p7009
aV Cassandra
p7010
ag129
ag129
ag129
ag129
ag129
ag129
ag129
ag129
ag129
ag129
ag129
ag129
ag129
ag129
ag129
ag319
ag319
ag319
ag129
ag129
ag129
ag129
ag129
ag129
ag129
ag129
ag129
ag129
ag129
ag129
ag129
ag129
ag129
ag129
ag319
ag319
ag319
ag129
ag129
ag129
ag129
ag129
ag129
ag129
ag129
ag129
ag129
ag129
ag129
ag129
ag129
ag129
ag129
ag319
ag319
ag319
aV Earl
p7011
aV Earl
p7012
aV Earl
p7013
aV Earl
p7014
aV Earl
p7015
aV Earl
p7016
aV Earl
p7017
aV Earl
p7018
aV Earl
p7019
ag129
ag129
ag129
ag129
ag129
ag129
ag129
atp7020
ba(lp7021
g21
(g22
(dp7022
g24
g25
(g26
(I0
tp7023
g28
tp7024
Rp7025
(I1
(L19L
tp7026
g35
I00
(lp7027
g6768
ag6769
ag6770
ag6771
ag6772
ag6773
ag6774
ag6775
ag6776
ag6777
ag6778
ag6779
ag6780
ag6781
ag6782
ag6783
ag6784
ag6785
ag6786
atp7028
bsg63
Nstp7029
Rp7030
a(dp7031
g339
(dp7032
g341
g6761
sg342
(lp7033
(dp7034
g345
g346
(I0
I19
I1
tp7035
Rp7036
sg349
g6824
sasstp7037
bsbsg351
I14
ssVAfrica
p7038
(dp7039
g3
Vhttp://survivor.wikia.com/wiki/Survivor:_Africa
p7040
sg5
g6
(g7
g8
Ntp7041
Rp7042
(dp7043
g12
g13
sg14
g15
sg16
g6
(g17
g8
Ntp7044
Rp7045
((lp7046
g21
(g22
(dp7047
g24
g25
(g26
(I0
tp7048
g28
tp7049
Rp7050
(I1
(L18L
tp7051
g35
I00
(lp7052
VDiane
p7053
aVJessie
p7054
aVCarl
p7055
aVCarl
p7056
aVLinda
p7057
aVSilas
p7058
aVLindsey
p7059
aVLindsey
p7060
aVClarence
p7061
aVKelly
p7062
aVBrandon
p7063
aVFrank
p7064
aVKim P.
p7065
aVTeresa
p7066
aVTom
p7067
aVLex
p7068
aVKim J.
p7069
aVEthan
p7070
atp7071
bsg63
Nstp7072
Rp7073
ag21
(g22
(dp7074
g24
g25
(g26
(I0
tp7075
g28
tp7076
Rp7077
(I1
(L16L
tp7078
g35
I00
(lp7079
VEthan
p7080
aVKim J.
p7081
aVLex
p7082
aVTom
p7083
aVTeresa
p7084
aVKim P.
p7085
aVFrank
p7086
aVBrandon
p7087
aVKelly
p7088
aVClarence
p7089
aVLindsey
p7090
aVSilas
p7091
aVLinda
p7092
aVCarl
p7093
aVJessie
p7094
aVDiane
p7095
atp7096
bsg63
g93
(g96
S'\x01\x00\x00\x00\x00\x00\x00\x00'
p7097
tp7098
Rp7099
stp7100
Rp7101
a(lp7102
g25
(g26
(I0
tp7103
g28
tp7104
Rp7105
(I1
(L18L
L16L
tp7106
g35
I00
(lp7107
V Diane
p7108
aV Diane
p7109
aV Diane
p7110
aV Clarence
p7111
aV \u2014
p7112
aV \u2014
p7113
aV \u2014
p7114
aV \u2014
p7115
aV Diane
p7116
aV Diane
p7117
aV \u2014
p7118
aV \u2014
p7119
aV \u2014
p7120
aV \u2014
p7121
aV Diane
p7122
aV Clarence
p7123
aV Jessie
p7124
aV Jessie
p7125
aV Jessie
p7126
aV Clarence
p7127
aV \u2014
p7128
aV \u2014
p7129
aV \u2014
p7130
aV \u2014
p7131
aV Jessie
p7132
aV Jessie
p7133
aV \u2014
p7134
aV \u2014
p7135
aV \u2014
p7136
aV \u2014
p7137
aV Clarence
p7138
ag129
aV \u2014
p7139
aV \u2014
p7140
aV \u2014
p7141
aV \u2014
p7142
aV Lindsey
p7143
aV Carl
p7144
aV Lindsey
p7145
aV Carl
p7146
aV \u2014
p7147
aV \u2014
p7148
aV Carl
p7149
aV Carl
p7150
aV Lindsey
p7151
aV Lindsey
p7152
ag129
ag129
ag7139
ag7140
ag7141
ag7142
aV Lindsey
p7153
aV Carl
p7154
aV Lindsey
p7155
aV Carl
p7156
ag7147
ag7148
aVNone
p7157
aV Carl
p7158
aV Lindsey
p7159
aVNone
p7160
ag129
ag129
aV \u2014
p7161
aV \u2014
p7162
aV \u2014
p7163
aV \u2014
p7164
aV Silas
p7165
aV Linda
p7166
aV Silas
p7167
aV Linda
p7168
aV \u2014
p7169
aV \u2014
p7170
aV Linda
p7171
aV Linda
p7172
aV Silas
p7173
ag129
ag129
ag129
aV Silas
p7174
aV Silas
p7175
aV \u2014
p7176
aV \u2014
p7177
aV Silas
p7178
aV \u2014
p7179
aV Silas
p7180
aV \u2014
p7181
aV \u2014
p7182
aV Silas
p7183
aV \u2014
p7184
aV Frank
p7185
ag129
ag129
ag129
ag129
aV \u2014
p7186
aV \u2014
p7187
aV Lindsey
p7188
aV Lindsey
p7189
aV \u2014
p7190
aV Tom
p7191
aV \u2014
p7192
aV Tom
p7193
aV Lindsey
p7194
aV \u2014
p7195
aV Tom
p7196
ag129
ag129
ag129
ag129
ag129
ag7186
ag7187
aV Lindsey
p7197
aVNone
p7198
ag7190
aV Tom
p7199
ag7192
aV Tom
p7200
aV Lindsey
p7201
ag7195
aVNone
p7202
ag129
ag129
ag129
ag129
ag129
aV Clarence
p7203
aV Clarence
p7204
aV Clarence
p7205
aV Clarence
p7206
aV Lex
p7207
aV Clarence
p7208
aV Clarence
p7209
aV Clarence
p7210
aV Clarence
p7211
aV Lex
p7212
ag129
ag129
ag129
ag129
ag129
ag129
aV Kelly
p7213
aV Kelly
p7214
aV Kelly
p7215
aV Kelly
p7216
aV Lex
p7217
aV Lex
p7218
aV Lex
p7219
aV Kelly
p7220
aV Lex
p7221
ag129
ag129
ag129
ag129
ag129
ag129
ag129
aV Brandon
p7222
aV Brandon
p7223
aV Frank
p7224
aV Brandon
p7225
aV Brandon
p7226
aV Brandon
p7227
aV Brandon
p7228
aV Frank
p7229
ag129
ag129
ag129
ag129
ag129
ag129
ag129
ag129
aV Frank
p7230
aV Frank
p7231
aV Frank
p7232
aV Frank
p7233
aV Frank
p7234
aV Frank
p7235
aV Kim J.
p7236
ag129
ag129
ag129
ag129
ag129
ag129
ag129
ag129
ag129
aV Kim P.
p7237
aV Kim P.
p7238
aV Kim P.
p7239
aV Kim P.
p7240
aV Lex
p7241
aV Lex
p7242
ag129
ag129
ag129
ag129
ag129
ag129
ag129
ag129
ag129
ag129
aV Teresa
p7243
aV Teresa
p7244
aV Teresa
p7245
aV Teresa
p7246
aV Tom
p7247
ag129
ag129
ag129
ag129
ag129
ag129
ag129
ag129
ag129
ag129
ag129
aV Tom
p7248
aV Tom
p7249
aV Tom
p7250
aV Lex
p7251
ag129
ag129
ag129
ag129
ag129
ag129
ag129
ag129
ag129
ag129
ag129
ag129
aV \u2014
p7252
aV Lex
p7253
aV \u2014
p7254
ag129
ag129
ag129
ag129
ag129
ag129
ag129
ag129
ag129
ag129
ag129
ag129
ag129
ag319
ag319
ag129
ag129
ag129
aV Kim J.
p7255
ag129
aV Kim J.
p7256
ag129
ag129
ag129
ag129
ag129
ag129
ag129
ag129
ag319
ag319
aV Ethan
p7257
aV Ethan
p7258
aV Ethan
p7259
ag129
aV Ethan
p7260
ag129
aV Ethan
p7261
ag129
ag129
ag129
ag129
ag129
ag129
ag129
atp7262
ba(lp7263
g21
(g22
(dp7264
g24
g25
(g26
(I0
tp7265
g28
tp7266
Rp7267
(I1
(L18L
tp7268
g35
I00
(lp7269
g7053
ag7054
ag7055
ag7056
ag7057
ag7058
ag7059
ag7060
ag7061
ag7062
ag7063
ag7064
ag7065
ag7066
ag7067
ag7068
ag7069
ag7070
atp7270
bsg63
Nstp7271
Rp7272
a(dp7273
g339
(dp7274
g341
g7046
sg342
(lp7275
(dp7276
g345
g346
(I0
I18
I1
tp7277
Rp7278
sg349
g7105
sasstp7279
bsbsg351
I3
ssVSan_Juan_del_Sur
p7280
(dp7281
g3
Vhttp://survivor.wikia.com/wiki/Survivor:_San_Juan_del_Sur
p7282
sg5
g6
(g7
g8
Ntp7283
Rp7284
(dp7285
g12
g13
sg14
g15
sg16
g6
(g17
g8
Ntp7286
Rp7287
((lp7288
g21
(g22
(dp7289
g24
g25
(g26
(I0
tp7290
g28
tp7291
Rp7292
(I1
(L20L
tp7293
g35
I00
(lp7294
VNadiya
p7295
aVVal
p7296
aVVal
p7297
aVJohn
p7298
aVDrew
p7299
aVKelley
p7300
aVDale
p7301
aVJulie
p7302
aVJosh
p7303
aVJeremy
p7304
aVWes
p7305
aVReed
p7306
aVAlec
p7307
aVJon
p7308
aVJon
p7309
aVBaylor
p7310
aVKeith
p7311
aVMissy
p7312
aVJaclyn
p7313
aVNatalie
p7314
atp7315
bsg63
Nstp7316
Rp7317
ag21
(g22
(dp7318
g24
g25
(g26
(I0
tp7319
g28
tp7320
Rp7321
(I1
(L18L
tp7322
g35
I00
(lp7323
VNatalie
p7324
aVJaclyn
p7325
aVMissy
p7326
aVKeith
p7327
aVBaylor
p7328
aVJon
p7329
aVAlec
p7330
aVReed
p7331
aVWes
p7332
aVJeremy
p7333
aVJosh
p7334
aVJulie
p7335
aVDale
p7336
aVKelley
p7337
aVDrew
p7338
aVJohn
p7339
aVVal
p7340
aVNadiya
p7341
atp7342
bsg63
g93
(g96
S'\x01\x00\x00\x00\x00\x00\x00\x00'
p7343
tp7344
Rp7345
stp7346
Rp7347
a(lp7348
g25
(g26
(I0
tp7349
g28
tp7350
Rp7351
(I1
(L20L
L18L
tp7352
g35
I00
(lp7353
V \u2014
p7354
aV Dale
p7355
aV \u2014
p7356
aV \u2014
p7357
aV Nadiya
p7358
aV \u2014
p7359
aV Nadiya
p7360
aV \u2014
p7361
aV Nadiya
p7362
aV \u2014
p7363
aV Baylor
p7364
aV \u2014
p7365
aV Nadiya
p7366
aV \u2014
p7367
aV \u2014
p7368
aV Nadiya
p7369
aV Dale
p7370
aV Dale
p7371
aV \u2014
p7372
aV Baylor
p7373
aV \u2014
p7374
aV \u2014
p7375
aV Val
p7376
aV \u2014
p7377
aV Baylor
p7378
aV \u2014
p7379
aV Val
p7380
aV \u2014
p7381
aV Val
p7382
aV \u2014
p7383
aV Val
p7384
aV \u2014
p7385
aV \u2014
p7386
aV Baylor
p7387
aV Baylor
p7388
ag129
ag7372
aV Baylor
p7389
ag7374
ag7375
aV None
p7390
ag7377
aV Val
p7391
ag7379
aV Val
p7392
ag7381
aV Val
p7393
ag7383
aV Val
p7394
ag7385
ag7386
aV Val
p7395
aV None
p7396
ag129
aV \u2014
p7397
aV John
p7398
aV \u2014
p7399
aV \u2014
p7400
aV John
p7401
aV \u2014
p7402
aV John
p7403
aV \u2014
p7404
aV John
p7405
aV \u2014
p7406
aV John
p7407
aV \u2014
p7408
aV Baylor
p7409
aV \u2014
p7410
aV \u2014
p7411
aV Baylor
p7412
ag129
ag129
aV Drew
p7413
aV \u2014
p7414
aV Drew
p7415
aV Julie
p7416
aV \u2014
p7417
aV Keith
p7418
aV \u2014
p7419
aV Julie
p7420
aV \u2014
p7421
aV Drew
p7422
aV \u2014
p7423
aV Drew
p7424
aV \u2014
p7425
aV Drew
p7426
aV Kelley
p7427
ag129
ag129
ag129
aV \u2014
p7428
aV Kelley
p7429
aV Kelley
p7430
aV Dale
p7431
aV Kelley
p7432
aV Dale
p7433
aV \u2014
p7434
aV \u2014
p7435
aV \u2014
p7436
aV \u2014
p7437
aV \u2014
p7438
aV \u2014
p7439
aV Baylor
p7440
aV Baylor
p7441
ag129
ag129
ag129
ag129
aV \u2014
p7442
aV Dale
p7443
aV Keith
p7444
aV Dale
p7445
aV Keith
p7446
aV Dale
p7447
aV \u2014
p7448
aV \u2014
p7449
aV \u2014
p7450
aV \u2014
p7451
aV \u2014
p7452
aV \u2014
p7453
aV Missy
p7454
ag129
ag129
ag129
ag129
ag129
aV \u2014
p7455
aV \u2014
p7456
aV \u2014
p7457
aV \u2014
p7458
aV \u2014
p7459
aV \u2014
p7460
aV \u2014
p7461
aV \u2014
p7462
aV \u2014
p7463
aV \u2014
p7464
aV \u2014
p7465
aV Quit
p7466
ag129
ag129
ag129
ag129
ag129
ag129
aV Josh
p7467
aV Josh
p7468
aV Josh
p7469
aV Baylor
p7470
aV Josh
p7471
aV Josh
p7472
aV Baylor
p7473
aV Baylor
p7474
aV Baylor
p7475
aV Josh
p7476
aV Baylor
p7477
ag129
ag129
ag129
ag129
ag129
ag129
ag129
aV Keith
p7478
aV Jeremy
p7479
aV Jeremy
p7480
aV Reed
p7481
aV Jeremy
p7482
aV Jeremy
p7483
aV Reed
p7484
aV Jeremy
p7485
aV Reed
p7486
aV Keith
p7487
ag129
ag129
ag129
ag129
ag129
ag129
ag129
ag129
aV Keith
p7488
aV Wes
p7489
aV Keith
p7490
aV Jon
p7491
aV Keith
p7492
aV Wes
p7493
aV Jon
p7494
aV Jon
p7495
aV Jon
p7496
ag129
ag129
ag129
ag129
ag129
ag129
ag129
ag129
ag129
aV Reed
p7497
aV Reed
p7498
aV Reed
p7499
aV Reed
p7500
aV Reed
p7501
aV Reed
p7502
aV Reed
p7503
aV Missy
p7504
ag129
ag129
ag129
ag129
ag129
ag129
ag129
ag129
ag129
ag129
aV Alec
p7505
aV Keith
p7506
aV Alec
p7507
aV Alec
p7508
aV Alec
p7509
aV Keith
p7510
aV Keith
p7511
ag129
ag129
ag129
ag129
ag129
ag129
ag129
ag129
ag129
ag129
ag129
aV Jon
p7512
aV Keith
p7513
aV Jaclyn
p7514
aV Jon
p7515
aV Jaclyn
p7516
aV Keith
p7517
ag129
ag129
ag129
ag129
ag129
ag129
ag129
ag129
ag129
ag129
ag129
ag129
aV Jon
p7518
aV None
p7519
aV Jaclyn
p7520
aV None
p7521
aV Jon
p7522
aV None
p7523
ag129
ag129
ag129
ag129
ag129
ag129
ag129
ag129
ag129
ag129
ag129
ag129
aV Baylor
p7524
aV Baylor
p7525
aV Jaclyn
p7526
aV Jaclyn
p7527
aV Jaclyn
p7528
ag129
ag129
ag129
ag129
ag129
ag129
ag129
ag129
ag129
ag129
ag129
ag129
ag129
aV Keith
p7529
aV Keith
p7530
aV Keith
p7531
aV Missy
p7532
ag129
ag129
ag129
ag129
ag129
ag129
ag129
ag129
ag129
ag129
ag129
ag129
ag129
ag129
ag319
ag319
ag319
ag129
aV Missy
p7533
ag129
ag129
ag129
ag129
ag129
ag129
ag129
ag129
ag129
ag129
ag129
ag129
ag129
ag319
ag319
ag319
ag129
ag129
aV Jaclyn
p7534
ag129
aV Jaclyn
p7535
ag129
ag129
ag129
ag129
ag129
ag129
ag129
ag129
ag129
ag129
ag319
ag319
ag319
aV Natalie
p7536
ag129
ag129
aV Natalie
p7537
ag129
aV Natalie
p7538
aV Natalie
p7539
aV Natalie
p7540
ag129
ag129
ag129
ag129
ag129
ag129
ag129
atp7541
ba(lp7542
g21
(g22
(dp7543
g24
g25
(g26
(I0
tp7544
g28
tp7545
Rp7546
(I1
(L20L
tp7547
g35
I00
(lp7548
g7295
ag7296
ag7297
ag7298
ag7299
ag7300
ag7301
ag7302
ag7303
ag7304
ag7305
ag7306
ag7307
ag7308
ag7309
ag7310
ag7311
ag7312
ag7313
ag7314
atp7549
bsg63
Nstp7550
Rp7551
a(dp7552
g339
(dp7553
g341
g7288
sg342
(lp7554
(dp7555
g345
g346
(I0
I20
I1
tp7556
Rp7557
sg349
g7351
sasstp7558
bsbsg351
I29
ssVCook_Islands
p7559
(dp7560
g3
Vhttp://survivor.wikia.com/wiki/Survivor:_Cook_Islands
p7561
sg5
g6
(g7
g8
Ntp7562
Rp7563
(dp7564
g12
g13
sg14
g15
sg16
g6
(g17
g8
Ntp7565
Rp7566
((lp7567
g21
(g22
(dp7568
g24
g25
(g26
(I0
tp7569
g28
tp7570
Rp7571
(I1
(L20L
tp7572
g35
I00
(lp7573
VSekou
p7574
aVBilly
p7575
aVCecilia
p7576
aVJ.P.
p7577
aVStephannie
p7578
aVCao Boi
p7579
aVCristina
p7580
aVJessica
p7581
aVBrad
p7582
aVRebecca
p7583
aVJenny
p7584
aVNate
p7585
aVCandice
p7586
aVJonathan
p7587
aVParvati
p7588
aVAdam
p7589
aVSundra
p7590
aVBecky
p7591
aVOzzy
p7592
aVYul
p7593
atp7594
bsg63
Nstp7595
Rp7596
ag21
(g22
(dp7597
g24
g25
(g26
(I0
tp7598
g28
tp7599
Rp7600
(I1
(L20L
tp7601
g35
I00
(lp7602
VYul
p7603
aVOzzy
p7604
aVBecky
p7605
aVSundra
p7606
aVAdam
p7607
aVParvati
p7608
aVJonathan
p7609
aVCandice
p7610
aVNate
p7611
aVJenny
p7612
aVRebecca
p7613
aVBrad
p7614
aVJessica
p7615
aVCristina
p7616
aVCao Boi
p7617
aVStephannie
p7618
aVJ.P.
p7619
aVCecilia
p7620
aVBilly
p7621
aVSekou
p7622
atp7623
bsg63
g93
(g96
S'\x01\x00\x00\x00\x00\x00\x00\x00'
p7624
tp7625
Rp7626
stp7627
Rp7628
a(lp7629
g25
(g26
(I0
tp7630
g28
tp7631
Rp7632
(I1
(L20L
L20L
tp7633
g35
I00
(lp7634
V \u2014
p7635
aV \u2014
p7636
aV \u2014
p7637
aV Sekou
p7638
aV \u2014
p7639
aV \u2014
p7640
aV \u2014
p7641
aV \u2014
p7642
aV Sundra
p7643
aV \u2014
p7644
aV Sekou
p7645
aV \u2014
p7646
aV \u2014
p7647
aV \u2014
p7648
aV \u2014
p7649
aV Sekou
p7650
aV \u2014
p7651
aV \u2014
p7652
aV \u2014
p7653
aV Sundra
p7654
aV \u2014
p7655
aV Billy
p7656
aV \u2014
p7657
aV \u2014
p7658
aV \u2014
p7659
aV \u2014
p7660
aV \u2014
p7661
aV \u2014
p7662
aV \u2014
p7663
aV \u2014
p7664
aV \u2014
p7665
aV \u2014
p7666
aV \u2014
p7667
aV Billy
p7668
aV \u2014
p7669
aV \u2014
p7670
aV Billy
p7671
aV Billy
p7672
aV Ozzy
p7673
ag129
aV Cecilia
p7674
aV Becky
p7675
aV Cecilia
p7676
aV Becky
p7677
aV \u2014
p7678
aV \u2014
p7679
aV Cecilia
p7680
aVExiled
p7681
aV \u2014
p7682
aV \u2014
p7683
aV \u2014
p7684
aV \u2014
p7685
aV Cecilia
p7686
aV \u2014
p7687
aV Cecilia
p7688
aV \u2014
p7689
aV \u2014
p7690
aV Becky
p7691
ag129
ag129
aV \u2014
p7692
aV \u2014
p7693
aV \u2014
p7694
aV \u2014
p7695
aV J.P.
p7696
aV J.P.
p7697
aV \u2014
p7698
aV \u2014
p7699
aV Stephannie
p7700
aV J.P.
p7701
aV J.P.
p7702
aV J.P.
p7703
aV \u2014
p7704
aV J.P.
p7705
aV \u2014
p7706
aV J.P.
p7707
aV Stephannie
p7708
ag129
ag129
ag129
aV \u2014
p7709
aV \u2014
p7710
aV \u2014
p7711
aV \u2014
p7712
aV Stephannie
p7713
aV Stephannie
p7714
aV \u2014
p7715
aV \u2014
p7716
aV Stephannie
p7717
aV Stephannie
p7718
aV Stephannie
p7719
aV Stephannie
p7720
aV \u2014
p7721
aV Stephannie
p7722
aV \u2014
p7723
aV Cristina
p7724
ag129
ag129
ag129
ag129
aV Cao Boi
p7725
aV Cao Boi
p7726
aV Cao Boi
p7727
aV Cao Boi
p7728
aV \u2014
p7729
aV \u2014
p7730
aV Cao Boi
p7731
aV Cao Boi
p7732
aV \u2014
p7733
aV \u2014
p7734
aV \u2014
p7735
aV \u2014
p7736
aV Jonathan
p7737
aV \u2014
p7738
aV Candice
p7739
ag129
ag129
ag129
ag129
ag129
aV \u2014
p7740
aV \u2014
p7741
aV \u2014
p7742
aV \u2014
p7743
aV Cristina
p7744
aV Cristina
p7745
aV \u2014
p7746
aV \u2014
p7747
aVKidnapped
p7748
aV Cristina
p7749
aV Cristina
p7750
aV Jenny
p7751
aV \u2014
p7752
aV Jenny
p7753
ag129
ag129
ag129
ag129
ag129
ag129
aV Jessica
p7754
aV Jessica
p7755
aV Jessica
p7756
aV Jessica
p7757
aV \u2014
p7758
aV \u2014
p7759
aV Jessica
p7760
aV Jessica
p7761
aV \u2014
p7762
aV \u2014
p7763
aV \u2014
p7764
aV \u2014
p7765
aV Jonathan
p7766
ag129
ag129
ag129
ag129
ag129
ag129
ag129
aV \u2014
p7767
aV \u2014
p7768
aV \u2014
p7769
aV \u2014
p7770
aV Brad
p7771
aV Brad
p7772
aV Brad
p7773
aV Brad
p7774
aV Brad
p7775
aV Brad
p7776
aV Brad
p7777
aV Jonathan
p7778
ag129
ag129
ag129
ag129
ag129
ag129
ag129
ag129
aV \u2014
p7779
aV \u2014
p7780
aV \u2014
p7781
aV \u2014
p7782
aV Rebecca
p7783
aV Rebecca
p7784
aV Rebecca
p7785
aV Rebecca
p7786
aV Rebecca
p7787
aV Rebecca
p7788
aV Jonathan
p7789
ag129
ag129
ag129
ag129
ag129
ag129
ag129
ag129
ag129
aV \u2014
p7790
aV \u2014
p7791
aV \u2014
p7792
aV \u2014
p7793
aV Jenny
p7794
aV Jenny
p7795
aV Jenny
p7796
aV Jenny
p7797
aV Jonathan
p7798
aV Jonathan
p7799
ag129
ag129
ag129
ag129
ag129
ag129
ag129
ag129
ag129
ag129
aV Nate
p7800
aV Nate
p7801
aV Nate
p7802
aV Nate
p7803
aV Yul
p7804
aV Yul
p7805
aV Nate
p7806
aV Yul
p7807
aV Yul
p7808
ag129
ag129
ag129
ag129
ag129
ag129
ag129
ag129
ag129
ag129
ag129
aV Candice
p7809
aV Candice
p7810
aV Candice
p7811
aV Candice
p7812
aV Jonathan
p7813
aV Jonathan
p7814
aV Candice
p7815
aV Jonathan
p7816
ag129
ag129
ag129
ag129
ag129
ag129
ag129
ag129
ag129
ag129
ag129
ag129
aV Jonathan
p7817
aV Jonathan
p7818
aV Jonathan
p7819
aV Jonathan
p7820
aV Jonathan
p7821
aV Jonathan
p7822
aV Adam
p7823
ag129
ag129
ag129
ag129
ag129
ag129
ag129
ag129
ag129
ag129
ag129
ag129
ag129
aV Parvati
p7824
aV Parvati
p7825
aV Parvati
p7826
aV Parvati
p7827
aV Sundra
p7828
aV Sundra
p7829
ag129
ag129
ag129
ag129
ag129
ag129
ag129
ag129
ag129
ag129
ag129
ag129
ag129
ag129
aV Adam
p7830
aV Adam
p7831
aV Adam
p7832
aV Adam
p7833
aV Yul
p7834
ag129
ag129
ag129
ag129
ag129
ag129
ag129
ag129
ag129
ag129
ag129
ag129
ag129
ag129
ag129
aV Sundra
p7835
aV Becky
p7836
aV Sundra
p7837
aV Becky
p7838
ag129
ag129
ag129
ag129
ag129
ag129
ag129
ag129
ag129
ag129
ag129
ag129
ag129
ag129
ag129
ag129
ag319
ag319
ag319
ag129
ag129
ag129
ag129
ag129
ag129
ag129
ag129
ag129
ag129
ag129
ag129
ag129
ag129
ag129
ag129
ag129
ag319
ag319
ag319
ag129
ag129
aV Ozzy
p7839
ag129
ag129
aV Ozzy
p7840
aV Ozzy
p7841
aV Ozzy
p7842
ag129
ag129
ag129
ag129
ag129
ag129
ag129
ag129
ag129
ag319
ag319
ag319
aV Yul
p7843
aV Yul
p7844
ag129
aV Yul
p7845
aV Yul
p7846
ag129
ag129
ag129
aV Yul
p7847
ag129
ag129
ag129
ag129
ag129
ag129
ag129
ag129
atp7848
ba(lp7849
g21
(g22
(dp7850
g24
g25
(g26
(I0
tp7851
g28
tp7852
Rp7853
(I1
(L20L
tp7854
g35
I00
(lp7855
g7574
ag7575
ag7576
ag7577
ag7578
ag7579
ag7580
ag7581
ag7582
ag7583
ag7584
ag7585
ag7586
ag7587
ag7588
ag7589
ag7590
ag7591
ag7592
ag7593
atp7856
bsg63
Nstp7857
Rp7858
a(dp7859
g339
(dp7860
g341
g7567
sg342
(lp7861
(dp7862
g345
g346
(I0
I20
I1
tp7863
Rp7864
sg349
g7632
sasstp7865
bsbsg351
I13
ssVRedemption_Island
p7866
(dp7867
g3
Vhttp://survivor.wikia.com/wiki/Survivor:_Redemption_Island
p7868
sg5
g6
(g7
g8
Ntp7869
Rp7870
(dp7871
g12
g13
sg14
g15
sg16
g6
(g17
g8
Ntp7872
Rp7873
((lp7874
g21
(g22
(dp7875
g24
g25
(g26
(I0
tp7876
g28
tp7877
Rp7878
(I1
(L21L
tp7879
g35
I00
(lp7880
VFrancesca
p7881
aVMatthew
p7882
aVRussell
p7883
aVRussell
p7884
aVKristina
p7885
aVKrista
p7886
aVStephanie
p7887
aVSarita
p7888
aVMatthew
p7889
aVMike
p7890
aVDavid
p7891
aVJulie
p7892
aVRalph
p7893
aVSteve
p7894
aVAndrea
p7895
aVGrant
p7896
aVAndrea
p7897
aVAshley
p7898
aVNatalie
p7899
aVPhillip
p7900
aVRob
p7901
atp7902
bsg63
Nstp7903
Rp7904
ag21
(g22
(dp7905
g24
g25
(g26
(I0
tp7906
g28
tp7907
Rp7908
(I1
(L18L
tp7909
g35
I00
(lp7910
VRob
p7911
aVPhillip
p7912
aVNatalie
p7913
aVAshley
p7914
aVAndrea
p7915
aVMike
p7916
aVMatthew
p7917
aVGrant
p7918
aV Ralph
p7919
aVSteve
p7920
aVJulie
p7921
aVDavid
p7922
aVSarita
p7923
aVStephanie
p7924
aVKrista
p7925
aVKristina
p7926
aVRussell
p7927
aVFrancesca
p7928
atp7929
bsg63
g93
(g96
S'\x01\x00\x00\x00\x00\x00\x00\x00'
p7930
tp7931
Rp7932
stp7933
Rp7934
a(lp7935
g25
(g26
(I0
tp7936
g28
tp7937
Rp7938
(I1
(L21L
L18L
tp7939
g35
I00
(lp7940
V Francesca
p7941
aV Francesca
p7942
aV Kristina
p7943
aV Kristina
p7944
aV Kristina
p7945
aV \u2014
p7946
aV Francesca
p7947
aV Francesca
p7948
aV \u2014
p7949
aV \u2014
p7950
aV \u2014
p7951
aV \u2014
p7952
aV \u2014
p7953
aV \u2014
p7954
aV \u2014
p7955
aV Phillip
p7956
aV \u2014
p7957
aV Phillip
p7958
aV Matthew
p7959
aV Kristina
p7960
aV Matthew
p7961
aV Matthew
p7962
aV Kristina
p7963
aV \u2014
p7964
aV Phillip
p7965
aV Matthew
p7966
aV \u2014
p7967
aV \u2014
p7968
aV \u2014
p7969
aV \u2014
p7970
aV \u2014
p7971
aV \u2014
p7972
aV \u2014
p7973
aV Phillip
p7974
aV \u2014
p7975
ag4552
aV \u2014
p7976
aV \u2014
p7977
aV \u2014
p7978
aV \u2014
p7979
aV \u2014
p7980
aV Russell
p7981
ag4552
aV \u2014
p7982
aV Russell
p7983
aV Stephanie
p7984
aV Stephanie
p7985
aV Russell
p7986
aV Stephanie
p7987
aV Ralph
p7988
aV Ralph
p7989
aV \u2014
p7990
aV Ralph
p7991
ag4552
ag7976
ag7977
ag7978
ag7979
ag7980
aV Russell
p7992
ag4552
ag7982
aVNone
p7993
aV Russell
p7994
aV Russell
p7995
aV Russell
p7996
aV Russell
p7997
aVNone
p7998
aV Ralph
p7999
ag7990
aVNone
p8000
ag4552
aV Phillip
p8001
aV Kristina
p8002
aV Kristina
p8003
aV Kristina
p8004
aV Kristina
p8005
aV \u2014
p8006
ag4552
aV Phillip
p8007
aV \u2014
p8008
aV \u2014
p8009
aV \u2014
p8010
aV \u2014
p8011
aV \u2014
p8012
aV \u2014
p8013
aV\u2014
p8014
aV Phillip
p8015
ag4552
ag129
aV \u2014
p8016
aV \u2014
p8017
aV \u2014
p8018
aV \u2014
p8019
aV \u2014
p8020
aV Krista
p8021
ag4552
aV \u2014
p8022
aV Krista
p8023
aV Krista
p8024
aV Krista
p8025
aV Krista
p8026
aV Krista
p8027
aV Steve
p8028
aV Steve
p8029
ag4552
ag129
ag129
aV \u2014
p8030
aV \u2014
p8031
aV \u2014
p8032
aV \u2014
p8033
aV \u2014
p8034
aV Stephanie
p8035
ag4552
aV \u2014
p8036
aV Stephanie
p8037
aV Stephanie
p8038
aV Stephanie
p8039
aV Sarita
p8040
aV Stephanie
p8041
aV Sarita
p8042
ag4552
ag129
ag129
ag129
aV \u2014
p8043
aV \u2014
p8044
aV \u2014
p8045
aV \u2014
p8046
aV \u2014
p8047
aV Sarita
p8048
ag4552
aV \u2014
p8049
aV David
p8050
aV Sarita
p8051
aV Sarita
p8052
aV Sarita
p8053
aV David
p8054
ag4552
ag129
ag129
ag129
ag129
aV Matthew
p8055
aV Matthew
p8056
aV Matthew
p8057
aV Matthew
p8058
aV Matthew
p8059
aV Grant
p8060
aV Steve
p8061
aV Matthew
p8062
aV Grant
p8063
aV Grant
p8064
aV Grant
p8065
aV Grant
p8066
ag4552
ag129
ag129
ag129
ag129
ag129
aV Mike
p8067
aV Mike
p8068
aV Mike
p8069
aV Mike
p8070
aV Mike
p8071
aV Phillip
p8072
ag4552
aV Mike
p8073
aV Phillip
p8074
aV Phillip
p8075
aV Phillip
p8076
aV Phillip
p8077
ag129
ag129
ag129
ag129
ag129
ag129
aV David
p8078
aV David
p8079
aV David
p8080
aV David
p8081
aV David
p8082
ag4552
ag4552
aV David
p8083
aV Rob
p8084
aV Rob
p8085
aV Rob
p8086
aV Rob
p8087
ag129
ag129
ag129
ag129
ag129
ag129
aV Julie
p8088
aV Julie
p8089
aV Julie
p8090
aV Julie
p8091
aV Julie
p8092
ag4552
ag4552
aV Julie
p8093
aV Phillip
p8094
aV Phillip
p8095
aV Phillip
p8096
ag4552
ag129
ag129
ag129
ag129
ag129
ag129
aV Ralph
p8097
aV Ralph
p8098
aV Ralph
p8099
aV Ralph
p8100
aV Ralph
p8101
ag4552
ag4552
aV Ralph
p8102
aV Rob
p8103
aV Rob
p8104
ag4552
ag129
ag129
ag129
ag129
ag129
ag129
ag129
aV Steve
p8105
aV Steve
p8106
aV Steve
p8107
aV Steve
p8108
aV Steve
p8109
ag4552
ag4552
aV Steve
p8110
ag4552
aV Grant
p8111
ag129
ag129
ag129
ag129
ag129
ag129
ag129
ag129
aV Andrea
p8112
aV Andrea
p8113
aV Andrea
p8114
aV Andrea
p8115
aV Phillip
p8116
ag4552
ag4552
aV Andrea
p8117
ag4552
ag4552
ag129
ag129
ag129
ag129
ag129
ag129
ag129
ag129
aV Grant
p8118
aV Grant
p8119
aV Grant
p8120
aV Grant
p8121
ag4552
ag4552
ag4552
aV Natalie
p8122
ag4552
ag129
ag129
ag129
ag129
ag129
ag129
ag129
ag129
ag129
aV Andrea
p8123
aV Andrea
p8124
aV Andrea
p8125
aV Andrea
p8126
aV Rob
p8127
ag4552
ag4552
ag4552
ag129
ag129
ag129
ag129
ag129
ag129
ag129
ag129
ag129
ag129
ag319
ag319
ag319
ag319
ag129
ag129
ag129
ag129
ag129
ag129
ag129
ag129
ag129
ag129
ag129
ag129
ag129
ag129
ag319
ag319
ag319
ag319
ag129
ag129
ag129
ag129
ag129
ag129
ag129
ag129
ag129
ag129
ag129
ag129
ag129
ag129
ag319
ag319
ag319
ag319
ag129
ag129
ag129
ag129
aV Phillip
p8128
ag129
ag129
ag129
ag129
ag129
ag129
ag129
ag129
ag129
ag319
ag319
ag319
ag319
aV Rob
p8129
aV Rob
p8130
aV Rob
p8131
aV Rob
p8132
ag129
aV Rob
p8133
aV Rob
p8134
aV Rob
p8135
ag129
ag129
ag129
ag129
ag129
ag129
atp8136
ba(lp8137
g21
(g22
(dp8138
g24
g25
(g26
(I0
tp8139
g28
tp8140
Rp8141
(I1
(L21L
tp8142
g35
I00
(lp8143
g7881
ag7882
ag7883
ag7884
ag7885
ag7886
ag7887
ag7888
ag7889
ag7890
ag7891
ag7892
ag7893
ag7894
ag7895
ag7896
ag7897
ag7898
ag7899
ag7900
ag7901
atp8144
bsg63
Nstp8145
Rp8146
a(dp8147
g339
(dp8148
g341
g7874
sg342
(lp8149
(dp8150
g345
g346
(I0
I21
I1
tp8151
Rp8152
sg349
g7938
sasstp8153
bsbsg351
I22
ssVNicaragua
p8154
(dp8155
g3
Vhttp://survivor.wikia.com/wiki/Survivor:_Nicaragua
p8156
sg5
g6
(g7
g8
Ntp8157
Rp8158
(dp8159
g12
g13
sg14
g15
sg16
g6
(g17
g8
Ntp8160
Rp8161
((lp8162
g21
(g22
(dp8163
g24
g25
(g26
(I0
tp8164
g28
tp8165
Rp8166
(I1
(L21L
tp8167
g35
I00
(lp8168
VWendy
p8169
aVShannon
p8170
aVJimmy J.
p8171
aVJimmy T.
p8172
aVTyrone
p8173
aVKelly B.
p8174
aVKelly B.
p8175
aVYve
p8176
aVJill
p8177
aVAlina
p8178
aVMarty
p8179
aVBrenda
p8180
aVNaOnka
p8181
aVKelly S.
p8182
aVBenry
p8183
aVJane
p8184
aVDan
p8185
aVHolly
p8186
aVSash
p8187
aVChase
p8188
aVFabio
p8189
atp8190
bsg63
Nstp8191
Rp8192
ag21
(g22
(dp8193
g24
g25
(g26
(I0
tp8194
g28
tp8195
Rp8196
(I1
(L20L
tp8197
g35
I00
(lp8198
VFabio
p8199
aVChase
p8200
aVSash
p8201
aVHolly
p8202
aVDan
p8203
aVJane
p8204
aVBenry
p8205
aVKelly S.
p8206
aVNaOnka
p8207
aVBrenda
p8208
aVMarty
p8209
aVAlina
p8210
aVJill
p8211
aVYve
p8212
aVKelly B.
p8213
aVTyrone
p8214
aVJimmy T.
p8215
aVJimmy J.
p8216
aVShannon
p8217
aVWendy
p8218
atp8219
bsg63
g93
(g96
S'\x01\x00\x00\x00\x00\x00\x00\x00'
p8220
tp8221
Rp8222
stp8223
Rp8224
a(lp8225
g25
(g26
(I0
tp8226
g28
tp8227
Rp8228
(I1
(L21L
L20L
tp8229
g35
I00
(lp8230
V \u2014
p8231
aV \u2014
p8232
aV \u2014
p8233
aV Wendy
p8234
aV Wendy
p8235
aV Wendy
p8236
aV \u2014
p8237
aV \u2014
p8238
aV \u2014
p8239
aV \u2014
p8240
aV Wendy
p8241
aV \u2014
p8242
aV Wendy
p8243
aV Wendy
p8244
aV \u2014
p8245
aV Wendy
p8246
aV Wendy
p8247
aV Wendy
p8248
aV \u2014
p8249
aV Yve
p8250
aV Brenda
p8251
aV Shannon
p8252
aV Shannon
p8253
aV \u2014
p8254
aV \u2014
p8255
aV \u2014
p8256
aV Shannon
p8257
aV Shannon
p8258
aV Shannon
p8259
aV Shannon
p8260
aV \u2014
p8261
aV Brenda
p8262
aV \u2014
p8263
aV \u2014
p8264
aV Shannon
p8265
aV \u2014
p8266
aV \u2014
p8267
aV \u2014
p8268
aV Brenda
p8269
ag129
aV \u2014
p8270
aV \u2014
p8271
aV \u2014
p8272
aV Jimmy J.
p8273
aV Jimmy J.
p8274
aV Jimmy J.
p8275
aV \u2014
p8276
aV \u2014
p8277
aV \u2014
p8278
aV \u2014
p8279
aV Jimmy J.
p8280
aV \u2014
p8281
aV Jimmy J.
p8282
aV Jimmy J.
p8283
aV \u2014
p8284
aV Jimmy J.
p8285
aV Jimmy J.
p8286
aV Dan
p8287
ag129
ag129
aV \u2014
p8288
aV \u2014
p8289
aV \u2014
p8290
aV Dan
p8291
aV Jimmy T.
p8292
aV Dan
p8293
aV \u2014
p8294
aV \u2014
p8295
aV \u2014
p8296
aV \u2014
p8297
aV Jimmy T.
p8298
aV \u2014
p8299
aV Jimmy T.
p8300
aV Jimmy T.
p8301
aV \u2014
p8302
aV Jimmy T.
p8303
aV Dan
p8304
ag129
ag129
ag129
aV \u2014
p8305
aV Tyrone
p8306
ag8290
aV Tyrone
p8307
aV Tyrone
p8308
aV \u2014
p8309
aV Tyrone
p8310
aV \u2014
p8311
aV Tyrone
p8312
aV \u2014
p8313
aV \u2014
p8314
aV Tyrone
p8315
aV \u2014
p8316
aV NaOnka
p8317
aV \u2014
p8318
aV NaOnka
p8319
ag129
ag129
ag129
ag129
aV Kelly B.
p8320
aV \u2014
p8321
aV Marty
p8322
aV \u2014
p8323
aV \u2014
p8324
aV Marty
p8325
aV \u2014
p8326
aV Kelly B.
p8327
aV \u2014
p8328
aV Kelly B.
p8329
aV Brenda
p8330
aV \u2014
p8331
aV Brenda
p8332
aV \u2014
p8333
aV Marty
p8334
ag129
ag129
ag129
ag129
ag129
aV Kelly B.
p8335
ag8321
aV Kelly B.
p8336
ag8323
ag8324
aV Marty
p8337
ag8326
aV Kelly B.
p8338
ag8328
aV Kelly B.
p8339
aVNone
p8340
ag8331
aV Kelly B.
p8341
ag8333
aVNone
p8342
ag129
ag129
ag129
ag129
ag129
aV \u2014
p8343
aV Yve
p8344
aV \u2014
p8345
aV Yve
p8346
aV Yve
p8347
aV \u2014
p8348
aV Yve
p8349
aV \u2014
p8350
aV Yve
p8351
aV \u2014
p8352
aV \u2014
p8353
aV Yve
p8354
aV \u2014
p8355
aV Dan
p8356
ag129
ag129
ag129
ag129
ag129
ag129
aV Marty
p8357
aV \u2014
p8358
aV Jill
p8359
aV \u2014
p8360
aV \u2014
p8361
aV Marty
p8362
aV \u2014
p8363
aV Jill
p8364
aV \u2014
p8365
aV Jill
p8366
aV Jane
p8367
aV \u2014
p8368
aV Jane
p8369
ag129
ag129
ag129
ag129
ag129
ag129
ag129
aV Alina
p8370
aV Alina
p8371
aV Alina
p8372
aV Alina
p8373
aV Alina
p8374
aV Marty
p8375
aV Alina
p8376
aV Alina
p8377
aV Alina
p8378
aV Alina
p8379
aV Alina
p8380
aV Marty
p8381
ag129
ag129
ag129
ag129
ag129
ag129
ag129
ag129
aV Jane
p8382
aV Marty
p8383
aV Marty
p8384
aV Marty
p8385
aV Jane
p8386
aV Marty
p8387
aV Jane
p8388
aV Marty
p8389
aV Marty
p8390
aV Marty
p8391
aV Jane
p8392
ag129
ag129
ag129
ag129
ag129
ag129
ag129
ag129
ag129
aV Brenda
p8393
aV Brenda
p8394
aV Brenda
p8395
aV Brenda
p8396
aV Brenda
p8397
aV Brenda
p8398
aV Brenda
p8399
aV Benry
p8400
aV Brenda
p8401
aV NaOnka
p8402
ag129
ag129
ag129
ag129
ag129
ag129
ag129
ag129
ag129
ag129
aV \u2014
p8403
aV \u2014
p8404
aV \u2014
p8405
aV \u2014
p8406
aV \u2014
p8407
aV \u2014
p8408
aV \u2014
p8409
aVQuit
p8410
aVQuit
p8411
ag129
ag129
ag129
ag129
ag129
ag129
ag129
ag129
ag129
ag129
ag129
ag8403
ag8404
ag8405
ag8406
ag8407
ag8408
ag8409
ag8410
ag8411
ag129
ag129
ag129
ag129
ag129
ag129
ag129
ag129
ag129
ag129
ag129
aV Holly
p8412
aV Benry
p8413
aV Benry
p8414
aV Benry
p8415
aV Fabio
p8416
aV Benry
p8417
aV Fabio
p8418
ag129
ag129
ag129
ag129
ag129
ag129
ag129
ag129
ag129
ag129
ag129
ag129
ag129
aV Jane
p8419
aV Jane
p8420
aV Jane
p8421
aV Jane
p8422
aV Jane
p8423
aV Sash
p8424
ag129
ag129
ag129
ag129
ag129
ag129
ag129
ag129
ag129
ag129
ag129
ag129
ag129
ag129
aV Dan
p8425
aV Dan
p8426
aV Dan
p8427
aV Dan
p8428
aV Chase
p8429
ag129
ag129
ag129
ag129
ag129
ag129
ag129
ag129
ag129
ag129
ag129
ag129
ag129
ag129
ag129
aV Holly
p8430
aV Holly
p8431
aV Holly
p8432
aV Sash
p8433
ag129
ag129
ag129
ag129
ag129
ag129
ag129
ag129
ag129
ag129
ag129
ag129
ag129
ag129
ag129
ag129
ag319
ag319
ag319
ag129
ag129
ag129
ag129
ag129
ag129
ag129
ag129
ag129
ag129
ag129
ag129
ag129
ag129
ag129
ag129
ag129
ag319
ag319
ag319
aV Chase
p8434
ag129
aV Chase
p8435
ag129
ag129
ag129
aV Chase
p8436
ag129
aV Chase
p8437
ag129
ag129
ag129
ag129
ag129
ag129
ag129
ag129
ag319
ag319
ag319
ag129
aV Fabio
p8438
ag129
aV Fabio
p8439
aV Fabio
p8440
aV Fabio
p8441
ag129
aV Fabio
p8442
ag129
ag129
ag129
ag129
ag129
ag129
ag129
ag129
ag129
atp8443
ba(lp8444
g21
(g22
(dp8445
g24
g25
(g26
(I0
tp8446
g28
tp8447
Rp8448
(I1
(L21L
tp8449
g35
I00
(lp8450
g8169
ag8170
ag8171
ag8172
ag8173
ag8174
ag8175
ag8176
ag8177
ag8178
ag8179
ag8180
ag8181
ag8182
ag8183
ag8184
ag8185
ag8186
ag8187
ag8188
ag8189
atp8451
bsg63
Nstp8452
Rp8453
a(dp8454
g339
(dp8455
g341
g8162
sg342
(lp8456
(dp8457
g345
g346
(I0
I21
I1
tp8458
Rp8459
sg349
g8228
sasstp8460
bsbsg351
I21
ss.