(dp0
VPalau
p1
(dp2
S'url'
p3
Vhttp://survivor.wikia.com/wiki/Survivor:_Palau
p4
sS'votes'
p5
ccopy_reg
_reconstructor
p6
(cpandas.core.frame
DataFrame
p7
c__builtin__
object
p8
Ntp9
Rp10
(dp11
S'_metadata'
p12
(lp13
sS'_typ'
p14
S'dataframe'
p15
sS'_data'
p16
g6
(cpandas.core.internals
BlockManager
p17
g8
Ntp18
Rp19
((lp20
cpandas.core.index
_new_Index
p21
(cpandas.core.index
Index
p22
(dp23
S'data'
p24
cnumpy.core.multiarray
_reconstruct
p25
(cnumpy
ndarray
p26
(I0
tp27
S'b'
p28
tp29
Rp30
(I1
(L23L
tp31
cnumpy
dtype
p32
(S'O8'
p33
I0
I1
tp34
Rp35
(I3
S'|'
p36
NNNI-1
I-1
I63
tp37
bI00
(lp38
VJonathan
p39
aVWanda
p40
aVJolanda
p41
aVAshlee
p42
aVJeff
p43
aVKim
p44
aVWillard
p45
aVAngie
p46
aVAngie
p47
aVJames
p48
aVJames
p49
aVIbrehem
p50
aVBobby Jon
p51
aVCoby
p52
aVJanu
p53
aVStephenie
p54
aVGregg
p55
aVCaryn
p56
aVJenn
p57
aVJenn
p58
aVIan
p59
aVKatie
p60
aVTom
p61
atp62
bsS'name'
p63
Nstp64
Rp65
ag21
(g22
(dp66
g24
g25
(g26
(I0
tp67
g28
tp68
Rp69
(I1
(L20L
tp70
g35
I00
(lp71
VTom
p72
aVKatie
p73
aVIan
p74
aVJenn
p75
aVCaryn
p76
aVGregg
p77
aVStephenie
p78
aVJanu
p79
aVCoby
p80
aVBobby Jon
p81
aVIbrehem
p82
aVJames
p83
aVAngie
p84
aVWillard
p85
aVKim
p86
aVJeff
p87
aVAshlee
p88
aVJolanda
p89
aVWanda
p90
aVJonathan
p91
atp92
bsg63
cnumpy.core.multiarray
scalar
p93
(g32
(S'i8'
p94
I0
I1
tp95
Rp96
(I3
S'<'
p97
NNNI-1
I-1
I0
tp98
bS'\x01\x00\x00\x00\x00\x00\x00\x00'
p99
tp100
Rp101
stp102
Rp103
a(lp104
g25
(g26
(I0
tp105
g28
tp106
Rp107
(I1
(L23L
L20L
tp108
g35
I00
(lp109
V \u2014
p110
aV \u2014
p111
aV \u2014
p112
aV\u2014
p113
aV \u2014
p114
aV\u2014
p115
aV \u2014
p116
aV \u2014
p117
aV \u2014
p118
aV \u2014
p119
aV \u2014
p120
aV \u2014
p121
aV \u2014
p122
aV\u2014
p123
aV \u2014
p124
aV \u2014
p125
aV \u2014
p126
aV \u2014
p127
aVEliminated
p128
aV
p129
ag110
ag111
ag112
ag113
ag114
ag115
ag116
ag117
ag118
ag119
ag120
ag121
ag122
ag123
ag124
ag125
ag126
ag127
ag128
ag129
aV \u2014
p130
aV \u2014
p131
aV \u2014
p132
aV \u2014
p133
aV \u2014
p134
aV \u2014
p135
aV Jolanda
p136
aV \u2014
p137
aV \u2014
p138
aV Angie
p139
aV Angie
p140
aV Jolanda
p141
aV Jolanda
p142
aV \u2014
p143
aV Jolanda
p144
aV Jolanda
p145
aV Jolanda
p146
aV Angie
p147
ag129
ag129
aV \u2014
p148
aV \u2014
p149
aV \u2014
p150
aV \u2014
p151
aV \u2014
p152
aV \u2014
p153
aV Ashlee
p154
aV \u2014
p155
aV \u2014
p156
aV Ashlee
p157
aV Kim
p158
aV Ashlee
p159
aV Ashlee
p160
aV \u2014
p161
aV Ashlee
p162
aV Ashlee
p163
aV Jeff
p164
ag129
ag129
ag129
aV \u2014
p165
aV \u2014
p166
aV \u2014
p167
aV \u2014
p168
aV \u2014
p169
aV \u2014
p170
aV Jeff
p171
aV \u2014
p172
aV \u2014
p173
aV Kim
p174
aV Jeff
p175
aV Kim
p176
aV Jeff
p177
aV \u2014
p178
aV Jeff
p179
aV James
p180
ag129
ag129
ag129
ag129
aV \u2014
p181
aV \u2014
p182
aV \u2014
p183
aV \u2014
p184
aV \u2014
p185
aV \u2014
p186
aV Kim
p187
aV \u2014
p188
aV \u2014
p189
aV Kim
p190
aV Kim
p191
aV Kim
p192
aV Kim
p193
aV \u2014
p194
aV James
p195
ag129
ag129
ag129
ag129
ag129
aV Willard
p196
aV Willard
p197
aV Willard
p198
aV Willard
p199
aV Willard
p200
aV Willard
p201
aV \u2014
p202
aV Willard
p203
aV Willard
p204
aV \u2014
p205
aV \u2014
p206
aV \u2014
p207
aV \u2014
p208
aV Katie
p209
ag129
ag129
ag129
ag129
ag129
ag129
aV \u2014
p210
aV \u2014
p211
aV \u2014
p212
aV \u2014
p213
aV\u2014
p214
aV \u2014
p215
aV Bobby Jon
p216
aV \u2014
p217
aV \u2014
p218
aV Angie
p219
aV James
p220
aV Angie
p221
aV Bobby Jon
p222
ag129
ag129
ag129
ag129
ag129
ag129
ag129
ag210
ag211
ag212
ag213
ag214
ag215
aV Angie
p223
ag217
ag218
aVNone
p224
aV Angie
p225
aV Angie
p226
aVNone 
p227
ag129
ag129
ag129
ag129
ag129
ag129
ag129
aV \u2014
p228
aV \u2014
p229
aV \u2014
p230
aV \u2014
p231
aV \u2014
p232
aV \u2014
p233
aV Ibrehem
p234
aV \u2014
p235
aV \u2014
p236
aV James
p237
aV James
p238
aV Ibrehem
p239
ag129
ag129
ag129
ag129
ag129
ag129
ag129
ag129
aV \u2014
p240
aV \u2014
p241
aV \u2014
p242
aV \u2014
p243
aV \u2014
p244
aV \u2014
p245
aV James
p246
aV \u2014
p247
aV \u2014
p248
aV James
p249
aVNone
p250
aVNone
p251
ag129
ag129
ag129
ag129
ag129
ag129
ag129
ag129
aV \u2014
p252
aV \u2014
p253
aV \u2014
p254
aV \u2014
p255
aV \u2014
p256
aV \u2014
p257
aV Ibrehem
p258
aV \u2014
p259
aV \u2014
p260
aV Ibrehem
p261
aV Stephenie
p262
ag129
ag129
ag129
ag129
ag129
ag129
ag129
ag129
ag129
aV \u2014
p263
aV \u2014
p264
aV \u2014
p265
aV \u2014
p266
aV \u2014
p267
aV \u2014
p268
aV \u2014
p269
aV \u2014
p270
aV \u2014
p271
aVEliminated
p272
ag129
ag129
ag129
ag129
ag129
ag129
ag129
ag129
ag129
ag129
aV Coby
p273
aV Coby
p274
aV Coby
p275
aV Coby
p276
aV Coby
p277
aV Coby
p278
aV Coby
p279
aV Stephenie
p280
aV Janu
p281
ag129
ag129
ag129
ag129
ag129
ag129
ag129
ag129
ag129
ag129
ag129
aV \u2014
p282
aV \u2014
p283
aV \u2014
p284
aV \u2014
p285
aV \u2014
p286
aV \u2014
p287
aV \u2014
p288
aVQuit
p289
ag129
ag129
ag129
ag129
ag129
ag129
ag129
ag129
ag129
ag129
ag129
ag129
aV Stephenie
p290
aV Stephenie
p291
aV Stephenie
p292
aV Stephenie
p293
aV Stephenie
p294
aV Stephenie
p295
aV Caryn
p296
ag129
ag129
ag129
ag129
ag129
ag129
ag129
ag129
ag129
ag129
ag129
ag129
ag129
aV Gregg
p297
aV Gregg
p298
aV Gregg
p299
aV Caryn
p300
aV Gregg
p301
aV Caryn
p302
ag129
ag129
ag129
ag129
ag129
ag129
ag129
ag129
ag129
ag129
ag129
ag129
ag129
ag129
aV Caryn
p303
aV Caryn
p304
aV Caryn
p305
aV Caryn
p306
aV Ian
p307
ag129
ag129
ag129
ag129
ag129
ag129
ag129
ag129
ag129
ag129
ag129
ag129
ag129
ag129
ag129
aV Ian
p308
aV Jenn
p309
aV Jenn
p310
aV Ian
p311
ag129
ag129
ag129
ag129
ag129
ag129
ag129
ag129
ag129
ag129
ag129
ag129
ag129
ag129
ag129
ag129
aV Ian
p312
aV Jenn
p313
aVNone
p314
aVNone
p315
ag129
ag129
ag129
ag129
ag129
ag129
ag129
ag129
ag129
ag129
ag129
ag129
ag129
ag129
ag129
ag129
aV Ian
p316
aV \u2014
p317
aV \u2014
p318
ag129
ag129
ag129
ag129
ag129
ag129
ag129
ag129
ag129
ag129
ag129
ag129
ag129
ag129
ag129
ag129
ag129
aS'Jury Vote'
p319
ag319
ag129
ag129
ag129
ag129
ag129
ag129
aV Katie
p320
ag129
ag129
ag129
ag129
ag129
ag129
ag129
ag129
ag129
ag129
aNag319
ag319
aV Tom
p321
aV Tom
p322
aV Tom
p323
aV Tom
p324
aV Tom
p325
aV Tom
p326
ag129
ag129
ag129
ag129
ag129
ag129
ag129
ag129
ag129
ag129
ag129
aNatp327
ba(lp328
g21
(g22
(dp329
g24
g25
(g26
(I0
tp330
g28
tp331
Rp332
(I1
(L23L
tp333
g35
I00
(lp334
g39
ag40
ag41
ag42
ag43
ag44
ag45
ag46
ag47
ag48
ag49
ag50
ag51
ag52
ag53
ag54
ag55
ag56
ag57
ag58
ag59
ag60
ag61
atp335
bsg63
Nstp336
Rp337
a(dp338
S'0.14.1'
p339
(dp340
S'axes'
p341
g20
sS'blocks'
p342
(lp343
(dp344
S'mgr_locs'
p345
c__builtin__
slice
p346
(I0
I23
I1
tp347
Rp348
sS'values'
p349
g107
sasstp350
bsbssVTocantins
p351
(dp352
g3
Vhttp://survivor.wikia.com/wiki/Survivor:_Tocantins
p353
sg5
g6
(g7
g8
Ntp354
Rp355
(dp356
g12
g13
sg14
g15
sg16
g6
(g17
g8
Ntp357
Rp358
((lp359
g21
(g22
(dp360
g24
g25
(g26
(I0
tp361
g28
tp362
Rp363
(I1
(L16L
tp364
g35
I00
(lp365
VCarolina
p366
aVCandace
p367
aVJerry
p368
aVSandy
p369
aVSpencer
p370
aVSydney
p371
aVJoe
p372
aVBrendan
p373
aVTyson
p374
aVSierra
p375
aVDebbie
p376
aVCoach
p377
aVTaj
p378
aVErinn
p379
aVStephen
p380
aVJ.T.
p381
atp382
bsg63
Nstp383
Rp384
ag21
(g22
(dp385
g24
g25
(g26
(I0
tp386
g28
tp387
Rp388
(I1
(L16L
tp389
g35
I00
(lp390
VJ.T.
p391
aVStephen
p392
aVErinn
p393
aVTaj
p394
aVCoach
p395
aVDebbie
p396
aVSierra
p397
aVTyson
p398
aVBrendan
p399
aVJoe
p400
aVSydney
p401
aVSpencer
p402
aVSandy
p403
aVJerry
p404
aVCandace
p405
aVCarolina
p406
atp407
bsg63
g93
(g96
S'\x01\x00\x00\x00\x00\x00\x00\x00'
p408
tp409
Rp410
stp411
Rp412
a(lp413
g25
(g26
(I0
tp414
g28
tp415
Rp416
(I1
(L16L
L16L
tp417
g35
I00
(lp418
V Carolina
p419
aV Carolina
p420
aV \u2014
p421
aV Carolina
p422
aV \u2014
p423
aV \u2014
p424
aV \u2014
p425
aV \u2014
p426
aV \u2014
p427
aV Carolina
p428
aV Carolina
p429
aV Carolina
p430
aV Carolina
p431
aV \u2014
p432
aV \u2014
p433
aV Sandy
p434
aV \u2014
p435
aV \u2014
p436
aV Candace
p437
aV \u2014
p438
aV Candace
p439
aV Candace
p440
aV Candace
p441
aV Candace
p442
aV Candace
p443
aV \u2014
p444
aV \u2014
p445
aV \u2014
p446
aV \u2014
p447
aV Candace
p448
aV Sierra
p449
ag129
aV \u2014
p450
aV \u2014
p451
aV Jerry
p452
aV \u2014
p453
aV Jerry
p454
aV Jerry
p455
aV Jerry
p456
aV Jerry
p457
aV Jerry
p458
aV \u2014
p459
aV \u2014
p460
aV \u2014
p461
aV \u2014
p462
aV Erinn
p463
ag129
ag129
aV Sandy
p464
aV Sandy
p465
aV \u2014
p466
aV Joe
p467
aV \u2014
p468
aV \u2014
p469
aV \u2014
p470
aV \u2014
p471
aV \u2014
p472
aV Sandy
p473
aV Sandy
p474
aV Sandy
p475
aV Sydney
p476
ag129
ag129
ag129
aV Spencer
p477
aV Spencer
p478
aV \u2014
p479
aV Spencer
p480
aV \u2014
p481
aV \u2014
p482
aV \u2014
p483
aV \u2014
p484
aV \u2014
p485
aV Spencer
p486
aV Spencer
p487
aV Taj
p488
ag129
ag129
ag129
ag129
aV Sydney
p489
aV Sydney
p490
aV \u2014
p491
aV Sydney
p492
aV \u2014
p493
aV \u2014
p494
aV \u2014
p495
aV \u2014
p496
aV \u2014
p497
aV Taj
p498
aV Taj
p499
ag129
ag129
ag129
ag129
ag129
aV \u2014
p500
aV \u2014
p501
aV \u2014
p502
aV \u2014
p503
aV \u2014
p504
aV \u2014
p505
aV \u2014
p506
aV \u2014
p507
aV \u2014
p508
aVEvacuated
p509
ag129
ag129
ag129
ag129
ag129
ag129
aV Sierra
p510
aV Brendan
p511
aV Sierra
p512
aV Brendan
p513
aV Brendan
p514
aV Brendan
p515
aV Coach
p516
aV Sierra
p517
aV Coach
p518
ag129
ag129
ag129
ag129
ag129
ag129
ag129
aV Tyson
p519
aV Tyson
p520
aV Tyson
p521
aV Tyson
p522
aV Sierra
p523
aV Sierra
p524
aV Tyson
p525
aV Sierra
p526
ag129
ag129
ag129
ag129
ag129
ag129
ag129
ag129
aV Sierra
p527
aV Sierra
p528
aV Stephen
p529
aV Debbie
p530
aV Sierra
p531
aV Sierra
p532
aV Debbie
p533
ag129
ag129
ag129
ag129
ag129
ag129
ag129
ag129
ag129
aV Debbie
p534
aV Debbie
p535
aV Debbie
p536
aV Debbie
p537
aV Taj
p538
aV Coach
p539
ag129
ag129
ag129
ag129
ag129
ag129
ag129
ag129
ag129
ag129
aV Erinn
p540
aV Coach
p541
aV Coach
p542
aV Coach
p543
aV Erinn
p544
ag129
ag129
ag129
ag129
ag129
ag129
ag129
ag129
ag129
ag129
ag129
aV Taj
p545
aV Taj
p546
aV Taj
p547
aV Erinn
p548
ag129
ag129
ag129
ag129
ag129
ag129
ag129
ag129
ag129
ag129
ag129
ag129
aV Erinn
p549
aV \u2014
p550
aV \u2014
p551
ag129
ag129
ag129
ag129
ag129
ag129
ag129
ag129
ag129
ag129
ag129
ag129
ag129
ag319
ag319
ag129
ag129
ag129
ag129
ag129
ag129
ag129
ag129
ag129
ag129
ag129
ag129
ag129
ag129
ag319
ag319
aV J.T.
p552
aV J.T.
p553
aV J.T.
p554
aV J.T.
p555
aV J.T.
p556
aV J.T.
p557
aV J.T.
p558
ag129
ag129
ag129
ag129
ag129
ag129
ag129
atp559
ba(lp560
g21
(g22
(dp561
g24
g25
(g26
(I0
tp562
g28
tp563
Rp564
(I1
(L16L
tp565
g35
I00
(lp566
g366
ag367
ag368
ag369
ag370
ag371
ag372
ag373
ag374
ag375
ag376
ag377
ag378
ag379
ag380
ag381
atp567
bsg63
Nstp568
Rp569
a(dp570
g339
(dp571
g341
g359
sg342
(lp572
(dp573
g345
g346
(I0
I16
I1
tp574
Rp575
sg349
g416
sasstp576
bsbssVBorneo
p577
(dp578
g3
Vhttp://survivor.wikia.com/wiki/Survivor:_Borneo
p579
sg5
g6
(g7
g8
Ntp580
Rp581
(dp582
g12
g13
sg14
g15
sg16
g6
(g17
g8
Ntp583
Rp584
((lp585
g21
(g22
(dp586
g24
g25
(g26
(I0
tp587
g28
tp588
Rp589
(I1
(L17L
tp590
g35
I00
(lp591
VSonja
p592
aVB.B.
p593
aVStacey
p594
aVRamona
p595
aVDirk
p596
aVJoel
p597
aVGretchen
p598
aVGreg
p599
aVJenna
p600
aVGervase
p601
aVColleen
p602
aVSean
p603
aVSusan
p604
aVSusan
p605
aVRudy
p606
aVKelly
p607
aVRichard
p608
atp609
bsg63
Nstp610
Rp611
ag21
(g22
(dp612
g24
g25
(g26
(I0
tp613
g28
tp614
Rp615
(I1
(L16L
tp616
g35
I00
(lp617
VRichard
p618
aVKelly
p619
aVRudy
p620
aVSusan
p621
aVSean
p622
aVColleen
p623
aVGervase
p624
aVJenna
p625
aVGreg
p626
aVGretchen
p627
aVJoel
p628
aVDirk
p629
aVRamona
p630
aVStacey
p631
aVB.B.
p632
aVSonja
p633
atp634
bsg63
g93
(g96
S'\x01\x00\x00\x00\x00\x00\x00\x00'
p635
tp636
Rp637
stp638
Rp639
a(lp640
g25
(g26
(I0
tp641
g28
tp642
Rp643
(I1
(L17L
L16L
tp644
g35
I00
(lp645
V Stacey
p646
aV Rudy
p647
aV Sonja
p648
aV Sonja
p649
aV Sonja
p650
aV \u2014
p651
aV \u2014
p652
aV \u2014
p653
aV \u2014
p654
aV \u2014
p655
aV \u2014
p656
aV Sonja
p657
aV \u2014
p658
aV Rudy
p659
aV \u2014
p660
aV Rudy
p661
aV \u2014
p662
aV \u2014
p663
aV \u2014
p664
aV \u2014
p665
aV \u2014
p666
aV B.B.
p667
aV B.B.
p668
aV B.B.
p669
aV Ramona
p670
aV B.B.
p671
aV B.B.
p672
aV \u2014
p673
aV B.B.
p674
aV \u2014
p675
aV Ramona
p676
ag129
aV Stacey
p677
aV Rudy
p678
aV Stacey
p679
aV Stacey
p680
aV Stacey
p681
aV \u2014
p682
aV \u2014
p683
aV \u2014
p684
aV \u2014
p685
aV \u2014
p686
aV \u2014
p687
aV Stacey
p688
aV \u2014
p689
aV Rudy
p690
ag129
ag129
aV \u2014
p691
aV \u2014
p692
aV \u2014
p693
aV \u2014
p694
aV \u2014
p695
aV Ramona
p696
aV Colleen
p697
aV Ramona
p698
aV Jenna
p699
aV Ramona
p700
aV Ramona
p701
aV \u2014
p702
aV Colleen
p703
ag129
ag129
ag129
aV Dirk
p704
aV Dirk
p705
aV Dirk
p706
aV Dirk
p707
aV Rudy
p708
aV \u2014
p709
aV \u2014
p710
aV \u2014
p711
aV \u2014
p712
aV \u2014
p713
aV \u2014
p714
aV Susan
p715
ag129
ag129
ag129
ag129
aV \u2014
p716
aV \u2014
p717
aV \u2014
p718
aV \u2014
p719
aV \u2014
p720
aV Joel
p721
aV Jenna
p722
aV Joel
p723
aV Joel
p724
aV Joel
p725
aV Jenna
p726
ag129
ag129
ag129
ag129
ag129
aV Gretchen
p727
aV Gretchen
p728
aV Gretchen
p729
aV Gretchen
p730
aV Colleen
p731
aV Richard
p732
aV Susan
p733
aV Gervase
p734
aV Jenna
p735
aV Rudy
p736
ag129
ag129
ag129
ag129
ag129
ag129
aV Greg
p737
aV Greg
p738
aV Greg
p739
aV Greg
p740
aV Greg
p741
aV Jenna
p742
aV Jenna
p743
aV Greg
p744
aV Jenna
p745
ag129
ag129
ag129
ag129
ag129
ag129
ag129
aV Jenna
p746
aV Sean
p747
aV Jenna
p748
aV Jenna
p749
aV Jenna
p750
aV Richard
p751
aV Richard
p752
aV Richard
p753
ag129
ag129
ag129
ag129
ag129
ag129
ag129
ag129
aV Gervase
p754
aV Gervase
p755
aV Gervase
p756
aV Gervase
p757
aV Gervase
p758
aV Sean
p759
aV Sean
p760
ag129
ag129
ag129
ag129
ag129
ag129
ag129
ag129
ag129
aV Colleen
p761
aV Sean
p762
aV Colleen
p763
aV Colleen
p764
aV Colleen
p765
aV Sean
p766
ag129
ag129
ag129
ag129
ag129
ag129
ag129
ag129
ag129
ag129
aV Sean
p767
aV Sean
p768
aV Sean
p769
aV Sean
p770
aV Susan
p771
ag129
ag129
ag129
ag129
ag129
ag129
ag129
ag129
ag129
ag129
ag129
aV Susan
p772
aV Richard
p773
aV Susan
p774
aV Richard
p775
ag129
ag129
ag129
ag129
ag129
ag129
ag129
ag129
ag129
ag129
ag129
ag129
aVNone
p776
aV Susan
p777
aV Susan
p778
aVNone 
p779
ag129
ag129
ag129
ag129
ag129
ag129
ag129
ag129
ag129
ag129
ag129
ag129
aV \u2014
p780
aV Rudy
p781
aV \u2014
p782
ag129
ag129
ag129
ag129
ag129
ag129
ag129
ag129
ag129
ag129
ag129
ag129
ag129
ag319
ag319
ag129
ag129
ag129
aV Kelly
p783
aV Kelly
p784
aV Kelly
p785
ag129
ag129
ag129
ag129
ag129
ag129
ag129
ag129
ag319
ag319
aV Richard
p786
aV Richard
p787
aV Richard
p788
ag129
ag129
ag129
aV Richard
p789
ag129
ag129
ag129
ag129
ag129
ag129
ag129
atp790
ba(lp791
g21
(g22
(dp792
g24
g25
(g26
(I0
tp793
g28
tp794
Rp795
(I1
(L17L
tp796
g35
I00
(lp797
g592
ag593
ag594
ag595
ag596
ag597
ag598
ag599
ag600
ag601
ag602
ag603
ag604
ag605
ag606
ag607
ag608
atp798
bsg63
Nstp799
Rp800
a(dp801
g339
(dp802
g341
g585
sg342
(lp803
(dp804
g345
g346
(I0
I17
I1
tp805
Rp806
sg349
g643
sasstp807
bsbssVHeroes_vs._Villains
p808
(dp809
g3
Vhttp://survivor.wikia.com/wiki/Survivor:_Heroes_vs._Villains
p810
sg5
g6
(g7
g8
Ntp811
Rp812
(dp813
g12
g13
sg14
g15
sg16
g6
(g17
g8
Ntp814
Rp815
((lp816
g21
(g22
(dp817
g24
g25
(g26
(I0
tp818
g28
tp819
Rp820
(I1
(L20L
tp821
g35
I00
(lp822
VSugar
p823
aVStephenie
p824
aVRandy
p825
aVCirie
p826
aVTom
p827
aVTyson
p828
aVJames
p829
aVRob
p830
aVCoach
p831
aVCourtney
p832
aVJ.T.
p833
aVAmanda
p834
aVCandice
p835
aVDanielle
p836
aVRupert
p837
aVColby
p838
aVJerri
p839
aVRussell
p840
aVParvati
p841
aVSandra
p842
atp843
bsg63
Nstp844
Rp845
ag21
(g22
(dp846
g24
g25
(g26
(I0
tp847
g28
tp848
Rp849
(I1
(L20L
tp850
g35
I00
(lp851
VSandra
p852
aVParvati
p853
aVRussell
p854
aVJerri
p855
aVColby
p856
aVRupert
p857
aVDanielle
p858
aVCandice
p859
aVAmanda
p860
aVJ.T.
p861
aVCourtney
p862
aVCoach
p863
aVRob
p864
aVJames
p865
aVTyson
p866
aVTom
p867
aVCirie
p868
aVRandy
p869
aVStephenie
p870
aVSugar
p871
atp872
bsg63
g93
(g96
S'\x01\x00\x00\x00\x00\x00\x00\x00'
p873
tp874
Rp875
stp876
Rp877
a(lp878
g25
(g26
(I0
tp879
g28
tp880
Rp881
(I1
(L20L
L20L
tp882
g35
I00
(lp883
V \u2014
p884
aV \u2014
p885
aV \u2014
p886
aV \u2014
p887
aV Sugar
p888
aV Sugar
p889
aV \u2014
p890
aV Sugar
p891
aV Sugar
p892
aV Sugar
p893
aV \u2014
p894
aV \u2014
p895
aV \u2014
p896
aV Sugar
p897
aV \u2014
p898
aV Sugar
p899
aV Sugar
p900
aV \u2014
p901
aV Sugar
p902
aV Amanda
p903
aV \u2014
p904
aV \u2014
p905
aV \u2014
p906
aV \u2014
p907
aV Amanda
p908
aV Stephenie
p909
aV \u2014
p910
aV Stephenie
p911
aV Stephenie
p912
aV Stephenie
p913
aV \u2014
p914
aV \u2014
p915
aV \u2014
p916
aV Stephenie
p917
aV \u2014
p918
aV Amanda
p919
aV Stephenie
p920
aV \u2014
p921
aV Amanda
p922
ag129
aV Randy
p923
aV Randy
p924
aV Randy
p925
aV Randy
p926
aV \u2014
p927
aV \u2014
p928
aV Randy
p929
aV \u2014
p930
aV \u2014
p931
aV \u2014
p932
aV Randy
p933
aV Randy
p934
aV Randy
p935
aV \u2014
p936
aV Randy
p937
aV \u2014
p938
aV \u2014
p939
aV Rob
p940
ag129
ag129
aV \u2014
p941
aV \u2014
p942
aV \u2014
p943
aV \u2014
p944
aV Cirie
p945
aV Colby
p946
aV \u2014
p947
aV Tom
p948
aV Tom
p949
aV Cirie
p950
aV \u2014
p951
aV \u2014
p952
aV \u2014
p953
aV Colby
p954
aV \u2014
p955
aV Cirie
p956
aV Tom
p957
ag129
ag129
ag129
aV \u2014
p958
aV \u2014
p959
aV \u2014
p960
aV \u2014
p961
aV James
p962
aV Tom
p963
aV \u2014
p964
aV Tom
p965
aV Tom
p966
aV Tom
p967
aV \u2014
p968
aV \u2014
p969
aV \u2014
p970
aV Tom
p971
aV \u2014
p972
aV James
p973
ag129
ag129
ag129
ag129
aV Russell
p974
aV Tyson
p975
aV Tyson
p976
aV Parvati
p977
aV \u2014
p978
aV \u2014
p979
aV Tyson
p980
aV \u2014
p981
aV \u2014
p982
aV \u2014
p983
aV Parvati
p984
aV Parvati
p985
aV Russell
p986
aV \u2014
p987
aV Parvati
p988
ag129
ag129
ag129
ag129
ag129
aV \u2014
p989
aV \u2014
p990
aV \u2014
p991
aV \u2014
p992
aV James
p993
aV James
p994
aV \u2014
p995
aV James
p996
aV James
p997
aV James
p998
aV \u2014
p999
aV \u2014
p1000
aV \u2014
p1001
aV Colby
p1002
ag129
ag129
ag129
ag129
ag129
ag129
aV Russell
p1003
aV Rob
p1004
aV Rob
p1005
aV Rob
p1006
aV \u2014
p1007
aV \u2014
p1008
aV Rob
p1009
aV \u2014
p1010
aV \u2014
p1011
aV \u2014
p1012
aV Russell
p1013
aV Courtney
p1014
aV Russell
p1015
ag129
ag129
ag129
ag129
ag129
ag129
ag129
aV Coach
p1016
aV Coach
p1017
aV Courtney
p1018
aV Courtney
p1019
aV \u2014
p1020
aV \u2014
p1021
aV Coach
p1022
aV \u2014
p1023
aV \u2014
p1024
aV \u2014
p1025
aV Coach
p1026
aV Courtney
p1027
ag129
ag129
ag129
ag129
ag129
ag129
ag129
ag129
aV Courtney
p1028
aV Courtney
p1029
aV Courtney
p1030
aV Courtney
p1031
aV \u2014
p1032
aV \u2014
p1033
aV Courtney
p1034
aV \u2014
p1035
aV \u2014
p1036
aV \u2014
p1037
aV Jerri
p1038
ag129
ag129
ag129
ag129
ag129
ag129
ag129
ag129
ag129
aV J.T.
p1039
aV J.T.
p1040
aV J.T.
p1041
aV J.T.
p1042
aV Jerri
p1043
aV Jerri
p1044
aV J.T.
p1045
aV Jerri
p1046
aV Jerri
p1047
aV Jerri
p1048
ag129
ag129
ag129
ag129
ag129
ag129
ag129
ag129
ag129
ag129
aV Amanda
p1049
aV Amanda
p1050
aV Amanda
p1051
aV Amanda
p1052
aV Parvati
p1053
aV Parvati
p1054
aV Amanda
p1055
aV Amanda
p1056
aV Parvati
p1057
ag129
ag129
ag129
ag129
ag129
ag129
ag129
ag129
ag129
ag129
ag129
aV Candice
p1058
aV Rupert
p1059
aV Candice
p1060
aV Candice
p1061
aV Candice
p1062
aV Candice
p1063
aV Rupert
p1064
aV Rupert
p1065
ag129
ag129
ag129
ag129
ag129
ag129
ag129
ag129
ag129
ag129
ag129
ag129
aV Rupert
p1066
aV Rupert
p1067
aV Danielle
p1068
aV Danielle
p1069
aV Danielle
p1070
aV Danielle
p1071
aV Rupert
p1072
ag129
ag129
ag129
ag129
ag129
ag129
ag129
ag129
ag129
ag129
ag129
ag129
ag129
aV Rupert
p1073
aV Rupert
p1074
aV Rupert
p1075
aV Rupert
p1076
aV Sandra
p1077
aV Sandra
p1078
ag129
ag129
ag129
ag129
ag129
ag129
ag129
ag129
ag129
ag129
ag129
ag129
ag129
ag129
aV Colby
p1079
aV Colby
p1080
aV Colby
p1081
aV Colby
p1082
aV Sandra
p1083
ag129
ag129
ag129
ag129
ag129
ag129
ag129
ag129
ag129
ag129
ag129
ag129
ag129
ag129
ag129
aV Jerri
p1084
aV Jerri
p1085
aV Jerri
p1086
aV Parvati
p1087
ag129
ag129
ag129
ag129
ag129
ag129
ag129
ag129
ag129
ag129
ag129
ag129
ag129
ag129
ag129
ag129
ag319
ag319
ag319
ag129
ag129
ag129
ag129
ag129
ag129
ag129
ag129
ag129
ag129
ag129
ag129
ag129
ag129
ag129
ag129
ag129
ag319
ag319
ag319
aV Parvati
p1088
ag129
ag129
aV Parvati
p1089
ag129
ag129
ag129
ag129
aV Parvati
p1090
ag129
ag129
ag129
ag129
ag129
ag129
ag129
ag129
ag319
ag319
ag319
ag129
aV Sandra
p1091
aV Sandra
p1092
ag129
aV Sandra
p1093
aV Sandra
p1094
aV Sandra
p1095
aV Sandra
p1096
ag129
ag129
ag129
ag129
ag129
ag129
ag129
ag129
ag129
atp1097
ba(lp1098
g21
(g22
(dp1099
g24
g25
(g26
(I0
tp1100
g28
tp1101
Rp1102
(I1
(L20L
tp1103
g35
I00
(lp1104
g823
ag824
ag825
ag826
ag827
ag828
ag829
ag830
ag831
ag832
ag833
ag834
ag835
ag836
ag837
ag838
ag839
ag840
ag841
ag842
atp1105
bsg63
Nstp1106
Rp1107
a(dp1108
g339
(dp1109
g341
g816
sg342
(lp1110
(dp1111
g345
g346
(I0
I20
I1
tp1112
Rp1113
sg349
g881
sasstp1114
bsbssVPanama
p1115
(dp1116
g3
Vhttp://survivor.wikia.com/wiki/Survivor:_Panama
p1117
sg5
g6
(g7
g8
Ntp1118
Rp1119
(dp1120
g12
g13
sg14
g15
sg16
g6
(g17
g8
Ntp1121
Rp1122
((lp1123
g21
(g22
(dp1124
g24
g25
(g26
(I0
tp1125
g28
tp1126
Rp1127
(I1
(L16L
tp1128
g35
I00
(lp1129
VTina
p1130
aVMelinda
p1131
aVMisty
p1132
aVRuth-Marie
p1133
aVBobby
p1134
aVDan
p1135
aVNick
p1136
aVAustin
p1137
aVSally
p1138
aVBruce
p1139
aVCourtney
p1140
aVShane
p1141
aVCirie
p1142
aVTerry
p1143
aVDanielle
p1144
aVAras
p1145
atp1146
bsg63
Nstp1147
Rp1148
ag21
(g22
(dp1149
g24
g25
(g26
(I0
tp1150
g28
tp1151
Rp1152
(I1
(L16L
tp1153
g35
I00
(lp1154
VAras
p1155
aVDanielle
p1156
aVTerry
p1157
aVCirie
p1158
aVShane
p1159
aVCourtney
p1160
aVBruce
p1161
aVSally
p1162
aVAustin
p1163
aVNick
p1164
aVDan
p1165
aVBobby
p1166
aVRuth-Marie
p1167
aVMisty
p1168
aVMelinda
p1169
aVTina
p1170
atp1171
bsg63
g93
(g96
S'\x01\x00\x00\x00\x00\x00\x00\x00'
p1172
tp1173
Rp1174
stp1175
Rp1176
a(lp1177
g25
(g26
(I0
tp1178
g28
tp1179
Rp1180
(I1
(L16L
L16L
tp1181
g35
I00
(lp1182
V \u2014
p1183
aV \u2014
p1184
aV \u2014
p1185
aV Tina
p1186
aV \u2014
p1187
aV \u2014
p1188
aV \u2014
p1189
aV \u2014
p1190
aV \u2014
p1191
aV \u2014
p1192
aV \u2014
p1193
aV \u2014
p1194
aV Tina
p1195
aV \u2014
p1196
aV Tina
p1197
aV Cirie
p1198
aV Melinda
p1199
aV Melinda
p1200
aV \u2014
p1201
aV Shane
p1202
aV Melinda
p1203
aV Melinda
p1204
aVExiled 
p1205
aV \u2014
p1206
aV \u2014
p1207
aV \u2014
p1208
aV \u2014
p1209
aV Melinda
p1210
aV \u2014
p1211
aV \u2014
p1212
aV Shane
p1213
ag129
aV \u2014
p1214
aV \u2014
p1215
aV Misty
p1216
aV \u2014
p1217
aV \u2014
p1218
aV \u2014
p1219
aV \u2014
p1220
aV Ruth-Marie
p1221
aV Misty
p1222
aV Misty
p1223
aV Misty
p1224
aV \u2014
p1225
aV Misty
p1226
aV Ruth-Marie
p1227
ag129
ag129
aV \u2014
p1228
aV \u2014
p1229
aV Ruth-Marie
p1230
aV \u2014
p1231
aV \u2014
p1232
aV \u2014
p1233
aV \u2014
p1234
aV Ruth-Marie
p1235
aV Ruth-Marie
p1236
aV Ruth-Marie
p1237
aV Sally
p1238
aV \u2014
p1239
aV Sally
p1240
ag129
ag129
ag129
aV Bruce
p1241
aV Bobby
p1242
aV \u2014
p1243
aV Bobby
p1244
aV Aras
p1245
aV Bobby
p1246
aV Courtney
p1247
aV \u2014
p1248
aV \u2014
p1249
aV \u2014
p1250
aV \u2014
p1251
aV Bruce
p1252
ag129
ag129
ag129
ag129
aV \u2014
p1253
aV \u2014
p1254
aV Dan
p1255
aV \u2014
p1256
aV \u2014
p1257
aV \u2014
p1258
aV \u2014
p1259
aVExiled 
p1260
aV Dan
p1261
aV Dan
p1262
aV Austin
p1263
ag129
ag129
ag129
ag129
ag129
aV Nick
p1264
aV Nick
p1265
aV Shane
p1266
aV Nick
p1267
aV Nick
p1268
aV Nick
p1269
aV Nick
p1270
aV Shane
p1271
aV Shane
p1272
aV Shane
p1273
ag129
ag129
ag129
ag129
ag129
ag129
aV Austin
p1274
aV Austin
p1275
aV Aras
p1276
aV Austin
p1277
aV Austin
p1278
aV Austin
p1279
aV Austin
p1280
aV Aras
p1281
aV Aras
p1282
ag129
ag129
ag129
ag129
ag129
ag129
ag129
aV Sally
p1283
aV Sally
p1284
aV Aras
p1285
aV Sally
p1286
aV Sally
p1287
aV Sally
p1288
aV Sally
p1289
aV Aras
p1290
ag129
ag129
ag129
ag129
ag129
ag129
ag129
ag129
aV \u2014
p1291
aV \u2014
p1292
aV \u2014
p1293
aV \u2014
p1294
aV \u2014
p1295
aV \u2014
p1296
aVEvacuated
p1297
ag129
ag129
ag129
ag129
ag129
ag129
ag129
ag129
ag129
aV Courtney
p1298
aV Courtney
p1299
aV Aras
p1300
aV Courtney
p1301
aV Danielle
p1302
aV Aras
p1303
ag129
ag129
ag129
ag129
ag129
ag129
ag129
ag129
ag129
ag129
aV Shane
p1304
aV Shane
p1305
aV Aras
p1306
aV Shane
p1307
aV Danielle
p1308
ag129
ag129
ag129
ag129
ag129
ag129
ag129
ag129
ag129
ag129
ag129
aV Danielle
p1309
aV Cirie
p1310
aV Cirie
p1311
aV Danielle
p1312
ag129
ag129
ag129
ag129
ag129
ag129
ag129
ag129
ag129
ag129
ag129
ag129
aV \u2014
p1313
aV Terry
p1314
aV \u2014
p1315
ag129
ag129
ag129
ag129
ag129
ag129
ag129
ag129
ag129
ag129
ag129
ag129
ag129
ag319
ag319
ag129
ag129
aV Danielle
p1316
ag129
aV Danielle
p1317
ag129
ag129
ag129
ag129
ag129
ag129
ag129
ag129
ag129
ag319
ag319
aV Aras
p1318
aV Aras
p1319
ag129
aV Aras
p1320
ag129
aV Aras
p1321
aV Aras
p1322
ag129
ag129
ag129
ag129
ag129
ag129
ag129
atp1323
ba(lp1324
g21
(g22
(dp1325
g24
g25
(g26
(I0
tp1326
g28
tp1327
Rp1328
(I1
(L16L
tp1329
g35
I00
(lp1330
g1130
ag1131
ag1132
ag1133
ag1134
ag1135
ag1136
ag1137
ag1138
ag1139
ag1140
ag1141
ag1142
ag1143
ag1144
ag1145
atp1331
bsg63
Nstp1332
Rp1333
a(dp1334
g339
(dp1335
g341
g1123
sg342
(lp1336
(dp1337
g345
g346
(I0
I16
I1
tp1338
Rp1339
sg349
g1180
sasstp1340
bsbssVCambodia
p1341
(dp1342
g3
Vhttp://survivor.wikia.com/wiki/Survivor:_Cambodia
p1343
sg5
g6
(g7
g8
Ntp1344
Rp1345
(dp1346
g12
g13
sg14
g15
sg16
g6
(g17
g8
Ntp1347
Rp1348
((lp1349
g21
(g22
(dp1350
g24
g25
(g26
(I0
tp1351
g28
tp1352
Rp1353
(I1
(L15L
tp1354
g35
I00
(lp1355
VVytas
p1356
aVShirin
p1357
aVPeih-Gee
p1358
aVJeff
p1359
aVMonica
p1360
aVTerry
p1361
aVWoo
p1362
aVKass
p1363
aVAndrew
p1364
aVKelly
p1365
aVCiera
p1366
aVStephen
p1367
aVStephen
p1368
aVJoe
p1369
aVTBA
p1370
atp1371
bsg63
Nstp1372
Rp1373
ag21
(g22
(dp1374
g24
g25
(g26
(I0
tp1375
g28
tp1376
Rp1377
(I1
(L20L
tp1378
g35
I00
(lp1379
VAbi-Maria
p1380
aVJeremy
p1381
aVKeith
p1382
aVKelley
p1383
aVKimmi
p1384
aVSpencer
p1385
aVTasha
p1386
aVJoe
p1387
aVStephen
p1388
aVCiera
p1389
aVKelly
p1390
aVAndrew
p1391
aVKass
p1392
aVWoo
p1393
aVTerry
p1394
aVMonica
p1395
aVJeff
p1396
aVPeih-Gee
p1397
aVShirin
p1398
aVVytas
p1399
atp1400
bsg63
g93
(g96
S'\x01\x00\x00\x00\x00\x00\x00\x00'
p1401
tp1402
Rp1403
stp1404
Rp1405
a(lp1406
g25
(g26
(I0
tp1407
g28
tp1408
Rp1409
(I1
(L15L
L20L
tp1410
g35
I00
(lp1411
V Vytas
p1412
aV \u2014
p1413
aV \u2014
p1414
aV Vytas
p1415
aV \u2014
p1416
aV Vytas
p1417
aV \u2014
p1418
aV \u2014
p1419
aV \u2014
p1420
aV \u2014
p1421
aV Abi-Maria
p1422
aV \u2014
p1423
aV \u2014
p1424
aV Abi-Maria
p1425
aV Abi-Maria
p1426
aV \u2014
p1427
aV Vytas
p1428
aV Vytas
p1429
aV Vytas
p1430
aV Abi-Maria
p1431
aV Spencer
p1432
aV \u2014
p1433
aV \u2014
p1434
aV Spencer
p1435
aV \u2014
p1436
aV Shirin
p1437
aV \u2014
p1438
aV \u2014
p1439
aV \u2014
p1440
aV \u2014
p1441
aV Shirin
p1442
aV \u2014
p1443
aV \u2014
p1444
aV Shirin
p1445
aV Spencer
p1446
aV \u2014
p1447
aV Shirin
p1448
aV Shirin
p1449
aV Spencer
p1450
ag129
aV Peih-Gee
p1451
aV \u2014
p1452
aV \u2014
p1453
aV \u2014
p1454
aV \u2014
p1455
aV \u2014
p1456
aV Peih-Gee
p1457
aV \u2014
p1458
aV \u2014
p1459
aV \u2014
p1460
aV \u2014
p1461
aV Peih-Gee
p1462
aV \u2014
p1463
aV Abi-Maria
p1464
aV \u2014
p1465
aV \u2014
p1466
aV Peih-Gee
p1467
aV Abi-Maria
p1468
ag129
ag129
aV Jeff
p1469
aV \u2014
p1470
aV \u2014
p1471
aV \u2014
p1472
aV \u2014
p1473
aV \u2014
p1474
aV Jeff
p1475
aV \u2014
p1476
aV \u2014
p1477
aV \u2014
p1478
aV \u2014
p1479
aV Jeff
p1480
aV \u2014
p1481
aV Jeff
p1482
aV \u2014
p1483
aV \u2014
p1484
aV Woo
p1485
ag129
ag129
ag129
aV \u2014
p1486
aV Monica
p1487
aV \u2014
p1488
aV \u2014
p1489
aV Monica
p1490
aV Kelly
p1491
aV \u2014
p1492
aV \u2014
p1493
aV Monica
p1494
aV \u2014
p1495
aV Spencer
p1496
aV \u2014
p1497
aV \u2014
p1498
aV \u2014
p1499
aV \u2014
p1500
aV Kelly
p1501
ag129
ag129
ag129
ag129
aV \u2014
p1502
aV \u2014
p1503
aV \u2014
p1504
aV \u2014
p1505
aV \u2014
p1506
aV \u2014
p1507
aV \u2014
p1508
aV \u2014
p1509
aV \u2014
p1510
aV \u2014
p1511
aV \u2014
p1512
aV \u2014
p1513
aV \u2014
p1514
aV \u2014
p1515
aV Evacuated
p1516
ag129
ag129
ag129
ag129
ag129
aV Woo
p1517
aV \u2014
p1518
aV \u2014
p1519
aV \u2014
p1520
aV \u2014
p1521
aV Woo
p1522
aV \u2014
p1523
aV \u2014
p1524
aV \u2014
p1525
aV Woo
p1526
aV Spencer
p1527
aV Spencer
p1528
aV Woo
p1529
aV Spencer
p1530
ag129
ag129
ag129
ag129
ag129
ag129
aV Tasha
p1531
aV Ciera
p1532
aV Kass
p1533
aV Kass
p1534
aV Kass
p1535
aV Ciera
p1536
aV Kass
p1537
aV Ciera
p1538
aV Kass
p1539
aV Andrew
p1540
aV Ciera
p1541
aV Kass
p1542
aV Tasha
p1543
ag129
ag129
ag129
ag129
ag129
ag129
ag129
aV Andrew
p1544
aV Kelley
p1545
aV Kelley
p1546
aV Andrew
p1547
aV Kelley
p1548
aV Kelley
p1549
aV Kelley
p1550
aV Kelley
p1551
aV Kelley
p1552
aV Andrew
p1553
aV Kelley
p1554
aV Kelley
p1555
ag129
ag129
ag129
ag129
ag129
ag129
ag129
ag129
aV Kelly
p1556
aV Kelly
p1557
aV Kelley
p1558
aV Kelly
p1559
aV Ciera
p1560
aV Kelly
p1561
aV Ciera
p1562
aV Kelley
p1563
aV Kelly
p1564
aV Kelly
p1565
aV Ciera
p1566
ag129
ag129
ag129
ag129
ag129
ag129
ag129
ag129
ag129
aV Stephen
p1567
aV Ciera
p1568
aV Stephen
p1569
aV Kimmi
p1570
aV Ciera
p1571
aV Stephen
p1572
aV Stephen
p1573
aV Stephen
p1574
aV Ciera
p1575
aV Kimmi
p1576
ag129
ag129
ag129
ag129
ag129
ag129
ag129
ag129
ag129
ag129
aV Stephen
p1577
aV Joe
p1578
aV Stephen
p1579
aV Stephen
p1580
aV Abi-Maria
p1581
aV Stephen
p1582
aV Abi-Maria
p1583
aV None
p1584
aV Abi-Maria
p1585
ag129
ag129
ag129
ag129
ag129
ag129
ag129
ag129
ag129
ag129
ag129
ag1577
ag1578
ag1579
ag1580
ag1581
ag1582
ag1583
ag1584
aV Joe
p1586
ag129
ag129
ag129
ag129
ag129
ag129
ag129
ag129
ag129
ag129
ag129
aV Joe
p1587
aV Joe
p1588
aV Tasha
p1589
aV Joe
p1590
aV Joe
p1591
aV Joe
p1592
aV Joe
p1593
aV Abi-Maria
p1594
ag129
ag129
ag129
ag129
ag129
ag129
ag129
ag129
ag129
ag129
ag129
ag129
aV TBA
p1595
aV TBA
p1596
aV TBA
p1597
aV TBA
p1598
aV TBA
p1599
aV TBA
p1600
aV TBA
p1601
ag129
ag129
ag129
ag129
ag129
ag129
ag129
ag129
ag129
ag129
ag129
ag129
ag129
atp1602
ba(lp1603
g21
(g22
(dp1604
g24
g25
(g26
(I0
tp1605
g28
tp1606
Rp1607
(I1
(L15L
tp1608
g35
I00
(lp1609
g1356
ag1357
ag1358
ag1359
ag1360
ag1361
ag1362
ag1363
ag1364
ag1365
ag1366
ag1367
ag1368
ag1369
ag1370
atp1610
bsg63
Nstp1611
Rp1612
a(dp1613
g339
(dp1614
g341
g1349
sg342
(lp1615
(dp1616
g345
g346
(I0
I15
I1
tp1617
Rp1618
sg349
g1409
sasstp1619
bsbssVBlood_vs._Water
p1620
(dp1621
g3
Vhttp://survivor.wikia.com/wiki/Survivor:_Blood_vs._Water
p1622
sg5
g6
(g7
g8
Ntp1623
Rp1624
(dp1625
g12
g13
sg14
g15
sg16
g6
(g17
g8
Ntp1626
Rp1627
((lp1628
g21
(g22
(dp1629
g24
g25
(g26
(I0
tp1630
g28
tp1631
Rp1632
(I1
(L25L
tp1633
g35
I00
(lp1634
VLaura B.
p1635
aVCandice
p1636
aVRupert
p1637
aVMarissa
p1638
aVRachel
p1639
aVColton
p1640
aVJohn
p1641
aVBrad
p1642
aVBrad
p1643
aVLaura M.
p1644
aVKat
p1645
aVLaura B.
p1646
aVAras
p1647
aVVytas
p1648
aVTina
p1649
aVLaura M.
p1650
aVCaleb
p1651
aVKatie
p1652
aVKatie
p1653
aVHayden
p1654
aVCiera
p1655
aVTina
p1656
aVGervase
p1657
aVMonica
p1658
aVTyson
p1659
atp1660
bsg63
Nstp1661
Rp1662
ag21
(g22
(dp1663
g24
g25
(g26
(I0
tp1664
g28
tp1665
Rp1666
(I1
(L20L
tp1667
g35
I00
(lp1668
VTyson
p1669
aVMonica
p1670
aVGervase
p1671
aVTina
p1672
aVCiera
p1673
aVLaura M.
p1674
aVHayden
p1675
aVKatie
p1676
aVCaleb
p1677
aVVytas
p1678
aVAras
p1679
aVLaura B.
p1680
aVJohn
p1681
aVKat
p1682
aVBrad
p1683
aVCandice
p1684
aVMarissa
p1685
aVRachel
p1686
aVColton
p1687
aVRupert
p1688
atp1689
bsg63
g93
(g96
S'\x01\x00\x00\x00\x00\x00\x00\x00'
p1690
tp1691
Rp1692
stp1693
Rp1694
a(lp1695
g25
(g26
(I0
tp1696
g28
tp1697
Rp1698
(I1
(L25L
L20L
tp1699
g35
I00
(lp1700
V\u2014
p1701
aV\u2014
p1702
aV\u2014
p1703
aV\u2014
p1704
aV Laura B.
p1705
aV\u2014
p1706
aV Laura B.
p1707
aV Marissa
p1708
aV Laura B.
p1709
aV Laura B.
p1710
aV\u2014
p1711
aV Marissa
p1712
aV Laura B.
p1713
aV\u2014
p1714
aV Laura B.
p1715
aV\u2014
p1716
aV Brad
p1717
aV Katie
p1718
aV\u2014
p1719
aV\u2014
p1720
aV Laura M.
p1721
aV Candice
p1722
aV Candice
p1723
aV Candice
p1724
aV\u2014
p1725
aV Candice
p1726
aV\u2014
p1727
aV\u2014
p1728
aV\u2014
p1729
aV\u2014
p1730
aV Gervase
p1731
ag129
aV\u2014
p1732
aV Candice
p1733
aV\u2014
p1734
aV Laura M.
p1735
aV\u2014
p1736
aV\u2014
p1737
aV Candice
p1738
aV Laura M.
p1739
aV\u2014
p1740
aV\u2014
p1741
aV\u2014
p1742
aV\u2014
p1743
ag1725
aV\u2014
p1744
ag1727
ag1728
ag1729
ag1730
aV\u2014
p1745
aV Switched
p1746
ag1732
aV\u2014
p1747
ag1734
ag129
ag1736
ag1737
aV\u2014
p1748
aVSwitched
p1749
ag1740
ag1741
ag1742
ag1743
aV Marissa
p1750
ag1744
aV Marissa
p1751
aV Marissa
p1752
aV Marissa
p1753
aV Marissa
p1754
ag1745
aV\u2014
p1755
aV Marissa
p1756
ag1747
aV Marissa
p1757
ag129
aV Katie
p1758
aV Marissa
p1759
ag1748
ag129
aV\u2014
p1760
aV\u2014
p1761
aV\u2014
p1762
aV\u2014
p1763
aV John
p1764
aV\u2014
p1765
aV Rachel
p1766
aV John
p1767
aV Rachel
p1768
aV Rachel
p1769
aV\u2014
p1770
aV\u2014
p1771
aV Rachel
p1772
aV\u2014
p1773
aV Rachel
p1774
ag129
ag129
aV Ciera
p1775
aV\u2014
p1776
ag129
aV\u2014
p1777
aV\u2014
p1778
aV\u2014
p1779
aV\u2014
p1780
aV\u2014
p1781
aV\u2014
p1782
aV\u2014
p1783
aV\u2014
p1784
aV\u2014
p1785
aV\u2014
p1786
aV\u2014
p1787
aV\u2014
p1788
aV\u2014
p1789
aV\u2014
p1790
aV\u2014
p1791
ag129
ag129
ag129
aVQuit
p1792
ag129
ag1777
ag1778
ag1779
ag1780
aV John
p1793
ag1782
aV John
p1794
aV John
p1795
aV John
p1796
aV John
p1797
ag1787
ag1788
aV Ciera
p1798
ag1790
aV John
p1799
ag129
ag129
ag129
ag129
ag129
aV\u2014
p1800
aV\u2014
p1801
aV\u2014
p1802
aV\u2014
p1803
aV Brad
p1804
aV\u2014
p1805
aV Ciera
p1806
aV Brad
p1807
aV Brad
p1808
aV Ciera
p1809
aV\u2014
p1810
aV\u2014
p1811
ag129
aV\u2014
p1812
aV Ciera
p1813
ag129
ag129
ag129
ag129
ag129
ag1800
ag1801
ag1802
ag1803
aVNone
p1814
ag1805
aV Ciera
p1815
aV Brad
p1816
aV Brad
p1817
aV Brad
p1818
ag1810
ag1811
ag129
ag1812
aVNone
p1819
ag129
ag129
ag129
ag129
ag129
aV Laura M.
p1820
aV Laura M.
p1821
aV Laura M.
p1822
aV Laura M.
p1823
aV\u2014
p1824
aV Laura B.
p1825
aV\u2014
p1826
aV\u2014
p1827
aV\u2014
p1828
aV\u2014
p1829
aV Laura M.
p1830
aV Laura M.
p1831
ag129
aV Laura M.
p1832
ag129
ag129
ag129
ag129
ag129
ag129
aV\u2014
p1833
aV Kat
p1834
aV\u2014
p1835
aV Kat
p1836
aV\u2014
p1837
ag129
aV\u2014
p1838
aV Kat
p1839
aV\u2014
p1840
aV Kat
p1841
aV\u2014
p1842
aV Kat
p1843
ag129
aV Vytas
p1844
ag129
ag129
ag129
ag129
ag129
ag129
aV\u2014
p1845
aV Laura B.
p1846
aV\u2014
p1847
aV Laura B.
p1848
aV\u2014
p1849
ag129
aV\u2014
p1850
aV Laura B.
p1851
aV\u2014
p1852
aV Laura B.
p1853
aV\u2014
p1854
aV Vytas
p1855
ag129
ag129
ag129
ag129
ag129
ag129
ag129
ag129
aV Aras
p1856
aV Aras
p1857
aV Aras
p1858
aV Ciera
p1859
aV Aras
p1860
aV Aras
p1861
aV Aras
p1862
aV Ciera
p1863
aV Aras
p1864
aV Laura M.
p1865
aV Laura M.
p1866
ag129
ag129
ag129
ag129
ag129
ag129
ag129
ag129
ag129
aV Vytas
p1867
aV Vytas
p1868
aV Vytas
p1869
aV Vytas
p1870
aV Katie
p1871
aV Vytas
p1872
aV Vytas
p1873
aV Vytas
p1874
aV Vytas
p1875
aV Tyson
p1876
ag129
ag129
ag129
ag129
ag129
ag129
ag129
ag129
ag129
ag129
aV Tina
p1877
aV Tina
p1878
aV Tina
p1879
aV Tyson
p1880
aV Tina
p1881
aV Tina
p1882
aV Tina
p1883
aV Monica
p1884
aV Tina
p1885
ag129
ag129
ag129
ag129
ag129
ag129
ag129
ag129
ag129
ag129
ag129
aV Laura M.
p1886
aV Laura M.
p1887
aV Laura M.
p1888
ag129
aV Laura M.
p1889
aV Katie
p1890
aV Laura M.
p1891
aV Laura M.
p1892
aV Laura M.
p1893
ag129
ag129
ag129
ag129
ag129
ag129
ag129
ag129
ag129
ag129
ag129
aV Caleb
p1894
aV Caleb
p1895
aV Caleb
p1896
ag129
aV Caleb
p1897
ag129
aV Ciera
p1898
aV Ciera
p1899
aV Ciera
p1900
ag129
ag129
ag129
ag129
ag129
ag129
ag129
ag129
ag129
ag129
ag129
aV Hayden
p1901
aV Hayden
p1902
aV Hayden
p1903
ag129
aV Monica
p1904
ag129
aV Monica
p1905
aV Monica
p1906
ag129
ag129
ag129
ag129
ag129
ag129
ag129
ag129
ag129
ag129
ag129
ag129
aV Hayden
p1907
aVNone
p1908
aV Hayden
p1909
ag129
aV Monica
p1910
ag129
aVNone
p1911
aV Monica
p1912
ag129
ag129
ag129
ag129
ag129
ag129
ag129
ag129
ag129
ag129
ag129
ag129
aV Hayden
p1913
aV Hayden
p1914
aV Hayden
p1915
ag129
aV Gervase
p1916
ag129
aV Gervase
p1917
ag129
ag129
ag129
ag129
ag129
ag129
ag129
ag129
ag129
ag129
ag129
ag129
ag129
aV Ciera
p1918
aV Ciera
p1919
aV Ciera
p1920
aV Gervase
p1921
aV Gervase
p1922
ag129
ag129
ag129
ag129
ag129
ag129
ag129
ag129
ag129
ag129
ag129
ag129
ag129
ag129
ag129
aV Tina
p1923
aV Tina
p1924
aV Tina
p1925
aV Gervase
p1926
ag129
ag129
ag129
ag129
ag129
ag129
ag129
ag129
ag129
ag129
ag129
ag129
ag129
ag129
ag129
ag129
ag319
ag319
ag319
ag129
ag129
ag129
ag129
ag129
ag129
ag129
ag129
ag129
ag129
ag129
ag129
ag129
ag129
ag129
ag129
ag129
ag319
ag319
ag319
ag129
ag129
ag129
ag129
ag129
ag129
aV Monica
p1927
ag129
ag129
ag129
ag129
ag129
ag129
ag129
ag129
ag129
ag129
ag319
ag319
ag319
aV Tyson
p1928
aV Tyson
p1929
aV Tyson
p1930
aV Tyson
p1931
aV Tyson
p1932
aV Tyson
p1933
ag129
aV Tyson
p1934
ag129
ag129
ag129
ag129
ag129
ag129
ag129
ag129
ag129
atp1935
ba(lp1936
g21
(g22
(dp1937
g24
g25
(g26
(I0
tp1938
g28
tp1939
Rp1940
(I1
(L25L
tp1941
g35
I00
(lp1942
g1635
ag1636
ag1637
ag1638
ag1639
ag1640
ag1641
ag1642
ag1643
ag1644
ag1645
ag1646
ag1647
ag1648
ag1649
ag1650
ag1651
ag1652
ag1653
ag1654
ag1655
ag1656
ag1657
ag1658
ag1659
atp1943
bsg63
Nstp1944
Rp1945
a(dp1946
g339
(dp1947
g341
g1628
sg342
(lp1948
(dp1949
g345
g346
(I0
I25
I1
tp1950
Rp1951
sg349
g1698
sasstp1952
bsbssVMarquesas
p1953
(dp1954
g3
Vhttp://survivor.wikia.com/wiki/Survivor:_Marquesas
p1955
sg5
g6
(g7
g8
Ntp1956
Rp1957
(dp1958
g12
g13
sg14
g15
sg16
g6
(g17
g8
Ntp1959
Rp1960
((lp1961
g21
(g22
(dp1962
g24
g25
(g26
(I0
tp1963
g28
tp1964
Rp1965
(I1
(L17L
tp1966
g35
I00
(lp1967
VPeter
p1968
aVPatricia
p1969
aVHunter
p1970
aVSarah
p1971
aVGabriel
p1972
aVGina
p1973
aVRob
p1974
aVJohn
p1975
aVZoe
p1976
aVTammy
p1977
aVRobert
p1978
aVSean
p1979
aVPaschal
p1980
aVPaschal
p1981
aVKathy
p1982
aVNeleh
p1983
aVVecepia
p1984
atp1985
bsg63
Nstp1986
Rp1987
ag21
(g22
(dp1988
g24
g25
(g26
(I0
tp1989
g28
tp1990
Rp1991
(I1
(L16L
tp1992
g35
I00
(lp1993
VVecepia
p1994
aVNeleh
p1995
aVKathy
p1996
aVPaschal
p1997
aVSean
p1998
aVRobert
p1999
aVTammy
p2000
aVZoe
p2001
aVJohn
p2002
aVRob
p2003
aVGina
p2004
aVGabriel
p2005
aVSarah
p2006
aVHunter
p2007
aVPatricia
p2008
aVPeter
p2009
atp2010
bsg63
g93
(g96
S'\x01\x00\x00\x00\x00\x00\x00\x00'
p2011
tp2012
Rp2013
stp2014
Rp2015
a(lp2016
g25
(g26
(I0
tp2017
g28
tp2018
Rp2019
(I1
(L17L
L16L
tp2020
g35
I00
(lp2021
V Sarah
p2022
aV \u2014
p2023
aV \u2014
p2024
aV \u2014
p2025
aV Sarah
p2026
aV \u2014
p2027
aV \u2014
p2028
aV \u2014
p2029
aV \u2014
p2030
aV Peter
p2031
aV Peter
p2032
aV \u2014
p2033
aV Peter
p2034
aV Peter
p2035
aV Peter
p2036
aV Patricia
p2037
aV Patricia
p2038
aV \u2014
p2039
aV \u2014
p2040
aV \u2014
p2041
aV Patricia
p2042
aV \u2014
p2043
aV \u2014
p2044
aV \u2014
p2045
aV \u2014
p2046
aV Patricia
p2047
aV Sarah
p2048
aV \u2014
p2049
aV Patricia
p2050
aV Sarah
p2051
aV Sarah
p2052
ag129
aV Hunter
p2053
aV \u2014
p2054
aV \u2014
p2055
aV \u2014
p2056
aV Hunter
p2057
aV \u2014
p2058
aV \u2014
p2059
aV \u2014
p2060
aV \u2014
p2061
aV Hunter
p2062
aV Sarah
p2063
aV \u2014
p2064
aV Hunter
p2065
aV Sarah
p2066
ag129
ag129
aV \u2014
p2067
aV Sarah
p2068
aV Sarah
p2069
aV Sarah
p2070
aV \u2014
p2071
aV \u2014
p2072
aV \u2014
p2073
aV \u2014
p2074
aV \u2014
p2075
aV \u2014
p2076
aV Sarah
p2077
aV \u2014
p2078
aV Kathy
p2079
ag129
ag129
ag129
aV Gabriel
p2080
aV \u2014
p2081
aV \u2014
p2082
aV \u2014
p2083
aV Gabriel
p2084
aV Gabriel
p2085
aV Gabriel
p2086
aV Gabriel
p2087
aV Gabriel
p2088
aV Gabriel
p2089
aV \u2014
p2090
aV Rob
p2091
ag129
ag129
ag129
ag129
aV \u2014
p2092
aV Gina
p2093
aV Gina
p2094
aV Gina
p2095
aV \u2014
p2096
aV \u2014
p2097
aV \u2014
p2098
aV \u2014
p2099
aV \u2014
p2100
aV \u2014
p2101
aV Kathy
p2102
ag129
ag129
ag129
ag129
ag129
aV Rob
p2103
aV Rob
p2104
aV Zoe
p2105
aV Rob
p2106
aV John
p2107
aV Rob
p2108
aV Rob
p2109
aV Rob
p2110
aV Rob
p2111
aV John
p2112
ag129
ag129
ag129
ag129
ag129
ag129
aV John
p2113
aV John
p2114
aV John
p2115
aV John
p2116
aV John
p2117
aV Sean
p2118
aV Sean
p2119
aV John
p2120
aV Sean
p2121
ag129
ag129
ag129
ag129
ag129
ag129
ag129
aV Zoe
p2122
aV Zoe
p2123
aV Zoe
p2124
aV Zoe
p2125
aV Zoe
p2126
aV Zoe
p2127
aV Zoe
p2128
aV Robert
p2129
ag129
ag129
ag129
ag129
ag129
ag129
ag129
ag129
aV Tammy
p2130
aV Tammy
p2131
aV Tammy
p2132
aV Tammy
p2133
aV Tammy
p2134
aV Vecepia
p2135
aV Vecepia
p2136
ag129
ag129
ag129
ag129
ag129
ag129
ag129
ag129
ag129
aV Robert
p2137
aV Robert
p2138
aV Robert
p2139
aV Robert
p2140
aV Robert
p2141
aV Sean
p2142
ag129
ag129
ag129
ag129
ag129
ag129
ag129
ag129
ag129
ag129
aV Neleh
p2143
aV Sean
p2144
aV Sean
p2145
aV Sean
p2146
aV Neleh
p2147
ag129
ag129
ag129
ag129
ag129
ag129
ag129
ag129
ag129
ag129
ag129
aV Neleh
p2148
aV Kathy
p2149
aV Neleh
p2150
aV Kathy
p2151
ag129
ag129
ag129
ag129
ag129
ag129
ag129
ag129
ag129
ag129
ag129
ag129
aV \u2014
p2152
aV \u2014
p2153
aV \u2014
p2154
aVEliminated
p2155
ag129
ag129
ag129
ag129
ag129
ag129
ag129
ag129
ag129
ag129
ag129
ag129
aV \u2014
p2156
aV Kathy
p2157
aV \u2014
p2158
ag129
ag129
ag129
ag129
ag129
ag129
ag129
ag129
ag129
ag129
ag129
ag129
ag129
ag319
ag319
aV Neleh
p2159
aV Neleh
p2160
ag129
ag129
ag129
aV Neleh
p2161
ag129
ag129
ag129
ag129
ag129
ag129
ag129
ag129
ag319
ag319
ag129
ag129
aV Vecepia
p2162
aV Vecepia
p2163
aV Vecepia
p2164
ag129
aV Vecepia
p2165
ag129
ag129
ag129
ag129
ag129
ag129
ag129
atp2166
ba(lp2167
g21
(g22
(dp2168
g24
g25
(g26
(I0
tp2169
g28
tp2170
Rp2171
(I1
(L17L
tp2172
g35
I00
(lp2173
g1968
ag1969
ag1970
ag1971
ag1972
ag1973
ag1974
ag1975
ag1976
ag1977
ag1978
ag1979
ag1980
ag1981
ag1982
ag1983
ag1984
atp2174
bsg63
Nstp2175
Rp2176
a(dp2177
g339
(dp2178
g341
g1961
sg342
(lp2179
(dp2180
g345
g346
(I0
I17
I1
tp2181
Rp2182
sg349
g2019
sasstp2183
bsbssVPearl_Islands
p2184
(dp2185
g3
Vhttp://survivor.wikia.com/wiki/Survivor:_Pearl_Islands
p2186
sg5
g6
(g7
g8
Ntp2187
Rp2188
(dp2189
g12
g13
sg14
g15
sg16
g6
(g17
g8
Ntp2190
Rp2191
((lp2192
g21
(g22
(dp2193
g24
g25
(g26
(I0
tp2194
g28
tp2195
Rp2196
(I1
(L20L
tp2197
g35
I00
(lp2198
VNicole
p2199
aVRyan S.
p2200
aVLillian
p2201
aVBurton
p2202
aVMichelle
p2203
aVTrish
p2204
aVShawn
p2205
aVOsten
p2206
aVBurton
p2207
aVLillian
p2208
aVAndrew
p2209
aVRyan O.
p2210
aVRupert
p2211
aVTijuana
p2212
aVChrista
p2213
aVBurton
p2214
aVDarrah
p2215
aVJon
p2216
aVLillian
p2217
aVSandra
p2218
atp2219
bsg63
Nstp2220
Rp2221
ag21
(g22
(dp2222
g24
g25
(g26
(I0
tp2223
g28
tp2224
Rp2225
(I1
(L16L
tp2226
g35
I00
(lp2227
VSandra
p2228
aVLillian
p2229
aVJon
p2230
aVDarrah
p2231
aVBurton
p2232
aVChrista
p2233
aVTijuana
p2234
aVRupert
p2235
aVRyan O.
p2236
aVAndrew
p2237
aVOsten
p2238
aVShawn
p2239
aVTrish
p2240
aVMichelle
p2241
aVRyan S.
p2242
aVNicole
p2243
atp2244
bsg63
g93
(g96
S'\x01\x00\x00\x00\x00\x00\x00\x00'
p2245
tp2246
Rp2247
stp2248
Rp2249
a(lp2250
g25
(g26
(I0
tp2251
g28
tp2252
Rp2253
(I1
(L20L
L16L
tp2254
g35
I00
(lp2255
V \u2014
p2256
aV Nicole
p2257
aV \u2014
p2258
aV Nicole
p2259
aV \u2014
p2260
aV \u2014
p2261
aV Nicole
p2262
aV \u2014
p2263
aV Nicole
p2264
aV Nicole
p2265
aV Nicole
p2266
aV \u2014
p2267
aV \u2014
p2268
aV \u2014
p2269
aV Nicole
p2270
aV Ryan S.
p2271
aV \u2014
p2272
aV Osten
p2273
aV \u2014
p2274
aV Ryan S.
p2275
aV \u2014
p2276
aV \u2014
p2277
aV Ryan S.
p2278
aV \u2014
p2279
aV Ryan S.
p2280
aV Ryan S.
p2281
aV Ryan S.
p2282
aV \u2014
p2283
aV \u2014
p2284
aV \u2014
p2285
aV Osten
p2286
ag129
aV \u2014
p2287
aV Darrah
p2288
aV \u2014
p2289
aV Lillian
p2290
aV \u2014
p2291
aV \u2014
p2292
aV Lillian
p2293
aV \u2014
p2294
aV Lillian
p2295
aV Lillian
p2296
aV Lillian
p2297
aV \u2014
p2298
aV \u2014
p2299
aV \u2014
p2300
ag129
ag129
aV Burton
p2301
ag129
aV Burton
p2302
aV \u2014
p2303
aV Christa
p2304
aV Burton
p2305
aV \u2014
p2306
aVKidnapped 
p2307
aV \u2014
p2308
aV \u2014
p2309
aV \u2014
p2310
aV Burton
p2311
aV Burton
p2312
aV Christa
p2313
ag129
ag129
aV Michelle
p2314
ag129
aV Michelle
p2315
aV \u2014
p2316
ag129
aV Michelle
p2317
aV \u2014
p2318
aV Michelle
p2319
aV \u2014
p2320
aV \u2014
p2321
aV \u2014
p2322
aV Michelle
p2323
aV Michelle
p2324
aV Shawn
p2325
ag129
ag129
aV Trish
p2326
ag129
aV Rupert
p2327
aV \u2014
p2328
ag129
aV Trish
p2329
aV \u2014
p2330
aV Trish
p2331
aV \u2014
p2332
aV \u2014
p2333
aV \u2014
p2334
aV Trish
p2335
aV Rupert
p2336
ag129
ag129
ag129
aV Shawn
p2337
ag129
aV Shawn
p2338
aV \u2014
p2339
ag129
aV Shawn
p2340
aV \u2014
p2341
aV Shawn
p2342
aV \u2014
p2343
aV \u2014
p2344
aV \u2014
p2345
aV Jon
p2346
ag129
ag129
ag129
ag129
aV \u2014
p2347
ag129
aV \u2014
p2348
aV \u2014
p2349
ag129
aV \u2014
p2350
aV \u2014
p2351
aV \u2014
p2352
aV \u2014
p2353
aV \u2014
p2354
aVQuit
p2355
ag129
ag129
ag129
ag129
ag129
aV \u2014
p2356
aV Ryan S.
p2357
aV \u2014
p2358
aV \u2014
p2359
aV Michelle
p2360
aV \u2014
p2361
aV \u2014
p2362
aV \u2014
p2363
aV \u2014
p2364
aV \u2014
p2365
ag129
ag129
aV Burton
p2366
aV Burton
p2367
aV Burton
p2368
aV Lillian
p2369
ag2356
aV Trish
p2370
ag2358
ag2359
aV Nicole
p2371
ag2361
ag2362
ag2363
ag2364
ag2365
ag129
ag129
aV Lillian
p2372
aV Nicole
p2373
aV Lillian
p2374
aV Ryan S.
p2375
aV Andrew
p2376
aV Andrew
p2377
aV Andrew
p2378
aV Jon
p2379
aV Andrew
p2380
aV Andrew
p2381
aV Jon
p2382
aV Andrew
p2383
aV Jon
p2384
aV Jon
p2385
ag129
ag129
ag129
ag129
ag129
ag129
aV Ryan O.
p2386
aV Ryan O.
p2387
aV Ryan O.
p2388
aV Ryan O.
p2389
aV Ryan O.
p2390
aV Ryan O.
p2391
aV Ryan O.
p2392
aV Ryan O.
p2393
aV Christa
p2394
ag129
ag129
ag129
ag129
ag129
ag129
ag129
aV Jon
p2395
aV Rupert
p2396
aV Rupert
p2397
aV Rupert
p2398
aV Rupert
p2399
aV Darrah
p2400
aV Rupert
p2401
aV Darrah
p2402
ag129
ag129
ag129
ag129
ag129
ag129
ag129
ag129
aV Tijuana
p2403
aV Tijuana
p2404
aV Tijuana
p2405
aV Burton
p2406
aV Tijuana
p2407
aV Tijuana
p2408
aV Burton
p2409
ag129
ag129
ag129
ag129
ag129
ag129
ag129
ag129
ag129
aV Lillian
p2410
aV Christa
p2411
aV Christa
p2412
aV Christa
p2413
aV Christa
p2414
aV Lillian
p2415
ag129
ag129
ag129
ag129
ag129
ag129
ag129
ag129
ag129
ag129
aV Burton
p2416
aV Burton
p2417
aV Lillian
p2418
aV Burton
p2419
aV Lillian
p2420
ag129
ag129
ag129
ag129
ag129
ag129
ag129
ag129
ag129
ag129
ag129
aV Darrah
p2421
aV Darrah
p2422
aV Darrah
p2423
aV Lillian
p2424
ag129
ag129
ag129
ag129
ag129
ag129
ag129
ag129
ag129
ag129
ag129
ag129
aV \u2014
p2425
aV Jon
p2426
aV \u2014
p2427
ag129
ag129
ag129
ag129
ag129
ag129
ag129
ag129
ag129
ag129
ag129
ag129
ag129
ag319
ag319
ag129
ag129
ag129
ag129
aV Lillian
p2428
ag129
ag129
ag129
ag129
ag129
ag129
ag129
ag129
ag129
ag319
ag319
aV Sandra
p2429
aV Sandra
p2430
aV Sandra
p2431
aV Sandra
p2432
ag129
aV Sandra
p2433
aV Sandra
p2434
ag129
ag129
ag129
ag129
ag129
ag129
ag129
atp2435
ba(lp2436
g21
(g22
(dp2437
g24
g25
(g26
(I0
tp2438
g28
tp2439
Rp2440
(I1
(L20L
tp2441
g35
I00
(lp2442
g2199
ag2200
ag2201
ag2202
ag2203
ag2204
ag2205
ag2206
ag2207
ag2208
ag2209
ag2210
ag2211
ag2212
ag2213
ag2214
ag2215
ag2216
ag2217
ag2218
atp2443
bsg63
Nstp2444
Rp2445
a(dp2446
g339
(dp2447
g341
g2192
sg342
(lp2448
(dp2449
g345
g346
(I0
I20
I1
tp2450
Rp2451
sg349
g2253
sasstp2452
bsbssVVanuatu
p2453
(dp2454
g3
Vhttp://survivor.wikia.com/wiki/Survivor:_Vanuatu
p2455
sg5
g6
(g7
g8
Ntp2456
Rp2457
(dp2458
g12
g13
sg14
g15
sg16
g6
(g17
g8
Ntp2459
Rp2460
((lp2461
g21
(g22
(dp2462
g24
g25
(g26
(I0
tp2463
g28
tp2464
Rp2465
(I1
(L18L
tp2466
g35
I00
(lp2467
VBrook
p2468
aVDolly
p2469
aVJohn P.
p2470
aVMia
p2471
aVBrady
p2472
aVTravis
p2473
aVLisa
p2474
aVJohn K.
p2475
aVRory
p2476
aVLea
p2477
aVChad
p2478
aVLeann
p2479
aVAmi
p2480
aVJulie
p2481
aVEliza
p2482
aVScout
p2483
aVTwila
p2484
aVChris
p2485
atp2486
bsg63
Nstp2487
Rp2488
ag21
(g22
(dp2489
g24
g25
(g26
(I0
tp2490
g28
tp2491
Rp2492
(I1
(L18L
tp2493
g35
I00
(lp2494
VChris
p2495
aVTwila
p2496
aVScout
p2497
aVEliza
p2498
aVJulie
p2499
aVAmi
p2500
aVLeann
p2501
aVChad
p2502
aVLea
p2503
aVRory
p2504
aVJohn K.
p2505
aVLisa
p2506
aVTravis
p2507
aVBrady
p2508
aVMia
p2509
aVJohn P.
p2510
aVDolly
p2511
aVBrook
p2512
atp2513
bsg63
g93
(g96
S'\x01\x00\x00\x00\x00\x00\x00\x00'
p2514
tp2515
Rp2516
stp2517
Rp2518
a(lp2519
g25
(g26
(I0
tp2520
g28
tp2521
Rp2522
(I1
(L18L
L18L
tp2523
g35
I00
(lp2524
V Brook
p2525
aV \u2014
p2526
aV \u2014
p2527
aV \u2014
p2528
aV \u2014
p2529
aV \u2014
p2530
aV \u2014
p2531
aV Brook
p2532
aV Brook
p2533
aV Brook
p2534
aV Chris
p2535
aV \u2014
p2536
aV Brook
p2537
aV Rory
p2538
aV \u2014
p2539
aV Chris
p2540
aV \u2014
p2541
aV Chris
p2542
aV \u2014
p2543
aV Dolly
p2544
aV Dolly
p2545
aV Dolly
p2546
aV Leann
p2547
aV Dolly
p2548
aV Dolly
p2549
aV \u2014
p2550
aV \u2014
p2551
aV \u2014
p2552
aV \u2014
p2553
aV Leann
p2554
aV \u2014
p2555
aV \u2014
p2556
aV Leann
p2557
aV \u2014
p2558
aV Leann
p2559
ag129
aV John P.
p2560
aV \u2014
p2561
aV \u2014
p2562
aV \u2014
p2563
aV \u2014
p2564
aV \u2014
p2565
aV \u2014
p2566
aV John P.
p2567
aV John P.
p2568
aV John P.
p2569
aV Rory
p2570
aV \u2014
p2571
aV John P.
p2572
aV Rory
p2573
aV \u2014
p2574
aV Rory
p2575
ag129
ag129
aV \u2014
p2576
aV Mia
p2577
aV Mia
p2578
aV Twila
p2579
aV Twila
p2580
aV Mia
p2581
aV Mia
p2582
aV \u2014
p2583
aV \u2014
p2584
aV \u2014
p2585
aV \u2014
p2586
aV Mia
p2587
aV \u2014
p2588
aV \u2014
p2589
aV Twila
p2590
ag129
ag129
ag129
aV Brady
p2591
aV \u2014
p2592
aV \u2014
p2593
aV \u2014
p2594
aV \u2014
p2595
aV \u2014
p2596
aV \u2014
p2597
aV Brady
p2598
aV Brady
p2599
aV Brady
p2600
aV Brady
p2601
aV \u2014
p2602
aV Brady
p2603
aV Rory
p2604
ag129
ag129
ag129
ag129
aV \u2014
p2605
aV \u2014
p2606
aV Travis
p2607
aV Travis
p2608
aV \u2014
p2609
aV Travis
p2610
aV Travis
p2611
aV \u2014
p2612
aV \u2014
p2613
aV Travis
p2614
aV \u2014
p2615
aV Travis
p2616
aV Rory
p2617
ag129
ag129
ag129
ag129
ag129
aV \u2014
p2618
aV \u2014
p2619
aV Rory
p2620
aV Lisa
p2621
aV \u2014
p2622
aV Lisa
p2623
aV Lisa
p2624
aV \u2014
p2625
aV \u2014
p2626
aV Lisa
p2627
aV \u2014
p2628
aV Rory
p2629
ag129
ag129
ag129
ag129
ag129
ag129
aV John K.
p2630
aV John K.
p2631
aV \u2014
p2632
aV \u2014
p2633
aV John K.
p2634
aV \u2014
p2635
aV \u2014
p2636
aV John K.
p2637
aV John K.
p2638
aV \u2014
p2639
aV Chad
p2640
ag129
ag129
ag129
ag129
ag129
ag129
ag129
aV Ami
p2641
aV Rory
p2642
aV Rory
p2643
aV Rory
p2644
aV Rory
p2645
aV Rory
p2646
aV Rory
p2647
aV Ami
p2648
aV Ami
p2649
aV Ami
p2650
ag129
ag129
ag129
ag129
ag129
ag129
ag129
ag129
aV Lea
p2651
aV Lea
p2652
aV Lea
p2653
aV Lea
p2654
aV Lea
p2655
aV Lea
p2656
aV Lea
p2657
aV Julie
p2658
aV Eliza
p2659
ag129
ag129
ag129
ag129
ag129
ag129
ag129
ag129
ag129
aV Eliza
p2660
aV Chad
p2661
aV Chad
p2662
aV Chad
p2663
aV Chad
p2664
aV Chad
p2665
aV Chad
p2666
aV Eliza
p2667
ag129
ag129
ag129
ag129
ag129
ag129
ag129
ag129
ag129
ag129
aV Leann
p2668
aV Leann
p2669
aV Leann
p2670
aV Leann
p2671
aV Eliza
p2672
aV Eliza
p2673
aV Eliza
p2674
ag129
ag129
ag129
ag129
ag129
ag129
ag129
ag129
ag129
ag129
ag129
aV Ami
p2675
aV Ami
p2676
aV Ami
p2677
aV Ami
p2678
aV Scout
p2679
aV Scout
p2680
ag129
ag129
ag129
ag129
ag129
ag129
ag129
ag129
ag129
ag129
ag129
ag129
aV Julie
p2681
aV Julie
p2682
aV Julie
p2683
aV Twila
p2684
aV Twila
p2685
ag129
ag129
ag129
ag129
ag129
ag129
ag129
ag129
ag129
ag129
ag129
ag129
ag129
aV Eliza
p2686
aV Eliza
p2687
aV Eliza
p2688
aV Twila
p2689
ag129
ag129
ag129
ag129
ag129
ag129
ag129
ag129
ag129
ag129
ag129
ag129
ag129
ag129
aV Scout
p2690
aV \u2014
p2691
aV \u2014
p2692
ag129
ag129
ag129
ag129
ag129
ag129
ag129
ag129
ag129
ag129
ag129
ag129
ag129
ag129
ag129
ag319
ag319
aV Twila
p2693
ag129
ag129
aV Twila
p2694
ag129
ag129
ag129
ag129
ag129
ag129
ag129
ag129
ag129
ag129
ag129
ag129
ag319
ag319
ag129
aV Chris
p2695
aV Chris
p2696
ag129
aV Chris
p2697
aV Chris
p2698
aV Chris
p2699
ag129
ag129
ag129
ag129
ag129
ag129
ag129
ag129
ag129
atp2700
ba(lp2701
g21
(g22
(dp2702
g24
g25
(g26
(I0
tp2703
g28
tp2704
Rp2705
(I1
(L18L
tp2706
g35
I00
(lp2707
g2468
ag2469
ag2470
ag2471
ag2472
ag2473
ag2474
ag2475
ag2476
ag2477
ag2478
ag2479
ag2480
ag2481
ag2482
ag2483
ag2484
ag2485
atp2708
bsg63
Nstp2709
Rp2710
a(dp2711
g339
(dp2712
g341
g2461
sg342
(lp2713
(dp2714
g345
g346
(I0
I18
I1
tp2715
Rp2716
sg349
g2522
sasstp2717
bsbssVThe_Australian_Outback
p2718
(dp2719
g3
Vhttp://survivor.wikia.com/wiki/Survivor:_The_Australian_Outback
p2720
sg5
g6
(g7
g8
Ntp2721
Rp2722
(dp2723
g12
g13
sg14
g15
sg16
g6
(g17
g8
Ntp2724
Rp2725
((lp2726
g21
(g22
(dp2727
g24
g25
(g26
(I0
tp2728
g28
tp2729
Rp2730
(I1
(L18L
tp2731
g35
I00
(lp2732
VDebb
p2733
aVKel
p2734
aVMaralyn
p2735
aVMitchell
p2736
aVMitchell
p2737
aVKimmi
p2738
aVMichael
p2739
aVJeff
p2740
aVJeff
p2741
aVAlicia
p2742
aVJerri
p2743
aVNick
p2744
aVAmber
p2745
aVRodger
p2746
aVElisabeth
p2747
aVKeith
p2748
aVColby
p2749
aVTina
p2750
atp2751
bsg63
Nstp2752
Rp2753
ag21
(g22
(dp2754
g24
g25
(g26
(I0
tp2755
g28
tp2756
Rp2757
(I1
(L16L
tp2758
g35
I00
(lp2759
VTina
p2760
aVColby
p2761
aVKeith
p2762
aVElisabeth
p2763
aVRodger
p2764
aVAmber
p2765
aVNick
p2766
aVJerri
p2767
aVAlicia
p2768
aVJeff
p2769
aVMichael
p2770
aVKimmi
p2771
aVMitchell
p2772
aVMaralyn
p2773
aVKel
p2774
aVDebb
p2775
atp2776
bsg63
g93
(g96
S'\x01\x00\x00\x00\x00\x00\x00\x00'
p2777
tp2778
Rp2779
stp2780
Rp2781
a(lp2782
g25
(g26
(I0
tp2783
g28
tp2784
Rp2785
(I1
(L18L
L16L
tp2786
g35
I00
(lp2787
V \u2014
p2788
aV \u2014
p2789
aV \u2014
p2790
aV Debb
p2791
aV Debb
p2792
aV \u2014
p2793
aV Debb
p2794
aV \u2014
p2795
aV Debb
p2796
aV Debb
p2797
aV Debb
p2798
aV Debb
p2799
aV \u2014
p2800
aV \u2014
p2801
aV \u2014
p2802
aV Jeff
p2803
aV Kel
p2804
aV Kel
p2805
aV Kel
p2806
aV \u2014
p2807
aV \u2014
p2808
aV Kel
p2809
aV \u2014
p2810
aV Kel
p2811
aV \u2014
p2812
aV \u2014
p2813
aV \u2014
p2814
aV \u2014
p2815
aV Kel
p2816
aV Kel
p2817
aV Jerri
p2818
ag129
aV Maralyn
p2819
aV Maralyn
p2820
aV Mitchell
p2821
aV \u2014
p2822
aV \u2014
p2823
aV Maralyn
p2824
aV \u2014
p2825
aV Maralyn
p2826
aV \u2014
p2827
aV \u2014
p2828
aV \u2014
p2829
aV \u2014
p2830
aV Maralyn
p2831
aV Jerri
p2832
ag129
ag129
aV Mitchell
p2833
aV Mitchell
p2834
aV Mitchell
p2835
aV \u2014
p2836
aV \u2014
p2837
aV Keith
p2838
aV \u2014
p2839
aV Keith
p2840
aV \u2014
p2841
aV \u2014
p2842
aV \u2014
p2843
aV \u2014
p2844
aV Keith
p2845
ag129
ag129
ag129
aV Mitchell
p2846
aV Mitchell
p2847
aVNone
p2848
ag2836
ag2837
aV Keith
p2849
ag2839
aV Keith
p2850
ag2841
ag2842
ag2843
ag2844
aVNone
p2851
ag129
ag129
ag129
aV \u2014
p2852
aV \u2014
p2853
aV \u2014
p2854
aV Kimmi
p2855
aV Kimmi
p2856
aV \u2014
p2857
aV Kimmi
p2858
aV \u2014
p2859
aV Kimmi
p2860
aV Kimmi
p2861
aV Kimmi
p2862
aV Jeff
p2863
ag129
ag129
ag129
ag129
aV \u2014
p2864
aV \u2014
p2865
aV \u2014
p2866
aV \u2014
p2867
aV \u2014
p2868
aV \u2014
p2869
aV \u2014
p2870
aV \u2014
p2871
aV \u2014
p2872
aV \u2014
p2873
aVEvacuated
p2874
ag129
ag129
ag129
ag129
ag129
aV Jeff
p2875
aV Jeff
p2876
aV Jeff
p2877
aV Colby
p2878
aV Colby
p2879
aV Jeff
p2880
aV Colby
p2881
aV Jeff
p2882
aV Colby
p2883
aV Colby
p2884
ag129
ag129
ag129
ag129
ag129
ag129
aV Jeff
p2885
aVNone
p2886
aV Jeff
p2887
aV Colby
p2888
aV Colby
p2889
aV Jeff
p2890
aV Colby
p2891
aV Jeff
p2892
aV Colby
p2893
aVNone
p2894
ag129
ag129
ag129
ag129
ag129
ag129
aV Alicia
p2895
aV Alicia
p2896
aV Alicia
p2897
aV Jerri
p2898
aV Jerri
p2899
aV Alicia
p2900
aV Jerri
p2901
aV Alicia
p2902
aV Jerri
p2903
ag129
ag129
ag129
ag129
ag129
ag129
ag129
aV Jerri
p2904
aV Jerri
p2905
aV Jerri
p2906
aV Jerri
p2907
aV Jerri
p2908
aV Elisabeth
p2909
aV Jerri
p2910
aV Elisabeth
p2911
ag129
ag129
ag129
ag129
ag129
ag129
ag129
ag129
aV Nick
p2912
aV Nick
p2913
aV Nick
p2914
aV Amber
p2915
aV Amber
p2916
aV Nick
p2917
aV Keith
p2918
ag129
ag129
ag129
ag129
ag129
ag129
ag129
ag129
ag129
aV Amber
p2919
aV Rodger
p2920
aV Amber
p2921
aV Amber
p2922
aV Amber
p2923
aV Rodger
p2924
ag129
ag129
ag129
ag129
ag129
ag129
ag129
ag129
ag129
ag129
aV Rodger
p2925
aV Rodger
p2926
aV Rodger
p2927
aV Keith
p2928
aV Keith
p2929
ag129
ag129
ag129
ag129
ag129
ag129
ag129
ag129
ag129
ag129
ag129
aV Elisabeth
p2930
aV Elisabeth
p2931
aV Elisabeth
p2932
aV Keith
p2933
ag129
ag129
ag129
ag129
ag129
ag129
ag129
ag129
ag129
ag129
ag129
ag129
aV \u2014
p2934
aV Keith
p2935
aV \u2014
p2936
ag129
ag129
ag129
ag129
ag129
ag129
ag129
ag129
ag129
ag129
ag129
ag129
ag129
ag319
ag319
ag129
ag129
aV Colby
p2937
aV Colby
p2938
aV Colby
p2939
ag129
ag129
ag129
ag129
ag129
ag129
ag129
ag129
ag129
ag319
ag319
aV Tina
p2940
aV Tina
p2941
ag129
ag129
ag129
aV Tina
p2942
aV Tina
p2943
ag129
ag129
ag129
ag129
ag129
ag129
ag129
atp2944
ba(lp2945
g21
(g22
(dp2946
g24
g25
(g26
(I0
tp2947
g28
tp2948
Rp2949
(I1
(L18L
tp2950
g35
I00
(lp2951
g2733
ag2734
ag2735
ag2736
ag2737
ag2738
ag2739
ag2740
ag2741
ag2742
ag2743
ag2744
ag2745
ag2746
ag2747
ag2748
ag2749
ag2750
atp2952
bsg63
Nstp2953
Rp2954
a(dp2955
g339
(dp2956
g341
g2726
sg342
(lp2957
(dp2958
g345
g346
(I0
I18
I1
tp2959
Rp2960
sg349
g2785
sasstp2961
bsbssVHeroes_vs_Villains
p2962
(dp2963
g3
Vhttp://survivor.wikia.com/wiki/Survivor:_Heroes_vs_Villains
p2964
sg5
g6
(g7
g8
Ntp2965
Rp2966
(dp2967
g12
g13
sg14
g15
sg16
g6
(g17
g8
Ntp2968
Rp2969
((lp2970
g21
(g22
(dp2971
g24
g25
(g26
(I0
tp2972
g28
tp2973
Rp2974
(I1
(L20L
tp2975
g35
I00
(lp2976
VSugar
p2977
aVStephenie
p2978
aVRandy
p2979
aVCirie
p2980
aVTom
p2981
aVTyson
p2982
aVJames
p2983
aVRob
p2984
aVCoach
p2985
aVCourtney
p2986
aVJ.T.
p2987
aVAmanda
p2988
aVCandice
p2989
aVDanielle
p2990
aVRupert
p2991
aVColby
p2992
aVJerri
p2993
aVRussell
p2994
aVParvati
p2995
aVSandra
p2996
atp2997
bsg63
Nstp2998
Rp2999
ag21
(g22
(dp3000
g24
g25
(g26
(I0
tp3001
g28
tp3002
Rp3003
(I1
(L20L
tp3004
g35
I00
(lp3005
VSandra
p3006
aVParvati
p3007
aVRussell
p3008
aVJerri
p3009
aVColby
p3010
aVRupert
p3011
aVDanielle
p3012
aVCandice
p3013
aVAmanda
p3014
aVJ.T.
p3015
aVCourtney
p3016
aVCoach
p3017
aVRob
p3018
aVJames
p3019
aVTyson
p3020
aVTom
p3021
aVCirie
p3022
aVRandy
p3023
aVStephenie
p3024
aVSugar
p3025
atp3026
bsg63
g93
(g96
S'\x01\x00\x00\x00\x00\x00\x00\x00'
p3027
tp3028
Rp3029
stp3030
Rp3031
a(lp3032
g25
(g26
(I0
tp3033
g28
tp3034
Rp3035
(I1
(L20L
L20L
tp3036
g35
I00
(lp3037
V \u2014
p3038
aV \u2014
p3039
aV \u2014
p3040
aV \u2014
p3041
aV Sugar
p3042
aV Sugar
p3043
aV \u2014
p3044
aV Sugar
p3045
aV Sugar
p3046
aV Sugar
p3047
aV \u2014
p3048
aV \u2014
p3049
aV \u2014
p3050
aV Sugar
p3051
aV \u2014
p3052
aV Sugar
p3053
aV Sugar
p3054
aV \u2014
p3055
aV Sugar
p3056
aV Amanda
p3057
aV \u2014
p3058
aV \u2014
p3059
aV \u2014
p3060
aV \u2014
p3061
aV Amanda
p3062
aV Stephenie
p3063
aV \u2014
p3064
aV Stephenie
p3065
aV Stephenie
p3066
aV Stephenie
p3067
aV \u2014
p3068
aV \u2014
p3069
aV \u2014
p3070
aV Stephenie
p3071
aV \u2014
p3072
aV Amanda
p3073
aV Stephenie
p3074
aV \u2014
p3075
aV Amanda
p3076
ag129
aV Randy
p3077
aV Randy
p3078
aV Randy
p3079
aV Randy
p3080
aV \u2014
p3081
aV \u2014
p3082
aV Randy
p3083
aV \u2014
p3084
aV \u2014
p3085
aV \u2014
p3086
aV Randy
p3087
aV Randy
p3088
aV Randy
p3089
aV \u2014
p3090
aV Randy
p3091
aV \u2014
p3092
aV \u2014
p3093
aV Rob
p3094
ag129
ag129
aV \u2014
p3095
aV \u2014
p3096
aV \u2014
p3097
aV \u2014
p3098
aV Cirie
p3099
aV Colby
p3100
aV \u2014
p3101
aV Tom
p3102
aV Tom
p3103
aV Cirie
p3104
aV \u2014
p3105
aV \u2014
p3106
aV \u2014
p3107
aV Colby
p3108
aV \u2014
p3109
aV Cirie
p3110
aV Tom
p3111
ag129
ag129
ag129
aV \u2014
p3112
aV \u2014
p3113
aV \u2014
p3114
aV \u2014
p3115
aV James
p3116
aV Tom
p3117
aV \u2014
p3118
aV Tom
p3119
aV Tom
p3120
aV Tom
p3121
aV \u2014
p3122
aV \u2014
p3123
aV \u2014
p3124
aV Tom
p3125
aV \u2014
p3126
aV James
p3127
ag129
ag129
ag129
ag129
aV Russell
p3128
aV Tyson
p3129
aV Tyson
p3130
aV Parvati
p3131
aV \u2014
p3132
aV \u2014
p3133
aV Tyson
p3134
aV \u2014
p3135
aV \u2014
p3136
aV \u2014
p3137
aV Parvati
p3138
aV Parvati
p3139
aV Russell
p3140
aV \u2014
p3141
aV Parvati
p3142
ag129
ag129
ag129
ag129
ag129
aV \u2014
p3143
aV \u2014
p3144
aV \u2014
p3145
aV \u2014
p3146
aV James
p3147
aV James
p3148
aV \u2014
p3149
aV James
p3150
aV James
p3151
aV James
p3152
aV \u2014
p3153
aV \u2014
p3154
aV \u2014
p3155
aV Colby
p3156
ag129
ag129
ag129
ag129
ag129
ag129
aV Russell
p3157
aV Rob
p3158
aV Rob
p3159
aV Rob
p3160
aV \u2014
p3161
aV \u2014
p3162
aV Rob
p3163
aV \u2014
p3164
aV \u2014
p3165
aV \u2014
p3166
aV Russell
p3167
aV Courtney
p3168
aV Russell
p3169
ag129
ag129
ag129
ag129
ag129
ag129
ag129
aV Coach
p3170
aV Coach
p3171
aV Courtney
p3172
aV Courtney
p3173
aV \u2014
p3174
aV \u2014
p3175
aV Coach
p3176
aV \u2014
p3177
aV \u2014
p3178
aV \u2014
p3179
aV Coach
p3180
aV Courtney
p3181
ag129
ag129
ag129
ag129
ag129
ag129
ag129
ag129
aV Courtney
p3182
aV Courtney
p3183
aV Courtney
p3184
aV Courtney
p3185
aV \u2014
p3186
aV \u2014
p3187
aV Courtney
p3188
aV \u2014
p3189
aV \u2014
p3190
aV \u2014
p3191
aV Jerri
p3192
ag129
ag129
ag129
ag129
ag129
ag129
ag129
ag129
ag129
aV J.T.
p3193
aV J.T.
p3194
aV J.T.
p3195
aV J.T.
p3196
aV Jerri
p3197
aV Jerri
p3198
aV J.T.
p3199
aV Jerri
p3200
aV Jerri
p3201
aV Jerri
p3202
ag129
ag129
ag129
ag129
ag129
ag129
ag129
ag129
ag129
ag129
aV Amanda
p3203
aV Amanda
p3204
aV Amanda
p3205
aV Amanda
p3206
aV Parvati
p3207
aV Parvati
p3208
aV Amanda
p3209
aV Amanda
p3210
aV Parvati
p3211
ag129
ag129
ag129
ag129
ag129
ag129
ag129
ag129
ag129
ag129
ag129
aV Candice
p3212
aV Rupert
p3213
aV Candice
p3214
aV Candice
p3215
aV Candice
p3216
aV Candice
p3217
aV Rupert
p3218
aV Rupert
p3219
ag129
ag129
ag129
ag129
ag129
ag129
ag129
ag129
ag129
ag129
ag129
ag129
aV Rupert
p3220
aV Rupert
p3221
aV Danielle
p3222
aV Danielle
p3223
aV Danielle
p3224
aV Danielle
p3225
aV Rupert
p3226
ag129
ag129
ag129
ag129
ag129
ag129
ag129
ag129
ag129
ag129
ag129
ag129
ag129
aV Rupert
p3227
aV Rupert
p3228
aV Rupert
p3229
aV Rupert
p3230
aV Sandra
p3231
aV Sandra
p3232
ag129
ag129
ag129
ag129
ag129
ag129
ag129
ag129
ag129
ag129
ag129
ag129
ag129
ag129
aV Colby
p3233
aV Colby
p3234
aV Colby
p3235
aV Colby
p3236
aV Sandra
p3237
ag129
ag129
ag129
ag129
ag129
ag129
ag129
ag129
ag129
ag129
ag129
ag129
ag129
ag129
ag129
aV Jerri
p3238
aV Jerri
p3239
aV Jerri
p3240
aV Parvati
p3241
ag129
ag129
ag129
ag129
ag129
ag129
ag129
ag129
ag129
ag129
ag129
ag129
ag129
ag129
ag129
ag129
ag319
ag319
ag319
ag129
ag129
ag129
ag129
ag129
ag129
ag129
ag129
ag129
ag129
ag129
ag129
ag129
ag129
ag129
ag129
ag129
ag319
ag319
ag319
aV Parvati
p3242
ag129
ag129
aV Parvati
p3243
ag129
ag129
ag129
ag129
aV Parvati
p3244
ag129
ag129
ag129
ag129
ag129
ag129
ag129
ag129
ag319
ag319
ag319
ag129
aV Sandra
p3245
aV Sandra
p3246
ag129
aV Sandra
p3247
aV Sandra
p3248
aV Sandra
p3249
aV Sandra
p3250
ag129
ag129
ag129
ag129
ag129
ag129
ag129
ag129
ag129
atp3251
ba(lp3252
g21
(g22
(dp3253
g24
g25
(g26
(I0
tp3254
g28
tp3255
Rp3256
(I1
(L20L
tp3257
g35
I00
(lp3258
g2977
ag2978
ag2979
ag2980
ag2981
ag2982
ag2983
ag2984
ag2985
ag2986
ag2987
ag2988
ag2989
ag2990
ag2991
ag2992
ag2993
ag2994
ag2995
ag2996
atp3259
bsg63
Nstp3260
Rp3261
a(dp3262
g339
(dp3263
g341
g2970
sg342
(lp3264
(dp3265
g345
g346
(I0
I20
I1
tp3266
Rp3267
sg349
g3035
sasstp3268
bsbssVGuatemala
p3269
(dp3270
g3
Vhttp://survivor.wikia.com/wiki/Survivor:_Guatemala
p3271
sg5
g6
(g7
g8
Ntp3272
Rp3273
(dp3274
g12
g13
sg14
g15
sg16
g6
(g17
g8
Ntp3275
Rp3276
((lp3277
g21
(g22
(dp3278
g24
g25
(g26
(I0
tp3279
g28
tp3280
Rp3281
(I1
(L18L
tp3282
g35
I00
(lp3283
VJim
p3284
aVMorgan
p3285
aVBrianna
p3286
aVBrooke
p3287
aVBlake
p3288
aVMargaret
p3289
aVBrian
p3290
aVAmy
p3291
aVBrandon
p3292
aVBobby Jon
p3293
aVJamie
p3294
aVGary
p3295
aVJudd
p3296
aVCindy
p3297
aVLydia
p3298
aVRafe
p3299
aVStephenie
p3300
aVDanni
p3301
atp3302
bsg63
Nstp3303
Rp3304
ag21
(g22
(dp3305
g24
g25
(g26
(I0
tp3306
g28
tp3307
Rp3308
(I1
(L18L
tp3309
g35
I00
(lp3310
VDanni
p3311
aVStephenie
p3312
aVRafe
p3313
aVLydia
p3314
aVCindy
p3315
aVJudd
p3316
aVGary
p3317
aVJamie
p3318
aVBobby Jon
p3319
aVBrandon
p3320
aVAmy
p3321
aVBrian
p3322
aVMargaret
p3323
aVBlake
p3324
aVBrooke
p3325
aVBrianna
p3326
aVMorgan
p3327
aVJim
p3328
atp3329
bsg63
g93
(g96
S'\x01\x00\x00\x00\x00\x00\x00\x00'
p3330
tp3331
Rp3332
stp3333
Rp3334
a(lp3335
g25
(g26
(I0
tp3336
g28
tp3337
Rp3338
(I1
(L18L
L18L
tp3339
g35
I00
(lp3340
V Jim
p3341
aV \u2014
p3342
aV \u2014
p3343
aV \u2014
p3344
aV Jim
p3345
aV Jim
p3346
aV \u2014
p3347
aV \u2014
p3348
aV Jim
p3349
aV Jim
p3350
aV \u2014
p3351
aV \u2014
p3352
aV Jim
p3353
aV Jim
p3354
aV Jim
p3355
aV \u2014
p3356
aV \u2014
p3357
aV Margaret
p3358
aV \u2014
p3359
aV Morgan
p3360
aV Morgan
p3361
aV Morgan
p3362
aV \u2014
p3363
aV \u2014
p3364
aV Morgan
p3365
aV Morgan
p3366
aV \u2014
p3367
aV \u2014
p3368
aV Morgan
p3369
aV Morgan
p3370
aV \u2014
p3371
aV \u2014
p3372
aV \u2014
p3373
aV Morgan
p3374
aV Lydia
p3375
ag129
aV \u2014
p3376
aV Brianna
p3377
aV Brianna
p3378
aV Brianna
p3379
aV \u2014
p3380
aV \u2014
p3381
aV Brianna
p3382
aV Brianna
p3383
aV \u2014
p3384
aV \u2014
p3385
aV Brianna
p3386
aV Brianna
p3387
aV \u2014
p3388
aV \u2014
p3389
aV \u2014
p3390
aV Lydia
p3391
ag129
ag129
aV \u2014
p3392
aV Brooke
p3393
aV Brooke
p3394
aV Brooke
p3395
aV Lydia
p3396
aV Brooke
p3397
aV \u2014
p3398
aV Brooke
p3399
aV \u2014
p3400
aV \u2014
p3401
aV \u2014
p3402
aV \u2014
p3403
aV Lydia
p3404
aV \u2014
p3405
aV Lydia
p3406
ag129
ag129
ag129
aV Blake
p3407
aV \u2014
p3408
aV \u2014
p3409
aV \u2014
p3410
aV \u2014
p3411
aV \u2014
p3412
aV Blake
p3413
aV \u2014
p3414
aV Blake
p3415
aV Brian
p3416
aV Blake
p3417
aV Blake
p3418
aV \u2014
p3419
aV Brian
p3420
ag129
ag129
ag129
ag129
aV \u2014
p3421
aV Margaret
p3422
aV Margaret
p3423
aV Margaret
p3424
aV Margaret
p3425
aV Margaret
p3426
aV \u2014
p3427
aV Margaret
p3428
aV \u2014
p3429
aV \u2014
p3430
aV \u2014
p3431
aV \u2014
p3432
aV Judd
p3433
ag129
ag129
ag129
ag129
ag129
aV Brian
p3434
aV \u2014
p3435
aV \u2014
p3436
aV \u2014
p3437
aV \u2014
p3438
aV \u2014
p3439
aV Brian
p3440
aV \u2014
p3441
aV Brian
p3442
aV Brian
p3443
aV Brian
p3444
aV Bobby Jon
p3445
ag129
ag129
ag129
ag129
ag129
ag129
aV Amy
p3446
aV \u2014
p3447
aV \u2014
p3448
aV \u2014
p3449
aV \u2014
p3450
aV \u2014
p3451
aV Amy
p3452
aV \u2014
p3453
aV Amy
p3454
aV Amy
p3455
aV Bobby Jon
p3456
ag129
ag129
ag129
ag129
ag129
ag129
ag129
aV Jamie
p3457
aV Brandon
p3458
aV Brandon
p3459
aV Brandon
p3460
aV Brandon
p3461
aV Brandon
p3462
aV Jamie
p3463
aV Brandon
p3464
aV Jamie
p3465
aV Jamie
p3466
ag129
ag129
ag129
ag129
ag129
ag129
ag129
ag129
aV Stephenie
p3467
aV Bobby Jon
p3468
aV Bobby Jon
p3469
aV Bobby Jon
p3470
aV Bobby Jon
p3471
aV Bobby Jon
p3472
aV Cindy
p3473
aV Bobby Jon
p3474
aV Stephenie
p3475
ag129
ag129
ag129
ag129
ag129
ag129
ag129
ag129
ag129
aV Jamie
p3476
aV Jamie
p3477
aV Jamie
p3478
aV Jamie
p3479
aV Jamie
p3480
aV Gary
p3481
aV Jamie
p3482
aV Gary
p3483
ag129
ag129
ag129
ag129
ag129
ag129
ag129
ag129
ag129
ag129
aV Gary
p3484
aV Gary
p3485
aV Gary
p3486
aV Gary
p3487
aV Gary
p3488
aV Gary
p3489
aV Cindy
p3490
ag129
ag129
ag129
ag129
ag129
ag129
ag129
ag129
ag129
ag129
ag129
aV Judd
p3491
aV Judd
p3492
aV Judd
p3493
aV Judd
p3494
aV Lydia
p3495
aV Lydia
p3496
ag129
ag129
ag129
ag129
ag129
ag129
ag129
ag129
ag129
ag129
ag129
ag129
aV Cindy
p3497
aV Cindy
p3498
aV Cindy
p3499
aV Cindy
p3500
aV Rafe
p3501
ag129
ag129
ag129
ag129
ag129
ag129
ag129
ag129
ag129
ag129
ag129
ag129
ag129
aV Lydia
p3502
aV Lydia
p3503
aV Lydia
p3504
aV Danni
p3505
ag129
ag129
ag129
ag129
ag129
ag129
ag129
ag129
ag129
ag129
ag129
ag129
ag129
ag129
aV Rafe
p3506
aV \u2014
p3507
aV  \u2014
p3508
ag129
ag129
ag129
ag129
ag129
ag129
ag129
ag129
ag129
ag129
ag129
ag129
ag129
ag129
ag129
ag319
ag319
aV Stephenie
p3509
ag129
ag129
ag129
ag129
ag129
ag129
ag129
ag129
ag129
ag129
ag129
ag129
ag129
ag129
ag129
ag319
ag319
ag129
aV Danni
p3510
aV Danni
p3511
aV Danni
p3512
aV Danni
p3513
aV Danni
p3514
aV Danni
p3515
ag129
ag129
ag129
ag129
ag129
ag129
ag129
ag129
ag129
atp3516
ba(lp3517
g21
(g22
(dp3518
g24
g25
(g26
(I0
tp3519
g28
tp3520
Rp3521
(I1
(L18L
tp3522
g35
I00
(lp3523
g3284
ag3285
ag3286
ag3287
ag3288
ag3289
ag3290
ag3291
ag3292
ag3293
ag3294
ag3295
ag3296
ag3297
ag3298
ag3299
ag3300
ag3301
atp3524
bsg63
Nstp3525
Rp3526
a(dp3527
g339
(dp3528
g341
g3277
sg342
(lp3529
(dp3530
g345
g346
(I0
I18
I1
tp3531
Rp3532
sg349
g3338
sasstp3533
bsbssVChina
p3534
(dp3535
g3
Vhttp://survivor.wikia.com/wiki/Survivor:_China
p3536
sg5
g6
(g7
g8
Ntp3537
Rp3538
(dp3539
g12
g13
sg14
g15
sg16
g6
(g17
g8
Ntp3540
Rp3541
((lp3542
g21
(g22
(dp3543
g24
g25
(g26
(I0
tp3544
g28
tp3545
Rp3546
(I1
(L16L
tp3547
g35
I00
(lp3548
VChicken
p3549
aVAshley
p3550
aVLeslie
p3551
aVDave
p3552
aVAaron
p3553
aVSherea
p3554
aVJaime
p3555
aVJean-Robert
p3556
aVFrosti
p3557
aVJames
p3558
aVErik
p3559
aVPeih-Gee
p3560
aVDenise
p3561
aVAmanda
p3562
aVCourtney
p3563
aVTodd
p3564
atp3565
bsg63
Nstp3566
Rp3567
ag21
(g22
(dp3568
g24
g25
(g26
(I0
tp3569
g28
tp3570
Rp3571
(I1
(L16L
tp3572
g35
I00
(lp3573
VTodd
p3574
aVCourtney
p3575
aVAmanda
p3576
aVDenise
p3577
aVPeih-Gee
p3578
aVErik
p3579
aVJames
p3580
aVFrosti
p3581
aVJean-Robert
p3582
aVJaime
p3583
aVSherea
p3584
aVAaron
p3585
aVDave
p3586
aVLeslie
p3587
aVAshley
p3588
aVChicken
p3589
atp3590
bsg63
g93
(g96
S'\x01\x00\x00\x00\x00\x00\x00\x00'
p3591
tp3592
Rp3593
stp3594
Rp3595
a(lp3596
g25
(g26
(I0
tp3597
g28
tp3598
Rp3599
(I1
(L16L
L16L
tp3600
g35
I00
(lp3601
V \u2014
p3602
aV \u2014
p3603
aV \u2014
p3604
aV \u2014
p3605
aV Chicken
p3606
aV Chicken
p3607
aV \u2014
p3608
aV Chicken
p3609
aV \u2014
p3610
aV Chicken
p3611
aV Chicken
p3612
aV \u2014
p3613
aV Ashley
p3614
aV \u2014
p3615
aV Peih-Gee
p3616
aV Ashley
p3617
aV \u2014
p3618
aV \u2014
p3619
aV \u2014
p3620
aV \u2014
p3621
aV Ashley
p3622
aV Ashley
p3623
aV \u2014
p3624
aV Ashley
p3625
aV \u2014
p3626
aV Ashley
p3627
aV Ashley
p3628
aV \u2014
p3629
aV Ashley
p3630
aV \u2014
p3631
aV Dave
p3632
ag129
aV Leslie
p3633
aV Jean-Robert
p3634
aV Leslie
p3635
aV Leslie
p3636
aV \u2014
p3637
aV \u2014
p3638
aV Leslie
p3639
aV \u2014
p3640
aV Leslie
p3641
aV \u2014
p3642
aV \u2014
p3643
aV Leslie
p3644
aV \u2014
p3645
aV Jean-Robert
p3646
ag129
ag129
aV \u2014
p3647
aV \u2014
p3648
aV \u2014
p3649
aV \u2014
p3650
aV Dave
p3651
aV Dave
p3652
aV \u2014
p3653
aV Dave
p3654
aV \u2014
p3655
aV Dave
p3656
aV Dave
p3657
aV \u2014
p3658
aV Sherea
p3659
ag129
ag129
ag129
aV \u2014
p3660
aV \u2014
p3661
aV \u2014
p3662
aV \u2014
p3663
aV Aaron
p3664
aV Aaron
p3665
aV Peih-Gee
p3666
aV \u2014
p3667
aV \u2014
p3668
aV Aaron
p3669
aV \u2014
p3670
aV James
p3671
ag129
ag129
ag129
ag129
aV Sherea
p3672
aV Jean-Robert
p3673
aV Sherea
p3674
aV Sherea
p3675
aV \u2014
p3676
aV \u2014
p3677
aV \u2014
p3678
aV Sherea
p3679
aV Sherea
p3680
aV \u2014
p3681
aV Jean-Robert
p3682
ag129
ag129
ag129
ag129
ag129
aV Jaime
p3683
aV Jaime
p3684
aV Jaime
p3685
aV Jaime
p3686
aV Jean-Robert
p3687
aV Jean-Robert
p3688
aV Jaime
p3689
aV Jaime
p3690
aV Jaime
p3691
aV Jean-Robert
p3692
ag129
ag129
ag129
ag129
ag129
ag129
aV Jean-Robert
p3693
aV Jean-Robert
p3694
aV Jean-Robert
p3695
aV Peih-Gee
p3696
aV James
p3697
aV James
p3698
aV Jean-Robert
p3699
aV Jean-Robert
p3700
aV James
p3701
ag129
ag129
ag129
ag129
ag129
ag129
ag129
aV Frosti
p3702
aV Frosti
p3703
aV Frosti
p3704
aV Frosti
p3705
aV Frosti
p3706
aV Frosti
p3707
aV Frosti
p3708
aV Erik
p3709
ag129
ag129
ag129
ag129
ag129
ag129
ag129
ag129
aV James
p3710
aV James
p3711
aV James
p3712
aV James
p3713
aV Todd
p3714
aV James
p3715
aV Peih-Gee
p3716
ag129
ag129
ag129
ag129
ag129
ag129
ag129
ag129
ag129
aV Erik
p3717
aV Erik
p3718
aV Erik
p3719
aV Erik
p3720
aV Todd
p3721
aV Todd
p3722
ag129
ag129
ag129
ag129
ag129
ag129
ag129
ag129
ag129
ag129
aV Peih-Gee
p3723
aV Peih-Gee
p3724
aV Peih-Gee
p3725
aV Peih-Gee
p3726
aV Todd
p3727
ag129
ag129
ag129
ag129
ag129
ag129
ag129
ag129
ag129
ag129
ag129
aV Denise
p3728
aV Denise
p3729
aV Denise
p3730
aV Todd
p3731
ag129
ag129
ag129
ag129
ag129
ag129
ag129
ag129
ag129
ag129
ag129
ag129
ag319
ag319
ag319
ag129
ag129
aV Amanda
p3732
ag129
ag129
ag129
ag129
ag129
ag129
ag129
ag129
ag129
ag129
ag319
ag319
ag319
aV Courtney
p3733
ag129
ag129
aV Courtney
p3734
ag129
ag129
ag129
ag129
ag129
ag129
ag129
ag129
ag129
ag319
ag319
ag319
ag129
aV Todd
p3735
ag129
ag129
aV Todd
p3736
aV Todd
p3737
aV Todd
p3738
ag129
ag129
ag129
ag129
ag129
ag129
atp3739
ba(lp3740
g21
(g22
(dp3741
g24
g25
(g26
(I0
tp3742
g28
tp3743
Rp3744
(I1
(L16L
tp3745
g35
I00
(lp3746
g3549
ag3550
ag3551
ag3552
ag3553
ag3554
ag3555
ag3556
ag3557
ag3558
ag3559
ag3560
ag3561
ag3562
ag3563
ag3564
atp3747
bsg63
Nstp3748
Rp3749
a(dp3750
g339
(dp3751
g341
g3542
sg342
(lp3752
(dp3753
g345
g346
(I0
I16
I1
tp3754
Rp3755
sg349
g3599
sasstp3756
bsbssVWorlds_Apart
p3757
(dp3758
g3
Vhttp://survivor.wikia.com/wiki/Survivor:_Worlds_Apart
p3759
sg5
g6
(g7
g8
Ntp3760
Rp3761
(dp3762
g12
g13
sg14
g15
sg16
g6
(g17
g8
Ntp3763
Rp3764
((lp3765
g21
(g22
(dp3766
g24
g25
(g26
(I0
tp3767
g28
tp3768
Rp3769
(I1
(L20L
tp3770
g35
I00
(lp3771
VSo
p3772
aVVince
p3773
aVNina
p3774
aVLindsey
p3775
aVLindsey
p3776
aVMax
p3777
aVJoaquin
p3778
aVKelly
p3779
aVHali
p3780
aVJoe
p3781
aVJenn
p3782
aVShirin
p3783
aVTyler
p3784
aVDan
p3785
aVDan
p3786
aVSierra
p3787
aVRodney
p3788
aVWill
p3789
aVCarolyn
p3790
aVMike
p3791
atp3792
bsg63
Nstp3793
Rp3794
ag21
(g22
(dp3795
g24
g25
(g26
(I0
tp3796
g28
tp3797
Rp3798
(I1
(L18L
tp3799
g35
I00
(lp3800
VMike
p3801
aVCarolyn
p3802
aVWill
p3803
aVRodney
p3804
aVSierra
p3805
aVDan
p3806
aVTyler
p3807
aVShirin
p3808
aVJenn
p3809
aVJoe
p3810
aVHali
p3811
aVKelly
p3812
aVJoaquin
p3813
aVMax
p3814
aVLindsey
p3815
aVNina
p3816
aVVince
p3817
aVSo
p3818
atp3819
bsg63
g93
(g96
S'\x01\x00\x00\x00\x00\x00\x00\x00'
p3820
tp3821
Rp3822
stp3823
Rp3824
a(lp3825
g25
(g26
(I0
tp3826
g28
tp3827
Rp3828
(I1
(L20L
L18L
tp3829
g35
I00
(lp3830
V \u2014
p3831
aV So
p3832
aV \u2014
p3833
aV \u2014
p3834
aV \u2014
p3835
aV \u2014
p3836
aV So
p3837
aV So
p3838
aV \u2014
p3839
aV \u2014
p3840
aV \u2014
p3841
aV \u2014
p3842
aV Carolyn
p3843
aV So
p3844
aV \u2014
p3845
aV \u2014
p3846
aV \u2014
p3847
aV Carolyn
p3848
aV \u2014
p3849
aV \u2014
p3850
aV Vince
p3851
aV \u2014
p3852
aV \u2014
p3853
aV \u2014
p3854
aV \u2014
p3855
aV \u2014
p3856
aV Vince
p3857
aV Nina
p3858
aV Vince
p3859
aV \u2014
p3860
aV \u2014
p3861
aV \u2014
p3862
aV \u2014
p3863
aV Jenn
p3864
aV Jenn
p3865
ag129
aV \u2014
p3866
aV \u2014
p3867
aV Nina
p3868
aV \u2014
p3869
aV \u2014
p3870
aV \u2014
p3871
aV \u2014
p3872
aV \u2014
p3873
aV Nina
p3874
aV Nina
p3875
aV Will
p3876
aV \u2014
p3877
aV \u2014
p3878
aV \u2014
p3879
aV \u2014
p3880
aV Will
p3881
ag129
ag129
aV Lindsey
p3882
aV\u2014
p3883
aV\u2014
p3884
aV Sierra
p3885
aV Rodney
p3886
aV Lindsey
p3887
aV\u2014
p3888
aV\u2014
p3889
aV\u2014
p3890
aV\u2014
p3891
aV\u2014
p3892
aV Sierra
p3893
aV\u2014
p3894
aV\u2014
p3895
aV Rodney
p3896
ag129
ag129
ag129
aV Lindsey
p3897
ag3883
ag3884
aV None
p3898
aV None
p3899
aV Lindsey
p3900
ag3888
ag3889
ag3890
ag3891
ag3892
aV Lindsey
p3901
ag3894
ag3895
aV None
p3902
ag129
ag129
ag129
aV \u2014
p3903
aV Max
p3904
aV Max
p3905
aV \u2014
p3906
aV \u2014
p3907
aV \u2014
p3908
aV \u2014
p3909
aV Will
p3910
aV Max
p3911
aV \u2014
p3912
aV Max
p3913
aV Max
p3914
aV \u2014
p3915
aV Will
p3916
ag129
ag129
ag129
ag129
aV Joaquin
p3917
aV \u2014
p3918
aV \u2014
p3919
aV Joe
p3920
aV Joaquin
p3921
aV Joaquin
p3922
aV Joe
p3923
aV \u2014
p3924
aV \u2014
p3925
aV Joaquin
p3926
aV \u2014
p3927
aV \u2014
p3928
aV Joe
p3929
ag129
ag129
ag129
ag129
ag129
aV Jenn
p3930
aV Jenn
p3931
aV Hali
p3932
aV Jenn
p3933
aV Jenn
p3934
aV Jenn
p3935
aV Jenn
p3936
aV Kelly
p3937
aV Kelly
p3938
aV Kelly
p3939
aV Kelly
p3940
aV Jenn
p3941
ag129
ag129
ag129
ag129
ag129
ag129
aV Hali
p3942
aV Hali
p3943
aV Hali
p3944
aV Hali
p3945
aV Hali
p3946
aV Hali
p3947
aV Hali
p3948
aV Dan
p3949
aV Dan
p3950
aV Dan
p3951
aV Dan
p3952
ag129
ag129
ag129
ag129
ag129
ag129
ag129
aV Joe
p3953
aV Jenn
p3954
aV Jenn
p3955
aV Joe
p3956
aV Joe
p3957
aV Joe
p3958
aV Jenn
p3959
aV Joe
p3960
aV Dan
p3961
aV Jenn
p3962
ag129
ag129
ag129
ag129
ag129
ag129
ag129
ag129
aV Jenn
p3963
aV Jenn
p3964
aV Jenn
p3965
aV Shirin
p3966
aV Shirin
p3967
aV Shirin
p3968
aV Jenn
p3969
aV Jenn
p3970
aV Carolyn
p3971
ag129
ag129
ag129
ag129
ag129
ag129
ag129
ag129
ag129
aV Tyler
p3972
aV Shirin
p3973
aV Dan
p3974
aV Shirin
p3975
aV Shirin
p3976
aV Shirin
p3977
aV Dan
p3978
aV Tyler
p3979
ag129
ag129
ag129
ag129
ag129
ag129
ag129
ag129
ag129
ag129
aV Tyler
p3980
aV Tyler
p3981
aV Mike
p3982
aV Mike
p3983
aV Tyler
p3984
aV Mike
p3985
aV Mike
p3986
ag129
ag129
ag129
ag129
ag129
ag129
ag129
ag129
ag129
ag129
ag129
aV Dan
p3987
aV Dan
p3988
aV Carolyn
p3989
aV Carolyn
p3990
aV Carolyn
p3991
aV Carolyn
p3992
ag129
ag129
ag129
ag129
ag129
ag129
ag129
ag129
ag129
ag129
ag129
ag129
ag3987
ag3988
ag3989
ag3990
ag3991
aV Carolyn
p3993
ag129
ag129
ag129
ag129
ag129
ag129
ag129
ag129
ag129
ag129
ag129
ag129
aV Sierra
p3994
aV Sierra
p3995
aV Sierra
p3996
aV Sierra
p3997
aV Rodney
p3998
ag129
ag129
ag129
ag129
ag129
ag129
ag129
ag129
ag129
ag129
ag129
ag129
ag129
aV Rodney
p3999
aV Rodney
p4000
aV Carolyn
p4001
aV Carolyn
p4002
ag129
ag129
ag129
ag129
ag129
ag129
ag129
ag129
ag129
ag129
ag129
ag129
ag129
ag129
ag319
ag319
ag319
aV Will
p4003
ag129
ag129
ag129
ag129
ag129
ag129
ag129
ag129
ag129
ag129
ag129
ag129
ag129
ag129
ag319
ag319
ag319
ag129
aV Carolyn
p4004
ag129
ag129
ag129
ag129
ag129
ag129
ag129
ag129
ag129
ag129
ag129
ag129
ag129
ag319
ag319
ag319
ag129
ag129
aV Mike
p4005
aV Mike
p4006
aV Mike
p4007
aV Mike
p4008
aV Mike
p4009
aV Mike
p4010
ag129
ag129
ag129
ag129
ag129
ag129
ag129
atp4011
ba(lp4012
g21
(g22
(dp4013
g24
g25
(g26
(I0
tp4014
g28
tp4015
Rp4016
(I1
(L20L
tp4017
g35
I00
(lp4018
g3772
ag3773
ag3774
ag3775
ag3776
ag3777
ag3778
ag3779
ag3780
ag3781
ag3782
ag3783
ag3784
ag3785
ag3786
ag3787
ag3788
ag3789
ag3790
ag3791
atp4019
bsg63
Nstp4020
Rp4021
a(dp4022
g339
(dp4023
g341
g3765
sg342
(lp4024
(dp4025
g345
g346
(I0
I20
I1
tp4026
Rp4027
sg349
g3828
sasstp4028
bsbssVThailand
p4029
(dp4030
g3
Vhttp://survivor.wikia.com/wiki/Survivor:_Thailand
p4031
sg5
g6
(g7
g8
Ntp4032
Rp4033
(dp4034
g12
g13
sg14
g15
sg16
g6
(g17
g8
Ntp4035
Rp4036
((lp4037
g21
(g22
(dp4038
g24
g25
(g26
(I0
tp4039
g28
tp4040
Rp4041
(I1
(L16L
tp4042
g35
I00
(lp4043
VJohn
p4044
aVTanya
p4045
aVJed
p4046
aVGhandia
p4047
aVStephanie
p4048
aVRobb
p4049
aVShii Ann
p4050
aVErin
p4051
aVKen
p4052
aVPenny
p4053
aVJake
p4054
aVTed
p4055
aVHelen
p4056
aVJan
p4057
aVClay
p4058
aVBrian
p4059
atp4060
bsg63
Nstp4061
Rp4062
ag21
(g22
(dp4063
g24
g25
(g26
(I0
tp4064
g28
tp4065
Rp4066
(I1
(L16L
tp4067
g35
I00
(lp4068
VBrian
p4069
aVClay
p4070
aVJan
p4071
aVHelen
p4072
aVTed
p4073
aVJake
p4074
aVPenny
p4075
aVKen
p4076
aVErin
p4077
aVShii Ann
p4078
aVRobb
p4079
aVStephanie
p4080
aVGhandia
p4081
aVJed
p4082
aVTanya
p4083
aVJohn
p4084
atp4085
bsg63
g93
(g96
S'\x01\x00\x00\x00\x00\x00\x00\x00'
p4086
tp4087
Rp4088
stp4089
Rp4090
a(lp4091
g25
(g26
(I0
tp4092
g28
tp4093
Rp4094
(I1
(L16L
L16L
tp4095
g35
I00
(lp4096
V John
p4097
aV John
p4098
aV John
p4099
aV Clay
p4100
aV John
p4101
aV \u2014
p4102
aV \u2014
p4103
aV \u2014
p4104
aV \u2014
p4105
aV \u2014
p4106
aV \u2014
p4107
aV \u2014
p4108
aV John
p4109
aV \u2014
p4110
aV John
p4111
aV Ghandia
p4112
aV Tanya
p4113
aV Tanya
p4114
aV Tanya
p4115
aV Tanya
p4116
aV Tanya
p4117
aV \u2014
p4118
aV \u2014
p4119
aV \u2014
p4120
aV \u2014
p4121
aV \u2014
p4122
aV \u2014
p4123
aV \u2014
p4124
aV Helen
p4125
aV \u2014
p4126
aV Helen
p4127
ag129
aV \u2014
p4128
aV \u2014
p4129
aV \u2014
p4130
aV \u2014
p4131
aV \u2014
p4132
aV Jed
p4133
aV Jed
p4134
aV Jed
p4135
aV Jed
p4136
aV Jed
p4137
aV Shii Ann
p4138
aV Shii Ann
p4139
aV \u2014
p4140
aV Shii Ann
p4141
ag129
ag129
aV Ghandia
p4142
aV Ghandia
p4143
aV Clay
p4144
aV Ghandia
p4145
aV Ghandia
p4146
aV \u2014
p4147
aV \u2014
p4148
aV \u2014
p4149
aV \u2014
p4150
aV \u2014
p4151
aV \u2014
p4152
aV \u2014
p4153
aV Clay
p4154
ag129
ag129
ag129
aV \u2014
p4155
aV \u2014
p4156
aV \u2014
p4157
aV \u2014
p4158
aV \u2014
p4159
aV Stephanie
p4160
aV Stephanie
p4161
aV Stephanie
p4162
aV Stephanie
p4163
aV Stephanie
p4164
aV Shii Ann
p4165
aV Shii Ann
p4166
ag129
ag129
ag129
ag129
aV \u2014
p4167
aV \u2014
p4168
aV \u2014
p4169
aV \u2014
p4170
aV \u2014
p4171
aV Robb
p4172
aV Robb
p4173
aV Robb
p4174
aV Robb
p4175
aV Robb
p4176
aV Shii Ann
p4177
ag129
ag129
ag129
ag129
ag129
aV \u2014
p4178
aV \u2014
p4179
aV \u2014
p4180
aV \u2014
p4181
aV \u2014
p4182
aV Shii Ann
p4183
aV Shii Ann
p4184
aV Shii Ann
p4185
aV Shii Ann
p4186
aV Penny
p4187
ag129
ag129
ag129
ag129
ag129
ag129
aV \u2014
p4188
aV \u2014
p4189
aV \u2014
p4190
aV \u2014
p4191
aV \u2014
p4192
aV Erin
p4193
aV Erin
p4194
aV Erin
p4195
aV Ken
p4196
ag129
ag129
ag129
ag129
ag129
ag129
ag129
aV Ken
p4197
aV Ken
p4198
aV Ken
p4199
aV Ken
p4200
aV Ken
p4201
aV Ted
p4202
aV Ted
p4203
aV Ted
p4204
ag129
ag129
ag129
ag129
ag129
ag129
ag129
ag129
aV Penny
p4205
aV Jake
p4206
aV Penny
p4207
aV Penny
p4208
aV Penny
p4209
aV Jan
p4210
aV Jake
p4211
ag129
ag129
ag129
ag129
ag129
ag129
ag129
ag129
ag129
aV Jake
p4212
aV Jake
p4213
aV Jake
p4214
aV Jake
p4215
aV Jake
p4216
aV Jan
p4217
ag129
ag129
ag129
ag129
ag129
ag129
ag129
ag129
ag129
ag129
aV Ted
p4218
aV Ted
p4219
aV Ted
p4220
aV Ted
p4221
aV Jan
p4222
ag129
ag129
ag129
ag129
ag129
ag129
ag129
ag129
ag129
ag129
ag129
aV Helen
p4223
aV Helen
p4224
aV Helen
p4225
aV Jan
p4226
ag129
ag129
ag129
ag129
ag129
ag129
ag129
ag129
ag129
ag129
ag129
ag129
aV Jan
p4227
aV \u2014
p4228
aV \u2014
p4229
ag129
ag129
ag129
ag129
ag129
ag129
ag129
ag129
ag129
ag129
ag129
ag129
ag129
ag319
ag319
ag129
ag129
ag129
ag129
aV Clay
p4230
aV Clay
p4231
aV Clay
p4232
ag129
ag129
ag129
ag129
ag129
ag129
ag129
ag319
ag319
aV Brian
p4233
aV Brian
p4234
aV Brian
p4235
aV Brian
p4236
ag129
ag129
ag129
ag129
ag129
ag129
ag129
ag129
ag129
ag129
atp4237
ba(lp4238
g21
(g22
(dp4239
g24
g25
(g26
(I0
tp4240
g28
tp4241
Rp4242
(I1
(L16L
tp4243
g35
I00
(lp4244
g4044
ag4045
ag4046
ag4047
ag4048
ag4049
ag4050
ag4051
ag4052
ag4053
ag4054
ag4055
ag4056
ag4057
ag4058
ag4059
atp4245
bsg63
Nstp4246
Rp4247
a(dp4248
g339
(dp4249
g341
g4037
sg342
(lp4250
(dp4251
g345
g346
(I0
I16
I1
tp4252
Rp4253
sg349
g4094
sasstp4254
bsbssVThe_Amazon
p4255
(dp4256
g3
Vhttp://survivor.wikia.com/wiki/Survivor:_The_Amazon
p4257
sg5
g6
(g7
g8
Ntp4258
Rp4259
(dp4260
g12
g13
sg14
g15
sg16
g6
(g17
g8
Ntp4261
Rp4262
((lp4263
g21
(g22
(dp4264
g24
g25
(g26
(I0
tp4265
g28
tp4266
Rp4267
(I1
(L16L
tp4268
g35
I00
(lp4269
VRyan
p4270
aVJanet
p4271
aVDaniel
p4272
aVJoanna
p4273
aVJeanne
p4274
aVShawna
p4275
aVRoger
p4276
aVDave
p4277
aVDeena
p4278
aVAlex
p4279
aVChristy
p4280
aVHeidi
p4281
aVButch
p4282
aVRob
p4283
aVMatthew
p4284
aVJenna
p4285
atp4286
bsg63
Nstp4287
Rp4288
ag21
(g22
(dp4289
g24
g25
(g26
(I0
tp4290
g28
tp4291
Rp4292
(I1
(L16L
tp4293
g35
I00
(lp4294
VJenna
p4295
aVMatthew
p4296
aVRob
p4297
aVButch
p4298
aVHeidi
p4299
aVChristy
p4300
aVAlex
p4301
aVDeena
p4302
aVDave
p4303
aVRoger
p4304
aVShawna
p4305
aVJeanne
p4306
aVJoanna
p4307
aVDaniel
p4308
aVJanet
p4309
aVRyan
p4310
atp4311
bsg63
g93
(g96
S'\x01\x00\x00\x00\x00\x00\x00\x00'
p4312
tp4313
Rp4314
stp4315
Rp4316
a(lp4317
g25
(g26
(I0
tp4318
g28
tp4319
Rp4320
(I1
(L16L
L16L
tp4321
g35
I00
(lp4322
V \u2014
p4323
aV Roger
p4324
aV Ryan
p4325
aV Ryan
p4326
aV \u2014
p4327
aV \u2014
p4328
aV Ryan
p4329
aV \u2014
p4330
aV Daniel
p4331
aV Ryan
p4332
aV \u2014
p4333
aV \u2014
p4334
aV \u2014
p4335
aV Roger
p4336
aV \u2014
p4337
aV Roger
p4338
aV Janet
p4339
aV \u2014
p4340
aV \u2014
p4341
aV \u2014
p4342
aV Janet
p4343
aV Jenna
p4344
aV \u2014
p4345
aV Janet
p4346
aV \u2014
p4347
aV \u2014
p4348
aV Janet
p4349
aV Janet
p4350
aV Christy
p4351
aV \u2014
p4352
aV Jeanne
p4353
ag129
aV \u2014
p4354
aV Daniel
p4355
aV Daniel
p4356
aV Daniel
p4357
aV \u2014
p4358
aV \u2014
p4359
aV Daniel
p4360
aV \u2014
p4361
aV Daniel
p4362
aV Daniel
p4363
aV \u2014
p4364
aV \u2014
p4365
aV \u2014
p4366
aV Roger
p4367
ag129
ag129
aV Joanna
p4368
aV \u2014
p4369
aV \u2014
p4370
aV \u2014
p4371
aV Joanna
p4372
aV Joanna
p4373
aV \u2014
p4374
aV Joanna
p4375
aV \u2014
p4376
aV \u2014
p4377
aV Christy
p4378
aV Shawna
p4379
aV Shawna
p4380
ag129
ag129
ag129
aV \u2014
p4381
aV \u2014
p4382
aV \u2014
p4383
aV Jeanne
p4384
aV Jeanne
p4385
aV Butch
p4386
aV \u2014
p4387
aV \u2014
p4388
aV Jeanne
p4389
aV Jeanne
p4390
aV \u2014
p4391
aV Butch
p4392
ag129
ag129
ag129
ag129
aV Shawna
p4393
aV Shawna
p4394
aV Shawna
p4395
aV \u2014
p4396
aV \u2014
p4397
aV \u2014
p4398
aV Matthew
p4399
aV Shawna
p4400
aV \u2014
p4401
aV \u2014
p4402
aV Matthew
p4403
ag129
ag129
ag129
ag129
ag129
aV Roger
p4404
aV Roger
p4405
aV Roger
p4406
aV Christy
p4407
aV Roger
p4408
aV Roger
p4409
aV Roger
p4410
aV Roger
p4411
aV Christy
p4412
aV Christy
p4413
ag129
ag129
ag129
ag129
ag129
ag129
aV Dave
p4414
aV Dave
p4415
aV Dave
p4416
aV Dave
p4417
aV Dave
p4418
aV Dave
p4419
aV Dave
p4420
aV Dave
p4421
aV Matthew
p4422
ag129
ag129
ag129
ag129
ag129
ag129
ag129
aV Deena
p4423
aV Deena
p4424
aV Deena
p4425
aV Deena
p4426
aV Deena
p4427
aV Alex
p4428
aV Deena
p4429
aV Alex
p4430
ag129
ag129
ag129
ag129
ag129
ag129
ag129
ag129
aV Matthew
p4431
aV Alex
p4432
aV Alex
p4433
aV Alex
p4434
aV Matthew
p4435
aV Alex
p4436
aV Matthew
p4437
ag129
ag129
ag129
ag129
ag129
ag129
ag129
ag129
ag129
aV Christy
p4438
aV Christy
p4439
aV Christy
p4440
aV Jenna
p4441
aV Christy
p4442
aV Jenna
p4443
ag129
ag129
ag129
ag129
ag129
ag129
ag129
ag129
ag129
ag129
aV Rob
p4444
aV Heidi
p4445
aV Heidi
p4446
aV Heidi
p4447
aV Rob
p4448
ag129
ag129
ag129
ag129
ag129
ag129
ag129
ag129
ag129
ag129
ag129
aV Butch
p4449
aV Butch
p4450
aV Butch
p4451
aV Rob
p4452
ag129
ag129
ag129
ag129
ag129
ag129
ag129
ag129
ag129
ag129
ag129
ag129
aV Rob
p4453
aV \u2014
p4454
aV \u2014
p4455
ag129
ag129
ag129
ag129
ag129
ag129
ag129
ag129
ag129
ag129
ag129
ag129
ag129
ag319
ag319
ag129
aV Matthew
p4456
ag129
ag129
ag129
ag129
ag129
ag129
ag129
ag129
ag129
ag129
ag129
ag129
ag319
ag319
aV Jenna
p4457
ag129
aV Jenna
p4458
aV Jenna
p4459
aV Jenna
p4460
aV Jenna
p4461
aV Jenna
p4462
ag129
ag129
ag129
ag129
ag129
ag129
ag129
atp4463
ba(lp4464
g21
(g22
(dp4465
g24
g25
(g26
(I0
tp4466
g28
tp4467
Rp4468
(I1
(L16L
tp4469
g35
I00
(lp4470
g4270
ag4271
ag4272
ag4273
ag4274
ag4275
ag4276
ag4277
ag4278
ag4279
ag4280
ag4281
ag4282
ag4283
ag4284
ag4285
atp4471
bsg63
Nstp4472
Rp4473
a(dp4474
g339
(dp4475
g341
g4263
sg342
(lp4476
(dp4477
g345
g346
(I0
I16
I1
tp4478
Rp4479
sg349
g4320
sasstp4480
bsbssVCagayan
p4481
(dp4482
g3
Vhttp://survivor.wikia.com/wiki/Survivor:_Cagayan
p4483
sg5
g6
(g7
g8
Ntp4484
Rp4485
(dp4486
g12
g13
sg14
g15
sg16
g6
(g17
g8
Ntp4487
Rp4488
((lp4489
g21
(g22
(dp4490
g24
g25
(g26
(I0
tp4491
g28
tp4492
Rp4493
(I1
(L19L
tp4494
g35
I00
(lp4495
VDavid
p4496
aVGarrett
p4497
aVBrice
p4498
aVBrice
p4499
aVJ'Tia
p4500
aVCliff
p4501
aVLindsey
p4502
aVAlexis
p4503
aVSarah
p4504
aVMorgan
p4505
aVLJ
p4506
aVJeremiah
p4507
aVJefra
p4508
aVTasha
p4509
aVTrish
p4510
aVSpencer
p4511
aVKass
p4512
aVWoo
p4513
aVTony
p4514
atp4515
bsg63
Nstp4516
Rp4517
ag21
(g22
(dp4518
g24
g25
(g26
(I0
tp4519
g28
tp4520
Rp4521
(I1
(L18L
tp4522
g35
I00
(lp4523
VTony
p4524
aVWoo
p4525
aVKass
p4526
aVSpencer
p4527
aVTrish
p4528
aVTasha
p4529
aVJefra
p4530
aVJeremiah
p4531
aVLJ
p4532
aVMorgan
p4533
aVSarah
p4534
aVAlexis
p4535
aVLindsey
p4536
aVCliff
p4537
aVJ'Tia
p4538
aVBrice
p4539
aVGarrett
p4540
aVDavid
p4541
atp4542
bsg63
g93
(g96
S'\x01\x00\x00\x00\x00\x00\x00\x00'
p4543
tp4544
Rp4545
stp4546
Rp4547
a(lp4548
g25
(g26
(I0
tp4549
g28
tp4550
Rp4551
(I1
(L19L
L18L
tp4552
g35
I00
(lp4553
V \u2014
p4554
aV \u2014
p4555
aV J'Tia
p4556
aV David
p4557
aV \u2014
p4558
aV David
p4559
aV \u2014
p4560
aV \u2014
p4561
aV \u2014
p4562
aV \u2014
p4563
aV \u2014
p4564
aV \u2014
p4565
aV \u2014
p4566
aV \u2014
p4567
aV David
p4568
aV \u2014
p4569
aV David
p4570
aV J'Tia
p4571
aV \u2014
p4572
aV \u2014
p4573
aV Garrett
p4574
aV J'Tia
p4575
aV \u2014
p4576
aV Garrett
p4577
aV \u2014
p4578
aV \u2014
p4579
aV \u2014
p4580
aV \u2014
p4581
aV \u2014
p4582
aV \u2014
p4583
aV \u2014
p4584
aV \u2014
p4585
aV Garrett
p4586
aV \u2014
p4587
aV J'Tia
p4588
ag129
aV \u2014
p4589
aV \u2014
p4590
aV \u2014
p4591
aV \u2014
p4592
aV \u2014
p4593
aV \u2014
p4594
aV Brice
p4595
aV Morgan
p4596
aV Morgan
p4597
aV Alexis
p4598
aV \u2014
p4599
aV Brice
p4600
aV \u2014
p4601
aV \u2014
p4602
aV \u2014
p4603
aV Alexis
p4604
ag129
ag129
ag4589
ag4590
ag4591
ag4592
ag4593
ag4594
aV Brice
p4605
aV Brice
p4606
aV Brice
p4607
aV None
p4608
ag4599
aV None
p4609
ag4601
ag4602
ag4603
aV None
p4610
ag129
ag129
aV \u2014
p4611
aV \u2014
p4612
aV J'Tia
p4613
aV J'Tia
p4614
aV \u2014
p4615
aV J'Tia
p4616
aV \u2014
p4617
aV \u2014
p4618
aV \u2014
p4619
aV \u2014
p4620
aV \u2014
p4621
aV \u2014
p4622
aV \u2014
p4623
aV \u2014
p4624
aV Spencer
p4625
ag129
ag129
ag129
aV Cliff
p4626
aV LJ
p4627
aV \u2014
p4628
aV \u2014
p4629
aV Cliff
p4630
aV \u2014
p4631
aV Cliff
p4632
aV \u2014
p4633
aV Cliff
p4634
aV \u2014
p4635
aV \u2014
p4636
aV \u2014
p4637
aV LJ
p4638
aV LJ
p4639
ag129
ag129
ag129
ag129
aV\u2014
p4640
aV\u2014
p4641
aV \u2014
p4642
aV \u2014
p4643
aV\u2014
p4644
aV \u2014
p4645
aV\u2014
p4646
aV \u2014
p4647
aV\u2014
p4648
aV \u2014
p4649
aV \u2014
p4650
aV \u2014
p4651
aV Quit
p4652
ag129
ag129
ag129
ag129
ag129
ag4640
ag4641
aV Alexis
p4653
aV Alexis
p4654
ag4644
aV Alexis
p4655
ag4646
aV Alexis
p4656
ag4648
aV Alexis
p4657
aV Alexis
p4658
aV Jeremiah
p4659
ag129
ag129
ag129
ag129
ag129
ag129
aV Sarah
p4660
aV Sarah
p4661
aV Sarah
p4662
aV Jefra
p4663
aV Sarah
p4664
aV Jefra
p4665
aV Sarah
p4666
aV Jefra
p4667
aV Sarah
p4668
aV Jefra
p4669
aV Jefra
p4670
ag129
ag129
ag129
ag129
ag129
ag129
ag129
aV Morgan
p4671
aV Morgan
p4672
aV Morgan
p4673
aV Tony
p4674
aV Morgan
p4675
aV Tony
p4676
aV Morgan
p4677
aV Tony
p4678
aV Morgan
p4679
aV Tony
p4680
ag129
ag129
ag129
ag129
ag129
ag129
ag129
ag129
aV LJ
p4681
aV LJ
p4682
aV Jeremiah
p4683
aV LJ
p4684
aV Jeremiah
p4685
aV LJ
p4686
aV Jeremiah
p4687
aV LJ
p4688
aV Spencer
p4689
ag129
ag129
ag129
ag129
ag129
ag129
ag129
ag129
ag129
aV Jeremiah
p4690
aV Jeremiah
p4691
aV Jeremiah
p4692
aV Woo
p4693
aV Jeremiah
p4694
aV Woo
p4695
aV Jeremiah
p4696
aV Woo
p4697
ag129
ag129
ag129
ag129
ag129
ag129
ag129
ag129
ag129
ag129
aV Jefra
p4698
aV Jefra
p4699
aV Spencer
p4700
aV Jefra
p4701
aV Spencer
p4702
aV Jefra
p4703
aV Spencer
p4704
ag129
ag129
ag129
ag129
ag129
ag129
ag129
ag129
ag129
ag129
ag129
aV Tasha
p4705
aV Tasha
p4706
aV Tasha
p4707
aV Tony
p4708
aV Tasha
p4709
aV Trish
p4710
ag129
ag129
ag129
ag129
ag129
ag129
ag129
ag129
ag129
ag129
ag129
ag129
aV Trish
p4711
aV Trish
p4712
aV Trish
p4713
aV Trish
p4714
aV Kass
p4715
ag129
ag129
ag129
ag129
ag129
ag129
ag129
ag129
ag129
ag129
ag129
ag129
ag129
aV Spencer
p4716
aV Spencer
p4717
aV Spencer
p4718
aV Woo
p4719
ag129
ag129
ag129
ag129
ag129
ag129
ag129
ag129
ag129
ag129
ag129
ag129
ag129
ag129
aV \u2014
p4720
aV Kass
p4721
aV \u2014
p4722
ag129
ag129
ag129
ag129
ag129
ag129
ag129
ag129
ag129
ag129
ag129
ag129
ag129
ag129
ag129
ag319
ag319
ag129
ag129
ag129
aV Woo
p4723
ag129
ag129
ag129
ag129
ag129
ag129
ag129
ag129
ag129
ag129
ag129
ag129
ag319
ag319
aV Tony
p4724
aV Tony
p4725
aV Tony
p4726
ag129
aV Tony
p4727
aV Tony
p4728
aV Tony
p4729
aV Tony
p4730
aV Tony
p4731
ag129
ag129
ag129
ag129
ag129
ag129
ag129
atp4732
ba(lp4733
g21
(g22
(dp4734
g24
g25
(g26
(I0
tp4735
g28
tp4736
Rp4737
(I1
(L19L
tp4738
g35
I00
(lp4739
g4496
ag4497
ag4498
ag4499
ag4500
ag4501
ag4502
ag4503
ag4504
ag4505
ag4506
ag4507
ag4508
ag4509
ag4510
ag4511
ag4512
ag4513
ag4514
atp4740
bsg63
Nstp4741
Rp4742
a(dp4743
g339
(dp4744
g341
g4489
sg342
(lp4745
(dp4746
g345
g346
(I0
I19
I1
tp4747
Rp4748
sg349
g4551
sasstp4749
bsbssVSouth_Pacific
p4750
(dp4751
g3
Vhttp://survivor.wikia.com/wiki/Survivor:_South_Pacific
p4752
sg5
g6
(g7
g8
Ntp4753
Rp4754
(dp4755
g12
g13
sg14
g15
sg16
g6
(g17
g8
Ntp4756
Rp4757
((lp4758
g21
(g22
(dp4759
g24
g25
(g26
(I0
tp4760
g28
tp4761
Rp4762
(I1
(L21L
tp4763
g35
I00
(lp4764
VSemhar
p4765
aVChristine
p4766
aVMark
p4767
aVStacey
p4768
aVElyse
p4769
aVMikayla
p4770
aVOzzy
p4771
aVKeith
p4772
aVKeith
p4773
aVOzzy
p4774
aVJim
p4775
aVDawn
p4776
aVWhitney
p4777
aVCochran
p4778
aVEdna
p4779
aVBrandon
p4780
aVRick
p4781
aVOzzy
p4782
aVAlbert
p4783
aVCoach
p4784
aVSophie
p4785
atp4786
bsg63
Nstp4787
Rp4788
ag21
(g22
(dp4789
g24
g25
(g26
(I0
tp4790
g28
tp4791
Rp4792
(I1
(L18L
tp4793
g35
I00
(lp4794
VSophie
p4795
aVCoach
p4796
aVAlbert
p4797
aVOzzy
p4798
aVRick
p4799
aVBrandon
p4800
aVEdna
p4801
aVCochran
p4802
aVWhitney
p4803
aVDawn
p4804
aVKeith
p4805
aVJim
p4806
aVChristine
p4807
aVMikayla
p4808
aVElyse
p4809
aVStacey
p4810
aVMark
p4811
aVSemhar
p4812
atp4813
bsg63
g93
(g96
S'\x01\x00\x00\x00\x00\x00\x00\x00'
p4814
tp4815
Rp4816
stp4817
Rp4818
a(lp4819
g25
(g26
(I0
tp4820
g28
tp4821
Rp4822
(I1
(L21L
L18L
tp4823
g35
I00
(lp4824
V \u2014
p4825
aV \u2014
p4826
aV \u2014
p4827
aV Semhar
p4828
aV \u2014
p4829
aV \u2014
p4830
aV \u2014
p4831
aV Semhar
p4832
aV Semhar
p4833
aV Semhar
p4834
aV Semhar
p4835
aV Semhar
p4836
aV \u2014
p4837
aV \u2014
p4838
aV Semhar
p4839
aV \u2014
p4840
aV Semhar
p4841
aV Cochran
p4842
aV Stacey
p4843
aV Christine
p4844
aV Christine
p4845
aV \u2014
p4846
aV Stacey
p4847
aV Christine
p4848
aV Stacey
p4849
aV \u2014
p4850
aV \u2014
p4851
aV \u2014
p4852
aV \u2014
p4853
aV \u2014
p4854
aV Edna
p4855
aV Christine
p4856
aV \u2014
p4857
aV Sophie
p4858
aV \u2014
p4859
aV 
p4860
aV \u2014
p4861
aV \u2014
p4862
aV \u2014
p4863
aV Mark
p4864
aV \u2014
p4865
aV \u2014
p4866
aV \u2014
p4867
aV Mark
p4868
aV Mark
p4869
aV Mark
p4870
aV Mark
p4871
aV Cochran
p4872
ag4860
aV \u2014
p4873
aV Mark
p4874
aV \u2014
p4875
aV Jim
p4876
ag4860
aV Stacey
p4877
aV Stacey
p4878
aV Stacey
p4879
aV \u2014
p4880
aV Stacey
p4881
aV Stacey
p4882
aV Stacey
p4883
aV \u2014
p4884
aV \u2014
p4885
aV \u2014
p4886
aV \u2014
p4887
aV \u2014
p4888
ag4860
aV Stacey
p4889
aV \u2014
p4890
aV Edna
p4891
ag4860
ag129
aV \u2014
p4892
aV \u2014
p4893
aV \u2014
p4894
aV Cochran
p4895
aV \u2014
p4896
aV \u2014
p4897
aV \u2014
p4898
aV Elyse
p4899
aV Dawn
p4900
aV Elyse
p4901
aV Dawn
p4902
aV Elyse
p4903
ag4860
aV \u2014
p4904
aV Cochran
p4905
ag4860
ag129
ag129
aV Edna
p4906
aV Mikayla
p4907
aV Edna
p4908
aV \u2014
p4909
aV Mikayla
p4910
aV Mikayla
p4911
aV Mikayla
p4912
aV \u2014
p4913
aV \u2014
p4914
aV \u2014
p4915
aV \u2014
p4916
aV \u2014
p4917
ag4860
aV Edna
p4918
ag4860
ag129
ag129
ag129
aV \u2014
p4919
aV \u2014
p4920
aV \u2014
p4921
aV Cochran
p4922
aV \u2014
p4923
aV \u2014
p4924
aV \u2014
p4925
aV Ozzy
p4926
aV Ozzy
p4927
aV Ozzy
p4928
aV Ozzy
p4929
aV Ozzy
p4930
ag4860
ag4860
ag129
ag129
ag129
ag129
aV Keith
p4931
aV Keith
p4932
aV Keith
p4933
aV Rick
p4934
aV Keith
p4935
aV Keith
p4936
aV Keith
p4937
aV Rick
p4938
aV Rick
p4939
aV Rick
p4940
aV Rick
p4941
aV Rick
p4942
ag4860
ag129
ag129
ag129
ag129
ag129
aV Keith
p4943
aV Keith
p4944
aV Keith
p4945
aV Rick
p4946
aVNone
p4947
aV Keith
p4948
aV Keith
p4949
aV Keith
p4950
aV Rick
p4951
aV Rick
p4952
aVNone
p4953
aV Rick
p4954
ag4860
ag129
ag129
ag129
ag129
ag129
aV Ozzy
p4955
aV Ozzy
p4956
aV Ozzy
p4957
aV Cochran
p4958
aV Ozzy
p4959
aV Ozzy
p4960
aV Ozzy
p4961
aV Ozzy
p4962
aV Ozzy
p4963
aV Ozzy
p4964
ag4860
aV Cochran
p4965
ag129
ag129
ag129
ag129
ag129
ag129
aV Jim
p4966
aV Jim
p4967
aV Jim
p4968
ag4860
aV Jim
p4969
aV Jim
p4970
aV Jim
p4971
aV Jim
p4972
aV Edna
p4973
aV Edna
p4974
ag4860
aV Edna
p4975
ag129
ag129
ag129
ag129
ag129
ag129
aV Dawn
p4976
aV Dawn
p4977
aV Dawn
p4978
ag4860
aV Dawn
p4979
aV Dawn
p4980
aV Dawn
p4981
aV Dawn
p4982
aV Edna
p4983
aV Edna
p4984
ag4860
ag4860
ag129
ag129
ag129
ag129
ag129
ag129
aV Whitney
p4985
aV Whitney
p4986
aV Whitney
p4987
ag4860
aV Whitney
p4988
aV Whitney
p4989
aV Whitney
p4990
aV Whitney
p4991
aV Cochran
p4992
ag4860
ag129
ag129
ag129
ag129
ag129
ag129
ag129
ag129
aV Cochran
p4993
aV Cochran
p4994
aV Cochran
p4995
ag4860
aV Cochran
p4996
aV Cochran
p4997
aV Rick
p4998
aV Rick
p4999
ag4860
ag4860
ag129
ag129
ag129
ag129
ag129
ag129
ag129
ag129
aV Edna
p5000
aV Edna
p5001
aV Edna
p5002
ag4860
aV Edna
p5003
aV Edna
p5004
aV Brandon
p5005
ag4860
ag129
ag129
ag129
ag129
ag129
ag129
ag129
ag129
ag129
ag129
aV Brandon
p5006
aV Brandon
p5007
aV Sophie
p5008
ag4860
aV Brandon
p5009
aV Sophie
p5010
ag4860
ag129
ag129
ag129
ag129
ag129
ag129
ag129
ag129
ag129
ag129
ag129
aV Rick
p5011
aV Rick
p5012
aV Rick
p5013
aV Sophie
p5014
aV Sophie
p5015
ag4860
ag129
ag129
ag129
ag129
ag129
ag129
ag129
ag129
ag129
ag129
ag129
ag129
aV Ozzy
p5016
aV Ozzy
p5017
aV Ozzy
p5018
aV Albert
p5019
ag129
ag129
ag129
ag129
ag129
ag129
ag129
ag129
ag129
ag129
ag129
ag129
ag129
ag129
ag319
ag319
ag319
ag129
ag129
ag129
ag129
ag129
ag129
ag129
ag129
ag129
ag129
ag129
ag129
ag129
ag129
ag129
ag319
ag319
ag319
ag129
aV Coach
p5020
ag129
aV Coach
p5021
aV Coach
p5022
ag129
ag129
ag129
ag129
ag129
ag129
ag129
ag129
ag129
ag129
ag319
ag319
ag319
aV Sophie
p5023
ag129
aV Sophie
p5024
ag129
ag129
aV Sophie
p5025
aV Sophie
p5026
aV Sophie
p5027
aV Sophie
p5028
ag129
ag129
ag129
ag129
ag129
ag129
atp5029
ba(lp5030
g21
(g22
(dp5031
g24
g25
(g26
(I0
tp5032
g28
tp5033
Rp5034
(I1
(L21L
tp5035
g35
I00
(lp5036
g4765
ag4766
ag4767
ag4768
ag4769
ag4770
ag4771
ag4772
ag4773
ag4774
ag4775
ag4776
ag4777
ag4778
ag4779
ag4780
ag4781
ag4782
ag4783
ag4784
ag4785
atp5037
bsg63
Nstp5038
Rp5039
a(dp5040
g339
(dp5041
g341
g4758
sg342
(lp5042
(dp5043
g345
g346
(I0
I21
I1
tp5044
Rp5045
sg349
g4822
sasstp5046
bsbssVOne_World
p5047
(dp5048
g3
Vhttp://survivor.wikia.com/wiki/Survivor:_One_World
p5049
sg5
g6
(g7
g8
Ntp5050
Rp5051
(dp5052
g12
g13
sg14
g15
sg16
g6
(g17
g8
Ntp5053
Rp5054
((lp5055
g21
(g22
(dp5056
g24
g25
(g26
(I0
tp5057
g28
tp5058
Rp5059
(I1
(L18L
tp5060
g35
I00
(lp5061
VKourtney
p5062
aVNina
p5063
aVMatt
p5064
aVBill
p5065
aVMonica
p5066
aVColton
p5067
aVJonas
p5068
aVMichael
p5069
aVJay
p5070
aVLeif
p5071
aVTroyzan
p5072
aVKat
p5073
aVTarzan
p5074
aVAlicia
p5075
aVChristina
p5076
aVChelsea
p5077
aVSabrina
p5078
aVKim
p5079
atp5080
bsg63
Nstp5081
Rp5082
ag21
(g22
(dp5083
g24
g25
(g26
(I0
tp5084
g28
tp5085
Rp5086
(I1
(L18L
tp5087
g35
I00
(lp5088
VKim
p5089
aVSabrina
p5090
aVChelsea
p5091
aVChristina
p5092
aVAlicia
p5093
aVTarzan
p5094
aVKat
p5095
aVTroyzan
p5096
aVLeif
p5097
aVJay
p5098
aVMichael
p5099
aVJonas
p5100
aVColton
p5101
aVMonica
p5102
aVBill
p5103
aVMatt
p5104
aVNina
p5105
aVKourtney
p5106
atp5107
bsg63
g93
(g96
S'\x01\x00\x00\x00\x00\x00\x00\x00'
p5108
tp5109
Rp5110
stp5111
Rp5112
a(lp5113
g25
(g26
(I0
tp5114
g28
tp5115
Rp5116
(I1
(L18L
L18L
tp5117
g35
I00
(lp5118
V \u2014
p5119
aV \u2014
p5120
aV \u2014
p5121
aV \u2014
p5122
aV \u2014
p5123
aV \u2014
p5124
aV \u2014
p5125
aV \u2014
p5126
aV \u2014
p5127
aV \u2014
p5128
aV \u2014
p5129
aV \u2014
p5130
aV \u2014
p5131
aV \u2014
p5132
aV \u2014
p5133
aV \u2014
p5134
aV \u2014
p5135
aVEvacuated
p5136
aV Nina
p5137
aV Nina
p5138
aV Nina
p5139
aV Nina
p5140
aV Nina
p5141
aV \u2014
p5142
aV Nina
p5143
aV \u2014
p5144
aV \u2014
p5145
aV \u2014
p5146
aV \u2014
p5147
aV \u2014
p5148
aV \u2014
p5149
aV Christina
p5150
aV \u2014
p5151
aV \u2014
p5152
aV Kat
p5153
ag129
aV \u2014
p5154
aV \u2014
p5155
aV \u2014
p5156
aV \u2014
p5157
aV \u2014
p5158
aV Matt
p5159
aV \u2014
p5160
aV Matt
p5161
aV Matt
p5162
aV Matt
p5163
aV Bill
p5164
aV Matt
p5165
aV Matt
p5166
aV \u2014
p5167
aV Matt
p5168
aV Colton
p5169
ag129
ag129
aV \u2014
p5170
aV \u2014
p5171
aV \u2014
p5172
aV \u2014
p5173
aV \u2014
p5174
aV Bill
p5175
aV \u2014
p5176
aV Bill
p5177
aV Bill
p5178
aV Bill
p5179
aV Bill
p5180
aV Bill
p5181
aV Bill
p5182
aV \u2014
p5183
aV Leif
p5184
ag129
ag129
ag129
aV \u2014
p5185
aV \u2014
p5186
aV \u2014
p5187
aV Tarzan
p5188
aV Monica
p5189
aV Monica
p5190
aV \u2014
p5191
aV \u2014
p5192
aV Monica
p5193
aV \u2014
p5194
aV \u2014
p5195
aV Monica
p5196
aV Monica
p5197
aV Tarzan
p5198
ag129
ag129
ag129
ag129
aV \u2014
p5199
aV \u2014
p5200
aV \u2014
p5201
aV \u2014
p5202
aV\u2014
p5203
aV \u2014
p5204
aV \u2014
p5205
aV \u2014
p5206
aV \u2014
p5207
aV \u2014
p5208
aV \u2014
p5209
aV \u2014
p5210
aVEvacuated
p5211
ag129
ag129
ag129
ag129
ag129
aV Jonas
p5212
aV Jonas
p5213
aV Jonas
p5214
aV Jonas
p5215
aV Jonas
p5216
aV Jonas
p5217
aV Jonas
p5218
aV Jonas
p5219
aV Michael
p5220
aV Jonas
p5221
aV Jonas
p5222
aV Michael
p5223
ag129
ag129
ag129
ag129
ag129
ag129
aV Michael
p5224
aV Michael
p5225
aV Michael
p5226
aV Tarzan
p5227
aV Tarzan
p5228
aV Christina
p5229
aV Michael
p5230
aV Michael
p5231
aV Michael
p5232
aV Michael
p5233
aV Christina
p5234
ag129
ag129
ag129
ag129
ag129
ag129
ag129
aV Jay
p5235
aV Jay
p5236
aV Troyzan
p5237
aV Jay
p5238
aV Jay
p5239
aV Jay
p5240
aV Troyzan
p5241
aV Kim
p5242
aV Alicia
p5243
aV Alicia
p5244
ag129
ag129
ag129
ag129
ag129
ag129
ag129
ag129
aV Tarzan
p5245
aV Leif
p5246
aV Leif
p5247
aV Tarzan
p5248
aV Tarzan
p5249
aV Leif
p5250
aV Leif
p5251
aV Kim
p5252
aV Kim
p5253
ag129
ag129
ag129
ag129
ag129
ag129
ag129
ag129
ag129
aV Troyzan
p5254
aV Christina
p5255
aV Troyzan
p5256
aV Chelsea
p5257
aV Troyzan
p5258
aV Christina
p5259
aV Troyzan
p5260
aV Christina
p5261
ag129
ag129
ag129
ag129
ag129
ag129
ag129
ag129
ag129
ag129
aV Kat
p5262
aV Kat
p5263
aV Kat
p5264
aV Kat
p5265
aV Kat
p5266
aV Kat
p5267
aV Sabrina
p5268
ag129
ag129
ag129
ag129
ag129
ag129
ag129
ag129
ag129
ag129
ag129
aV Tarzan
p5269
aV Tarzan
p5270
aV Tarzan
p5271
aV Tarzan
p5272
aV Tarzan
p5273
aV Chelsea
p5274
ag129
ag129
ag129
ag129
ag129
ag129
ag129
ag129
ag129
ag129
ag129
ag129
aV Alicia
p5275
aV Alicia
p5276
aV Alicia
p5277
aV Chelsea
p5278
aV Chelsea
p5279
ag129
ag129
ag129
ag129
ag129
ag129
ag129
ag129
ag129
ag129
ag129
ag129
ag129
aV Christina
p5280
aV Christina
p5281
aV Christina
p5282
aV Sabrina
p5283
ag129
ag129
ag129
ag129
ag129
ag129
ag129
ag129
ag129
ag129
ag129
ag129
ag129
ag129
ag319
ag319
ag319
ag129
ag129
ag129
ag129
ag129
ag129
ag129
ag129
ag129
ag129
ag129
ag129
ag129
ag129
ag129
ag319
ag319
ag319
ag129
ag129
ag129
ag129
aV Sabrina
p5284
aV Sabrina
p5285
ag129
ag129
ag129
ag129
ag129
ag129
ag129
ag129
ag129
ag319
ag319
ag319
aV Kim
p5286
aV Kim
p5287
aV Kim
p5288
aV Kim
p5289
ag129
ag129
aV Kim
p5290
aV Kim
p5291
aV Kim
p5292
ag129
ag129
ag129
ag129
ag129
ag129
atp5293
ba(lp5294
g21
(g22
(dp5295
g24
g25
(g26
(I0
tp5296
g28
tp5297
Rp5298
(I1
(L18L
tp5299
g35
I00
(lp5300
g5062
ag5063
ag5064
ag5065
ag5066
ag5067
ag5068
ag5069
ag5070
ag5071
ag5072
ag5073
ag5074
ag5075
ag5076
ag5077
ag5078
ag5079
atp5301
bsg63
Nstp5302
Rp5303
a(dp5304
g339
(dp5305
g341
g5055
sg342
(lp5306
(dp5307
g345
g346
(I0
I18
I1
tp5308
Rp5309
sg349
g5116
sasstp5310
bsbssVPhilippines
p5311
(dp5312
g3
Vhttp://survivor.wikia.com/wiki/Survivor:_Philippines
p5313
sg5
g6
(g7
g8
Ntp5314
Rp5315
(dp5316
g12
g13
sg14
g15
sg16
g6
(g17
g8
Ntp5317
Rp5318
((lp5319
g21
(g22
(dp5320
g24
g25
(g26
(I0
tp5321
g28
tp5322
Rp5323
(I1
(L18L
tp5324
g35
I00
(lp5325
VZane
p5326
aVRoxanne
p5327
aVAngie
p5328
aVRussell
p5329
aVDana
p5330
aVDawson
p5331
aVKatie
p5332
aVR.C.
p5333
aVJeff
p5334
aVArtis
p5335
aVPete
p5336
aVJonathan
p5337
aVCarter
p5338
aVAbi-Maria
p5339
aVMalcolm
p5340
aVMichael
p5341
aVLisa
p5342
aVDenise
p5343
atp5344
bsg63
Nstp5345
Rp5346
ag21
(g22
(dp5347
g24
g25
(g26
(I0
tp5348
g28
tp5349
Rp5350
(I1
(L18L
tp5351
g35
I00
(lp5352
VDenise
p5353
aVLisa
p5354
aVMichael
p5355
aVMalcolm
p5356
aVAbi-Maria
p5357
aVCarter
p5358
aVJonathan
p5359
aVPete
p5360
aVArtis
p5361
aVJeff
p5362
aVR.C.
p5363
aVKatie
p5364
aVDawson
p5365
aVDana
p5366
aVRussell
p5367
aVAngie
p5368
aVRoxanne
p5369
aVZane
p5370
atp5371
bsg63
g93
(g96
S'\x01\x00\x00\x00\x00\x00\x00\x00'
p5372
tp5373
Rp5374
stp5375
Rp5376
a(lp5377
g25
(g26
(I0
tp5378
g28
tp5379
Rp5380
(I1
(L18L
L18L
tp5381
g35
I00
(lp5382
V Zane
p5383
aV \u2014
p5384
aV \u2014
p5385
aV Zane
p5386
aV \u2014
p5387
aV \u2014
p5388
aV \u2014
p5389
aV \u2014
p5390
aV \u2014
p5391
aV \u2014
p5392
aV \u2014
p5393
aV \u2014
p5394
aV \u2014
p5395
aV \u2014
p5396
aV Zane
p5397
aV Zane
p5398
aV Zane
p5399
aV Russell
p5400
aV Roxanne
p5401
aV \u2014
p5402
aV \u2014
p5403
aV Roxanne
p5404
aV \u2014
p5405
aV \u2014
p5406
aV \u2014
p5407
aV \u2014
p5408
aV \u2014
p5409
aV \u2014
p5410
aV \u2014
p5411
aV \u2014
p5412
aV \u2014
p5413
aV \u2014
p5414
aV Roxanne
p5415
aV Roxanne
p5416
aV Angie
p5417
ag129
aV Angie
p5418
aV \u2014
p5419
aV \u2014
p5420
aV Angie
p5421
aV \u2014
p5422
aV \u2014
p5423
aV \u2014
p5424
aV \u2014
p5425
aV \u2014
p5426
aV \u2014
p5427
aV \u2014
p5428
aV \u2014
p5429
aV \u2014
p5430
aV \u2014
p5431
aV Angie
p5432
aV Russell
p5433
ag129
ag129
aV Russell
p5434
aV \u2014
p5435
aV \u2014
p5436
aV Russell
p5437
aV \u2014
p5438
aV \u2014
p5439
aV \u2014
p5440
aV \u2014
p5441
aV \u2014
p5442
aV \u2014
p5443
aV \u2014
p5444
aV \u2014
p5445
aV \u2014
p5446
aV \u2014
p5447
aV Malcolm
p5448
ag129
ag129
ag129
aV \u2014
p5449
aV \u2014
p5450
aV \u2014
p5451
aV \u2014
p5452
aV \u2014
p5453
aV \u2014
p5454
aV \u2014
p5455
aV \u2014
p5456
aV \u2014
p5457
aV \u2014
p5458
aV \u2014
p5459
aV \u2014
p5460
aV \u2014
p5461
aVQuit
p5462
ag129
ag129
ag129
ag129
aV Dawson
p5463
aV \u2014
p5464
aV \u2014
p5465
aV \u2014
p5466
aV \u2014
p5467
aV Dawson
p5468
aV Dawson
p5469
aV \u2014
p5470
aV \u2014
p5471
aV Dawson
p5472
aV \u2014
p5473
aV Dawson
p5474
aV Denise
p5475
ag129
ag129
ag129
ag129
ag129
aV Katie
p5476
aV \u2014
p5477
aV \u2014
p5478
aV \u2014
p5479
aV \u2014
p5480
aV Katie
p5481
aV Katie
p5482
aV \u2014
p5483
aV \u2014
p5484
aV Katie
p5485
aV \u2014
p5486
aV Jonathan
p5487
ag129
ag129
ag129
ag129
ag129
ag129
aV Jonathan
p5488
aV Jonathan
p5489
aV Jonathan
p5490
aV Jonathan
p5491
aV Jonathan
p5492
aV R.C.
p5493
aV Pete
p5494
aV R.C.
p5495
aV R.C.
p5496
aV R.C.
p5497
aV Pete
p5498
ag129
ag129
ag129
ag129
ag129
ag129
ag129
aV Pete
p5499
aV Jeff
p5500
aV Jeff
p5501
aV Pete
p5502
aV Jeff
p5503
aV Pete
p5504
aV Abi-Maria
p5505
aV Jeff
p5506
aV Jeff
p5507
aV Pete
p5508
ag129
ag129
ag129
ag129
ag129
ag129
ag129
ag129
aV Artis
p5509
aV Jonathan
p5510
aV Artis
p5511
aV Artis
p5512
aV Jonathan
p5513
aV Artis
p5514
aV Artis
p5515
aV Jonathan
p5516
aV Jonathan
p5517
ag129
ag129
ag129
ag129
ag129
ag129
ag129
ag129
ag129
aV Abi-Maria
p5518
aV Abi-Maria
p5519
aV Abi-Maria
p5520
aV Pete
p5521
aV Malcolm
p5522
aV Pete
p5523
aV Pete
p5524
aV Malcolm
p5525
ag129
ag129
ag129
ag129
ag129
ag129
ag129
ag129
ag129
ag129
aV Jonathan
p5526
aV Jonathan
p5527
aV Jonathan
p5528
aV Jonathan
p5529
aV Denise
p5530
aV Denise
p5531
aV Denise
p5532
ag129
ag129
ag129
ag129
ag129
ag129
ag129
ag129
ag129
ag129
ag129
aV Carter
p5533
aV Carter
p5534
aV Carter
p5535
aV Carter
p5536
aV Carter
p5537
aV Abi-Maria
p5538
ag129
ag129
ag129
ag129
ag129
ag129
ag129
ag129
ag129
ag129
ag129
ag129
aV Abi-Maria
p5539
aV Abi-Maria
p5540
aV Abi-Maria
p5541
aV Abi-Maria
p5542
aV Denise
p5543
ag129
ag129
ag129
ag129
ag129
ag129
ag129
ag129
ag129
ag129
ag129
ag129
ag129
aV Malcolm
p5544
aV Malcolm
p5545
aV Malcolm
p5546
aV Denise
p5547
ag129
ag129
ag129
ag129
ag129
ag129
ag129
ag129
ag129
ag129
ag129
ag129
ag129
ag129
ag319
ag319
ag319
ag129
ag129
aV Michael
p5548
ag129
ag129
ag129
ag129
ag129
ag129
ag129
ag129
ag129
ag129
ag129
ag129
ag319
ag319
ag319
ag129
ag129
ag129
ag129
ag129
ag129
ag129
aV Lisa
p5549
ag129
ag129
ag129
ag129
ag129
ag129
ag129
ag319
ag319
ag319
aV Denise
p5550
aV Denise
p5551
ag129
aV Denise
p5552
aV Denise
p5553
aV Denise
p5554
aV Denise
p5555
ag129
ag129
ag129
ag129
ag129
ag129
ag129
ag129
atp5556
ba(lp5557
g21
(g22
(dp5558
g24
g25
(g26
(I0
tp5559
g28
tp5560
Rp5561
(I1
(L18L
tp5562
g35
I00
(lp5563
g5326
ag5327
ag5328
ag5329
ag5330
ag5331
ag5332
ag5333
ag5334
ag5335
ag5336
ag5337
ag5338
ag5339
ag5340
ag5341
ag5342
ag5343
atp5564
bsg63
Nstp5565
Rp5566
a(dp5567
g339
(dp5568
g341
g5319
sg342
(lp5569
(dp5570
g345
g346
(I0
I18
I1
tp5571
Rp5572
sg349
g5380
sasstp5573
bsbssVCaramoan
p5574
(dp5575
g3
Vhttp://survivor.wikia.com/wiki/Survivor:_Caramoan
p5576
sg5
g6
(g7
g8
Ntp5577
Rp5578
(dp5579
g12
g13
sg14
g15
sg16
g6
(g17
g8
Ntp5580
Rp5581
((lp5582
g21
(g22
(dp5583
g24
g25
(g26
(I0
tp5584
g28
tp5585
Rp5586
(I1
(L23L
tp5587
g35
I00
(lp5588
VFrancesca
p5589
aVAllie
p5590
aVHope
p5591
aVHope
p5592
aVShamar
p5593
aVLaura
p5594
aVBrandon
p5595
aVMatt
p5596
aVJulia
p5597
aVJulia
p5598
aVCorinne
p5599
aVMichael
p5600
aVPhillip
p5601
aVMalcolm
p5602
aVMalcolm
p5603
aVReynold
p5604
aVAndrea
p5605
aVBrenda
p5606
aVErik
p5607
aVEddie
p5608
aVSherri
p5609
aVDawn
p5610
aVCochran
p5611
atp5612
bsg63
Nstp5613
Rp5614
ag21
(g22
(dp5615
g24
g25
(g26
(I0
tp5616
g28
tp5617
Rp5618
(I1
(L20L
tp5619
g35
I00
(lp5620
V Cochran
p5621
aV Dawn
p5622
aV Sherri
p5623
aV Eddie
p5624
aV Erik
p5625
aV Brenda
p5626
aV Andrea
p5627
aV Reynold
p5628
aV Malcolm
p5629
aV Phillip
p5630
aV Michael
p5631
aV Corinne
p5632
aV Julia
p5633
aV Matt
p5634
aV Brandon
p5635
aV Laura
p5636
aV Shamar
p5637
aV Hope
p5638
aV Allie
p5639
aV Francesca
p5640
atp5641
bsg63
g93
(g96
S'\x01\x00\x00\x00\x00\x00\x00\x00'
p5642
tp5643
Rp5644
stp5645
Rp5646
a(lp5647
g25
(g26
(I0
tp5648
g28
tp5649
Rp5650
(I1
(L23L
L20L
tp5651
g35
I00
(lp5652
V Francesca
p5653
aV Francesca
p5654
aV \u2014
p5655
aV \u2014
p5656
aV Andrea
p5657
aV Andrea
p5658
aV Francesca
p5659
aV \u2014
p5660
aV Francesca
p5661
aV Francesca
p5662
aV \u2014
p5663
aV Francesca
p5664
aV \u2014
p5665
aV \u2014
p5666
aV Andrea
p5667
aV \u2014
p5668
aV \u2014
p5669
aV \u2014
p5670
aV \u2014
p5671
aV Andrea
p5672
aV \u2014
p5673
aV \u2014
p5674
aV Allie
p5675
aV Shamar
p5676
aV \u2014
p5677
aV \u2014
p5678
aV \u2014
p5679
aV Shamar
p5680
aV \u2014
p5681
aV \u2014
p5682
aV Allie
p5683
aV \u2014
p5684
aV Allie
p5685
aV Allie
p5686
aV \u2014
p5687
aV Allie
p5688
aV Allie
p5689
aV Shamar
p5690
aV Shamar
p5691
ag129
aV \u2014
p5692
aV \u2014
p5693
aV Hope
p5694
aV Shamar
p5695
aV \u2014
p5696
aV \u2014
p5697
aV \u2014
p5698
aV Shamar
p5699
aV \u2014
p5700
aV \u2014
p5701
aV Eddie
p5702
aV \u2014
p5703
aV Hope
p5704
aV Eddie
p5705
aV \u2014
p5706
aV Hope
p5707
aV Eddie
p5708
aV Shamar
p5709
ag129
ag129
ag5692
ag5693
aV Hope
p5710
aVNone
p5711
ag5696
ag5697
ag5698
aV Shamar
p5712
ag5700
ag5701
aV Hope
p5713
ag5703
aV Hope
p5714
aV Hope
p5715
ag5706
aV Hope
p5716
aVNone
p5717
aVNone
p5718
ag129
ag129
aV \u2014
p5719
aV \u2014
p5720
aV \u2014
p5721
aV \u2014
p5722
aV \u2014
p5723
aV \u2014
p5724
aV \u2014
p5725
aV \u2014
p5726
aV \u2014
p5727
aV \u2014
p5728
aV \u2014
p5729
aV \u2014
p5730
aV \u2014
p5731
aV \u2014
p5732
aV \u2014
p5733
aV \u2014
p5734
aVEvacuated
p5735
ag129
ag129
ag129
aV \u2014
p5736
aV \u2014
p5737
aV Laura
p5738
aV Laura
p5739
aV \u2014
p5740
aV \u2014
p5741
aV \u2014
p5742
aV Laura
p5743
aV \u2014
p5744
aV \u2014
p5745
aV Laura
p5746
aV \u2014
p5747
aV Laura
p5748
aV Laura
p5749
aV \u2014
p5750
aV Reynold
p5751
ag129
ag129
ag129
ag129
aV Brandon
p5752
aV Brandon
p5753
aV \u2014
p5754
aV \u2014
p5755
aV Brandon
p5756
aV Brandon
p5757
aV Brandon
p5758
aV \u2014
p5759
aV Brandon
p5760
aV Brandon
p5761
aV \u2014
p5762
aV Brandon
p5763
aV \u2014
p5764
aV \u2014
p5765
aV Phillip
p5766
ag129
ag129
ag129
ag129
ag129
aV Matt
p5767
aV Matt
p5768
aV \u2014
p5769
aV \u2014
p5770
aV \u2014
p5771
aV \u2014
p5772
aV \u2014
p5773
aV \u2014
p5774
aV \u2014
p5775
aV Matt
p5776
aV Julia
p5777
aV Matt
p5778
aV Dawn
p5779
aV Julia
p5780
ag129
ag129
ag129
ag129
ag129
ag129
aV Michael
p5781
aV Julia
p5782
aV \u2014
p5783
aV \u2014
p5784
aV \u2014
p5785
aV \u2014
p5786
aV \u2014
p5787
aV \u2014
p5788
aV \u2014
p5789
aV Michael
p5790
aV Julia
p5791
aV Julia
p5792
aV Michael
p5793
ag129
ag129
ag129
ag129
ag129
ag129
ag129
aV Julia
p5794
aV Julia
p5795
ag5783
ag5784
ag5785
ag5786
ag5787
ag5788
ag5789
aV Julia
p5796
aVNone
p5797
aV Julia
p5798
aVNone
p5799
ag129
ag129
ag129
ag129
ag129
ag129
ag129
aV Corinne
p5800
aV Corinne
p5801
aV Corinne
p5802
aV Sherri
p5803
aV Corinne
p5804
aV Corinne
p5805
aV Corinne
p5806
aV Sherri
p5807
aV Sherri
p5808
aV Corinne
p5809
aV Sherri
p5810
aV Sherri
p5811
ag129
ag129
ag129
ag129
ag129
ag129
ag129
ag129
aV Michael
p5812
aV Michael
p5813
aV Michael
p5814
aV Andrea
p5815
aV Michael
p5816
aV Michael
p5817
aV Michael
p5818
aV Andrea
p5819
aV Reynold
p5820
aV Michael
p5821
aV Andrea
p5822
ag129
ag129
ag129
ag129
ag129
ag129
ag129
ag129
ag129
aV Malcolm
p5823
aV Eddie
p5824
aV Eddie
p5825
aV Phillip
p5826
aV Phillip
p5827
aV Eddie
p5828
aV Eddie
p5829
aV Phillip
p5830
aV Phillip
p5831
aV Malcolm
p5832
ag129
ag129
ag129
ag129
ag129
ag129
ag129
ag129
ag129
ag129
aV Malcolm
p5833
aV Reynold
p5834
aV Reynold
p5835
aV Andrea
p5836
aV Malcolm
p5837
aV Reynold
p5838
aV Malcolm
p5839
aV Andrea
p5840
aV Andrea
p5841
ag129
ag129
ag129
ag129
ag129
ag129
ag129
ag129
ag129
ag129
ag129
aV Malcolm
p5842
aV Malcolm
p5843
aV Malcolm
p5844
aV Malcolm
p5845
aV Malcolm
p5846
aV Malcolm
p5847
aVNone
p5848
aVNone
p5849
aVNone
p5850
ag129
ag129
ag129
ag129
ag129
ag129
ag129
ag129
ag129
ag129
ag129
aV Eddie
p5851
aV Reynold
p5852
aV Reynold
p5853
aV Sherri
p5854
aV Eddie
p5855
aV Reynold
p5856
aV Reynold
p5857
aV Erik
p5858
ag129
ag129
ag129
ag129
ag129
ag129
ag129
ag129
ag129
ag129
ag129
ag129
aV Eddie
p5859
aV Eddie
p5860
aV Andrea
p5861
aV Brenda
p5862
aV Andrea
p5863
aV Andrea
p5864
aV Brenda
p5865
ag129
ag129
ag129
ag129
ag129
ag129
ag129
ag129
ag129
ag129
ag129
ag129
ag129
aV Brenda
p5866
aV Brenda
p5867
aV Brenda
p5868
aV Erik
p5869
aV Eddie
p5870
aV Eddie
p5871
ag129
ag129
ag129
ag129
ag129
ag129
ag129
ag129
ag129
ag129
ag129
ag129
ag129
ag129
aV \u2014
p5872
aV \u2014
p5873
aV \u2014
p5874
aV \u2014
p5875
aVEvacuated
p5876
ag129
ag129
ag129
ag129
ag129
ag129
ag129
ag129
ag129
ag129
ag129
ag129
ag129
ag129
ag129
aV Eddie
p5877
aV Eddie
p5878
aV Eddie
p5879
aV Dawn
p5880
ag129
ag129
ag129
ag129
ag129
ag129
ag129
ag129
ag129
ag129
ag129
ag129
ag129
ag129
ag129
ag129
ag319
ag319
ag319
ag129
ag129
ag129
ag129
ag129
ag129
ag129
ag129
ag129
ag129
ag129
ag129
ag129
ag129
ag129
ag129
ag129
ag319
ag319
ag319
ag129
ag129
ag129
ag129
ag129
ag129
ag129
ag129
ag129
ag129
ag129
ag129
ag129
ag129
ag129
ag129
ag129
ag319
ag319
ag319
aV Cochran
p5881
aV Cochran
p5882
aV Cochran
p5883
aV Cochran
p5884
aV Cochran
p5885
aV Cochran
p5886
aV Cochran
p5887
aV Cochran
p5888
ag129
ag129
ag129
ag129
ag129
ag129
ag129
ag129
ag129
atp5889
ba(lp5890
g21
(g22
(dp5891
g24
g25
(g26
(I0
tp5892
g28
tp5893
Rp5894
(I1
(L23L
tp5895
g35
I00
(lp5896
g5589
ag5590
ag5591
ag5592
ag5593
ag5594
ag5595
ag5596
ag5597
ag5598
ag5599
ag5600
ag5601
ag5602
ag5603
ag5604
ag5605
ag5606
ag5607
ag5608
ag5609
ag5610
ag5611
atp5897
bsg63
Nstp5898
Rp5899
a(dp5900
g339
(dp5901
g341
g5582
sg342
(lp5902
(dp5903
g345
g346
(I0
I23
I1
tp5904
Rp5905
sg349
g5650
sasstp5906
bsbssVGabon
p5907
(dp5908
g3
Vhttp://survivor.wikia.com/wiki/Survivor:_Gabon
p5909
sg5
g6
(g7
g8
Ntp5910
Rp5911
(dp5912
g12
g13
sg14
g15
sg16
g6
(g17
g8
Ntp5913
Rp5914
((lp5915
g21
(g22
(dp5916
g24
g25
(g26
(I0
tp5917
g28
tp5918
Rp5919
(I1
(L18L
tp5920
g35
I00
(lp5921
VMichelle
p5922
aVGillian
p5923
aVPaloma
p5924
aVJacquie
p5925
aVG.C.
p5926
aVKelly
p5927
aVAce
p5928
aVDan
p5929
aVMarcus
p5930
aVCharlie
p5931
aVRandy
p5932
aVCorinne
p5933
aVCrystal
p5934
aVKen
p5935
aVMatty
p5936
aVSugar
p5937
aVSusie
p5938
aVBob
p5939
atp5940
bsg63
Nstp5941
Rp5942
ag21
(g22
(dp5943
g24
g25
(g26
(I0
tp5944
g28
tp5945
Rp5946
(I1
(L18L
tp5947
g35
I00
(lp5948
VBob
p5949
aVSusie
p5950
aVSugar
p5951
aVMatty
p5952
aVKen
p5953
aVCrystal
p5954
aVCorinne
p5955
aVRandy
p5956
aVCharlie
p5957
aVMarcus
p5958
aVDan
p5959
aVAce
p5960
aVKelly
p5961
aVG.C.
p5962
aVJacquie
p5963
aVPaloma
p5964
aVGillian
p5965
aVMichelle
p5966
atp5967
bsg63
g93
(g96
S'\x01\x00\x00\x00\x00\x00\x00\x00'
p5968
tp5969
Rp5970
stp5971
Rp5972
a(lp5973
g25
(g26
(I0
tp5974
g28
tp5975
Rp5976
(I1
(L18L
L18L
tp5977
g35
I00
(lp5978
V \u2014
p5979
aV Michelle
p5980
aV \u2014
p5981
aV Michelle
p5982
aV Michelle
p5983
aV Michelle
p5984
aV \u2014
p5985
aV Michelle
p5986
aV \u2014
p5987
aV \u2014
p5988
aV Michelle
p5989
aV \u2014
p5990
aV \u2014
p5991
aV Michelle
p5992
aV \u2014
p5993
aV \u2014
p5994
aV Michelle
p5995
aV Gillian
p5996
aV \u2014
p5997
aV Gillian
p5998
aV \u2014
p5999
aV Gillian
p6000
aV Gillian
p6001
aV Gillian
p6002
aV \u2014
p6003
aV Gillian
p6004
aV \u2014
p6005
aV \u2014
p6006
aV Gillian
p6007
aV \u2014
p6008
aV \u2014
p6009
aV Gillian
p6010
aV \u2014
p6011
aV \u2014
p6012
aV Ken
p6013
ag129
aV Paloma
p6014
aV \u2014
p6015
aV Paloma
p6016
aV \u2014
p6017
aV \u2014
p6018
aV \u2014
p6019
aV Paloma
p6020
aV \u2014
p6021
aV Paloma
p6022
aV Paloma
p6023
aV \u2014
p6024
aV Paloma
p6025
aV Ace
p6026
aV \u2014
p6027
aV Paloma
p6028
aV Ace
p6029
ag129
ag129
aV \u2014
p6030
aV \u2014
p6031
aVExiled
p6032
aV Jacquie
p6033
aV Jacquie
p6034
aV Jacquie
p6035
aV \u2014
p6036
aV \u2014
p6037
aV \u2014
p6038
aV \u2014
p6039
aV \u2014
p6040
aV Kelly
p6041
aV Jacquie
p6042
aV Jacquie
p6043
aV Kelly
p6044
ag129
ag129
ag129
aV \u2014
p6045
aV \u2014
p6046
aV G.C.
p6047
aV G.C.
p6048
aV G.C.
p6049
aV G.C.
p6050
aV \u2014
p6051
aV \u2014
p6052
aV \u2014
p6053
aV \u2014
p6054
aV \u2014
p6055
aV G.C.
p6056
aV G.C.
p6057
aV Kelly
p6058
ag129
ag129
ag129
ag129
aV \u2014
p6059
aV \u2014
p6060
aV Kelly
p6061
aV Kelly
p6062
aV Kelly
p6063
aV Kelly
p6064
aV \u2014
p6065
aV \u2014
p6066
aV \u2014
p6067
aV \u2014
p6068
aV \u2014
p6069
aV Kelly
p6070
aV Crystal
p6071
ag129
ag129
ag129
ag129
ag129
aV \u2014
p6072
aV \u2014
p6073
aV Ace
p6074
aV Crystal
p6075
aV Ace
p6076
aV Ace
p6077
aV \u2014
p6078
aV \u2014
p6079
aV \u2014
p6080
aV \u2014
p6081
aV \u2014
p6082
aV Crystal
p6083
ag129
ag129
ag129
ag129
ag129
ag129
aV Dan
p6084
aV Dan
p6085
aV \u2014
p6086
aV \u2014
p6087
aV \u2014
p6088
aV \u2014
p6089
aV Dan
p6090
aV Susie
p6091
aV Dan
p6092
aV Susie
p6093
aV Susie
p6094
ag129
ag129
ag129
ag129
ag129
ag129
ag129
aV Ken
p6095
aV Marcus
p6096
aV \u2014
p6097
aV \u2014
p6098
aV Marcus
p6099
aV Marcus
p6100
aV \u2014
p6101
aV \u2014
p6102
aV \u2014
p6103
aV Ken
p6104
ag129
ag129
ag129
ag129
ag129
ag129
ag129
ag129
aV Crystal
p6105
aV Charlie
p6106
aV Charlie
p6107
aV Charlie
p6108
aV Charlie
p6109
aV Charlie
p6110
aV Crystal
p6111
aV Crystal
p6112
aV Crystal
p6113
ag129
ag129
ag129
ag129
ag129
ag129
ag129
ag129
ag129
aV Susie
p6114
aV Randy
p6115
aV Randy
p6116
aV Randy
p6117
aV Randy
p6118
aV Randy
p6119
aV Susie
p6120
aV Susie
p6121
ag129
ag129
ag129
ag129
ag129
ag129
ag129
ag129
ag129
ag129
aV Matty
p6122
aV Corinne
p6123
aV Corinne
p6124
aV Corinne
p6125
aV Matty
p6126
aV Corinne
p6127
aV Matty
p6128
ag129
ag129
ag129
ag129
ag129
ag129
ag129
ag129
ag129
ag129
ag129
aV Crystal
p6129
aV Crystal
p6130
aV Crystal
p6131
aV Crystal
p6132
aV Matty
p6133
aV Matty
p6134
ag129
ag129
ag129
ag129
ag129
ag129
ag129
ag129
ag129
ag129
ag129
ag129
aV Ken
p6135
aV Ken
p6136
aV Ken
p6137
aV Ken
p6138
aV Susie
p6139
ag129
ag129
ag129
ag129
ag129
ag129
ag129
ag129
ag129
ag129
ag129
ag129
ag129
aV Matty
p6140
aV Bob
p6141
aV Matty
p6142
aV Bob
p6143
ag129
ag129
ag129
ag129
ag129
ag129
ag129
ag129
ag129
ag129
ag129
ag129
ag129
ag129
ag319
ag319
ag319
ag129
ag129
ag129
ag129
ag129
ag129
ag129
ag129
ag129
ag129
ag129
ag129
ag129
ag129
ag129
ag319
ag319
ag319
aV Susie
p6144
aV Susie
p6145
aV Susie
p6146
ag129
ag129
ag129
ag129
ag129
ag129
ag129
ag129
ag129
ag129
ag129
ag129
ag319
ag319
ag319
ag129
ag129
ag129
aV Bob
p6147
aV Bob
p6148
aV Bob
p6149
aV Bob
p6150
ag129
ag129
ag129
ag129
ag129
ag129
ag129
ag129
atp6151
ba(lp6152
g21
(g22
(dp6153
g24
g25
(g26
(I0
tp6154
g28
tp6155
Rp6156
(I1
(L18L
tp6157
g35
I00
(lp6158
g5922
ag5923
ag5924
ag5925
ag5926
ag5927
ag5928
ag5929
ag5930
ag5931
ag5932
ag5933
ag5934
ag5935
ag5936
ag5937
ag5938
ag5939
atp6159
bsg63
Nstp6160
Rp6161
a(dp6162
g339
(dp6163
g341
g5915
sg342
(lp6164
(dp6165
g345
g346
(I0
I18
I1
tp6166
Rp6167
sg349
g5976
sasstp6168
bsbssVMicronesia
p6169
(dp6170
g3
Vhttp://survivor.wikia.com/wiki/Survivor:_Micronesia
p6171
sg5
g6
(g7
g8
Ntp6172
Rp6173
(dp6174
g12
g13
sg14
g15
sg16
g6
(g17
g8
Ntp6175
Rp6176
((lp6177
g21
(g22
(dp6178
g24
g25
(g26
(I0
tp6179
g28
tp6180
Rp6181
(I1
(L20L
tp6182
g35
I00
(lp6183
VJon
p6184
aVMary
p6185
aVYau-Man
p6186
aVMikey B.
p6187
aVJoel
p6188
aVJonathan
p6189
aVChet
p6190
aVKathy
p6191
aVTracy
p6192
aVAmi
p6193
aVEliza
p6194
aVOzzy
p6195
aVJason
p6196
aVJames
p6197
aVAlexis
p6198
aVErik
p6199
aVNatalie
p6200
aVCirie
p6201
aVAmanda
p6202
aVParvati
p6203
atp6204
bsg63
Nstp6205
Rp6206
ag21
(g22
(dp6207
g24
g25
(g26
(I0
tp6208
g28
tp6209
Rp6210
(I1
(L20L
tp6211
g35
I00
(lp6212
VParvati
p6213
aVAmanda
p6214
aVCirie
p6215
aVNatalie
p6216
aVErik
p6217
aVAlexis
p6218
aVJames
p6219
aVJason
p6220
aVOzzy
p6221
aVEliza
p6222
aVAmi
p6223
aVTracy
p6224
aVKathy
p6225
aVChet
p6226
aVJonathan
p6227
aVJoel
p6228
aVMikey B.
p6229
aVYau-Man
p6230
aVMary
p6231
aVJon
p6232
atp6233
bsg63
g93
(g96
S'\x01\x00\x00\x00\x00\x00\x00\x00'
p6234
tp6235
Rp6236
stp6237
Rp6238
a(lp6239
g25
(g26
(I0
tp6240
g28
tp6241
Rp6242
(I1
(L20L
L20L
tp6243
g35
I00
(lp6244
V Jon
p6245
aV Jon
p6246
aV Jon
p6247
aV \u2014
p6248
aV \u2014
p6249
aV \u2014
p6250
aV Jon
p6251
aV \u2014
p6252
aV Jon
p6253
aV Jon
p6254
aV Jon
p6255
aV \u2014
p6256
aV \u2014
p6257
aV \u2014
p6258
aV Jon
p6259
aV \u2014
p6260
aV \u2014
p6261
aV Jon
p6262
aV\u2014
p6263
aV Ozzy
p6264
aV \u2014
p6265
aV \u2014
p6266
aV \u2014
p6267
aV Mary
p6268
aV Mary
p6269
aV Mary
p6270
aV \u2014
p6271
aV Chet
p6272
aV \u2014
p6273
aV \u2014
p6274
aV \u2014
p6275
aV Mary
p6276
aV Mary
p6277
aV Mary
p6278
aV \u2014
p6279
aV Tracy
p6280
aV Chet
p6281
aV \u2014
p6282
aV Tracy
p6283
ag129
aV Yau-Man
p6284
aV Yau-Man
p6285
aV Yau-Man
p6286
aV \u2014
p6287
aV \u2014
p6288
aV \u2014
p6289
aV Yau-Man
p6290
aV \u2014
p6291
aV Yau-Man
p6292
aV Yau-Man
p6293
aV Cirie
p6294
aV \u2014
p6295
aV \u2014
p6296
aV \u2014
p6297
aV Parvati
p6298
aV \u2014
p6299
aV \u2014
p6300
aV Parvati
p6301
ag129
ag129
aV \u2014
p6302
aV \u2014
p6303
aV \u2014
p6304
aV Mikey B.
p6305
aV Mikey B.
p6306
aV Chet
p6307
aV \u2014
p6308
aV Chet
p6309
aV \u2014
p6310
aV \u2014
p6311
aV \u2014
p6312
aV Mikey B.
p6313
aV Mikey B.
p6314
aV Mikey B.
p6315
aV \u2014
p6316
aV Mikey B.
p6317
aV Chet
p6318
ag129
ag129
ag129
aV \u2014
p6319
aV Joel
p6320
aV Joel
p6321
aV \u2014
p6322
aV Chet
p6323
aV \u2014
p6324
aV \u2014
p6325
aV \u2014
p6326
aV Joel
p6327
aV \u2014
p6328
aV Joel
p6329
aV Joel
p6330
aV \u2014
p6331
aV Joel
p6332
aV \u2014
p6333
aV Chet
p6334
ag129
ag129
ag129
ag129
aV \u2014
p6335
aV \u2014
p6336
aV \u2014
p6337
aV \u2014
p6338
aV \u2014
p6339
aV \u2014
p6340
aV \u2014
p6341
aV \u2014
p6342
aV \u2014
p6343
aV \u2014
p6344
aV \u2014
p6345
aV \u2014
p6346
aV \u2014
p6347
aV \u2014
p6348
aVEvacuated
p6349
ag129
ag129
ag129
ag129
ag129
aV \u2014
p6350
aV Chet
p6351
aV Chet
p6352
aV \u2014
p6353
aV Chet
p6354
aV \u2014
p6355
aV \u2014
p6356
aV \u2014
p6357
aV Chet
p6358
aV \u2014
p6359
aV Chet
p6360
aV Erik
p6361
aV \u2014
p6362
aV Erik
p6363
ag129
ag129
ag129
ag129
ag129
ag129
aV \u2014
p6364
aV \u2014
p6365
aV \u2014
p6366
aV \u2014
p6367
aV \u2014
p6368
aV \u2014
p6369
aV \u2014
p6370
aV \u2014
p6371
aV \u2014
p6372
aV \u2014
p6373
aV \u2014
p6374
aV \u2014
p6375
aVQuit
p6376
ag129
ag129
ag129
ag129
ag129
ag129
ag129
aV \u2014
p6377
aV Tracy
p6378
aV Tracy
p6379
aV \u2014
p6380
aV Tracy
p6381
aV \u2014
p6382
aV \u2014
p6383
aV \u2014
p6384
aV Tracy
p6385
aV \u2014
p6386
aV Tracy
p6387
aV Ozzy
p6388
ag129
ag129
ag129
ag129
ag129
ag129
ag129
ag129
aV \u2014
p6389
aV Ami
p6390
aV Ami
p6391
aV \u2014
p6392
aV Ami
p6393
aV \u2014
p6394
aV \u2014
p6395
aV \u2014
p6396
aV Ami
p6397
aV \u2014
p6398
aV Erik
p6399
ag129
ag129
ag129
ag129
ag129
ag129
ag129
ag129
ag129
aV Eliza
p6400
aV Eliza
p6401
aV Eliza
p6402
aV Eliza
p6403
aV Eliza
p6404
aV Eliza
p6405
aV Eliza
p6406
aV Ozzy
p6407
aV Eliza
p6408
aV Ozzy
p6409
ag129
ag129
ag129
ag129
ag129
ag129
ag129
ag129
ag129
ag129
aV Ozzy
p6410
aV Jason
p6411
aV Ozzy
p6412
aV Ozzy
p6413
aV Jason
p6414
aV Ozzy
p6415
aV Jason
p6416
aV Ozzy
p6417
aV Jason
p6418
ag129
ag129
ag129
ag129
ag129
ag129
ag129
ag129
ag129
ag129
ag129
aV Jason
p6419
aV Jason
p6420
aV Jason
p6421
aV James
p6422
aV Jason
p6423
aV James
p6424
aV Parvati
p6425
aV James
p6426
ag129
ag129
ag129
ag129
ag129
ag129
ag129
ag129
ag129
ag129
ag129
ag129
aV \u2014
p6427
aV \u2014
p6428
aV \u2014
p6429
aV \u2014
p6430
aV \u2014
p6431
aV \u2014
p6432
aVEvacuated
p6433
ag129
ag129
ag129
ag129
ag129
ag129
ag129
ag129
ag129
ag129
ag129
ag129
ag129
aV Alexis
p6434
aV Alexis
p6435
aV Amanda
p6436
aV Amanda
p6437
aV Amanda
p6438
aV Amanda
p6439
ag129
ag129
ag129
ag129
ag129
ag129
ag129
ag129
ag129
ag129
ag129
ag129
ag129
ag129
aV Erik
p6440
aV Erik
p6441
aV Erik
p6442
aV Erik
p6443
aV Parvati
p6444
ag129
ag129
ag129
ag129
ag129
ag129
ag129
ag129
ag129
ag129
ag129
ag129
ag129
ag129
ag129
aV Natalie
p6445
aV Natalie
p6446
aV Natalie
p6447
aV Cirie
p6448
ag129
ag129
ag129
ag129
ag129
ag129
ag129
ag129
ag129
ag129
ag129
ag129
ag129
ag129
ag129
ag129
aV \u2014
p6449
aV Cirie
p6450
aV \u2014
p6451
ag129
ag129
ag129
ag129
ag129
ag129
ag129
ag129
ag129
ag129
ag129
ag129
ag129
ag129
ag129
ag129
ag129
ag319
ag319
ag129
ag129
aV Amanda
p6452
ag129
aV Amanda
p6453
ag129
aV Amanda
p6454
ag129
ag129
ag129
ag129
ag129
ag129
ag129
ag129
ag129
ag129
ag129
ag319
ag319
aV Parvati
p6455
aV Parvati
p6456
ag129
aV Parvati
p6457
ag129
aV Parvati
p6458
ag129
aV Parvati
p6459
ag129
ag129
ag129
ag129
ag129
ag129
ag129
ag129
ag129
ag129
atp6460
ba(lp6461
g21
(g22
(dp6462
g24
g25
(g26
(I0
tp6463
g28
tp6464
Rp6465
(I1
(L20L
tp6466
g35
I00
(lp6467
g6184
ag6185
ag6186
ag6187
ag6188
ag6189
ag6190
ag6191
ag6192
ag6193
ag6194
ag6195
ag6196
ag6197
ag6198
ag6199
ag6200
ag6201
ag6202
ag6203
atp6468
bsg63
Nstp6469
Rp6470
a(dp6471
g339
(dp6472
g341
g6177
sg342
(lp6473
(dp6474
g345
g346
(I0
I20
I1
tp6475
Rp6476
sg349
g6242
sasstp6477
bsbssVSamoa
p6478
(dp6479
g3
Vhttp://survivor.wikia.com/wiki/Survivor:_Samoa
p6480
sg5
g6
(g7
g8
Ntp6481
Rp6482
(dp6483
g12
g13
sg14
g15
sg16
g6
(g17
g8
Ntp6484
Rp6485
((lp6486
g21
(g22
(dp6487
g24
g25
(g26
(I0
tp6488
g28
tp6489
Rp6490
(I1
(L21L
tp6491
g35
I00
(lp6492
VMarisa
p6493
aVMike
p6494
aVBetsy
p6495
aVBen
p6496
aVYasmin
p6497
aVAshley
p6498
aVRussell S.
p6499
aVLiz
p6500
aVErik
p6501
aVKelly
p6502
aVLaura
p6503
aVLaura
p6504
aVJohn
p6505
aVDave
p6506
aVMonica
p6507
aVShambo
p6508
aVJaison
p6509
aVBrett
p6510
aVMick
p6511
aVRussell H.
p6512
aVNatalie
p6513
atp6514
bsg63
Nstp6515
Rp6516
ag21
(g22
(dp6517
g24
g25
(g26
(I0
tp6518
g28
tp6519
Rp6520
(I1
(L20L
tp6521
g35
I00
(lp6522
VNatalie
p6523
aVRussell H.
p6524
aVMick
p6525
aVBrett
p6526
aVJaison
p6527
aVShambo
p6528
aVMonica
p6529
aVDave
p6530
aVJohn
p6531
aVLaura
p6532
aVKelly
p6533
aVErik
p6534
aVLiz
p6535
aVRussell S.
p6536
aVAshley
p6537
aVYasmin
p6538
aVBen
p6539
aVBetsy
p6540
aVMike
p6541
aVMarisa
p6542
atp6543
bsg63
g93
(g96
S'\x01\x00\x00\x00\x00\x00\x00\x00'
p6544
tp6545
Rp6546
stp6547
Rp6548
a(lp6549
g25
(g26
(I0
tp6550
g28
tp6551
Rp6552
(I1
(L21L
L20L
tp6553
g35
I00
(lp6554
V Marisa
p6555
aV Marisa
p6556
aV Ashley
p6557
aV \u2014
p6558
aV Marisa
p6559
aV \u2014
p6560
aV \u2014
p6561
aV \u2014
p6562
aV \u2014
p6563
aV \u2014
p6564
aV \u2014
p6565
aV \u2014
p6566
aV Marisa
p6567
aV \u2014
p6568
aV Marisa
p6569
aV \u2014
p6570
aV Marisa
p6571
aV Ashley
p6572
aV Marisa
p6573
aV Ashley
p6574
aV \u2014
p6575
aV \u2014
p6576
aV \u2014
p6577
aV \u2014
p6578
aV \u2014
p6579
aV \u2014
p6580
aV \u2014
p6581
aV \u2014
p6582
aV \u2014
p6583
aV \u2014
p6584
aV \u2014
p6585
aV \u2014
p6586
aV \u2014
p6587
aV \u2014
p6588
aV \u2014
p6589
aV \u2014
p6590
aV \u2014
p6591
aV \u2014
p6592
aVEvacuated
p6593
ag129
aV Betsy
p6594
aV Betsy
p6595
aV Betsy
p6596
aV \u2014
p6597
aV Betsy
p6598
aV \u2014
p6599
aV \u2014
p6600
aV \u2014
p6601
aV \u2014
p6602
aV \u2014
p6603
aV \u2014
p6604
aV \u2014
p6605
aV Betsy
p6606
aV \u2014
p6607
aV Betsy
p6608
aV \u2014
p6609
aV Betsy
p6610
aV Ben
p6611
ag129
ag129
aV Ben
p6612
aV Ben
p6613
aV Ben
p6614
aV \u2014
p6615
aV Ben
p6616
aV \u2014
p6617
aV \u2014
p6618
aV \u2014
p6619
aV \u2014
p6620
aV \u2014
p6621
aV \u2014
p6622
aV \u2014
p6623
aV Ben
p6624
aV \u2014
p6625
aV Ben
p6626
aV \u2014
p6627
aV Ashley
p6628
ag129
ag129
ag129
aV \u2014
p6629
aV \u2014
p6630
aV \u2014
p6631
aV Yasmin
p6632
aV \u2014
p6633
aV Monica
p6634
aV Yasmin
p6635
aV Yasmin
p6636
aV Yasmin
p6637
aV Yasmin
p6638
aV Yasmin
p6639
aV Yasmin
p6640
aV \u2014
p6641
aV Yasmin
p6642
aV \u2014
p6643
aV Monica
p6644
ag129
ag129
ag129
ag129
aV Ashley
p6645
aV Ashley
p6646
aV Ashley
p6647
aV \u2014
p6648
aV Ashley
p6649
aV \u2014
p6650
aV \u2014
p6651
aV \u2014
p6652
aV \u2014
p6653
aV \u2014
p6654
aV \u2014
p6655
aV \u2014
p6656
aV Ashley
p6657
aV \u2014
p6658
aV Liz
p6659
ag129
ag129
ag129
ag129
ag129
aV \u2014
p6660
aV \u2014
p6661
aV \u2014
p6662
aV \u2014
p6663
aV \u2014
p6664
aV \u2014
p6665
aV \u2014
p6666
aV \u2014
p6667
aV \u2014
p6668
aV \u2014
p6669
aV \u2014
p6670
aV \u2014
p6671
aV \u2014
p6672
aVEvacuated
p6673
ag129
ag129
ag129
ag129
ag129
ag129
aV Liz
p6674
aV Liz
p6675
aV Liz
p6676
aV \u2014
p6677
aV Liz
p6678
aV \u2014
p6679
aV \u2014
p6680
aV \u2014
p6681
aV \u2014
p6682
aV \u2014
p6683
aV \u2014
p6684
aV \u2014
p6685
aV Jaison
p6686
ag129
ag129
ag129
ag129
ag129
ag129
ag129
aV Erik
p6687
aV Erik
p6688
aV Erik
p6689
aV Erik
p6690
aV Erik
p6691
aV Jaison
p6692
aV Erik
p6693
aV Erik
p6694
aV Erik
p6695
aV Erik
p6696
aV Erik
p6697
aV Jaison
p6698
ag129
ag129
ag129
ag129
ag129
ag129
ag129
ag129
aV Kelly
p6699
aV Kelly
p6700
aV Kelly
p6701
aV Russell H.
p6702
aV Kelly
p6703
aV Russell H.
p6704
aV Russell H.
p6705
aV Russell H.
p6706
aV Russell H.
p6707
aV Russell H.
p6708
aV Russell H.
p6709
ag129
ag129
ag129
ag129
ag129
ag129
ag129
ag129
ag129
aV Laura
p6710
aV Laura
p6711
aV Laura
p6712
aV Natalie
p6713
aV Laura
p6714
aV Laura
p6715
aV Natalie
p6716
aV Natalie
p6717
aV Natalie
p6718
aV Natalie
p6719
ag129
ag129
ag129
ag129
ag129
ag129
ag129
ag129
ag129
ag129
aVNone
p6720
aV Laura
p6721
aV Laura
p6722
aV Natalie
p6723
aV Laura
p6724
aV Laura
p6725
aV Natalie
p6726
aV Natalie
p6727
aV Laura
p6728
aVNone
p6729
ag129
ag129
ag129
ag129
ag129
ag129
ag129
ag129
ag129
ag129
aV John
p6730
aV John
p6731
aV John
p6732
aV John
p6733
aV John
p6734
aV Dave
p6735
aV John
p6736
aV John
p6737
aV Mick
p6738
ag129
ag129
ag129
ag129
ag129
ag129
ag129
ag129
ag129
ag129
ag129
aV Dave
p6739
aV Dave
p6740
aV Dave
p6741
aV Dave
p6742
aV Dave
p6743
aV Dave
p6744
aV Dave
p6745
aV Shambo
p6746
ag129
ag129
ag129
ag129
ag129
ag129
ag129
ag129
ag129
ag129
ag129
ag129
aV Monica
p6747
aV Monica
p6748
aV Monica
p6749
aV Russell H.
p6750
aV Monica
p6751
aV Monica
p6752
aV Russell H.
p6753
ag129
ag129
ag129
ag129
ag129
ag129
ag129
ag129
ag129
ag129
ag129
ag129
ag129
aV Shambo
p6754
aV Shambo
p6755
aV Shambo
p6756
aV Shambo
p6757
aV Shambo
p6758
aV Mick
p6759
ag129
ag129
ag129
ag129
ag129
ag129
ag129
ag129
ag129
ag129
ag129
ag129
ag129
ag129
aV Jaison
p6760
aV Jaison
p6761
aV Jaison
p6762
aV Jaison
p6763
aV Mick
p6764
ag129
ag129
ag129
ag129
ag129
ag129
ag129
ag129
ag129
ag129
ag129
ag129
ag129
ag129
ag129
aV Brett
p6765
aV Brett
p6766
aV Brett
p6767
aV Mick
p6768
ag129
ag129
ag129
ag129
ag129
ag129
ag129
ag129
ag129
ag129
ag129
ag129
ag129
ag129
ag129
ag129
ag319
ag319
ag319
ag129
ag129
ag129
ag129
ag129
ag129
ag129
ag129
ag129
ag129
ag129
ag129
ag129
ag129
ag129
ag129
ag129
ag319
ag319
ag319
ag129
ag129
aV Russell H.
p6769
ag129
ag129
aV Russell H.
p6770
ag129
ag129
ag129
ag129
ag129
ag129
ag129
ag129
ag129
ag129
ag129
ag319
ag319
ag319
aV Natalie
p6771
aV Natalie
p6772
ag129
aV Natalie
p6773
aV Natalie
p6774
ag129
aV Natalie
p6775
aV Natalie
p6776
aV Natalie
p6777
ag129
ag129
ag129
ag129
ag129
ag129
ag129
ag129
atp6778
ba(lp6779
g21
(g22
(dp6780
g24
g25
(g26
(I0
tp6781
g28
tp6782
Rp6783
(I1
(L21L
tp6784
g35
I00
(lp6785
g6493
ag6494
ag6495
ag6496
ag6497
ag6498
ag6499
ag6500
ag6501
ag6502
ag6503
ag6504
ag6505
ag6506
ag6507
ag6508
ag6509
ag6510
ag6511
ag6512
ag6513
atp6786
bsg63
Nstp6787
Rp6788
a(dp6789
g339
(dp6790
g341
g6486
sg342
(lp6791
(dp6792
g345
g346
(I0
I21
I1
tp6793
Rp6794
sg349
g6552
sasstp6795
bsbssVAll-Stars
p6796
(dp6797
g3
Vhttp://survivor.wikia.com/wiki/Survivor:_All-Stars
p6798
sg5
g6
(g7
g8
Ntp6799
Rp6800
(dp6801
g12
g13
sg14
g15
sg16
g6
(g17
g8
Ntp6802
Rp6803
((lp6804
g21
(g22
(dp6805
g24
g25
(g26
(I0
tp6806
g28
tp6807
Rp6808
(I1
(L18L
tp6809
g35
I00
(lp6810
VTina
p6811
aVRudy
p6812
aVJenna M.
p6813
aVRob C.
p6814
aVRichard
p6815
aVSusan
p6816
aVColby
p6817
aVEthan
p6818
aVJerri
p6819
aVLex
p6820
aVKathy
p6821
aVAlicia
p6822
aVShii Ann
p6823
aVTom
p6824
aVRupert
p6825
aVJenna L.
p6826
aVRob M.
p6827
aVAmber
p6828
atp6829
bsg63
Nstp6830
Rp6831
ag21
(g22
(dp6832
g24
g25
(g26
(I0
tp6833
g28
tp6834
Rp6835
(I1
(L18L
tp6836
g35
I00
(lp6837
VAmber
p6838
aVRob M.
p6839
aVJenna L.
p6840
aVRupert
p6841
aVTom
p6842
aVShii Ann
p6843
aVAlicia
p6844
aVKathy
p6845
aVLex
p6846
aVJerri
p6847
aVEthan
p6848
aVColby
p6849
aVSusan
p6850
aVRichard
p6851
aVRob C.
p6852
aVJenna M.
p6853
aVRudy
p6854
aVTina
p6855
atp6856
bsg63
g93
(g96
S'\x01\x00\x00\x00\x00\x00\x00\x00'
p6857
tp6858
Rp6859
stp6860
Rp6861
a(lp6862
g25
(g26
(I0
tp6863
g28
tp6864
Rp6865
(I1
(L18L
L18L
tp6866
g35
I00
(lp6867
V\u2014
p6868
aV \u2014
p6869
aV Tina
p6870
aV Tina
p6871
aV \u2014
p6872
aV \u2014
p6873
aV \u2014
p6874
aV \u2014
p6875
aV \u2014
p6876
aV Tina
p6877
aV Jenna L.
p6878
aV \u2014
p6879
aV \u2014
p6880
aV \u2014
p6881
aV \u2014
p6882
aV \u2014
p6883
aV Tina
p6884
aV Jenna L.
p6885
aV\u2014
p6886
aV \u2014
p6887
aV Rudy
p6888
aV Ethan
p6889
aV \u2014
p6890
aV \u2014
p6891
aV \u2014
p6892
aV \u2014
p6893
aV \u2014
p6894
aV Rudy
p6895
aV Rudy
p6896
aV \u2014
p6897
aV \u2014
p6898
aV \u2014
p6899
aV \u2014
p6900
aV \u2014
p6901
aV Ethan
p6902
ag129
aV\u2014
p6903
aV \u2014
p6904
aV \u2014
p6905
aV \u2014
p6906
aV \u2014
p6907
aV \u2014
p6908
aV \u2014
p6909
aV \u2014
p6910
aV \u2014
p6911
aV \u2014
p6912
aV \u2014
p6913
aV \u2014
p6914
aV \u2014
p6915
aV \u2014
p6916
aV \u2014
p6917
aVQuit
p6918
ag129
ag129
aV Rob C.
p6919
aV Rob C.
p6920
aV \u2014
p6921
aV \u2014
p6922
aV Rob C.
p6923
aV \u2014
p6924
aV Rob C.
p6925
aV \u2014
p6926
aV \u2014
p6927
aV \u2014
p6928
aV \u2014
p6929
aV \u2014
p6930
aV Rob C.
p6931
aV \u2014
p6932
aV Alicia
p6933
ag129
ag129
ag129
aV \u2014
p6934
aV \u2014
p6935
aV \u2014
p6936
aV \u2014
p6937
aV \u2014
p6938
aV Richard
p6939
aV \u2014
p6940
aV Richard
p6941
aV Richard
p6942
aV Richard
p6943
aV Richard
p6944
aV Richard
p6945
aV \u2014
p6946
aV Colby
p6947
ag129
ag129
ag129
ag129
aV \u2014
p6948
aV \u2014
p6949
aV \u2014
p6950
aV \u2014
p6951
aV \u2014
p6952
aV \u2014
p6953
aV \u2014
p6954
aV \u2014
p6955
aV \u2014
p6956
aV \u2014
p6957
aV \u2014
p6958
aV \u2014
p6959
aVQuit
p6960
ag129
ag129
ag129
ag129
ag129
aV \u2014
p6961
aV \u2014
p6962
aV \u2014
p6963
aV \u2014
p6964
aV \u2014
p6965
aV Colby
p6966
aV \u2014
p6967
aVKidnapped
p6968
aV Colby
p6969
aV Colby
p6970
aV Jerri
p6971
aV Jerri
p6972
ag129
ag129
ag129
ag129
ag129
ag129
aV \u2014
p6973
aV \u2014
p6974
aV \u2014
p6975
aV \u2014
p6976
aV \u2014
p6977
aV Ethan
p6978
aV \u2014
p6979
aV Ethan
p6980
aV Ethan
p6981
aV Ethan
p6982
aV Jerri
p6983
ag129
ag129
ag129
ag129
ag129
ag129
ag129
aV Jerri
p6984
aV \u2014
p6985
aV \u2014
p6986
aV \u2014
p6987
aV \u2014
p6988
aV Jerri
p6989
aV \u2014
p6990
aV Jerri
p6991
aV Jerri
p6992
aV Amber
p6993
ag129
ag129
ag129
ag129
ag129
ag129
ag129
ag129
aV Lex
p6994
aV Lex
p6995
aV Lex
p6996
aV Lex
p6997
aV Lex
p6998
aV Lex
p6999
aV Lex
p7000
aV Amber
p7001
aV Amber
p7002
ag129
ag129
ag129
ag129
ag129
ag129
ag129
ag129
ag129
aV Kathy
p7003
aV Kathy
p7004
aV Kathy
p7005
aV Kathy
p7006
aV Kathy
p7007
aV Amber
p7008
aV Kathy
p7009
aV Amber
p7010
ag129
ag129
ag129
ag129
ag129
ag129
ag129
ag129
ag129
ag129
aV Alicia
p7011
aV Alicia
p7012
aV Alicia
p7013
aV Alicia
p7014
aV Alicia
p7015
aV Alicia
p7016
aV Rupert
p7017
ag129
ag129
ag129
ag129
ag129
ag129
ag129
ag129
ag129
ag129
ag129
aV Shii Ann
p7018
aV Shii Ann
p7019
aV Shii Ann
p7020
aV Shii Ann
p7021
aV Shii Ann
p7022
aV Amber
p7023
ag129
ag129
ag129
ag129
ag129
ag129
ag129
ag129
ag129
ag129
ag129
ag129
aV Tom
p7024
aV Tom
p7025
aV Tom
p7026
aV Tom
p7027
aV Jenna L.
p7028
ag129
ag129
ag129
ag129
ag129
ag129
ag129
ag129
ag129
ag129
ag129
ag129
ag129
aV Rupert
p7029
aV Rupert
p7030
aV Rupert
p7031
aV Rob M.
p7032
ag129
ag129
ag129
ag129
ag129
ag129
ag129
ag129
ag129
ag129
ag129
ag129
ag129
ag129
aV \u2014
p7033
aV Jenna L.
p7034
aV \u2014
p7035
ag129
ag129
ag129
ag129
ag129
ag129
ag129
ag129
ag129
ag129
ag129
ag129
ag129
ag129
ag129
ag319
ag319
aV Rob M.
p7036
aV Rob M.
p7037
ag129
ag129
ag129
aV Rob M.
p7038
ag129
ag129
ag129
ag129
ag129
ag129
ag129
ag129
ag129
ag129
ag319
ag319
ag129
ag129
aV Amber
p7039
aV Amber
p7040
aV Amber
p7041
ag129
aV Amber
p7042
ag129
ag129
ag129
ag129
ag129
ag129
ag129
ag129
ag129
atp7043
ba(lp7044
g21
(g22
(dp7045
g24
g25
(g26
(I0
tp7046
g28
tp7047
Rp7048
(I1
(L18L
tp7049
g35
I00
(lp7050
g6811
ag6812
ag6813
ag6814
ag6815
ag6816
ag6817
ag6818
ag6819
ag6820
ag6821
ag6822
ag6823
ag6824
ag6825
ag6826
ag6827
ag6828
atp7051
bsg63
Nstp7052
Rp7053
a(dp7054
g339
(dp7055
g341
g6804
sg342
(lp7056
(dp7057
g345
g346
(I0
I18
I1
tp7058
Rp7059
sg349
g6865
sasstp7060
bsbssVFiji
p7061
(dp7062
g3
Vhttp://survivor.wikia.com/wiki/Survivor:_Fiji
p7063
sg5
g6
(g7
g8
Ntp7064
Rp7065
(dp7066
g12
g13
sg14
g15
sg16
g6
(g17
g8
Ntp7067
Rp7068
((lp7069
g21
(g22
(dp7070
g24
g25
(g26
(I0
tp7071
g28
tp7072
Rp7073
(I1
(L19L
tp7074
g35
I00
(lp7075
VJessica
p7076
aVErica
p7077
aVSylvia
p7078
aVGary
p7079
aVLiliana
p7080
aVRita
p7081
aVAnthony
p7082
aVRocky
p7083
aVLisi
p7084
aVMichelle
p7085
aVEdgardo
p7086
aVMookie
p7087
aVAlex
p7088
aVStacy
p7089
aVBoo
p7090
aVYau-Man
p7091
aVDreamz
p7092
aVCassandra
p7093
aVEarl
p7094
atp7095
bsg63
Nstp7096
Rp7097
ag21
(g22
(dp7098
g24
g25
(g26
(I0
tp7099
g28
tp7100
Rp7101
(I1
(L19L
tp7102
g35
I00
(lp7103
VEarl
p7104
aVCassandra
p7105
aVDreamz
p7106
aVYau-Man
p7107
aVBoo
p7108
aVStacy
p7109
aVAlex
p7110
aVMookie
p7111
aVEdgardo
p7112
aVMichelle
p7113
aVLisi
p7114
aVRocky
p7115
aVAnthony
p7116
aVRita
p7117
aVLiliana
p7118
aVGary
p7119
aVSylvia
p7120
aVErica
p7121
aVJessica
p7122
atp7123
bsg63
g93
(g96
S'\x01\x00\x00\x00\x00\x00\x00\x00'
p7124
tp7125
Rp7126
stp7127
Rp7128
a(lp7129
g25
(g26
(I0
tp7130
g28
tp7131
Rp7132
(I1
(L19L
L19L
tp7133
g35
I00
(lp7134
V Jessica
p7135
aV \u2014
p7136
aV \u2014
p7137
aV Jessica
p7138
aV \u2014
p7139
aV \u2014
p7140
aV \u2014
p7141
aV Jessica
p7142
aV \u2014
p7143
aV Jessica
p7144
aV \u2014
p7145
aV Mookie
p7146
aV Jessica
p7147
aV Jessica
p7148
aV \u2014
p7149
aV \u2014
p7150
aVExiled
p7151
aV Yau-Man
p7152
aV Rita
p7153
aVExiled
p7154
aV \u2014
p7155
aV \u2014
p7156
aV Erica
p7157
aV \u2014
p7158
aV \u2014
p7159
aV \u2014
p7160
aV Erica
p7161
aV \u2014
p7162
aV Erica
p7163
aV \u2014
p7164
aV Erica
p7165
aV Sylvia
p7166
aV Erica
p7167
aV \u2014
p7168
aV \u2014
p7169
aV Erica
p7170
aV Sylvia
p7171
ag129
aV Sylvia
p7172
aV \u2014
p7173
aV \u2014
p7174
aV Sylvia
p7175
aV \u2014
p7176
aV \u2014
p7177
aV \u2014
p7178
aV Anthony
p7179
aV \u2014
p7180
aV Sylvia
p7181
aV \u2014
p7182
aV Anthony
p7183
aV Sylvia
p7184
aV Earl
p7185
aV \u2014
p7186
aV \u2014
p7187
aV Anthony
p7188
ag129
ag129
aV \u2014
p7189
aV \u2014
p7190
aV \u2014
p7191
aV \u2014
p7192
aV \u2014
p7193
aV \u2014
p7194
aV \u2014
p7195
aV \u2014
p7196
aV \u2014
p7197
aV \u2014
p7198
aV \u2014
p7199
aV \u2014
p7200
aV \u2014
p7201
aV \u2014
p7202
aV \u2014
p7203
aVQuit
p7204
ag129
ag129
ag129
aV \u2014
p7205
aV Lisi
p7206
aV Liliana
p7207
aV \u2014
p7208
aV Liliana
p7209
aV Liliana
p7210
aV Liliana
p7211
aV \u2014
p7212
aV Liliana
p7213
aV \u2014
p7214
aV Liliana
p7215
aV \u2014
p7216
aV \u2014
p7217
aV \u2014
p7218
aV Cassandra
p7219
ag129
ag129
ag129
ag129
aV Rita
p7220
aV \u2014
p7221
aV \u2014
p7222
aV Rita
p7223
aV \u2014
p7224
aV \u2014
p7225
aV \u2014
p7226
aV Rita
p7227
aV \u2014
p7228
aV Anthony
p7229
aV \u2014
p7230
aV Rita
p7231
aV Rita
p7232
aV Anthony
p7233
ag129
ag129
ag129
ag129
ag129
aV \u2014
p7234
aV \u2014
p7235
aV Anthony
p7236
aV \u2014
p7237
aV \u2014
p7238
aV \u2014
p7239
aV Anthony
p7240
aV Anthony
p7241
aV Anthony
p7242
aV \u2014
p7243
aVExiled
p7244
aV Anthony
p7245
aV Rocky
p7246
ag129
ag129
ag129
ag129
ag129
ag129
aV \u2014
p7247
aV \u2014
p7248
aV Rocky
p7249
aV \u2014
p7250
aV \u2014
p7251
aV \u2014
p7252
aV Rocky
p7253
aV Lisi
p7254
aV Rocky
p7255
aV \u2014
p7256
aV Rocky
p7257
aV Lisi
p7258
ag129
ag129
ag129
ag129
ag129
ag129
ag129
aV \u2014
p7259
aV \u2014
p7260
aV Lisi
p7261
aV \u2014
p7262
aV \u2014
p7263
aV \u2014
p7264
aV Lisi
p7265
aV Lisi
p7266
aV Lisi
p7267
aV \u2014
p7268
aV Dreamz
p7269
ag129
ag129
ag129
ag129
ag129
ag129
ag129
ag129
aV \u2014
p7270
aV \u2014
p7271
aV Michelle
p7272
aV \u2014
p7273
aV \u2014
p7274
aV Michelle
p7275
aV Michelle
p7276
aV Stacy
p7277
aV \u2014
p7278
aV Stacy
p7279
ag129
ag129
ag129
ag129
ag129
ag129
ag129
ag129
ag129
aV Edgardo
p7280
aV Edgardo
p7281
aV Mookie
p7282
aV Edgardo
p7283
aV Edgardo
p7284
aV Edgardo
p7285
aV Cassandra
p7286
aV Cassandra
p7287
aV Cassandra
p7288
ag129
ag129
ag129
ag129
ag129
ag129
ag129
ag129
ag129
ag129
aV Alex
p7289
aV Mookie
p7290
aV Mookie
p7291
aV Alex
p7292
aV Alex
p7293
aV Mookie
p7294
aV Mookie
p7295
aV Boo
p7296
ag129
ag129
ag129
ag129
ag129
ag129
ag129
ag129
ag129
ag129
ag129
aV Alex
p7297
aV Alex
p7298
aV Alex
p7299
aV Alex
p7300
aV Alex
p7301
aV Alex
p7302
aV Yau-Man
p7303
ag129
ag129
ag129
ag129
ag129
ag129
ag129
ag129
ag129
ag129
ag129
ag129
aV Stacy
p7304
aV Yau-Man
p7305
aV Yau-Man
p7306
aV Stacy
p7307
aV Yau-Man
p7308
aV Yau-Man
p7309
ag129
ag129
ag129
ag129
ag129
ag129
ag129
ag129
ag129
ag129
ag129
ag129
ag129
aV Boo
p7310
aV Boo
p7311
aV Boo
p7312
aV Boo
p7313
aV Dreamz
p7314
ag129
ag129
ag129
ag129
ag129
ag129
ag129
ag129
ag129
ag129
ag129
ag129
ag129
ag129
aV Yau-Man
p7315
aV Yau-Man
p7316
aV Yau-Man
p7317
aV Cassandra
p7318
ag129
ag129
ag129
ag129
ag129
ag129
ag129
ag129
ag129
ag129
ag129
ag129
ag129
ag129
ag129
ag319
ag319
ag319
ag129
ag129
ag129
ag129
ag129
ag129
ag129
ag129
ag129
ag129
ag129
ag129
ag129
ag129
ag129
ag129
ag319
ag319
ag319
ag129
ag129
ag129
ag129
ag129
ag129
ag129
ag129
ag129
ag129
ag129
ag129
ag129
ag129
ag129
ag129
ag319
ag319
ag319
aV Earl
p7319
aV Earl
p7320
aV Earl
p7321
aV Earl
p7322
aV Earl
p7323
aV Earl
p7324
aV Earl
p7325
aV Earl
p7326
aV Earl
p7327
ag129
ag129
ag129
ag129
ag129
ag129
ag129
atp7328
ba(lp7329
g21
(g22
(dp7330
g24
g25
(g26
(I0
tp7331
g28
tp7332
Rp7333
(I1
(L19L
tp7334
g35
I00
(lp7335
g7076
ag7077
ag7078
ag7079
ag7080
ag7081
ag7082
ag7083
ag7084
ag7085
ag7086
ag7087
ag7088
ag7089
ag7090
ag7091
ag7092
ag7093
ag7094
atp7336
bsg63
Nstp7337
Rp7338
a(dp7339
g339
(dp7340
g341
g7069
sg342
(lp7341
(dp7342
g345
g346
(I0
I19
I1
tp7343
Rp7344
sg349
g7132
sasstp7345
bsbssVAfrica
p7346
(dp7347
g3
Vhttp://survivor.wikia.com/wiki/Survivor:_Africa
p7348
sg5
g6
(g7
g8
Ntp7349
Rp7350
(dp7351
g12
g13
sg14
g15
sg16
g6
(g17
g8
Ntp7352
Rp7353
((lp7354
g21
(g22
(dp7355
g24
g25
(g26
(I0
tp7356
g28
tp7357
Rp7358
(I1
(L18L
tp7359
g35
I00
(lp7360
VDiane
p7361
aVJessie
p7362
aVCarl
p7363
aVCarl
p7364
aVLinda
p7365
aVSilas
p7366
aVLindsey
p7367
aVLindsey
p7368
aVClarence
p7369
aVKelly
p7370
aVBrandon
p7371
aVFrank
p7372
aVKim P.
p7373
aVTeresa
p7374
aVTom
p7375
aVLex
p7376
aVKim J.
p7377
aVEthan
p7378
atp7379
bsg63
Nstp7380
Rp7381
ag21
(g22
(dp7382
g24
g25
(g26
(I0
tp7383
g28
tp7384
Rp7385
(I1
(L16L
tp7386
g35
I00
(lp7387
VEthan
p7388
aVKim J.
p7389
aVLex
p7390
aVTom
p7391
aVTeresa
p7392
aVKim P.
p7393
aVFrank
p7394
aVBrandon
p7395
aVKelly
p7396
aVClarence
p7397
aVLindsey
p7398
aVSilas
p7399
aVLinda
p7400
aVCarl
p7401
aVJessie
p7402
aVDiane
p7403
atp7404
bsg63
g93
(g96
S'\x01\x00\x00\x00\x00\x00\x00\x00'
p7405
tp7406
Rp7407
stp7408
Rp7409
a(lp7410
g25
(g26
(I0
tp7411
g28
tp7412
Rp7413
(I1
(L18L
L16L
tp7414
g35
I00
(lp7415
V Diane
p7416
aV Diane
p7417
aV Diane
p7418
aV Clarence
p7419
aV \u2014
p7420
aV \u2014
p7421
aV \u2014
p7422
aV \u2014
p7423
aV Diane
p7424
aV Diane
p7425
aV \u2014
p7426
aV \u2014
p7427
aV \u2014
p7428
aV \u2014
p7429
aV Diane
p7430
aV Clarence
p7431
aV Jessie
p7432
aV Jessie
p7433
aV Jessie
p7434
aV Clarence
p7435
aV \u2014
p7436
aV \u2014
p7437
aV \u2014
p7438
aV \u2014
p7439
aV Jessie
p7440
aV Jessie
p7441
aV \u2014
p7442
aV \u2014
p7443
aV \u2014
p7444
aV \u2014
p7445
aV Clarence
p7446
ag129
aV \u2014
p7447
aV \u2014
p7448
aV \u2014
p7449
aV \u2014
p7450
aV Lindsey
p7451
aV Carl
p7452
aV Lindsey
p7453
aV Carl
p7454
aV \u2014
p7455
aV \u2014
p7456
aV Carl
p7457
aV Carl
p7458
aV Lindsey
p7459
aV Lindsey
p7460
ag129
ag129
ag7447
ag7448
ag7449
ag7450
aV Lindsey
p7461
aV Carl
p7462
aV Lindsey
p7463
aV Carl
p7464
ag7455
ag7456
aVNone
p7465
aV Carl
p7466
aV Lindsey
p7467
aVNone
p7468
ag129
ag129
aV \u2014
p7469
aV \u2014
p7470
aV \u2014
p7471
aV \u2014
p7472
aV Silas
p7473
aV Linda
p7474
aV Silas
p7475
aV Linda
p7476
aV \u2014
p7477
aV \u2014
p7478
aV Linda
p7479
aV Linda
p7480
aV Silas
p7481
ag129
ag129
ag129
aV Silas
p7482
aV Silas
p7483
aV \u2014
p7484
aV \u2014
p7485
aV Silas
p7486
aV \u2014
p7487
aV Silas
p7488
aV \u2014
p7489
aV \u2014
p7490
aV Silas
p7491
aV \u2014
p7492
aV Frank
p7493
ag129
ag129
ag129
ag129
aV \u2014
p7494
aV \u2014
p7495
aV Lindsey
p7496
aV Lindsey
p7497
aV \u2014
p7498
aV Tom
p7499
aV \u2014
p7500
aV Tom
p7501
aV Lindsey
p7502
aV \u2014
p7503
aV Tom
p7504
ag129
ag129
ag129
ag129
ag129
ag7494
ag7495
aV Lindsey
p7505
aVNone
p7506
ag7498
aV Tom
p7507
ag7500
aV Tom
p7508
aV Lindsey
p7509
ag7503
aVNone
p7510
ag129
ag129
ag129
ag129
ag129
aV Clarence
p7511
aV Clarence
p7512
aV Clarence
p7513
aV Clarence
p7514
aV Lex
p7515
aV Clarence
p7516
aV Clarence
p7517
aV Clarence
p7518
aV Clarence
p7519
aV Lex
p7520
ag129
ag129
ag129
ag129
ag129
ag129
aV Kelly
p7521
aV Kelly
p7522
aV Kelly
p7523
aV Kelly
p7524
aV Lex
p7525
aV Lex
p7526
aV Lex
p7527
aV Kelly
p7528
aV Lex
p7529
ag129
ag129
ag129
ag129
ag129
ag129
ag129
aV Brandon
p7530
aV Brandon
p7531
aV Frank
p7532
aV Brandon
p7533
aV Brandon
p7534
aV Brandon
p7535
aV Brandon
p7536
aV Frank
p7537
ag129
ag129
ag129
ag129
ag129
ag129
ag129
ag129
aV Frank
p7538
aV Frank
p7539
aV Frank
p7540
aV Frank
p7541
aV Frank
p7542
aV Frank
p7543
aV Kim J.
p7544
ag129
ag129
ag129
ag129
ag129
ag129
ag129
ag129
ag129
aV Kim P.
p7545
aV Kim P.
p7546
aV Kim P.
p7547
aV Kim P.
p7548
aV Lex
p7549
aV Lex
p7550
ag129
ag129
ag129
ag129
ag129
ag129
ag129
ag129
ag129
ag129
aV Teresa
p7551
aV Teresa
p7552
aV Teresa
p7553
aV Teresa
p7554
aV Tom
p7555
ag129
ag129
ag129
ag129
ag129
ag129
ag129
ag129
ag129
ag129
ag129
aV Tom
p7556
aV Tom
p7557
aV Tom
p7558
aV Lex
p7559
ag129
ag129
ag129
ag129
ag129
ag129
ag129
ag129
ag129
ag129
ag129
ag129
aV \u2014
p7560
aV Lex
p7561
aV \u2014
p7562
ag129
ag129
ag129
ag129
ag129
ag129
ag129
ag129
ag129
ag129
ag129
ag129
ag129
ag319
ag319
ag129
ag129
ag129
aV Kim J.
p7563
ag129
aV Kim J.
p7564
ag129
ag129
ag129
ag129
ag129
ag129
ag129
ag129
ag319
ag319
aV Ethan
p7565
aV Ethan
p7566
aV Ethan
p7567
ag129
aV Ethan
p7568
ag129
aV Ethan
p7569
ag129
ag129
ag129
ag129
ag129
ag129
ag129
atp7570
ba(lp7571
g21
(g22
(dp7572
g24
g25
(g26
(I0
tp7573
g28
tp7574
Rp7575
(I1
(L18L
tp7576
g35
I00
(lp7577
g7361
ag7362
ag7363
ag7364
ag7365
ag7366
ag7367
ag7368
ag7369
ag7370
ag7371
ag7372
ag7373
ag7374
ag7375
ag7376
ag7377
ag7378
atp7578
bsg63
Nstp7579
Rp7580
a(dp7581
g339
(dp7582
g341
g7354
sg342
(lp7583
(dp7584
g345
g346
(I0
I18
I1
tp7585
Rp7586
sg349
g7413
sasstp7587
bsbssVSan_Juan_del_Sur
p7588
(dp7589
g3
Vhttp://survivor.wikia.com/wiki/Survivor:_San_Juan_del_Sur
p7590
sg5
g6
(g7
g8
Ntp7591
Rp7592
(dp7593
g12
g13
sg14
g15
sg16
g6
(g17
g8
Ntp7594
Rp7595
((lp7596
g21
(g22
(dp7597
g24
g25
(g26
(I0
tp7598
g28
tp7599
Rp7600
(I1
(L20L
tp7601
g35
I00
(lp7602
VNadiya
p7603
aVVal
p7604
aVVal
p7605
aVJohn
p7606
aVDrew
p7607
aVKelley
p7608
aVDale
p7609
aVJulie
p7610
aVJosh
p7611
aVJeremy
p7612
aVWes
p7613
aVReed
p7614
aVAlec
p7615
aVJon
p7616
aVJon
p7617
aVBaylor
p7618
aVKeith
p7619
aVMissy
p7620
aVJaclyn
p7621
aVNatalie
p7622
atp7623
bsg63
Nstp7624
Rp7625
ag21
(g22
(dp7626
g24
g25
(g26
(I0
tp7627
g28
tp7628
Rp7629
(I1
(L18L
tp7630
g35
I00
(lp7631
VNatalie
p7632
aVJaclyn
p7633
aVMissy
p7634
aVKeith
p7635
aVBaylor
p7636
aVJon
p7637
aVAlec
p7638
aVReed
p7639
aVWes
p7640
aVJeremy
p7641
aVJosh
p7642
aVJulie
p7643
aVDale
p7644
aVKelley
p7645
aVDrew
p7646
aVJohn
p7647
aVVal
p7648
aVNadiya
p7649
atp7650
bsg63
g93
(g96
S'\x01\x00\x00\x00\x00\x00\x00\x00'
p7651
tp7652
Rp7653
stp7654
Rp7655
a(lp7656
g25
(g26
(I0
tp7657
g28
tp7658
Rp7659
(I1
(L20L
L18L
tp7660
g35
I00
(lp7661
V \u2014
p7662
aV Dale
p7663
aV \u2014
p7664
aV \u2014
p7665
aV Nadiya
p7666
aV \u2014
p7667
aV Nadiya
p7668
aV \u2014
p7669
aV Nadiya
p7670
aV \u2014
p7671
aV Baylor
p7672
aV \u2014
p7673
aV Nadiya
p7674
aV \u2014
p7675
aV \u2014
p7676
aV Nadiya
p7677
aV Dale
p7678
aV Dale
p7679
aV \u2014
p7680
aV Baylor
p7681
aV \u2014
p7682
aV \u2014
p7683
aV Val
p7684
aV \u2014
p7685
aV Baylor
p7686
aV \u2014
p7687
aV Val
p7688
aV \u2014
p7689
aV Val
p7690
aV \u2014
p7691
aV Val
p7692
aV \u2014
p7693
aV \u2014
p7694
aV Baylor
p7695
aV Baylor
p7696
ag129
ag7680
aV Baylor
p7697
ag7682
ag7683
aV None
p7698
ag7685
aV Val
p7699
ag7687
aV Val
p7700
ag7689
aV Val
p7701
ag7691
aV Val
p7702
ag7693
ag7694
aV Val
p7703
aV None
p7704
ag129
aV \u2014
p7705
aV John
p7706
aV \u2014
p7707
aV \u2014
p7708
aV John
p7709
aV \u2014
p7710
aV John
p7711
aV \u2014
p7712
aV John
p7713
aV \u2014
p7714
aV John
p7715
aV \u2014
p7716
aV Baylor
p7717
aV \u2014
p7718
aV \u2014
p7719
aV Baylor
p7720
ag129
ag129
aV Drew
p7721
aV \u2014
p7722
aV Drew
p7723
aV Julie
p7724
aV \u2014
p7725
aV Keith
p7726
aV \u2014
p7727
aV Julie
p7728
aV \u2014
p7729
aV Drew
p7730
aV \u2014
p7731
aV Drew
p7732
aV \u2014
p7733
aV Drew
p7734
aV Kelley
p7735
ag129
ag129
ag129
aV \u2014
p7736
aV Kelley
p7737
aV Kelley
p7738
aV Dale
p7739
aV Kelley
p7740
aV Dale
p7741
aV \u2014
p7742
aV \u2014
p7743
aV \u2014
p7744
aV \u2014
p7745
aV \u2014
p7746
aV \u2014
p7747
aV Baylor
p7748
aV Baylor
p7749
ag129
ag129
ag129
ag129
aV \u2014
p7750
aV Dale
p7751
aV Keith
p7752
aV Dale
p7753
aV Keith
p7754
aV Dale
p7755
aV \u2014
p7756
aV \u2014
p7757
aV \u2014
p7758
aV \u2014
p7759
aV \u2014
p7760
aV \u2014
p7761
aV Missy
p7762
ag129
ag129
ag129
ag129
ag129
aV \u2014
p7763
aV \u2014
p7764
aV \u2014
p7765
aV \u2014
p7766
aV \u2014
p7767
aV \u2014
p7768
aV \u2014
p7769
aV \u2014
p7770
aV \u2014
p7771
aV \u2014
p7772
aV \u2014
p7773
aV Quit
p7774
ag129
ag129
ag129
ag129
ag129
ag129
aV Josh
p7775
aV Josh
p7776
aV Josh
p7777
aV Baylor
p7778
aV Josh
p7779
aV Josh
p7780
aV Baylor
p7781
aV Baylor
p7782
aV Baylor
p7783
aV Josh
p7784
aV Baylor
p7785
ag129
ag129
ag129
ag129
ag129
ag129
ag129
aV Keith
p7786
aV Jeremy
p7787
aV Jeremy
p7788
aV Reed
p7789
aV Jeremy
p7790
aV Jeremy
p7791
aV Reed
p7792
aV Jeremy
p7793
aV Reed
p7794
aV Keith
p7795
ag129
ag129
ag129
ag129
ag129
ag129
ag129
ag129
aV Keith
p7796
aV Wes
p7797
aV Keith
p7798
aV Jon
p7799
aV Keith
p7800
aV Wes
p7801
aV Jon
p7802
aV Jon
p7803
aV Jon
p7804
ag129
ag129
ag129
ag129
ag129
ag129
ag129
ag129
ag129
aV Reed
p7805
aV Reed
p7806
aV Reed
p7807
aV Reed
p7808
aV Reed
p7809
aV Reed
p7810
aV Reed
p7811
aV Missy
p7812
ag129
ag129
ag129
ag129
ag129
ag129
ag129
ag129
ag129
ag129
aV Alec
p7813
aV Keith
p7814
aV Alec
p7815
aV Alec
p7816
aV Alec
p7817
aV Keith
p7818
aV Keith
p7819
ag129
ag129
ag129
ag129
ag129
ag129
ag129
ag129
ag129
ag129
ag129
aV Jon
p7820
aV Keith
p7821
aV Jaclyn
p7822
aV Jon
p7823
aV Jaclyn
p7824
aV Keith
p7825
ag129
ag129
ag129
ag129
ag129
ag129
ag129
ag129
ag129
ag129
ag129
ag129
aV Jon
p7826
aV None
p7827
aV Jaclyn
p7828
aV None
p7829
aV Jon
p7830
aV None
p7831
ag129
ag129
ag129
ag129
ag129
ag129
ag129
ag129
ag129
ag129
ag129
ag129
aV Baylor
p7832
aV Baylor
p7833
aV Jaclyn
p7834
aV Jaclyn
p7835
aV Jaclyn
p7836
ag129
ag129
ag129
ag129
ag129
ag129
ag129
ag129
ag129
ag129
ag129
ag129
ag129
aV Keith
p7837
aV Keith
p7838
aV Keith
p7839
aV Missy
p7840
ag129
ag129
ag129
ag129
ag129
ag129
ag129
ag129
ag129
ag129
ag129
ag129
ag129
ag129
ag319
ag319
ag319
ag129
aV Missy
p7841
ag129
ag129
ag129
ag129
ag129
ag129
ag129
ag129
ag129
ag129
ag129
ag129
ag129
ag319
ag319
ag319
ag129
ag129
aV Jaclyn
p7842
ag129
aV Jaclyn
p7843
ag129
ag129
ag129
ag129
ag129
ag129
ag129
ag129
ag129
ag129
ag319
ag319
ag319
aV Natalie
p7844
ag129
ag129
aV Natalie
p7845
ag129
aV Natalie
p7846
aV Natalie
p7847
aV Natalie
p7848
ag129
ag129
ag129
ag129
ag129
ag129
ag129
atp7849
ba(lp7850
g21
(g22
(dp7851
g24
g25
(g26
(I0
tp7852
g28
tp7853
Rp7854
(I1
(L20L
tp7855
g35
I00
(lp7856
g7603
ag7604
ag7605
ag7606
ag7607
ag7608
ag7609
ag7610
ag7611
ag7612
ag7613
ag7614
ag7615
ag7616
ag7617
ag7618
ag7619
ag7620
ag7621
ag7622
atp7857
bsg63
Nstp7858
Rp7859
a(dp7860
g339
(dp7861
g341
g7596
sg342
(lp7862
(dp7863
g345
g346
(I0
I20
I1
tp7864
Rp7865
sg349
g7659
sasstp7866
bsbssVCook_Islands
p7867
(dp7868
g3
Vhttp://survivor.wikia.com/wiki/Survivor:_Cook_Islands
p7869
sg5
g6
(g7
g8
Ntp7870
Rp7871
(dp7872
g12
g13
sg14
g15
sg16
g6
(g17
g8
Ntp7873
Rp7874
((lp7875
g21
(g22
(dp7876
g24
g25
(g26
(I0
tp7877
g28
tp7878
Rp7879
(I1
(L20L
tp7880
g35
I00
(lp7881
VSekou
p7882
aVBilly
p7883
aVCecilia
p7884
aVJ.P.
p7885
aVStephannie
p7886
aVCao Boi
p7887
aVCristina
p7888
aVJessica
p7889
aVBrad
p7890
aVRebecca
p7891
aVJenny
p7892
aVNate
p7893
aVCandice
p7894
aVJonathan
p7895
aVParvati
p7896
aVAdam
p7897
aVSundra
p7898
aVBecky
p7899
aVOzzy
p7900
aVYul
p7901
atp7902
bsg63
Nstp7903
Rp7904
ag21
(g22
(dp7905
g24
g25
(g26
(I0
tp7906
g28
tp7907
Rp7908
(I1
(L20L
tp7909
g35
I00
(lp7910
VYul
p7911
aVOzzy
p7912
aVBecky
p7913
aVSundra
p7914
aVAdam
p7915
aVParvati
p7916
aVJonathan
p7917
aVCandice
p7918
aVNate
p7919
aVJenny
p7920
aVRebecca
p7921
aVBrad
p7922
aVJessica
p7923
aVCristina
p7924
aVCao Boi
p7925
aVStephannie
p7926
aVJ.P.
p7927
aVCecilia
p7928
aVBilly
p7929
aVSekou
p7930
atp7931
bsg63
g93
(g96
S'\x01\x00\x00\x00\x00\x00\x00\x00'
p7932
tp7933
Rp7934
stp7935
Rp7936
a(lp7937
g25
(g26
(I0
tp7938
g28
tp7939
Rp7940
(I1
(L20L
L20L
tp7941
g35
I00
(lp7942
V \u2014
p7943
aV \u2014
p7944
aV \u2014
p7945
aV Sekou
p7946
aV \u2014
p7947
aV \u2014
p7948
aV \u2014
p7949
aV \u2014
p7950
aV Sundra
p7951
aV \u2014
p7952
aV Sekou
p7953
aV \u2014
p7954
aV \u2014
p7955
aV \u2014
p7956
aV \u2014
p7957
aV Sekou
p7958
aV \u2014
p7959
aV \u2014
p7960
aV \u2014
p7961
aV Sundra
p7962
aV \u2014
p7963
aV Billy
p7964
aV \u2014
p7965
aV \u2014
p7966
aV \u2014
p7967
aV \u2014
p7968
aV \u2014
p7969
aV \u2014
p7970
aV \u2014
p7971
aV \u2014
p7972
aV \u2014
p7973
aV \u2014
p7974
aV \u2014
p7975
aV Billy
p7976
aV \u2014
p7977
aV \u2014
p7978
aV Billy
p7979
aV Billy
p7980
aV Ozzy
p7981
ag129
aV Cecilia
p7982
aV Becky
p7983
aV Cecilia
p7984
aV Becky
p7985
aV \u2014
p7986
aV \u2014
p7987
aV Cecilia
p7988
aVExiled
p7989
aV \u2014
p7990
aV \u2014
p7991
aV \u2014
p7992
aV \u2014
p7993
aV Cecilia
p7994
aV \u2014
p7995
aV Cecilia
p7996
aV \u2014
p7997
aV \u2014
p7998
aV Becky
p7999
ag129
ag129
aV \u2014
p8000
aV \u2014
p8001
aV \u2014
p8002
aV \u2014
p8003
aV J.P.
p8004
aV J.P.
p8005
aV \u2014
p8006
aV \u2014
p8007
aV Stephannie
p8008
aV J.P.
p8009
aV J.P.
p8010
aV J.P.
p8011
aV \u2014
p8012
aV J.P.
p8013
aV \u2014
p8014
aV J.P.
p8015
aV Stephannie
p8016
ag129
ag129
ag129
aV \u2014
p8017
aV \u2014
p8018
aV \u2014
p8019
aV \u2014
p8020
aV Stephannie
p8021
aV Stephannie
p8022
aV \u2014
p8023
aV \u2014
p8024
aV Stephannie
p8025
aV Stephannie
p8026
aV Stephannie
p8027
aV Stephannie
p8028
aV \u2014
p8029
aV Stephannie
p8030
aV \u2014
p8031
aV Cristina
p8032
ag129
ag129
ag129
ag129
aV Cao Boi
p8033
aV Cao Boi
p8034
aV Cao Boi
p8035
aV Cao Boi
p8036
aV \u2014
p8037
aV \u2014
p8038
aV Cao Boi
p8039
aV Cao Boi
p8040
aV \u2014
p8041
aV \u2014
p8042
aV \u2014
p8043
aV \u2014
p8044
aV Jonathan
p8045
aV \u2014
p8046
aV Candice
p8047
ag129
ag129
ag129
ag129
ag129
aV \u2014
p8048
aV \u2014
p8049
aV \u2014
p8050
aV \u2014
p8051
aV Cristina
p8052
aV Cristina
p8053
aV \u2014
p8054
aV \u2014
p8055
aVKidnapped
p8056
aV Cristina
p8057
aV Cristina
p8058
aV Jenny
p8059
aV \u2014
p8060
aV Jenny
p8061
ag129
ag129
ag129
ag129
ag129
ag129
aV Jessica
p8062
aV Jessica
p8063
aV Jessica
p8064
aV Jessica
p8065
aV \u2014
p8066
aV \u2014
p8067
aV Jessica
p8068
aV Jessica
p8069
aV \u2014
p8070
aV \u2014
p8071
aV \u2014
p8072
aV \u2014
p8073
aV Jonathan
p8074
ag129
ag129
ag129
ag129
ag129
ag129
ag129
aV \u2014
p8075
aV \u2014
p8076
aV \u2014
p8077
aV \u2014
p8078
aV Brad
p8079
aV Brad
p8080
aV Brad
p8081
aV Brad
p8082
aV Brad
p8083
aV Brad
p8084
aV Brad
p8085
aV Jonathan
p8086
ag129
ag129
ag129
ag129
ag129
ag129
ag129
ag129
aV \u2014
p8087
aV \u2014
p8088
aV \u2014
p8089
aV \u2014
p8090
aV Rebecca
p8091
aV Rebecca
p8092
aV Rebecca
p8093
aV Rebecca
p8094
aV Rebecca
p8095
aV Rebecca
p8096
aV Jonathan
p8097
ag129
ag129
ag129
ag129
ag129
ag129
ag129
ag129
ag129
aV \u2014
p8098
aV \u2014
p8099
aV \u2014
p8100
aV \u2014
p8101
aV Jenny
p8102
aV Jenny
p8103
aV Jenny
p8104
aV Jenny
p8105
aV Jonathan
p8106
aV Jonathan
p8107
ag129
ag129
ag129
ag129
ag129
ag129
ag129
ag129
ag129
ag129
aV Nate
p8108
aV Nate
p8109
aV Nate
p8110
aV Nate
p8111
aV Yul
p8112
aV Yul
p8113
aV Nate
p8114
aV Yul
p8115
aV Yul
p8116
ag129
ag129
ag129
ag129
ag129
ag129
ag129
ag129
ag129
ag129
ag129
aV Candice
p8117
aV Candice
p8118
aV Candice
p8119
aV Candice
p8120
aV Jonathan
p8121
aV Jonathan
p8122
aV Candice
p8123
aV Jonathan
p8124
ag129
ag129
ag129
ag129
ag129
ag129
ag129
ag129
ag129
ag129
ag129
ag129
aV Jonathan
p8125
aV Jonathan
p8126
aV Jonathan
p8127
aV Jonathan
p8128
aV Jonathan
p8129
aV Jonathan
p8130
aV Adam
p8131
ag129
ag129
ag129
ag129
ag129
ag129
ag129
ag129
ag129
ag129
ag129
ag129
ag129
aV Parvati
p8132
aV Parvati
p8133
aV Parvati
p8134
aV Parvati
p8135
aV Sundra
p8136
aV Sundra
p8137
ag129
ag129
ag129
ag129
ag129
ag129
ag129
ag129
ag129
ag129
ag129
ag129
ag129
ag129
aV Adam
p8138
aV Adam
p8139
aV Adam
p8140
aV Adam
p8141
aV Yul
p8142
ag129
ag129
ag129
ag129
ag129
ag129
ag129
ag129
ag129
ag129
ag129
ag129
ag129
ag129
ag129
aV Sundra
p8143
aV Becky
p8144
aV Sundra
p8145
aV Becky
p8146
ag129
ag129
ag129
ag129
ag129
ag129
ag129
ag129
ag129
ag129
ag129
ag129
ag129
ag129
ag129
ag129
ag319
ag319
ag319
ag129
ag129
ag129
ag129
ag129
ag129
ag129
ag129
ag129
ag129
ag129
ag129
ag129
ag129
ag129
ag129
ag129
ag319
ag319
ag319
ag129
ag129
aV Ozzy
p8147
ag129
ag129
aV Ozzy
p8148
aV Ozzy
p8149
aV Ozzy
p8150
ag129
ag129
ag129
ag129
ag129
ag129
ag129
ag129
ag129
ag319
ag319
ag319
aV Yul
p8151
aV Yul
p8152
ag129
aV Yul
p8153
aV Yul
p8154
ag129
ag129
ag129
aV Yul
p8155
ag129
ag129
ag129
ag129
ag129
ag129
ag129
ag129
atp8156
ba(lp8157
g21
(g22
(dp8158
g24
g25
(g26
(I0
tp8159
g28
tp8160
Rp8161
(I1
(L20L
tp8162
g35
I00
(lp8163
g7882
ag7883
ag7884
ag7885
ag7886
ag7887
ag7888
ag7889
ag7890
ag7891
ag7892
ag7893
ag7894
ag7895
ag7896
ag7897
ag7898
ag7899
ag7900
ag7901
atp8164
bsg63
Nstp8165
Rp8166
a(dp8167
g339
(dp8168
g341
g7875
sg342
(lp8169
(dp8170
g345
g346
(I0
I20
I1
tp8171
Rp8172
sg349
g7940
sasstp8173
bsbssVRedemption_Island
p8174
(dp8175
g3
Vhttp://survivor.wikia.com/wiki/Survivor:_Redemption_Island
p8176
sg5
g6
(g7
g8
Ntp8177
Rp8178
(dp8179
g12
g13
sg14
g15
sg16
g6
(g17
g8
Ntp8180
Rp8181
((lp8182
g21
(g22
(dp8183
g24
g25
(g26
(I0
tp8184
g28
tp8185
Rp8186
(I1
(L21L
tp8187
g35
I00
(lp8188
VFrancesca
p8189
aVMatthew
p8190
aVRussell
p8191
aVRussell
p8192
aVKristina
p8193
aVKrista
p8194
aVStephanie
p8195
aVSarita
p8196
aVMatthew
p8197
aVMike
p8198
aVDavid
p8199
aVJulie
p8200
aVRalph
p8201
aVSteve
p8202
aVAndrea
p8203
aVGrant
p8204
aVAndrea
p8205
aVAshley
p8206
aVNatalie
p8207
aVPhillip
p8208
aVRob
p8209
atp8210
bsg63
Nstp8211
Rp8212
ag21
(g22
(dp8213
g24
g25
(g26
(I0
tp8214
g28
tp8215
Rp8216
(I1
(L18L
tp8217
g35
I00
(lp8218
VRob
p8219
aVPhillip
p8220
aVNatalie
p8221
aVAshley
p8222
aVAndrea
p8223
aVMike
p8224
aVMatthew
p8225
aVGrant
p8226
aV Ralph
p8227
aVSteve
p8228
aVJulie
p8229
aVDavid
p8230
aVSarita
p8231
aVStephanie
p8232
aVKrista
p8233
aVKristina
p8234
aVRussell
p8235
aVFrancesca
p8236
atp8237
bsg63
g93
(g96
S'\x01\x00\x00\x00\x00\x00\x00\x00'
p8238
tp8239
Rp8240
stp8241
Rp8242
a(lp8243
g25
(g26
(I0
tp8244
g28
tp8245
Rp8246
(I1
(L21L
L18L
tp8247
g35
I00
(lp8248
V Francesca
p8249
aV Francesca
p8250
aV Kristina
p8251
aV Kristina
p8252
aV Kristina
p8253
aV \u2014
p8254
aV Francesca
p8255
aV Francesca
p8256
aV \u2014
p8257
aV \u2014
p8258
aV \u2014
p8259
aV \u2014
p8260
aV \u2014
p8261
aV \u2014
p8262
aV \u2014
p8263
aV Phillip
p8264
aV \u2014
p8265
aV Phillip
p8266
aV Matthew
p8267
aV Kristina
p8268
aV Matthew
p8269
aV Matthew
p8270
aV Kristina
p8271
aV \u2014
p8272
aV Phillip
p8273
aV Matthew
p8274
aV \u2014
p8275
aV \u2014
p8276
aV \u2014
p8277
aV \u2014
p8278
aV \u2014
p8279
aV \u2014
p8280
aV \u2014
p8281
aV Phillip
p8282
aV \u2014
p8283
ag4860
aV \u2014
p8284
aV \u2014
p8285
aV \u2014
p8286
aV \u2014
p8287
aV \u2014
p8288
aV Russell
p8289
ag4860
aV \u2014
p8290
aV Russell
p8291
aV Stephanie
p8292
aV Stephanie
p8293
aV Russell
p8294
aV Stephanie
p8295
aV Ralph
p8296
aV Ralph
p8297
aV \u2014
p8298
aV Ralph
p8299
ag4860
ag8284
ag8285
ag8286
ag8287
ag8288
aV Russell
p8300
ag4860
ag8290
aVNone
p8301
aV Russell
p8302
aV Russell
p8303
aV Russell
p8304
aV Russell
p8305
aVNone
p8306
aV Ralph
p8307
ag8298
aVNone
p8308
ag4860
aV Phillip
p8309
aV Kristina
p8310
aV Kristina
p8311
aV Kristina
p8312
aV Kristina
p8313
aV \u2014
p8314
ag4860
aV Phillip
p8315
aV \u2014
p8316
aV \u2014
p8317
aV \u2014
p8318
aV \u2014
p8319
aV \u2014
p8320
aV \u2014
p8321
aV\u2014
p8322
aV Phillip
p8323
ag4860
ag129
aV \u2014
p8324
aV \u2014
p8325
aV \u2014
p8326
aV \u2014
p8327
aV \u2014
p8328
aV Krista
p8329
ag4860
aV \u2014
p8330
aV Krista
p8331
aV Krista
p8332
aV Krista
p8333
aV Krista
p8334
aV Krista
p8335
aV Steve
p8336
aV Steve
p8337
ag4860
ag129
ag129
aV \u2014
p8338
aV \u2014
p8339
aV \u2014
p8340
aV \u2014
p8341
aV \u2014
p8342
aV Stephanie
p8343
ag4860
aV \u2014
p8344
aV Stephanie
p8345
aV Stephanie
p8346
aV Stephanie
p8347
aV Sarita
p8348
aV Stephanie
p8349
aV Sarita
p8350
ag4860
ag129
ag129
ag129
aV \u2014
p8351
aV \u2014
p8352
aV \u2014
p8353
aV \u2014
p8354
aV \u2014
p8355
aV Sarita
p8356
ag4860
aV \u2014
p8357
aV David
p8358
aV Sarita
p8359
aV Sarita
p8360
aV Sarita
p8361
aV David
p8362
ag4860
ag129
ag129
ag129
ag129
aV Matthew
p8363
aV Matthew
p8364
aV Matthew
p8365
aV Matthew
p8366
aV Matthew
p8367
aV Grant
p8368
aV Steve
p8369
aV Matthew
p8370
aV Grant
p8371
aV Grant
p8372
aV Grant
p8373
aV Grant
p8374
ag4860
ag129
ag129
ag129
ag129
ag129
aV Mike
p8375
aV Mike
p8376
aV Mike
p8377
aV Mike
p8378
aV Mike
p8379
aV Phillip
p8380
ag4860
aV Mike
p8381
aV Phillip
p8382
aV Phillip
p8383
aV Phillip
p8384
aV Phillip
p8385
ag129
ag129
ag129
ag129
ag129
ag129
aV David
p8386
aV David
p8387
aV David
p8388
aV David
p8389
aV David
p8390
ag4860
ag4860
aV David
p8391
aV Rob
p8392
aV Rob
p8393
aV Rob
p8394
aV Rob
p8395
ag129
ag129
ag129
ag129
ag129
ag129
aV Julie
p8396
aV Julie
p8397
aV Julie
p8398
aV Julie
p8399
aV Julie
p8400
ag4860
ag4860
aV Julie
p8401
aV Phillip
p8402
aV Phillip
p8403
aV Phillip
p8404
ag4860
ag129
ag129
ag129
ag129
ag129
ag129
aV Ralph
p8405
aV Ralph
p8406
aV Ralph
p8407
aV Ralph
p8408
aV Ralph
p8409
ag4860
ag4860
aV Ralph
p8410
aV Rob
p8411
aV Rob
p8412
ag4860
ag129
ag129
ag129
ag129
ag129
ag129
ag129
aV Steve
p8413
aV Steve
p8414
aV Steve
p8415
aV Steve
p8416
aV Steve
p8417
ag4860
ag4860
aV Steve
p8418
ag4860
aV Grant
p8419
ag129
ag129
ag129
ag129
ag129
ag129
ag129
ag129
aV Andrea
p8420
aV Andrea
p8421
aV Andrea
p8422
aV Andrea
p8423
aV Phillip
p8424
ag4860
ag4860
aV Andrea
p8425
ag4860
ag4860
ag129
ag129
ag129
ag129
ag129
ag129
ag129
ag129
aV Grant
p8426
aV Grant
p8427
aV Grant
p8428
aV Grant
p8429
ag4860
ag4860
ag4860
aV Natalie
p8430
ag4860
ag129
ag129
ag129
ag129
ag129
ag129
ag129
ag129
ag129
aV Andrea
p8431
aV Andrea
p8432
aV Andrea
p8433
aV Andrea
p8434
aV Rob
p8435
ag4860
ag4860
ag4860
ag129
ag129
ag129
ag129
ag129
ag129
ag129
ag129
ag129
ag129
ag319
ag319
ag319
ag319
ag129
ag129
ag129
ag129
ag129
ag129
ag129
ag129
ag129
ag129
ag129
ag129
ag129
ag129
ag319
ag319
ag319
ag319
ag129
ag129
ag129
ag129
ag129
ag129
ag129
ag129
ag129
ag129
ag129
ag129
ag129
ag129
ag319
ag319
ag319
ag319
ag129
ag129
ag129
ag129
aV Phillip
p8436
ag129
ag129
ag129
ag129
ag129
ag129
ag129
ag129
ag129
ag319
ag319
ag319
ag319
aV Rob
p8437
aV Rob
p8438
aV Rob
p8439
aV Rob
p8440
ag129
aV Rob
p8441
aV Rob
p8442
aV Rob
p8443
ag129
ag129
ag129
ag129
ag129
ag129
atp8444
ba(lp8445
g21
(g22
(dp8446
g24
g25
(g26
(I0
tp8447
g28
tp8448
Rp8449
(I1
(L21L
tp8450
g35
I00
(lp8451
g8189
ag8190
ag8191
ag8192
ag8193
ag8194
ag8195
ag8196
ag8197
ag8198
ag8199
ag8200
ag8201
ag8202
ag8203
ag8204
ag8205
ag8206
ag8207
ag8208
ag8209
atp8452
bsg63
Nstp8453
Rp8454
a(dp8455
g339
(dp8456
g341
g8182
sg342
(lp8457
(dp8458
g345
g346
(I0
I21
I1
tp8459
Rp8460
sg349
g8246
sasstp8461
bsbssVNicaragua
p8462
(dp8463
g3
Vhttp://survivor.wikia.com/wiki/Survivor:_Nicaragua
p8464
sg5
g6
(g7
g8
Ntp8465
Rp8466
(dp8467
g12
g13
sg14
g15
sg16
g6
(g17
g8
Ntp8468
Rp8469
((lp8470
g21
(g22
(dp8471
g24
g25
(g26
(I0
tp8472
g28
tp8473
Rp8474
(I1
(L21L
tp8475
g35
I00
(lp8476
VWendy
p8477
aVShannon
p8478
aVJimmy J.
p8479
aVJimmy T.
p8480
aVTyrone
p8481
aVKelly B.
p8482
aVKelly B.
p8483
aVYve
p8484
aVJill
p8485
aVAlina
p8486
aVMarty
p8487
aVBrenda
p8488
aVNaOnka
p8489
aVKelly S.
p8490
aVBenry
p8491
aVJane
p8492
aVDan
p8493
aVHolly
p8494
aVSash
p8495
aVChase
p8496
aVFabio
p8497
atp8498
bsg63
Nstp8499
Rp8500
ag21
(g22
(dp8501
g24
g25
(g26
(I0
tp8502
g28
tp8503
Rp8504
(I1
(L20L
tp8505
g35
I00
(lp8506
VFabio
p8507
aVChase
p8508
aVSash
p8509
aVHolly
p8510
aVDan
p8511
aVJane
p8512
aVBenry
p8513
aVKelly S.
p8514
aVNaOnka
p8515
aVBrenda
p8516
aVMarty
p8517
aVAlina
p8518
aVJill
p8519
aVYve
p8520
aVKelly B.
p8521
aVTyrone
p8522
aVJimmy T.
p8523
aVJimmy J.
p8524
aVShannon
p8525
aVWendy
p8526
atp8527
bsg63
g93
(g96
S'\x01\x00\x00\x00\x00\x00\x00\x00'
p8528
tp8529
Rp8530
stp8531
Rp8532
a(lp8533
g25
(g26
(I0
tp8534
g28
tp8535
Rp8536
(I1
(L21L
L20L
tp8537
g35
I00
(lp8538
V \u2014
p8539
aV \u2014
p8540
aV \u2014
p8541
aV Wendy
p8542
aV Wendy
p8543
aV Wendy
p8544
aV \u2014
p8545
aV \u2014
p8546
aV \u2014
p8547
aV \u2014
p8548
aV Wendy
p8549
aV \u2014
p8550
aV Wendy
p8551
aV Wendy
p8552
aV \u2014
p8553
aV Wendy
p8554
aV Wendy
p8555
aV Wendy
p8556
aV \u2014
p8557
aV Yve
p8558
aV Brenda
p8559
aV Shannon
p8560
aV Shannon
p8561
aV \u2014
p8562
aV \u2014
p8563
aV \u2014
p8564
aV Shannon
p8565
aV Shannon
p8566
aV Shannon
p8567
aV Shannon
p8568
aV \u2014
p8569
aV Brenda
p8570
aV \u2014
p8571
aV \u2014
p8572
aV Shannon
p8573
aV \u2014
p8574
aV \u2014
p8575
aV \u2014
p8576
aV Brenda
p8577
ag129
aV \u2014
p8578
aV \u2014
p8579
aV \u2014
p8580
aV Jimmy J.
p8581
aV Jimmy J.
p8582
aV Jimmy J.
p8583
aV \u2014
p8584
aV \u2014
p8585
aV \u2014
p8586
aV \u2014
p8587
aV Jimmy J.
p8588
aV \u2014
p8589
aV Jimmy J.
p8590
aV Jimmy J.
p8591
aV \u2014
p8592
aV Jimmy J.
p8593
aV Jimmy J.
p8594
aV Dan
p8595
ag129
ag129
aV \u2014
p8596
aV \u2014
p8597
aV \u2014
p8598
aV Dan
p8599
aV Jimmy T.
p8600
aV Dan
p8601
aV \u2014
p8602
aV \u2014
p8603
aV \u2014
p8604
aV \u2014
p8605
aV Jimmy T.
p8606
aV \u2014
p8607
aV Jimmy T.
p8608
aV Jimmy T.
p8609
aV \u2014
p8610
aV Jimmy T.
p8611
aV Dan
p8612
ag129
ag129
ag129
aV \u2014
p8613
aV Tyrone
p8614
ag8598
aV Tyrone
p8615
aV Tyrone
p8616
aV \u2014
p8617
aV Tyrone
p8618
aV \u2014
p8619
aV Tyrone
p8620
aV \u2014
p8621
aV \u2014
p8622
aV Tyrone
p8623
aV \u2014
p8624
aV NaOnka
p8625
aV \u2014
p8626
aV NaOnka
p8627
ag129
ag129
ag129
ag129
aV Kelly B.
p8628
aV \u2014
p8629
aV Marty
p8630
aV \u2014
p8631
aV \u2014
p8632
aV Marty
p8633
aV \u2014
p8634
aV Kelly B.
p8635
aV \u2014
p8636
aV Kelly B.
p8637
aV Brenda
p8638
aV \u2014
p8639
aV Brenda
p8640
aV \u2014
p8641
aV Marty
p8642
ag129
ag129
ag129
ag129
ag129
aV Kelly B.
p8643
ag8629
aV Kelly B.
p8644
ag8631
ag8632
aV Marty
p8645
ag8634
aV Kelly B.
p8646
ag8636
aV Kelly B.
p8647
aVNone
p8648
ag8639
aV Kelly B.
p8649
ag8641
aVNone
p8650
ag129
ag129
ag129
ag129
ag129
aV \u2014
p8651
aV Yve
p8652
aV \u2014
p8653
aV Yve
p8654
aV Yve
p8655
aV \u2014
p8656
aV Yve
p8657
aV \u2014
p8658
aV Yve
p8659
aV \u2014
p8660
aV \u2014
p8661
aV Yve
p8662
aV \u2014
p8663
aV Dan
p8664
ag129
ag129
ag129
ag129
ag129
ag129
aV Marty
p8665
aV \u2014
p8666
aV Jill
p8667
aV \u2014
p8668
aV \u2014
p8669
aV Marty
p8670
aV \u2014
p8671
aV Jill
p8672
aV \u2014
p8673
aV Jill
p8674
aV Jane
p8675
aV \u2014
p8676
aV Jane
p8677
ag129
ag129
ag129
ag129
ag129
ag129
ag129
aV Alina
p8678
aV Alina
p8679
aV Alina
p8680
aV Alina
p8681
aV Alina
p8682
aV Marty
p8683
aV Alina
p8684
aV Alina
p8685
aV Alina
p8686
aV Alina
p8687
aV Alina
p8688
aV Marty
p8689
ag129
ag129
ag129
ag129
ag129
ag129
ag129
ag129
aV Jane
p8690
aV Marty
p8691
aV Marty
p8692
aV Marty
p8693
aV Jane
p8694
aV Marty
p8695
aV Jane
p8696
aV Marty
p8697
aV Marty
p8698
aV Marty
p8699
aV Jane
p8700
ag129
ag129
ag129
ag129
ag129
ag129
ag129
ag129
ag129
aV Brenda
p8701
aV Brenda
p8702
aV Brenda
p8703
aV Brenda
p8704
aV Brenda
p8705
aV Brenda
p8706
aV Brenda
p8707
aV Benry
p8708
aV Brenda
p8709
aV NaOnka
p8710
ag129
ag129
ag129
ag129
ag129
ag129
ag129
ag129
ag129
ag129
aV \u2014
p8711
aV \u2014
p8712
aV \u2014
p8713
aV \u2014
p8714
aV \u2014
p8715
aV \u2014
p8716
aV \u2014
p8717
aVQuit
p8718
aVQuit
p8719
ag129
ag129
ag129
ag129
ag129
ag129
ag129
ag129
ag129
ag129
ag129
ag8711
ag8712
ag8713
ag8714
ag8715
ag8716
ag8717
ag8718
ag8719
ag129
ag129
ag129
ag129
ag129
ag129
ag129
ag129
ag129
ag129
ag129
aV Holly
p8720
aV Benry
p8721
aV Benry
p8722
aV Benry
p8723
aV Fabio
p8724
aV Benry
p8725
aV Fabio
p8726
ag129
ag129
ag129
ag129
ag129
ag129
ag129
ag129
ag129
ag129
ag129
ag129
ag129
aV Jane
p8727
aV Jane
p8728
aV Jane
p8729
aV Jane
p8730
aV Jane
p8731
aV Sash
p8732
ag129
ag129
ag129
ag129
ag129
ag129
ag129
ag129
ag129
ag129
ag129
ag129
ag129
ag129
aV Dan
p8733
aV Dan
p8734
aV Dan
p8735
aV Dan
p8736
aV Chase
p8737
ag129
ag129
ag129
ag129
ag129
ag129
ag129
ag129
ag129
ag129
ag129
ag129
ag129
ag129
ag129
aV Holly
p8738
aV Holly
p8739
aV Holly
p8740
aV Sash
p8741
ag129
ag129
ag129
ag129
ag129
ag129
ag129
ag129
ag129
ag129
ag129
ag129
ag129
ag129
ag129
ag129
ag319
ag319
ag319
ag129
ag129
ag129
ag129
ag129
ag129
ag129
ag129
ag129
ag129
ag129
ag129
ag129
ag129
ag129
ag129
ag129
ag319
ag319
ag319
aV Chase
p8742
ag129
aV Chase
p8743
ag129
ag129
ag129
aV Chase
p8744
ag129
aV Chase
p8745
ag129
ag129
ag129
ag129
ag129
ag129
ag129
ag129
ag319
ag319
ag319
ag129
aV Fabio
p8746
ag129
aV Fabio
p8747
aV Fabio
p8748
aV Fabio
p8749
ag129
aV Fabio
p8750
ag129
ag129
ag129
ag129
ag129
ag129
ag129
ag129
ag129
atp8751
ba(lp8752
g21
(g22
(dp8753
g24
g25
(g26
(I0
tp8754
g28
tp8755
Rp8756
(I1
(L21L
tp8757
g35
I00
(lp8758
g8477
ag8478
ag8479
ag8480
ag8481
ag8482
ag8483
ag8484
ag8485
ag8486
ag8487
ag8488
ag8489
ag8490
ag8491
ag8492
ag8493
ag8494
ag8495
ag8496
ag8497
atp8759
bsg63
Nstp8760
Rp8761
a(dp8762
g339
(dp8763
g341
g8470
sg342
(lp8764
(dp8765
g345
g346
(I0
I21
I1
tp8766
Rp8767
sg349
g8536
sasstp8768
bsbss.