(dp0
VPalau
p1
(dp2
S'url'
p3
Vhttp://survivor.wikia.com/wiki/Survivor:_Palau
p4
sS'votes'
p5
ccopy_reg
_reconstructor
p6
(cpandas.core.frame
DataFrame
p7
c__builtin__
object
p8
Ntp9
Rp10
(dp11
S'_metadata'
p12
(lp13
sS'_typ'
p14
S'dataframe'
p15
sS'_data'
p16
g6
(cpandas.core.internals
BlockManager
p17
g8
Ntp18
Rp19
((lp20
cpandas.core.index
_new_Index
p21
(cpandas.core.index
Index
p22
(dp23
S'data'
p24
cnumpy.core.multiarray
_reconstruct
p25
(cnumpy
ndarray
p26
(I0
tp27
S'b'
p28
tp29
Rp30
(I1
(L23L
tp31
cnumpy
dtype
p32
(S'O8'
p33
I0
I1
tp34
Rp35
(I3
S'|'
p36
NNNI-1
I-1
I63
tp37
bI00
(lp38
VJonathan
p39
aVWanda
p40
aVJolanda
p41
aVAshlee
p42
aVJeff
p43
aVKim
p44
aVWillard
p45
aVAngie
p46
aVAngie
p47
aVJames
p48
aVJames
p49
aVIbrehem
p50
aVBobby Jon
p51
aVCoby
p52
aVJanu
p53
aVStephenie
p54
aVGregg
p55
aVCaryn
p56
aVJenn
p57
aVJenn
p58
aVIan
p59
aVKatie
p60
aVTom
p61
atp62
bsS'name'
p63
Nstp64
Rp65
ag21
(g22
(dp66
g24
g25
(g26
(I0
tp67
g28
tp68
Rp69
(I1
(L20L
tp70
g35
I00
(lp71
VTom
p72
aVKatie
p73
aVIan
p74
aVJenn
p75
aVCaryn
p76
aVGregg
p77
aVStephenie
p78
aVJanu
p79
aVCoby
p80
aVBobby Jon
p81
aVIbrehem
p82
aVJames
p83
aVAngie
p84
aVWillard
p85
aVKim
p86
aVJeff
p87
aVAshlee
p88
aVJolanda
p89
aVWanda
p90
aVJonathan
p91
atp92
bsg63
cnumpy.core.multiarray
scalar
p93
(g32
(S'i8'
p94
I0
I1
tp95
Rp96
(I3
S'<'
p97
NNNI-1
I-1
I0
tp98
bS'\x01\x00\x00\x00\x00\x00\x00\x00'
p99
tp100
Rp101
stp102
Rp103
a(lp104
g25
(g26
(I0
tp105
g28
tp106
Rp107
(I1
(L23L
L20L
tp108
g35
I00
(lp109
V \u2014
p110
aV \u2014
p111
aV \u2014
p112
aV\u2014
p113
aV \u2014
p114
aV\u2014
p115
aV \u2014
p116
aV \u2014
p117
aV \u2014
p118
aV \u2014
p119
aV \u2014
p120
aV \u2014
p121
aV \u2014
p122
aV\u2014
p123
aV \u2014
p124
aV \u2014
p125
aV \u2014
p126
aV \u2014
p127
aVEliminated
p128
aV
p129
ag110
ag111
ag112
ag113
ag114
ag115
ag116
ag117
ag118
ag119
ag120
ag121
ag122
ag123
ag124
ag125
ag126
ag127
ag128
ag129
aV \u2014
p130
aV \u2014
p131
aV \u2014
p132
aV \u2014
p133
aV \u2014
p134
aV \u2014
p135
aV Jolanda
p136
aV \u2014
p137
aV \u2014
p138
aV Angie
p139
aV Angie
p140
aV Jolanda
p141
aV Jolanda
p142
aV \u2014
p143
aV Jolanda
p144
aV Jolanda
p145
aV Jolanda
p146
aV Angie
p147
ag129
ag129
aV \u2014
p148
aV \u2014
p149
aV \u2014
p150
aV \u2014
p151
aV \u2014
p152
aV \u2014
p153
aV Ashlee
p154
aV \u2014
p155
aV \u2014
p156
aV Ashlee
p157
aV Kim
p158
aV Ashlee
p159
aV Ashlee
p160
aV \u2014
p161
aV Ashlee
p162
aV Ashlee
p163
aV Jeff
p164
ag129
ag129
ag129
aV \u2014
p165
aV \u2014
p166
aV \u2014
p167
aV \u2014
p168
aV \u2014
p169
aV \u2014
p170
aV Jeff
p171
aV \u2014
p172
aV \u2014
p173
aV Kim
p174
aV Jeff
p175
aV Kim
p176
aV Jeff
p177
aV \u2014
p178
aV Jeff
p179
aV James
p180
ag129
ag129
ag129
ag129
aV \u2014
p181
aV \u2014
p182
aV \u2014
p183
aV \u2014
p184
aV \u2014
p185
aV \u2014
p186
aV Kim
p187
aV \u2014
p188
aV \u2014
p189
aV Kim
p190
aV Kim
p191
aV Kim
p192
aV Kim
p193
aV \u2014
p194
aV James
p195
ag129
ag129
ag129
ag129
ag129
aV Willard
p196
aV Willard
p197
aV Willard
p198
aV Willard
p199
aV Willard
p200
aV Willard
p201
aV \u2014
p202
aV Willard
p203
aV Willard
p204
aV \u2014
p205
aV \u2014
p206
aV \u2014
p207
aV \u2014
p208
aV Katie
p209
ag129
ag129
ag129
ag129
ag129
ag129
aV \u2014
p210
aV \u2014
p211
aV \u2014
p212
aV \u2014
p213
aV\u2014
p214
aV \u2014
p215
aV Bobby Jon
p216
aV \u2014
p217
aV \u2014
p218
aV Angie
p219
aV James
p220
aV Angie
p221
aV Bobby Jon
p222
ag129
ag129
ag129
ag129
ag129
ag129
ag129
ag210
ag211
ag212
ag213
ag214
ag215
aV Angie
p223
ag217
ag218
aVNone
p224
aV Angie
p225
aV Angie
p226
aVNone 
p227
ag129
ag129
ag129
ag129
ag129
ag129
ag129
aV \u2014
p228
aV \u2014
p229
aV \u2014
p230
aV \u2014
p231
aV \u2014
p232
aV \u2014
p233
aV Ibrehem
p234
aV \u2014
p235
aV \u2014
p236
aV James
p237
aV James
p238
aV Ibrehem
p239
ag129
ag129
ag129
ag129
ag129
ag129
ag129
ag129
aV \u2014
p240
aV \u2014
p241
aV \u2014
p242
aV \u2014
p243
aV \u2014
p244
aV \u2014
p245
aV James
p246
aV \u2014
p247
aV \u2014
p248
aV James
p249
aVNone
p250
aVNone
p251
ag129
ag129
ag129
ag129
ag129
ag129
ag129
ag129
aV \u2014
p252
aV \u2014
p253
aV \u2014
p254
aV \u2014
p255
aV \u2014
p256
aV \u2014
p257
aV Ibrehem
p258
aV \u2014
p259
aV \u2014
p260
aV Ibrehem
p261
aV Stephenie
p262
ag129
ag129
ag129
ag129
ag129
ag129
ag129
ag129
ag129
aV \u2014
p263
aV \u2014
p264
aV \u2014
p265
aV \u2014
p266
aV \u2014
p267
aV \u2014
p268
aV \u2014
p269
aV \u2014
p270
aV \u2014
p271
aVEliminated
p272
ag129
ag129
ag129
ag129
ag129
ag129
ag129
ag129
ag129
ag129
aV Coby
p273
aV Coby
p274
aV Coby
p275
aV Coby
p276
aV Coby
p277
aV Coby
p278
aV Coby
p279
aV Stephenie
p280
aV Janu
p281
ag129
ag129
ag129
ag129
ag129
ag129
ag129
ag129
ag129
ag129
ag129
aV \u2014
p282
aV \u2014
p283
aV \u2014
p284
aV \u2014
p285
aV \u2014
p286
aV \u2014
p287
aV \u2014
p288
aVQuit
p289
ag129
ag129
ag129
ag129
ag129
ag129
ag129
ag129
ag129
ag129
ag129
ag129
aV Stephenie
p290
aV Stephenie
p291
aV Stephenie
p292
aV Stephenie
p293
aV Stephenie
p294
aV Stephenie
p295
aV Caryn
p296
ag129
ag129
ag129
ag129
ag129
ag129
ag129
ag129
ag129
ag129
ag129
ag129
ag129
aV Gregg
p297
aV Gregg
p298
aV Gregg
p299
aV Caryn
p300
aV Gregg
p301
aV Caryn
p302
ag129
ag129
ag129
ag129
ag129
ag129
ag129
ag129
ag129
ag129
ag129
ag129
ag129
ag129
aV Caryn
p303
aV Caryn
p304
aV Caryn
p305
aV Caryn
p306
aV Ian
p307
ag129
ag129
ag129
ag129
ag129
ag129
ag129
ag129
ag129
ag129
ag129
ag129
ag129
ag129
ag129
aV Ian
p308
aV Jenn
p309
aV Jenn
p310
aV Ian
p311
ag129
ag129
ag129
ag129
ag129
ag129
ag129
ag129
ag129
ag129
ag129
ag129
ag129
ag129
ag129
ag129
aV Ian
p312
aV Jenn
p313
aVNone
p314
aVNone
p315
ag129
ag129
ag129
ag129
ag129
ag129
ag129
ag129
ag129
ag129
ag129
ag129
ag129
ag129
ag129
ag129
aV Ian
p316
aV \u2014
p317
aV \u2014
p318
ag129
ag129
ag129
ag129
ag129
ag129
ag129
ag129
ag129
ag129
ag129
ag129
ag129
ag129
ag129
ag129
ag129
aS'Jury Vote'
p319
ag319
ag129
ag129
ag129
ag129
ag129
ag129
aV Katie
p320
ag129
ag129
ag129
ag129
ag129
ag129
ag129
ag129
ag129
ag129
aNag319
ag319
aV Tom
p321
aV Tom
p322
aV Tom
p323
aV Tom
p324
aV Tom
p325
aV Tom
p326
ag129
ag129
ag129
ag129
ag129
ag129
ag129
ag129
ag129
ag129
ag129
aNatp327
ba(lp328
g21
(g22
(dp329
g24
g25
(g26
(I0
tp330
g28
tp331
Rp332
(I1
(L23L
tp333
g35
I00
(lp334
g39
ag40
ag41
ag42
ag43
ag44
ag45
ag46
ag47
ag48
ag49
ag50
ag51
ag52
ag53
ag54
ag55
ag56
ag57
ag58
ag59
ag60
ag61
atp335
bsg63
Nstp336
Rp337
a(dp338
S'0.14.1'
p339
(dp340
S'axes'
p341
g20
sS'blocks'
p342
(lp343
(dp344
S'mgr_locs'
p345
c__builtin__
slice
p346
(I0
I23
I1
tp347
Rp348
sS'values'
p349
g107
sasstp350
bsbsS'num'
p351
I10
ssVTocantins
p352
(dp353
g3
Vhttp://survivor.wikia.com/wiki/Survivor:_Tocantins
p354
sg5
g6
(g7
g8
Ntp355
Rp356
(dp357
g12
g13
sg14
g15
sg16
g6
(g17
g8
Ntp358
Rp359
((lp360
g21
(g22
(dp361
g24
g25
(g26
(I0
tp362
g28
tp363
Rp364
(I1
(L16L
tp365
g35
I00
(lp366
VCarolina
p367
aVCandace
p368
aVJerry
p369
aVSandy
p370
aVSpencer
p371
aVSydney
p372
aVJoe
p373
aVBrendan
p374
aVTyson
p375
aVSierra
p376
aVDebbie
p377
aVCoach
p378
aVTaj
p379
aVErinn
p380
aVStephen
p381
aVJ.T.
p382
atp383
bsg63
Nstp384
Rp385
ag21
(g22
(dp386
g24
g25
(g26
(I0
tp387
g28
tp388
Rp389
(I1
(L16L
tp390
g35
I00
(lp391
VJ.T.
p392
aVStephen
p393
aVErinn
p394
aVTaj
p395
aVCoach
p396
aVDebbie
p397
aVSierra
p398
aVTyson
p399
aVBrendan
p400
aVJoe
p401
aVSydney
p402
aVSpencer
p403
aVSandy
p404
aVJerry
p405
aVCandace
p406
aVCarolina
p407
atp408
bsg63
g93
(g96
S'\x01\x00\x00\x00\x00\x00\x00\x00'
p409
tp410
Rp411
stp412
Rp413
a(lp414
g25
(g26
(I0
tp415
g28
tp416
Rp417
(I1
(L16L
L16L
tp418
g35
I00
(lp419
V Carolina
p420
aV Carolina
p421
aV \u2014
p422
aV Carolina
p423
aV \u2014
p424
aV \u2014
p425
aV \u2014
p426
aV \u2014
p427
aV \u2014
p428
aV Carolina
p429
aV Carolina
p430
aV Carolina
p431
aV Carolina
p432
aV \u2014
p433
aV \u2014
p434
aV Sandy
p435
aV \u2014
p436
aV \u2014
p437
aV Candace
p438
aV \u2014
p439
aV Candace
p440
aV Candace
p441
aV Candace
p442
aV Candace
p443
aV Candace
p444
aV \u2014
p445
aV \u2014
p446
aV \u2014
p447
aV \u2014
p448
aV Candace
p449
aV Sierra
p450
ag129
aV \u2014
p451
aV \u2014
p452
aV Jerry
p453
aV \u2014
p454
aV Jerry
p455
aV Jerry
p456
aV Jerry
p457
aV Jerry
p458
aV Jerry
p459
aV \u2014
p460
aV \u2014
p461
aV \u2014
p462
aV \u2014
p463
aV Erinn
p464
ag129
ag129
aV Sandy
p465
aV Sandy
p466
aV \u2014
p467
aV Joe
p468
aV \u2014
p469
aV \u2014
p470
aV \u2014
p471
aV \u2014
p472
aV \u2014
p473
aV Sandy
p474
aV Sandy
p475
aV Sandy
p476
aV Sydney
p477
ag129
ag129
ag129
aV Spencer
p478
aV Spencer
p479
aV \u2014
p480
aV Spencer
p481
aV \u2014
p482
aV \u2014
p483
aV \u2014
p484
aV \u2014
p485
aV \u2014
p486
aV Spencer
p487
aV Spencer
p488
aV Taj
p489
ag129
ag129
ag129
ag129
aV Sydney
p490
aV Sydney
p491
aV \u2014
p492
aV Sydney
p493
aV \u2014
p494
aV \u2014
p495
aV \u2014
p496
aV \u2014
p497
aV \u2014
p498
aV Taj
p499
aV Taj
p500
ag129
ag129
ag129
ag129
ag129
aV \u2014
p501
aV \u2014
p502
aV \u2014
p503
aV \u2014
p504
aV \u2014
p505
aV \u2014
p506
aV \u2014
p507
aV \u2014
p508
aV \u2014
p509
aVEvacuated
p510
ag129
ag129
ag129
ag129
ag129
ag129
aV Sierra
p511
aV Brendan
p512
aV Sierra
p513
aV Brendan
p514
aV Brendan
p515
aV Brendan
p516
aV Coach
p517
aV Sierra
p518
aV Coach
p519
ag129
ag129
ag129
ag129
ag129
ag129
ag129
aV Tyson
p520
aV Tyson
p521
aV Tyson
p522
aV Tyson
p523
aV Sierra
p524
aV Sierra
p525
aV Tyson
p526
aV Sierra
p527
ag129
ag129
ag129
ag129
ag129
ag129
ag129
ag129
aV Sierra
p528
aV Sierra
p529
aV Stephen
p530
aV Debbie
p531
aV Sierra
p532
aV Sierra
p533
aV Debbie
p534
ag129
ag129
ag129
ag129
ag129
ag129
ag129
ag129
ag129
aV Debbie
p535
aV Debbie
p536
aV Debbie
p537
aV Debbie
p538
aV Taj
p539
aV Coach
p540
ag129
ag129
ag129
ag129
ag129
ag129
ag129
ag129
ag129
ag129
aV Erinn
p541
aV Coach
p542
aV Coach
p543
aV Coach
p544
aV Erinn
p545
ag129
ag129
ag129
ag129
ag129
ag129
ag129
ag129
ag129
ag129
ag129
aV Taj
p546
aV Taj
p547
aV Taj
p548
aV Erinn
p549
ag129
ag129
ag129
ag129
ag129
ag129
ag129
ag129
ag129
ag129
ag129
ag129
aV Erinn
p550
aV \u2014
p551
aV \u2014
p552
ag129
ag129
ag129
ag129
ag129
ag129
ag129
ag129
ag129
ag129
ag129
ag129
ag129
ag319
ag319
ag129
ag129
ag129
ag129
ag129
ag129
ag129
ag129
ag129
ag129
ag129
ag129
ag129
ag129
ag319
ag319
aV J.T.
p553
aV J.T.
p554
aV J.T.
p555
aV J.T.
p556
aV J.T.
p557
aV J.T.
p558
aV J.T.
p559
ag129
ag129
ag129
ag129
ag129
ag129
ag129
atp560
ba(lp561
g21
(g22
(dp562
g24
g25
(g26
(I0
tp563
g28
tp564
Rp565
(I1
(L16L
tp566
g35
I00
(lp567
g367
ag368
ag369
ag370
ag371
ag372
ag373
ag374
ag375
ag376
ag377
ag378
ag379
ag380
ag381
ag382
atp568
bsg63
Nstp569
Rp570
a(dp571
g339
(dp572
g341
g360
sg342
(lp573
(dp574
g345
g346
(I0
I16
I1
tp575
Rp576
sg349
g417
sasstp577
bsbsg351
I18
ssVBorneo
p578
(dp579
g3
Vhttp://survivor.wikia.com/wiki/Survivor:_Borneo
p580
sg5
g6
(g7
g8
Ntp581
Rp582
(dp583
g12
g13
sg14
g15
sg16
g6
(g17
g8
Ntp584
Rp585
((lp586
g21
(g22
(dp587
g24
g25
(g26
(I0
tp588
g28
tp589
Rp590
(I1
(L17L
tp591
g35
I00
(lp592
VSonja
p593
aVB.B.
p594
aVStacey
p595
aVRamona
p596
aVDirk
p597
aVJoel
p598
aVGretchen
p599
aVGreg
p600
aVJenna
p601
aVGervase
p602
aVColleen
p603
aVSean
p604
aVSusan
p605
aVSusan
p606
aVRudy
p607
aVKelly
p608
aVRichard
p609
atp610
bsg63
Nstp611
Rp612
ag21
(g22
(dp613
g24
g25
(g26
(I0
tp614
g28
tp615
Rp616
(I1
(L16L
tp617
g35
I00
(lp618
VRichard
p619
aVKelly
p620
aVRudy
p621
aVSusan
p622
aVSean
p623
aVColleen
p624
aVGervase
p625
aVJenna
p626
aVGreg
p627
aVGretchen
p628
aVJoel
p629
aVDirk
p630
aVRamona
p631
aVStacey
p632
aVB.B.
p633
aVSonja
p634
atp635
bsg63
g93
(g96
S'\x01\x00\x00\x00\x00\x00\x00\x00'
p636
tp637
Rp638
stp639
Rp640
a(lp641
g25
(g26
(I0
tp642
g28
tp643
Rp644
(I1
(L17L
L16L
tp645
g35
I00
(lp646
V Stacey
p647
aV Rudy
p648
aV Sonja
p649
aV Sonja
p650
aV Sonja
p651
aV \u2014
p652
aV \u2014
p653
aV \u2014
p654
aV \u2014
p655
aV \u2014
p656
aV \u2014
p657
aV Sonja
p658
aV \u2014
p659
aV Rudy
p660
aV \u2014
p661
aV Rudy
p662
aV \u2014
p663
aV \u2014
p664
aV \u2014
p665
aV \u2014
p666
aV \u2014
p667
aV B.B.
p668
aV B.B.
p669
aV B.B.
p670
aV Ramona
p671
aV B.B.
p672
aV B.B.
p673
aV \u2014
p674
aV B.B.
p675
aV \u2014
p676
aV Ramona
p677
ag129
aV Stacey
p678
aV Rudy
p679
aV Stacey
p680
aV Stacey
p681
aV Stacey
p682
aV \u2014
p683
aV \u2014
p684
aV \u2014
p685
aV \u2014
p686
aV \u2014
p687
aV \u2014
p688
aV Stacey
p689
aV \u2014
p690
aV Rudy
p691
ag129
ag129
aV \u2014
p692
aV \u2014
p693
aV \u2014
p694
aV \u2014
p695
aV \u2014
p696
aV Ramona
p697
aV Colleen
p698
aV Ramona
p699
aV Jenna
p700
aV Ramona
p701
aV Ramona
p702
aV \u2014
p703
aV Colleen
p704
ag129
ag129
ag129
aV Dirk
p705
aV Dirk
p706
aV Dirk
p707
aV Dirk
p708
aV Rudy
p709
aV \u2014
p710
aV \u2014
p711
aV \u2014
p712
aV \u2014
p713
aV \u2014
p714
aV \u2014
p715
aV Susan
p716
ag129
ag129
ag129
ag129
aV \u2014
p717
aV \u2014
p718
aV \u2014
p719
aV \u2014
p720
aV \u2014
p721
aV Joel
p722
aV Jenna
p723
aV Joel
p724
aV Joel
p725
aV Joel
p726
aV Jenna
p727
ag129
ag129
ag129
ag129
ag129
aV Gretchen
p728
aV Gretchen
p729
aV Gretchen
p730
aV Gretchen
p731
aV Colleen
p732
aV Richard
p733
aV Susan
p734
aV Gervase
p735
aV Jenna
p736
aV Rudy
p737
ag129
ag129
ag129
ag129
ag129
ag129
aV Greg
p738
aV Greg
p739
aV Greg
p740
aV Greg
p741
aV Greg
p742
aV Jenna
p743
aV Jenna
p744
aV Greg
p745
aV Jenna
p746
ag129
ag129
ag129
ag129
ag129
ag129
ag129
aV Jenna
p747
aV Sean
p748
aV Jenna
p749
aV Jenna
p750
aV Jenna
p751
aV Richard
p752
aV Richard
p753
aV Richard
p754
ag129
ag129
ag129
ag129
ag129
ag129
ag129
ag129
aV Gervase
p755
aV Gervase
p756
aV Gervase
p757
aV Gervase
p758
aV Gervase
p759
aV Sean
p760
aV Sean
p761
ag129
ag129
ag129
ag129
ag129
ag129
ag129
ag129
ag129
aV Colleen
p762
aV Sean
p763
aV Colleen
p764
aV Colleen
p765
aV Colleen
p766
aV Sean
p767
ag129
ag129
ag129
ag129
ag129
ag129
ag129
ag129
ag129
ag129
aV Sean
p768
aV Sean
p769
aV Sean
p770
aV Sean
p771
aV Susan
p772
ag129
ag129
ag129
ag129
ag129
ag129
ag129
ag129
ag129
ag129
ag129
aV Susan
p773
aV Richard
p774
aV Susan
p775
aV Richard
p776
ag129
ag129
ag129
ag129
ag129
ag129
ag129
ag129
ag129
ag129
ag129
ag129
aVNone
p777
aV Susan
p778
aV Susan
p779
aVNone 
p780
ag129
ag129
ag129
ag129
ag129
ag129
ag129
ag129
ag129
ag129
ag129
ag129
aV \u2014
p781
aV Rudy
p782
aV \u2014
p783
ag129
ag129
ag129
ag129
ag129
ag129
ag129
ag129
ag129
ag129
ag129
ag129
ag129
ag319
ag319
ag129
ag129
ag129
aV Kelly
p784
aV Kelly
p785
aV Kelly
p786
ag129
ag129
ag129
ag129
ag129
ag129
ag129
ag129
ag319
ag319
aV Richard
p787
aV Richard
p788
aV Richard
p789
ag129
ag129
ag129
aV Richard
p790
ag129
ag129
ag129
ag129
ag129
ag129
ag129
atp791
ba(lp792
g21
(g22
(dp793
g24
g25
(g26
(I0
tp794
g28
tp795
Rp796
(I1
(L17L
tp797
g35
I00
(lp798
g593
ag594
ag595
ag596
ag597
ag598
ag599
ag600
ag601
ag602
ag603
ag604
ag605
ag606
ag607
ag608
ag609
atp799
bsg63
Nstp800
Rp801
a(dp802
g339
(dp803
g341
g586
sg342
(lp804
(dp805
g345
g346
(I0
I17
I1
tp806
Rp807
sg349
g644
sasstp808
bsbsg351
I1
ssVPanama
p809
(dp810
g3
Vhttp://survivor.wikia.com/wiki/Survivor:_Panama
p811
sg5
g6
(g7
g8
Ntp812
Rp813
(dp814
g12
g13
sg14
g15
sg16
g6
(g17
g8
Ntp815
Rp816
((lp817
g21
(g22
(dp818
g24
g25
(g26
(I0
tp819
g28
tp820
Rp821
(I1
(L16L
tp822
g35
I00
(lp823
VTina
p824
aVMelinda
p825
aVMisty
p826
aVRuth-Marie
p827
aVBobby
p828
aVDan
p829
aVNick
p830
aVAustin
p831
aVSally
p832
aVBruce
p833
aVCourtney
p834
aVShane
p835
aVCirie
p836
aVTerry
p837
aVDanielle
p838
aVAras
p839
atp840
bsg63
Nstp841
Rp842
ag21
(g22
(dp843
g24
g25
(g26
(I0
tp844
g28
tp845
Rp846
(I1
(L16L
tp847
g35
I00
(lp848
VAras
p849
aVDanielle
p850
aVTerry
p851
aVCirie
p852
aVShane
p853
aVCourtney
p854
aVBruce
p855
aVSally
p856
aVAustin
p857
aVNick
p858
aVDan
p859
aVBobby
p860
aVRuth-Marie
p861
aVMisty
p862
aVMelinda
p863
aVTina
p864
atp865
bsg63
g93
(g96
S'\x01\x00\x00\x00\x00\x00\x00\x00'
p866
tp867
Rp868
stp869
Rp870
a(lp871
g25
(g26
(I0
tp872
g28
tp873
Rp874
(I1
(L16L
L16L
tp875
g35
I00
(lp876
V \u2014
p877
aV \u2014
p878
aV \u2014
p879
aV Tina
p880
aV \u2014
p881
aV \u2014
p882
aV \u2014
p883
aV \u2014
p884
aV \u2014
p885
aV \u2014
p886
aV \u2014
p887
aV \u2014
p888
aV Tina
p889
aV \u2014
p890
aV Tina
p891
aV Cirie
p892
aV Melinda
p893
aV Melinda
p894
aV \u2014
p895
aV Shane
p896
aV Melinda
p897
aV Melinda
p898
aVExiled 
p899
aV \u2014
p900
aV \u2014
p901
aV \u2014
p902
aV \u2014
p903
aV Melinda
p904
aV \u2014
p905
aV \u2014
p906
aV Shane
p907
ag129
aV \u2014
p908
aV \u2014
p909
aV Misty
p910
aV \u2014
p911
aV \u2014
p912
aV \u2014
p913
aV \u2014
p914
aV Ruth-Marie
p915
aV Misty
p916
aV Misty
p917
aV Misty
p918
aV \u2014
p919
aV Misty
p920
aV Ruth-Marie
p921
ag129
ag129
aV \u2014
p922
aV \u2014
p923
aV Ruth-Marie
p924
aV \u2014
p925
aV \u2014
p926
aV \u2014
p927
aV \u2014
p928
aV Ruth-Marie
p929
aV Ruth-Marie
p930
aV Ruth-Marie
p931
aV Sally
p932
aV \u2014
p933
aV Sally
p934
ag129
ag129
ag129
aV Bruce
p935
aV Bobby
p936
aV \u2014
p937
aV Bobby
p938
aV Aras
p939
aV Bobby
p940
aV Courtney
p941
aV \u2014
p942
aV \u2014
p943
aV \u2014
p944
aV \u2014
p945
aV Bruce
p946
ag129
ag129
ag129
ag129
aV \u2014
p947
aV \u2014
p948
aV Dan
p949
aV \u2014
p950
aV \u2014
p951
aV \u2014
p952
aV \u2014
p953
aVExiled 
p954
aV Dan
p955
aV Dan
p956
aV Austin
p957
ag129
ag129
ag129
ag129
ag129
aV Nick
p958
aV Nick
p959
aV Shane
p960
aV Nick
p961
aV Nick
p962
aV Nick
p963
aV Nick
p964
aV Shane
p965
aV Shane
p966
aV Shane
p967
ag129
ag129
ag129
ag129
ag129
ag129
aV Austin
p968
aV Austin
p969
aV Aras
p970
aV Austin
p971
aV Austin
p972
aV Austin
p973
aV Austin
p974
aV Aras
p975
aV Aras
p976
ag129
ag129
ag129
ag129
ag129
ag129
ag129
aV Sally
p977
aV Sally
p978
aV Aras
p979
aV Sally
p980
aV Sally
p981
aV Sally
p982
aV Sally
p983
aV Aras
p984
ag129
ag129
ag129
ag129
ag129
ag129
ag129
ag129
aV \u2014
p985
aV \u2014
p986
aV \u2014
p987
aV \u2014
p988
aV \u2014
p989
aV \u2014
p990
aVEvacuated
p991
ag129
ag129
ag129
ag129
ag129
ag129
ag129
ag129
ag129
aV Courtney
p992
aV Courtney
p993
aV Aras
p994
aV Courtney
p995
aV Danielle
p996
aV Aras
p997
ag129
ag129
ag129
ag129
ag129
ag129
ag129
ag129
ag129
ag129
aV Shane
p998
aV Shane
p999
aV Aras
p1000
aV Shane
p1001
aV Danielle
p1002
ag129
ag129
ag129
ag129
ag129
ag129
ag129
ag129
ag129
ag129
ag129
aV Danielle
p1003
aV Cirie
p1004
aV Cirie
p1005
aV Danielle
p1006
ag129
ag129
ag129
ag129
ag129
ag129
ag129
ag129
ag129
ag129
ag129
ag129
aV \u2014
p1007
aV Terry
p1008
aV \u2014
p1009
ag129
ag129
ag129
ag129
ag129
ag129
ag129
ag129
ag129
ag129
ag129
ag129
ag129
ag319
ag319
ag129
ag129
aV Danielle
p1010
ag129
aV Danielle
p1011
ag129
ag129
ag129
ag129
ag129
ag129
ag129
ag129
ag129
ag319
ag319
aV Aras
p1012
aV Aras
p1013
ag129
aV Aras
p1014
ag129
aV Aras
p1015
aV Aras
p1016
ag129
ag129
ag129
ag129
ag129
ag129
ag129
atp1017
ba(lp1018
g21
(g22
(dp1019
g24
g25
(g26
(I0
tp1020
g28
tp1021
Rp1022
(I1
(L16L
tp1023
g35
I00
(lp1024
g824
ag825
ag826
ag827
ag828
ag829
ag830
ag831
ag832
ag833
ag834
ag835
ag836
ag837
ag838
ag839
atp1025
bsg63
Nstp1026
Rp1027
a(dp1028
g339
(dp1029
g341
g817
sg342
(lp1030
(dp1031
g345
g346
(I0
I16
I1
tp1032
Rp1033
sg349
g874
sasstp1034
bsbsg351
I12
ssVCambodia
p1035
(dp1036
g3
Vhttp://survivor.wikia.com/wiki/Survivor:_Cambodia
p1037
sg5
g6
(g7
g8
Ntp1038
Rp1039
(dp1040
g12
g13
sg14
g15
sg16
g6
(g17
g8
Ntp1041
Rp1042
((lp1043
g21
(g22
(dp1044
g24
g25
(g26
(I0
tp1045
g28
tp1046
Rp1047
(I1
(L15L
tp1048
g35
I00
(lp1049
VVytas
p1050
aVShirin
p1051
aVPeih-Gee
p1052
aVJeff
p1053
aVMonica
p1054
aVTerry
p1055
aVWoo
p1056
aVKass
p1057
aVAndrew
p1058
aVKelly
p1059
aVCiera
p1060
aVStephen
p1061
aVStephen
p1062
aVJoe
p1063
aVTBA
p1064
atp1065
bsg63
Nstp1066
Rp1067
ag21
(g22
(dp1068
g24
g25
(g26
(I0
tp1069
g28
tp1070
Rp1071
(I1
(L20L
tp1072
g35
I00
(lp1073
VAbi-Maria
p1074
aVJeremy
p1075
aVKeith
p1076
aVKelley
p1077
aVKimmi
p1078
aVSpencer
p1079
aVTasha
p1080
aVJoe
p1081
aVStephen
p1082
aVCiera
p1083
aVKelly
p1084
aVAndrew
p1085
aVKass
p1086
aVWoo
p1087
aVTerry
p1088
aVMonica
p1089
aVJeff
p1090
aVPeih-Gee
p1091
aVShirin
p1092
aVVytas
p1093
atp1094
bsg63
g93
(g96
S'\x01\x00\x00\x00\x00\x00\x00\x00'
p1095
tp1096
Rp1097
stp1098
Rp1099
a(lp1100
g25
(g26
(I0
tp1101
g28
tp1102
Rp1103
(I1
(L15L
L20L
tp1104
g35
I00
(lp1105
V Vytas
p1106
aV \u2014
p1107
aV \u2014
p1108
aV Vytas
p1109
aV \u2014
p1110
aV Vytas
p1111
aV \u2014
p1112
aV \u2014
p1113
aV \u2014
p1114
aV \u2014
p1115
aV Abi-Maria
p1116
aV \u2014
p1117
aV \u2014
p1118
aV Abi-Maria
p1119
aV Abi-Maria
p1120
aV \u2014
p1121
aV Vytas
p1122
aV Vytas
p1123
aV Vytas
p1124
aV Abi-Maria
p1125
aV Spencer
p1126
aV \u2014
p1127
aV \u2014
p1128
aV Spencer
p1129
aV \u2014
p1130
aV Shirin
p1131
aV \u2014
p1132
aV \u2014
p1133
aV \u2014
p1134
aV \u2014
p1135
aV Shirin
p1136
aV \u2014
p1137
aV \u2014
p1138
aV Shirin
p1139
aV Spencer
p1140
aV \u2014
p1141
aV Shirin
p1142
aV Shirin
p1143
aV Spencer
p1144
ag129
aV Peih-Gee
p1145
aV \u2014
p1146
aV \u2014
p1147
aV \u2014
p1148
aV \u2014
p1149
aV \u2014
p1150
aV Peih-Gee
p1151
aV \u2014
p1152
aV \u2014
p1153
aV \u2014
p1154
aV \u2014
p1155
aV Peih-Gee
p1156
aV \u2014
p1157
aV Abi-Maria
p1158
aV \u2014
p1159
aV \u2014
p1160
aV Peih-Gee
p1161
aV Abi-Maria
p1162
ag129
ag129
aV Jeff
p1163
aV \u2014
p1164
aV \u2014
p1165
aV \u2014
p1166
aV \u2014
p1167
aV \u2014
p1168
aV Jeff
p1169
aV \u2014
p1170
aV \u2014
p1171
aV \u2014
p1172
aV \u2014
p1173
aV Jeff
p1174
aV \u2014
p1175
aV Jeff
p1176
aV \u2014
p1177
aV \u2014
p1178
aV Woo
p1179
ag129
ag129
ag129
aV \u2014
p1180
aV Monica
p1181
aV \u2014
p1182
aV \u2014
p1183
aV Monica
p1184
aV Kelly
p1185
aV \u2014
p1186
aV \u2014
p1187
aV Monica
p1188
aV \u2014
p1189
aV Spencer
p1190
aV \u2014
p1191
aV \u2014
p1192
aV \u2014
p1193
aV \u2014
p1194
aV Kelly
p1195
ag129
ag129
ag129
ag129
aV \u2014
p1196
aV \u2014
p1197
aV \u2014
p1198
aV \u2014
p1199
aV \u2014
p1200
aV \u2014
p1201
aV \u2014
p1202
aV \u2014
p1203
aV \u2014
p1204
aV \u2014
p1205
aV \u2014
p1206
aV \u2014
p1207
aV \u2014
p1208
aV \u2014
p1209
aV Evacuated
p1210
ag129
ag129
ag129
ag129
ag129
aV Woo
p1211
aV \u2014
p1212
aV \u2014
p1213
aV \u2014
p1214
aV \u2014
p1215
aV Woo
p1216
aV \u2014
p1217
aV \u2014
p1218
aV \u2014
p1219
aV Woo
p1220
aV Spencer
p1221
aV Spencer
p1222
aV Woo
p1223
aV Spencer
p1224
ag129
ag129
ag129
ag129
ag129
ag129
aV Tasha
p1225
aV Ciera
p1226
aV Kass
p1227
aV Kass
p1228
aV Kass
p1229
aV Ciera
p1230
aV Kass
p1231
aV Ciera
p1232
aV Kass
p1233
aV Andrew
p1234
aV Ciera
p1235
aV Kass
p1236
aV Tasha
p1237
ag129
ag129
ag129
ag129
ag129
ag129
ag129
aV Andrew
p1238
aV Kelley
p1239
aV Kelley
p1240
aV Andrew
p1241
aV Kelley
p1242
aV Kelley
p1243
aV Kelley
p1244
aV Kelley
p1245
aV Kelley
p1246
aV Andrew
p1247
aV Kelley
p1248
aV Kelley
p1249
ag129
ag129
ag129
ag129
ag129
ag129
ag129
ag129
aV Kelly
p1250
aV Kelly
p1251
aV Kelley
p1252
aV Kelly
p1253
aV Ciera
p1254
aV Kelly
p1255
aV Ciera
p1256
aV Kelley
p1257
aV Kelly
p1258
aV Kelly
p1259
aV Ciera
p1260
ag129
ag129
ag129
ag129
ag129
ag129
ag129
ag129
ag129
aV Stephen
p1261
aV Ciera
p1262
aV Stephen
p1263
aV Kimmi
p1264
aV Ciera
p1265
aV Stephen
p1266
aV Stephen
p1267
aV Stephen
p1268
aV Ciera
p1269
aV Kimmi
p1270
ag129
ag129
ag129
ag129
ag129
ag129
ag129
ag129
ag129
ag129
aV Stephen
p1271
aV Joe
p1272
aV Stephen
p1273
aV Stephen
p1274
aV Abi-Maria
p1275
aV Stephen
p1276
aV Abi-Maria
p1277
aV None
p1278
aV Abi-Maria
p1279
ag129
ag129
ag129
ag129
ag129
ag129
ag129
ag129
ag129
ag129
ag129
ag1271
ag1272
ag1273
ag1274
ag1275
ag1276
ag1277
ag1278
aV Joe
p1280
ag129
ag129
ag129
ag129
ag129
ag129
ag129
ag129
ag129
ag129
ag129
aV Joe
p1281
aV Joe
p1282
aV Tasha
p1283
aV Joe
p1284
aV Joe
p1285
aV Joe
p1286
aV Joe
p1287
aV Abi-Maria
p1288
ag129
ag129
ag129
ag129
ag129
ag129
ag129
ag129
ag129
ag129
ag129
ag129
aV TBA
p1289
aV TBA
p1290
aV TBA
p1291
aV TBA
p1292
aV TBA
p1293
aV TBA
p1294
aV TBA
p1295
ag129
ag129
ag129
ag129
ag129
ag129
ag129
ag129
ag129
ag129
ag129
ag129
ag129
atp1296
ba(lp1297
g21
(g22
(dp1298
g24
g25
(g26
(I0
tp1299
g28
tp1300
Rp1301
(I1
(L15L
tp1302
g35
I00
(lp1303
g1050
ag1051
ag1052
ag1053
ag1054
ag1055
ag1056
ag1057
ag1058
ag1059
ag1060
ag1061
ag1062
ag1063
ag1064
atp1304
bsg63
Nstp1305
Rp1306
a(dp1307
g339
(dp1308
g341
g1043
sg342
(lp1309
(dp1310
g345
g346
(I0
I15
I1
tp1311
Rp1312
sg349
g1103
sasstp1313
bsbsg351
I31
ssVBlood_vs._Water
p1314
(dp1315
g3
Vhttp://survivor.wikia.com/wiki/Survivor:_Blood_vs._Water
p1316
sg5
g6
(g7
g8
Ntp1317
Rp1318
(dp1319
g12
g13
sg14
g15
sg16
g6
(g17
g8
Ntp1320
Rp1321
((lp1322
g21
(g22
(dp1323
g24
g25
(g26
(I0
tp1324
g28
tp1325
Rp1326
(I1
(L25L
tp1327
g35
I00
(lp1328
VLaura B.
p1329
aVCandice
p1330
aVRupert
p1331
aVMarissa
p1332
aVRachel
p1333
aVColton
p1334
aVJohn
p1335
aVBrad
p1336
aVBrad
p1337
aVLaura M.
p1338
aVKat
p1339
aVLaura B.
p1340
aVAras
p1341
aVVytas
p1342
aVTina
p1343
aVLaura M.
p1344
aVCaleb
p1345
aVKatie
p1346
aVKatie
p1347
aVHayden
p1348
aVCiera
p1349
aVTina
p1350
aVGervase
p1351
aVMonica
p1352
aVTyson
p1353
atp1354
bsg63
Nstp1355
Rp1356
ag21
(g22
(dp1357
g24
g25
(g26
(I0
tp1358
g28
tp1359
Rp1360
(I1
(L20L
tp1361
g35
I00
(lp1362
VTyson
p1363
aVMonica
p1364
aVGervase
p1365
aVTina
p1366
aVCiera
p1367
aVLaura M.
p1368
aVHayden
p1369
aVKatie
p1370
aVCaleb
p1371
aVVytas
p1372
aVAras
p1373
aVLaura B.
p1374
aVJohn
p1375
aVKat
p1376
aVBrad
p1377
aVCandice
p1378
aVMarissa
p1379
aVRachel
p1380
aVColton
p1381
aVRupert
p1382
atp1383
bsg63
g93
(g96
S'\x01\x00\x00\x00\x00\x00\x00\x00'
p1384
tp1385
Rp1386
stp1387
Rp1388
a(lp1389
g25
(g26
(I0
tp1390
g28
tp1391
Rp1392
(I1
(L25L
L20L
tp1393
g35
I00
(lp1394
V\u2014
p1395
aV\u2014
p1396
aV\u2014
p1397
aV\u2014
p1398
aV Laura B.
p1399
aV\u2014
p1400
aV Laura B.
p1401
aV Marissa
p1402
aV Laura B.
p1403
aV Laura B.
p1404
aV\u2014
p1405
aV Marissa
p1406
aV Laura B.
p1407
aV\u2014
p1408
aV Laura B.
p1409
aV\u2014
p1410
aV Brad
p1411
aV Katie
p1412
aV\u2014
p1413
aV\u2014
p1414
aV Laura M.
p1415
aV Candice
p1416
aV Candice
p1417
aV Candice
p1418
aV\u2014
p1419
aV Candice
p1420
aV\u2014
p1421
aV\u2014
p1422
aV\u2014
p1423
aV\u2014
p1424
aV Gervase
p1425
ag129
aV\u2014
p1426
aV Candice
p1427
aV\u2014
p1428
aV Laura M.
p1429
aV\u2014
p1430
aV\u2014
p1431
aV Candice
p1432
aV Laura M.
p1433
aV\u2014
p1434
aV\u2014
p1435
aV\u2014
p1436
aV\u2014
p1437
ag1419
aV\u2014
p1438
ag1421
ag1422
ag1423
ag1424
aV\u2014
p1439
aV Switched
p1440
ag1426
aV\u2014
p1441
ag1428
ag129
ag1430
ag1431
aV\u2014
p1442
aVSwitched
p1443
ag1434
ag1435
ag1436
ag1437
aV Marissa
p1444
ag1438
aV Marissa
p1445
aV Marissa
p1446
aV Marissa
p1447
aV Marissa
p1448
ag1439
aV\u2014
p1449
aV Marissa
p1450
ag1441
aV Marissa
p1451
ag129
aV Katie
p1452
aV Marissa
p1453
ag1442
ag129
aV\u2014
p1454
aV\u2014
p1455
aV\u2014
p1456
aV\u2014
p1457
aV John
p1458
aV\u2014
p1459
aV Rachel
p1460
aV John
p1461
aV Rachel
p1462
aV Rachel
p1463
aV\u2014
p1464
aV\u2014
p1465
aV Rachel
p1466
aV\u2014
p1467
aV Rachel
p1468
ag129
ag129
aV Ciera
p1469
aV\u2014
p1470
ag129
aV\u2014
p1471
aV\u2014
p1472
aV\u2014
p1473
aV\u2014
p1474
aV\u2014
p1475
aV\u2014
p1476
aV\u2014
p1477
aV\u2014
p1478
aV\u2014
p1479
aV\u2014
p1480
aV\u2014
p1481
aV\u2014
p1482
aV\u2014
p1483
aV\u2014
p1484
aV\u2014
p1485
ag129
ag129
ag129
aVQuit
p1486
ag129
ag1471
ag1472
ag1473
ag1474
aV John
p1487
ag1476
aV John
p1488
aV John
p1489
aV John
p1490
aV John
p1491
ag1481
ag1482
aV Ciera
p1492
ag1484
aV John
p1493
ag129
ag129
ag129
ag129
ag129
aV\u2014
p1494
aV\u2014
p1495
aV\u2014
p1496
aV\u2014
p1497
aV Brad
p1498
aV\u2014
p1499
aV Ciera
p1500
aV Brad
p1501
aV Brad
p1502
aV Ciera
p1503
aV\u2014
p1504
aV\u2014
p1505
ag129
aV\u2014
p1506
aV Ciera
p1507
ag129
ag129
ag129
ag129
ag129
ag1494
ag1495
ag1496
ag1497
aVNone
p1508
ag1499
aV Ciera
p1509
aV Brad
p1510
aV Brad
p1511
aV Brad
p1512
ag1504
ag1505
ag129
ag1506
aVNone
p1513
ag129
ag129
ag129
ag129
ag129
aV Laura M.
p1514
aV Laura M.
p1515
aV Laura M.
p1516
aV Laura M.
p1517
aV\u2014
p1518
aV Laura B.
p1519
aV\u2014
p1520
aV\u2014
p1521
aV\u2014
p1522
aV\u2014
p1523
aV Laura M.
p1524
aV Laura M.
p1525
ag129
aV Laura M.
p1526
ag129
ag129
ag129
ag129
ag129
ag129
aV\u2014
p1527
aV Kat
p1528
aV\u2014
p1529
aV Kat
p1530
aV\u2014
p1531
ag129
aV\u2014
p1532
aV Kat
p1533
aV\u2014
p1534
aV Kat
p1535
aV\u2014
p1536
aV Kat
p1537
ag129
aV Vytas
p1538
ag129
ag129
ag129
ag129
ag129
ag129
aV\u2014
p1539
aV Laura B.
p1540
aV\u2014
p1541
aV Laura B.
p1542
aV\u2014
p1543
ag129
aV\u2014
p1544
aV Laura B.
p1545
aV\u2014
p1546
aV Laura B.
p1547
aV\u2014
p1548
aV Vytas
p1549
ag129
ag129
ag129
ag129
ag129
ag129
ag129
ag129
aV Aras
p1550
aV Aras
p1551
aV Aras
p1552
aV Ciera
p1553
aV Aras
p1554
aV Aras
p1555
aV Aras
p1556
aV Ciera
p1557
aV Aras
p1558
aV Laura M.
p1559
aV Laura M.
p1560
ag129
ag129
ag129
ag129
ag129
ag129
ag129
ag129
ag129
aV Vytas
p1561
aV Vytas
p1562
aV Vytas
p1563
aV Vytas
p1564
aV Katie
p1565
aV Vytas
p1566
aV Vytas
p1567
aV Vytas
p1568
aV Vytas
p1569
aV Tyson
p1570
ag129
ag129
ag129
ag129
ag129
ag129
ag129
ag129
ag129
ag129
aV Tina
p1571
aV Tina
p1572
aV Tina
p1573
aV Tyson
p1574
aV Tina
p1575
aV Tina
p1576
aV Tina
p1577
aV Monica
p1578
aV Tina
p1579
ag129
ag129
ag129
ag129
ag129
ag129
ag129
ag129
ag129
ag129
ag129
aV Laura M.
p1580
aV Laura M.
p1581
aV Laura M.
p1582
ag129
aV Laura M.
p1583
aV Katie
p1584
aV Laura M.
p1585
aV Laura M.
p1586
aV Laura M.
p1587
ag129
ag129
ag129
ag129
ag129
ag129
ag129
ag129
ag129
ag129
ag129
aV Caleb
p1588
aV Caleb
p1589
aV Caleb
p1590
ag129
aV Caleb
p1591
ag129
aV Ciera
p1592
aV Ciera
p1593
aV Ciera
p1594
ag129
ag129
ag129
ag129
ag129
ag129
ag129
ag129
ag129
ag129
ag129
aV Hayden
p1595
aV Hayden
p1596
aV Hayden
p1597
ag129
aV Monica
p1598
ag129
aV Monica
p1599
aV Monica
p1600
ag129
ag129
ag129
ag129
ag129
ag129
ag129
ag129
ag129
ag129
ag129
ag129
aV Hayden
p1601
aVNone
p1602
aV Hayden
p1603
ag129
aV Monica
p1604
ag129
aVNone
p1605
aV Monica
p1606
ag129
ag129
ag129
ag129
ag129
ag129
ag129
ag129
ag129
ag129
ag129
ag129
aV Hayden
p1607
aV Hayden
p1608
aV Hayden
p1609
ag129
aV Gervase
p1610
ag129
aV Gervase
p1611
ag129
ag129
ag129
ag129
ag129
ag129
ag129
ag129
ag129
ag129
ag129
ag129
ag129
aV Ciera
p1612
aV Ciera
p1613
aV Ciera
p1614
aV Gervase
p1615
aV Gervase
p1616
ag129
ag129
ag129
ag129
ag129
ag129
ag129
ag129
ag129
ag129
ag129
ag129
ag129
ag129
ag129
aV Tina
p1617
aV Tina
p1618
aV Tina
p1619
aV Gervase
p1620
ag129
ag129
ag129
ag129
ag129
ag129
ag129
ag129
ag129
ag129
ag129
ag129
ag129
ag129
ag129
ag129
ag319
ag319
ag319
ag129
ag129
ag129
ag129
ag129
ag129
ag129
ag129
ag129
ag129
ag129
ag129
ag129
ag129
ag129
ag129
ag129
ag319
ag319
ag319
ag129
ag129
ag129
ag129
ag129
ag129
aV Monica
p1621
ag129
ag129
ag129
ag129
ag129
ag129
ag129
ag129
ag129
ag129
ag319
ag319
ag319
aV Tyson
p1622
aV Tyson
p1623
aV Tyson
p1624
aV Tyson
p1625
aV Tyson
p1626
aV Tyson
p1627
ag129
aV Tyson
p1628
ag129
ag129
ag129
ag129
ag129
ag129
ag129
ag129
ag129
atp1629
ba(lp1630
g21
(g22
(dp1631
g24
g25
(g26
(I0
tp1632
g28
tp1633
Rp1634
(I1
(L25L
tp1635
g35
I00
(lp1636
g1329
ag1330
ag1331
ag1332
ag1333
ag1334
ag1335
ag1336
ag1337
ag1338
ag1339
ag1340
ag1341
ag1342
ag1343
ag1344
ag1345
ag1346
ag1347
ag1348
ag1349
ag1350
ag1351
ag1352
ag1353
atp1637
bsg63
Nstp1638
Rp1639
a(dp1640
g339
(dp1641
g341
g1322
sg342
(lp1642
(dp1643
g345
g346
(I0
I25
I1
tp1644
Rp1645
sg349
g1392
sasstp1646
bsbsg351
I27
ssVMarquesas
p1647
(dp1648
g3
Vhttp://survivor.wikia.com/wiki/Survivor:_Marquesas
p1649
sg5
g6
(g7
g8
Ntp1650
Rp1651
(dp1652
g12
g13
sg14
g15
sg16
g6
(g17
g8
Ntp1653
Rp1654
((lp1655
g21
(g22
(dp1656
g24
g25
(g26
(I0
tp1657
g28
tp1658
Rp1659
(I1
(L17L
tp1660
g35
I00
(lp1661
VPeter
p1662
aVPatricia
p1663
aVHunter
p1664
aVSarah
p1665
aVGabriel
p1666
aVGina
p1667
aVRob
p1668
aVJohn
p1669
aVZoe
p1670
aVTammy
p1671
aVRobert
p1672
aVSean
p1673
aVPaschal
p1674
aVPaschal
p1675
aVKathy
p1676
aVNeleh
p1677
aVVecepia
p1678
atp1679
bsg63
Nstp1680
Rp1681
ag21
(g22
(dp1682
g24
g25
(g26
(I0
tp1683
g28
tp1684
Rp1685
(I1
(L16L
tp1686
g35
I00
(lp1687
VVecepia
p1688
aVNeleh
p1689
aVKathy
p1690
aVPaschal
p1691
aVSean
p1692
aVRobert
p1693
aVTammy
p1694
aVZoe
p1695
aVJohn
p1696
aVRob
p1697
aVGina
p1698
aVGabriel
p1699
aVSarah
p1700
aVHunter
p1701
aVPatricia
p1702
aVPeter
p1703
atp1704
bsg63
g93
(g96
S'\x01\x00\x00\x00\x00\x00\x00\x00'
p1705
tp1706
Rp1707
stp1708
Rp1709
a(lp1710
g25
(g26
(I0
tp1711
g28
tp1712
Rp1713
(I1
(L17L
L16L
tp1714
g35
I00
(lp1715
V Sarah
p1716
aV \u2014
p1717
aV \u2014
p1718
aV \u2014
p1719
aV Sarah
p1720
aV \u2014
p1721
aV \u2014
p1722
aV \u2014
p1723
aV \u2014
p1724
aV Peter
p1725
aV Peter
p1726
aV \u2014
p1727
aV Peter
p1728
aV Peter
p1729
aV Peter
p1730
aV Patricia
p1731
aV Patricia
p1732
aV \u2014
p1733
aV \u2014
p1734
aV \u2014
p1735
aV Patricia
p1736
aV \u2014
p1737
aV \u2014
p1738
aV \u2014
p1739
aV \u2014
p1740
aV Patricia
p1741
aV Sarah
p1742
aV \u2014
p1743
aV Patricia
p1744
aV Sarah
p1745
aV Sarah
p1746
ag129
aV Hunter
p1747
aV \u2014
p1748
aV \u2014
p1749
aV \u2014
p1750
aV Hunter
p1751
aV \u2014
p1752
aV \u2014
p1753
aV \u2014
p1754
aV \u2014
p1755
aV Hunter
p1756
aV Sarah
p1757
aV \u2014
p1758
aV Hunter
p1759
aV Sarah
p1760
ag129
ag129
aV \u2014
p1761
aV Sarah
p1762
aV Sarah
p1763
aV Sarah
p1764
aV \u2014
p1765
aV \u2014
p1766
aV \u2014
p1767
aV \u2014
p1768
aV \u2014
p1769
aV \u2014
p1770
aV Sarah
p1771
aV \u2014
p1772
aV Kathy
p1773
ag129
ag129
ag129
aV Gabriel
p1774
aV \u2014
p1775
aV \u2014
p1776
aV \u2014
p1777
aV Gabriel
p1778
aV Gabriel
p1779
aV Gabriel
p1780
aV Gabriel
p1781
aV Gabriel
p1782
aV Gabriel
p1783
aV \u2014
p1784
aV Rob
p1785
ag129
ag129
ag129
ag129
aV \u2014
p1786
aV Gina
p1787
aV Gina
p1788
aV Gina
p1789
aV \u2014
p1790
aV \u2014
p1791
aV \u2014
p1792
aV \u2014
p1793
aV \u2014
p1794
aV \u2014
p1795
aV Kathy
p1796
ag129
ag129
ag129
ag129
ag129
aV Rob
p1797
aV Rob
p1798
aV Zoe
p1799
aV Rob
p1800
aV John
p1801
aV Rob
p1802
aV Rob
p1803
aV Rob
p1804
aV Rob
p1805
aV John
p1806
ag129
ag129
ag129
ag129
ag129
ag129
aV John
p1807
aV John
p1808
aV John
p1809
aV John
p1810
aV John
p1811
aV Sean
p1812
aV Sean
p1813
aV John
p1814
aV Sean
p1815
ag129
ag129
ag129
ag129
ag129
ag129
ag129
aV Zoe
p1816
aV Zoe
p1817
aV Zoe
p1818
aV Zoe
p1819
aV Zoe
p1820
aV Zoe
p1821
aV Zoe
p1822
aV Robert
p1823
ag129
ag129
ag129
ag129
ag129
ag129
ag129
ag129
aV Tammy
p1824
aV Tammy
p1825
aV Tammy
p1826
aV Tammy
p1827
aV Tammy
p1828
aV Vecepia
p1829
aV Vecepia
p1830
ag129
ag129
ag129
ag129
ag129
ag129
ag129
ag129
ag129
aV Robert
p1831
aV Robert
p1832
aV Robert
p1833
aV Robert
p1834
aV Robert
p1835
aV Sean
p1836
ag129
ag129
ag129
ag129
ag129
ag129
ag129
ag129
ag129
ag129
aV Neleh
p1837
aV Sean
p1838
aV Sean
p1839
aV Sean
p1840
aV Neleh
p1841
ag129
ag129
ag129
ag129
ag129
ag129
ag129
ag129
ag129
ag129
ag129
aV Neleh
p1842
aV Kathy
p1843
aV Neleh
p1844
aV Kathy
p1845
ag129
ag129
ag129
ag129
ag129
ag129
ag129
ag129
ag129
ag129
ag129
ag129
aV \u2014
p1846
aV \u2014
p1847
aV \u2014
p1848
aVEliminated
p1849
ag129
ag129
ag129
ag129
ag129
ag129
ag129
ag129
ag129
ag129
ag129
ag129
aV \u2014
p1850
aV Kathy
p1851
aV \u2014
p1852
ag129
ag129
ag129
ag129
ag129
ag129
ag129
ag129
ag129
ag129
ag129
ag129
ag129
ag319
ag319
aV Neleh
p1853
aV Neleh
p1854
ag129
ag129
ag129
aV Neleh
p1855
ag129
ag129
ag129
ag129
ag129
ag129
ag129
ag129
ag319
ag319
ag129
ag129
aV Vecepia
p1856
aV Vecepia
p1857
aV Vecepia
p1858
ag129
aV Vecepia
p1859
ag129
ag129
ag129
ag129
ag129
ag129
ag129
atp1860
ba(lp1861
g21
(g22
(dp1862
g24
g25
(g26
(I0
tp1863
g28
tp1864
Rp1865
(I1
(L17L
tp1866
g35
I00
(lp1867
g1662
ag1663
ag1664
ag1665
ag1666
ag1667
ag1668
ag1669
ag1670
ag1671
ag1672
ag1673
ag1674
ag1675
ag1676
ag1677
ag1678
atp1868
bsg63
Nstp1869
Rp1870
a(dp1871
g339
(dp1872
g341
g1655
sg342
(lp1873
(dp1874
g345
g346
(I0
I17
I1
tp1875
Rp1876
sg349
g1713
sasstp1877
bsbsg351
I4
ssVPearl_Islands
p1878
(dp1879
g3
Vhttp://survivor.wikia.com/wiki/Survivor:_Pearl_Islands
p1880
sg5
g6
(g7
g8
Ntp1881
Rp1882
(dp1883
g12
g13
sg14
g15
sg16
g6
(g17
g8
Ntp1884
Rp1885
((lp1886
g21
(g22
(dp1887
g24
g25
(g26
(I0
tp1888
g28
tp1889
Rp1890
(I1
(L20L
tp1891
g35
I00
(lp1892
VNicole
p1893
aVRyan S.
p1894
aVLillian
p1895
aVBurton
p1896
aVMichelle
p1897
aVTrish
p1898
aVShawn
p1899
aVOsten
p1900
aVBurton
p1901
aVLillian
p1902
aVAndrew
p1903
aVRyan O.
p1904
aVRupert
p1905
aVTijuana
p1906
aVChrista
p1907
aVBurton
p1908
aVDarrah
p1909
aVJon
p1910
aVLillian
p1911
aVSandra
p1912
atp1913
bsg63
Nstp1914
Rp1915
ag21
(g22
(dp1916
g24
g25
(g26
(I0
tp1917
g28
tp1918
Rp1919
(I1
(L16L
tp1920
g35
I00
(lp1921
VSandra
p1922
aVLillian
p1923
aVJon
p1924
aVDarrah
p1925
aVBurton
p1926
aVChrista
p1927
aVTijuana
p1928
aVRupert
p1929
aVRyan O.
p1930
aVAndrew
p1931
aVOsten
p1932
aVShawn
p1933
aVTrish
p1934
aVMichelle
p1935
aVRyan S.
p1936
aVNicole
p1937
atp1938
bsg63
g93
(g96
S'\x01\x00\x00\x00\x00\x00\x00\x00'
p1939
tp1940
Rp1941
stp1942
Rp1943
a(lp1944
g25
(g26
(I0
tp1945
g28
tp1946
Rp1947
(I1
(L20L
L16L
tp1948
g35
I00
(lp1949
V \u2014
p1950
aV Nicole
p1951
aV \u2014
p1952
aV Nicole
p1953
aV \u2014
p1954
aV \u2014
p1955
aV Nicole
p1956
aV \u2014
p1957
aV Nicole
p1958
aV Nicole
p1959
aV Nicole
p1960
aV \u2014
p1961
aV \u2014
p1962
aV \u2014
p1963
aV Nicole
p1964
aV Ryan S.
p1965
aV \u2014
p1966
aV Osten
p1967
aV \u2014
p1968
aV Ryan S.
p1969
aV \u2014
p1970
aV \u2014
p1971
aV Ryan S.
p1972
aV \u2014
p1973
aV Ryan S.
p1974
aV Ryan S.
p1975
aV Ryan S.
p1976
aV \u2014
p1977
aV \u2014
p1978
aV \u2014
p1979
aV Osten
p1980
ag129
aV \u2014
p1981
aV Darrah
p1982
aV \u2014
p1983
aV Lillian
p1984
aV \u2014
p1985
aV \u2014
p1986
aV Lillian
p1987
aV \u2014
p1988
aV Lillian
p1989
aV Lillian
p1990
aV Lillian
p1991
aV \u2014
p1992
aV \u2014
p1993
aV \u2014
p1994
ag129
ag129
aV Burton
p1995
ag129
aV Burton
p1996
aV \u2014
p1997
aV Christa
p1998
aV Burton
p1999
aV \u2014
p2000
aVKidnapped 
p2001
aV \u2014
p2002
aV \u2014
p2003
aV \u2014
p2004
aV Burton
p2005
aV Burton
p2006
aV Christa
p2007
ag129
ag129
aV Michelle
p2008
ag129
aV Michelle
p2009
aV \u2014
p2010
ag129
aV Michelle
p2011
aV \u2014
p2012
aV Michelle
p2013
aV \u2014
p2014
aV \u2014
p2015
aV \u2014
p2016
aV Michelle
p2017
aV Michelle
p2018
aV Shawn
p2019
ag129
ag129
aV Trish
p2020
ag129
aV Rupert
p2021
aV \u2014
p2022
ag129
aV Trish
p2023
aV \u2014
p2024
aV Trish
p2025
aV \u2014
p2026
aV \u2014
p2027
aV \u2014
p2028
aV Trish
p2029
aV Rupert
p2030
ag129
ag129
ag129
aV Shawn
p2031
ag129
aV Shawn
p2032
aV \u2014
p2033
ag129
aV Shawn
p2034
aV \u2014
p2035
aV Shawn
p2036
aV \u2014
p2037
aV \u2014
p2038
aV \u2014
p2039
aV Jon
p2040
ag129
ag129
ag129
ag129
aV \u2014
p2041
ag129
aV \u2014
p2042
aV \u2014
p2043
ag129
aV \u2014
p2044
aV \u2014
p2045
aV \u2014
p2046
aV \u2014
p2047
aV \u2014
p2048
aVQuit
p2049
ag129
ag129
ag129
ag129
ag129
aV \u2014
p2050
aV Ryan S.
p2051
aV \u2014
p2052
aV \u2014
p2053
aV Michelle
p2054
aV \u2014
p2055
aV \u2014
p2056
aV \u2014
p2057
aV \u2014
p2058
aV \u2014
p2059
ag129
ag129
aV Burton
p2060
aV Burton
p2061
aV Burton
p2062
aV Lillian
p2063
ag2050
aV Trish
p2064
ag2052
ag2053
aV Nicole
p2065
ag2055
ag2056
ag2057
ag2058
ag2059
ag129
ag129
aV Lillian
p2066
aV Nicole
p2067
aV Lillian
p2068
aV Ryan S.
p2069
aV Andrew
p2070
aV Andrew
p2071
aV Andrew
p2072
aV Jon
p2073
aV Andrew
p2074
aV Andrew
p2075
aV Jon
p2076
aV Andrew
p2077
aV Jon
p2078
aV Jon
p2079
ag129
ag129
ag129
ag129
ag129
ag129
aV Ryan O.
p2080
aV Ryan O.
p2081
aV Ryan O.
p2082
aV Ryan O.
p2083
aV Ryan O.
p2084
aV Ryan O.
p2085
aV Ryan O.
p2086
aV Ryan O.
p2087
aV Christa
p2088
ag129
ag129
ag129
ag129
ag129
ag129
ag129
aV Jon
p2089
aV Rupert
p2090
aV Rupert
p2091
aV Rupert
p2092
aV Rupert
p2093
aV Darrah
p2094
aV Rupert
p2095
aV Darrah
p2096
ag129
ag129
ag129
ag129
ag129
ag129
ag129
ag129
aV Tijuana
p2097
aV Tijuana
p2098
aV Tijuana
p2099
aV Burton
p2100
aV Tijuana
p2101
aV Tijuana
p2102
aV Burton
p2103
ag129
ag129
ag129
ag129
ag129
ag129
ag129
ag129
ag129
aV Lillian
p2104
aV Christa
p2105
aV Christa
p2106
aV Christa
p2107
aV Christa
p2108
aV Lillian
p2109
ag129
ag129
ag129
ag129
ag129
ag129
ag129
ag129
ag129
ag129
aV Burton
p2110
aV Burton
p2111
aV Lillian
p2112
aV Burton
p2113
aV Lillian
p2114
ag129
ag129
ag129
ag129
ag129
ag129
ag129
ag129
ag129
ag129
ag129
aV Darrah
p2115
aV Darrah
p2116
aV Darrah
p2117
aV Lillian
p2118
ag129
ag129
ag129
ag129
ag129
ag129
ag129
ag129
ag129
ag129
ag129
ag129
aV \u2014
p2119
aV Jon
p2120
aV \u2014
p2121
ag129
ag129
ag129
ag129
ag129
ag129
ag129
ag129
ag129
ag129
ag129
ag129
ag129
ag319
ag319
ag129
ag129
ag129
ag129
aV Lillian
p2122
ag129
ag129
ag129
ag129
ag129
ag129
ag129
ag129
ag129
ag319
ag319
aV Sandra
p2123
aV Sandra
p2124
aV Sandra
p2125
aV Sandra
p2126
ag129
aV Sandra
p2127
aV Sandra
p2128
ag129
ag129
ag129
ag129
ag129
ag129
ag129
atp2129
ba(lp2130
g21
(g22
(dp2131
g24
g25
(g26
(I0
tp2132
g28
tp2133
Rp2134
(I1
(L20L
tp2135
g35
I00
(lp2136
g1893
ag1894
ag1895
ag1896
ag1897
ag1898
ag1899
ag1900
ag1901
ag1902
ag1903
ag1904
ag1905
ag1906
ag1907
ag1908
ag1909
ag1910
ag1911
ag1912
atp2137
bsg63
Nstp2138
Rp2139
a(dp2140
g339
(dp2141
g341
g1886
sg342
(lp2142
(dp2143
g345
g346
(I0
I20
I1
tp2144
Rp2145
sg349
g1947
sasstp2146
bsbsg351
I7
ssVVanuatu
p2147
(dp2148
g3
Vhttp://survivor.wikia.com/wiki/Survivor:_Vanuatu
p2149
sg5
g6
(g7
g8
Ntp2150
Rp2151
(dp2152
g12
g13
sg14
g15
sg16
g6
(g17
g8
Ntp2153
Rp2154
((lp2155
g21
(g22
(dp2156
g24
g25
(g26
(I0
tp2157
g28
tp2158
Rp2159
(I1
(L18L
tp2160
g35
I00
(lp2161
VBrook
p2162
aVDolly
p2163
aVJohn P.
p2164
aVMia
p2165
aVBrady
p2166
aVTravis
p2167
aVLisa
p2168
aVJohn K.
p2169
aVRory
p2170
aVLea
p2171
aVChad
p2172
aVLeann
p2173
aVAmi
p2174
aVJulie
p2175
aVEliza
p2176
aVScout
p2177
aVTwila
p2178
aVChris
p2179
atp2180
bsg63
Nstp2181
Rp2182
ag21
(g22
(dp2183
g24
g25
(g26
(I0
tp2184
g28
tp2185
Rp2186
(I1
(L18L
tp2187
g35
I00
(lp2188
VChris
p2189
aVTwila
p2190
aVScout
p2191
aVEliza
p2192
aVJulie
p2193
aVAmi
p2194
aVLeann
p2195
aVChad
p2196
aVLea
p2197
aVRory
p2198
aVJohn K.
p2199
aVLisa
p2200
aVTravis
p2201
aVBrady
p2202
aVMia
p2203
aVJohn P.
p2204
aVDolly
p2205
aVBrook
p2206
atp2207
bsg63
g93
(g96
S'\x01\x00\x00\x00\x00\x00\x00\x00'
p2208
tp2209
Rp2210
stp2211
Rp2212
a(lp2213
g25
(g26
(I0
tp2214
g28
tp2215
Rp2216
(I1
(L18L
L18L
tp2217
g35
I00
(lp2218
V Brook
p2219
aV \u2014
p2220
aV \u2014
p2221
aV \u2014
p2222
aV \u2014
p2223
aV \u2014
p2224
aV \u2014
p2225
aV Brook
p2226
aV Brook
p2227
aV Brook
p2228
aV Chris
p2229
aV \u2014
p2230
aV Brook
p2231
aV Rory
p2232
aV \u2014
p2233
aV Chris
p2234
aV \u2014
p2235
aV Chris
p2236
aV \u2014
p2237
aV Dolly
p2238
aV Dolly
p2239
aV Dolly
p2240
aV Leann
p2241
aV Dolly
p2242
aV Dolly
p2243
aV \u2014
p2244
aV \u2014
p2245
aV \u2014
p2246
aV \u2014
p2247
aV Leann
p2248
aV \u2014
p2249
aV \u2014
p2250
aV Leann
p2251
aV \u2014
p2252
aV Leann
p2253
ag129
aV John P.
p2254
aV \u2014
p2255
aV \u2014
p2256
aV \u2014
p2257
aV \u2014
p2258
aV \u2014
p2259
aV \u2014
p2260
aV John P.
p2261
aV John P.
p2262
aV John P.
p2263
aV Rory
p2264
aV \u2014
p2265
aV John P.
p2266
aV Rory
p2267
aV \u2014
p2268
aV Rory
p2269
ag129
ag129
aV \u2014
p2270
aV Mia
p2271
aV Mia
p2272
aV Twila
p2273
aV Twila
p2274
aV Mia
p2275
aV Mia
p2276
aV \u2014
p2277
aV \u2014
p2278
aV \u2014
p2279
aV \u2014
p2280
aV Mia
p2281
aV \u2014
p2282
aV \u2014
p2283
aV Twila
p2284
ag129
ag129
ag129
aV Brady
p2285
aV \u2014
p2286
aV \u2014
p2287
aV \u2014
p2288
aV \u2014
p2289
aV \u2014
p2290
aV \u2014
p2291
aV Brady
p2292
aV Brady
p2293
aV Brady
p2294
aV Brady
p2295
aV \u2014
p2296
aV Brady
p2297
aV Rory
p2298
ag129
ag129
ag129
ag129
aV \u2014
p2299
aV \u2014
p2300
aV Travis
p2301
aV Travis
p2302
aV \u2014
p2303
aV Travis
p2304
aV Travis
p2305
aV \u2014
p2306
aV \u2014
p2307
aV Travis
p2308
aV \u2014
p2309
aV Travis
p2310
aV Rory
p2311
ag129
ag129
ag129
ag129
ag129
aV \u2014
p2312
aV \u2014
p2313
aV Rory
p2314
aV Lisa
p2315
aV \u2014
p2316
aV Lisa
p2317
aV Lisa
p2318
aV \u2014
p2319
aV \u2014
p2320
aV Lisa
p2321
aV \u2014
p2322
aV Rory
p2323
ag129
ag129
ag129
ag129
ag129
ag129
aV John K.
p2324
aV John K.
p2325
aV \u2014
p2326
aV \u2014
p2327
aV John K.
p2328
aV \u2014
p2329
aV \u2014
p2330
aV John K.
p2331
aV John K.
p2332
aV \u2014
p2333
aV Chad
p2334
ag129
ag129
ag129
ag129
ag129
ag129
ag129
aV Ami
p2335
aV Rory
p2336
aV Rory
p2337
aV Rory
p2338
aV Rory
p2339
aV Rory
p2340
aV Rory
p2341
aV Ami
p2342
aV Ami
p2343
aV Ami
p2344
ag129
ag129
ag129
ag129
ag129
ag129
ag129
ag129
aV Lea
p2345
aV Lea
p2346
aV Lea
p2347
aV Lea
p2348
aV Lea
p2349
aV Lea
p2350
aV Lea
p2351
aV Julie
p2352
aV Eliza
p2353
ag129
ag129
ag129
ag129
ag129
ag129
ag129
ag129
ag129
aV Eliza
p2354
aV Chad
p2355
aV Chad
p2356
aV Chad
p2357
aV Chad
p2358
aV Chad
p2359
aV Chad
p2360
aV Eliza
p2361
ag129
ag129
ag129
ag129
ag129
ag129
ag129
ag129
ag129
ag129
aV Leann
p2362
aV Leann
p2363
aV Leann
p2364
aV Leann
p2365
aV Eliza
p2366
aV Eliza
p2367
aV Eliza
p2368
ag129
ag129
ag129
ag129
ag129
ag129
ag129
ag129
ag129
ag129
ag129
aV Ami
p2369
aV Ami
p2370
aV Ami
p2371
aV Ami
p2372
aV Scout
p2373
aV Scout
p2374
ag129
ag129
ag129
ag129
ag129
ag129
ag129
ag129
ag129
ag129
ag129
ag129
aV Julie
p2375
aV Julie
p2376
aV Julie
p2377
aV Twila
p2378
aV Twila
p2379
ag129
ag129
ag129
ag129
ag129
ag129
ag129
ag129
ag129
ag129
ag129
ag129
ag129
aV Eliza
p2380
aV Eliza
p2381
aV Eliza
p2382
aV Twila
p2383
ag129
ag129
ag129
ag129
ag129
ag129
ag129
ag129
ag129
ag129
ag129
ag129
ag129
ag129
aV Scout
p2384
aV \u2014
p2385
aV \u2014
p2386
ag129
ag129
ag129
ag129
ag129
ag129
ag129
ag129
ag129
ag129
ag129
ag129
ag129
ag129
ag129
ag319
ag319
aV Twila
p2387
ag129
ag129
aV Twila
p2388
ag129
ag129
ag129
ag129
ag129
ag129
ag129
ag129
ag129
ag129
ag129
ag129
ag319
ag319
ag129
aV Chris
p2389
aV Chris
p2390
ag129
aV Chris
p2391
aV Chris
p2392
aV Chris
p2393
ag129
ag129
ag129
ag129
ag129
ag129
ag129
ag129
ag129
atp2394
ba(lp2395
g21
(g22
(dp2396
g24
g25
(g26
(I0
tp2397
g28
tp2398
Rp2399
(I1
(L18L
tp2400
g35
I00
(lp2401
g2162
ag2163
ag2164
ag2165
ag2166
ag2167
ag2168
ag2169
ag2170
ag2171
ag2172
ag2173
ag2174
ag2175
ag2176
ag2177
ag2178
ag2179
atp2402
bsg63
Nstp2403
Rp2404
a(dp2405
g339
(dp2406
g341
g2155
sg342
(lp2407
(dp2408
g345
g346
(I0
I18
I1
tp2409
Rp2410
sg349
g2216
sasstp2411
bsbsg351
I9
ssVThe_Australian_Outback
p2412
(dp2413
g3
Vhttp://survivor.wikia.com/wiki/Survivor:_The_Australian_Outback
p2414
sg5
g6
(g7
g8
Ntp2415
Rp2416
(dp2417
g12
g13
sg14
g15
sg16
g6
(g17
g8
Ntp2418
Rp2419
((lp2420
g21
(g22
(dp2421
g24
g25
(g26
(I0
tp2422
g28
tp2423
Rp2424
(I1
(L18L
tp2425
g35
I00
(lp2426
VDebb
p2427
aVKel
p2428
aVMaralyn
p2429
aVMitchell
p2430
aVMitchell
p2431
aVKimmi
p2432
aVMichael
p2433
aVJeff
p2434
aVJeff
p2435
aVAlicia
p2436
aVJerri
p2437
aVNick
p2438
aVAmber
p2439
aVRodger
p2440
aVElisabeth
p2441
aVKeith
p2442
aVColby
p2443
aVTina
p2444
atp2445
bsg63
Nstp2446
Rp2447
ag21
(g22
(dp2448
g24
g25
(g26
(I0
tp2449
g28
tp2450
Rp2451
(I1
(L16L
tp2452
g35
I00
(lp2453
VTina
p2454
aVColby
p2455
aVKeith
p2456
aVElisabeth
p2457
aVRodger
p2458
aVAmber
p2459
aVNick
p2460
aVJerri
p2461
aVAlicia
p2462
aVJeff
p2463
aVMichael
p2464
aVKimmi
p2465
aVMitchell
p2466
aVMaralyn
p2467
aVKel
p2468
aVDebb
p2469
atp2470
bsg63
g93
(g96
S'\x01\x00\x00\x00\x00\x00\x00\x00'
p2471
tp2472
Rp2473
stp2474
Rp2475
a(lp2476
g25
(g26
(I0
tp2477
g28
tp2478
Rp2479
(I1
(L18L
L16L
tp2480
g35
I00
(lp2481
V \u2014
p2482
aV \u2014
p2483
aV \u2014
p2484
aV Debb
p2485
aV Debb
p2486
aV \u2014
p2487
aV Debb
p2488
aV \u2014
p2489
aV Debb
p2490
aV Debb
p2491
aV Debb
p2492
aV Debb
p2493
aV \u2014
p2494
aV \u2014
p2495
aV \u2014
p2496
aV Jeff
p2497
aV Kel
p2498
aV Kel
p2499
aV Kel
p2500
aV \u2014
p2501
aV \u2014
p2502
aV Kel
p2503
aV \u2014
p2504
aV Kel
p2505
aV \u2014
p2506
aV \u2014
p2507
aV \u2014
p2508
aV \u2014
p2509
aV Kel
p2510
aV Kel
p2511
aV Jerri
p2512
ag129
aV Maralyn
p2513
aV Maralyn
p2514
aV Mitchell
p2515
aV \u2014
p2516
aV \u2014
p2517
aV Maralyn
p2518
aV \u2014
p2519
aV Maralyn
p2520
aV \u2014
p2521
aV \u2014
p2522
aV \u2014
p2523
aV \u2014
p2524
aV Maralyn
p2525
aV Jerri
p2526
ag129
ag129
aV Mitchell
p2527
aV Mitchell
p2528
aV Mitchell
p2529
aV \u2014
p2530
aV \u2014
p2531
aV Keith
p2532
aV \u2014
p2533
aV Keith
p2534
aV \u2014
p2535
aV \u2014
p2536
aV \u2014
p2537
aV \u2014
p2538
aV Keith
p2539
ag129
ag129
ag129
aV Mitchell
p2540
aV Mitchell
p2541
aVNone
p2542
ag2530
ag2531
aV Keith
p2543
ag2533
aV Keith
p2544
ag2535
ag2536
ag2537
ag2538
aVNone
p2545
ag129
ag129
ag129
aV \u2014
p2546
aV \u2014
p2547
aV \u2014
p2548
aV Kimmi
p2549
aV Kimmi
p2550
aV \u2014
p2551
aV Kimmi
p2552
aV \u2014
p2553
aV Kimmi
p2554
aV Kimmi
p2555
aV Kimmi
p2556
aV Jeff
p2557
ag129
ag129
ag129
ag129
aV \u2014
p2558
aV \u2014
p2559
aV \u2014
p2560
aV \u2014
p2561
aV \u2014
p2562
aV \u2014
p2563
aV \u2014
p2564
aV \u2014
p2565
aV \u2014
p2566
aV \u2014
p2567
aVEvacuated
p2568
ag129
ag129
ag129
ag129
ag129
aV Jeff
p2569
aV Jeff
p2570
aV Jeff
p2571
aV Colby
p2572
aV Colby
p2573
aV Jeff
p2574
aV Colby
p2575
aV Jeff
p2576
aV Colby
p2577
aV Colby
p2578
ag129
ag129
ag129
ag129
ag129
ag129
aV Jeff
p2579
aVNone
p2580
aV Jeff
p2581
aV Colby
p2582
aV Colby
p2583
aV Jeff
p2584
aV Colby
p2585
aV Jeff
p2586
aV Colby
p2587
aVNone
p2588
ag129
ag129
ag129
ag129
ag129
ag129
aV Alicia
p2589
aV Alicia
p2590
aV Alicia
p2591
aV Jerri
p2592
aV Jerri
p2593
aV Alicia
p2594
aV Jerri
p2595
aV Alicia
p2596
aV Jerri
p2597
ag129
ag129
ag129
ag129
ag129
ag129
ag129
aV Jerri
p2598
aV Jerri
p2599
aV Jerri
p2600
aV Jerri
p2601
aV Jerri
p2602
aV Elisabeth
p2603
aV Jerri
p2604
aV Elisabeth
p2605
ag129
ag129
ag129
ag129
ag129
ag129
ag129
ag129
aV Nick
p2606
aV Nick
p2607
aV Nick
p2608
aV Amber
p2609
aV Amber
p2610
aV Nick
p2611
aV Keith
p2612
ag129
ag129
ag129
ag129
ag129
ag129
ag129
ag129
ag129
aV Amber
p2613
aV Rodger
p2614
aV Amber
p2615
aV Amber
p2616
aV Amber
p2617
aV Rodger
p2618
ag129
ag129
ag129
ag129
ag129
ag129
ag129
ag129
ag129
ag129
aV Rodger
p2619
aV Rodger
p2620
aV Rodger
p2621
aV Keith
p2622
aV Keith
p2623
ag129
ag129
ag129
ag129
ag129
ag129
ag129
ag129
ag129
ag129
ag129
aV Elisabeth
p2624
aV Elisabeth
p2625
aV Elisabeth
p2626
aV Keith
p2627
ag129
ag129
ag129
ag129
ag129
ag129
ag129
ag129
ag129
ag129
ag129
ag129
aV \u2014
p2628
aV Keith
p2629
aV \u2014
p2630
ag129
ag129
ag129
ag129
ag129
ag129
ag129
ag129
ag129
ag129
ag129
ag129
ag129
ag319
ag319
ag129
ag129
aV Colby
p2631
aV Colby
p2632
aV Colby
p2633
ag129
ag129
ag129
ag129
ag129
ag129
ag129
ag129
ag129
ag319
ag319
aV Tina
p2634
aV Tina
p2635
ag129
ag129
ag129
aV Tina
p2636
aV Tina
p2637
ag129
ag129
ag129
ag129
ag129
ag129
ag129
atp2638
ba(lp2639
g21
(g22
(dp2640
g24
g25
(g26
(I0
tp2641
g28
tp2642
Rp2643
(I1
(L18L
tp2644
g35
I00
(lp2645
g2427
ag2428
ag2429
ag2430
ag2431
ag2432
ag2433
ag2434
ag2435
ag2436
ag2437
ag2438
ag2439
ag2440
ag2441
ag2442
ag2443
ag2444
atp2646
bsg63
Nstp2647
Rp2648
a(dp2649
g339
(dp2650
g341
g2420
sg342
(lp2651
(dp2652
g345
g346
(I0
I18
I1
tp2653
Rp2654
sg349
g2479
sasstp2655
bsbsg351
I2
ssVHeroes_vs_Villains
p2656
(dp2657
g3
Vhttp://survivor.wikia.com/wiki/Survivor:_Heroes_vs_Villains
p2658
sg5
g6
(g7
g8
Ntp2659
Rp2660
(dp2661
g12
g13
sg14
g15
sg16
g6
(g17
g8
Ntp2662
Rp2663
((lp2664
g21
(g22
(dp2665
g24
g25
(g26
(I0
tp2666
g28
tp2667
Rp2668
(I1
(L20L
tp2669
g35
I00
(lp2670
VSugar
p2671
aVStephenie
p2672
aVRandy
p2673
aVCirie
p2674
aVTom
p2675
aVTyson
p2676
aVJames
p2677
aVRob
p2678
aVCoach
p2679
aVCourtney
p2680
aVJ.T.
p2681
aVAmanda
p2682
aVCandice
p2683
aVDanielle
p2684
aVRupert
p2685
aVColby
p2686
aVJerri
p2687
aVRussell
p2688
aVParvati
p2689
aVSandra
p2690
atp2691
bsg63
Nstp2692
Rp2693
ag21
(g22
(dp2694
g24
g25
(g26
(I0
tp2695
g28
tp2696
Rp2697
(I1
(L20L
tp2698
g35
I00
(lp2699
VSandra
p2700
aVParvati
p2701
aVRussell
p2702
aVJerri
p2703
aVColby
p2704
aVRupert
p2705
aVDanielle
p2706
aVCandice
p2707
aVAmanda
p2708
aVJ.T.
p2709
aVCourtney
p2710
aVCoach
p2711
aVRob
p2712
aVJames
p2713
aVTyson
p2714
aVTom
p2715
aVCirie
p2716
aVRandy
p2717
aVStephenie
p2718
aVSugar
p2719
atp2720
bsg63
g93
(g96
S'\x01\x00\x00\x00\x00\x00\x00\x00'
p2721
tp2722
Rp2723
stp2724
Rp2725
a(lp2726
g25
(g26
(I0
tp2727
g28
tp2728
Rp2729
(I1
(L20L
L20L
tp2730
g35
I00
(lp2731
V \u2014
p2732
aV \u2014
p2733
aV \u2014
p2734
aV \u2014
p2735
aV Sugar
p2736
aV Sugar
p2737
aV \u2014
p2738
aV Sugar
p2739
aV Sugar
p2740
aV Sugar
p2741
aV \u2014
p2742
aV \u2014
p2743
aV \u2014
p2744
aV Sugar
p2745
aV \u2014
p2746
aV Sugar
p2747
aV Sugar
p2748
aV \u2014
p2749
aV Sugar
p2750
aV Amanda
p2751
aV \u2014
p2752
aV \u2014
p2753
aV \u2014
p2754
aV \u2014
p2755
aV Amanda
p2756
aV Stephenie
p2757
aV \u2014
p2758
aV Stephenie
p2759
aV Stephenie
p2760
aV Stephenie
p2761
aV \u2014
p2762
aV \u2014
p2763
aV \u2014
p2764
aV Stephenie
p2765
aV \u2014
p2766
aV Amanda
p2767
aV Stephenie
p2768
aV \u2014
p2769
aV Amanda
p2770
ag129
aV Randy
p2771
aV Randy
p2772
aV Randy
p2773
aV Randy
p2774
aV \u2014
p2775
aV \u2014
p2776
aV Randy
p2777
aV \u2014
p2778
aV \u2014
p2779
aV \u2014
p2780
aV Randy
p2781
aV Randy
p2782
aV Randy
p2783
aV \u2014
p2784
aV Randy
p2785
aV \u2014
p2786
aV \u2014
p2787
aV Rob
p2788
ag129
ag129
aV \u2014
p2789
aV \u2014
p2790
aV \u2014
p2791
aV \u2014
p2792
aV Cirie
p2793
aV Colby
p2794
aV \u2014
p2795
aV Tom
p2796
aV Tom
p2797
aV Cirie
p2798
aV \u2014
p2799
aV \u2014
p2800
aV \u2014
p2801
aV Colby
p2802
aV \u2014
p2803
aV Cirie
p2804
aV Tom
p2805
ag129
ag129
ag129
aV \u2014
p2806
aV \u2014
p2807
aV \u2014
p2808
aV \u2014
p2809
aV James
p2810
aV Tom
p2811
aV \u2014
p2812
aV Tom
p2813
aV Tom
p2814
aV Tom
p2815
aV \u2014
p2816
aV \u2014
p2817
aV \u2014
p2818
aV Tom
p2819
aV \u2014
p2820
aV James
p2821
ag129
ag129
ag129
ag129
aV Russell
p2822
aV Tyson
p2823
aV Tyson
p2824
aV Parvati
p2825
aV \u2014
p2826
aV \u2014
p2827
aV Tyson
p2828
aV \u2014
p2829
aV \u2014
p2830
aV \u2014
p2831
aV Parvati
p2832
aV Parvati
p2833
aV Russell
p2834
aV \u2014
p2835
aV Parvati
p2836
ag129
ag129
ag129
ag129
ag129
aV \u2014
p2837
aV \u2014
p2838
aV \u2014
p2839
aV \u2014
p2840
aV James
p2841
aV James
p2842
aV \u2014
p2843
aV James
p2844
aV James
p2845
aV James
p2846
aV \u2014
p2847
aV \u2014
p2848
aV \u2014
p2849
aV Colby
p2850
ag129
ag129
ag129
ag129
ag129
ag129
aV Russell
p2851
aV Rob
p2852
aV Rob
p2853
aV Rob
p2854
aV \u2014
p2855
aV \u2014
p2856
aV Rob
p2857
aV \u2014
p2858
aV \u2014
p2859
aV \u2014
p2860
aV Russell
p2861
aV Courtney
p2862
aV Russell
p2863
ag129
ag129
ag129
ag129
ag129
ag129
ag129
aV Coach
p2864
aV Coach
p2865
aV Courtney
p2866
aV Courtney
p2867
aV \u2014
p2868
aV \u2014
p2869
aV Coach
p2870
aV \u2014
p2871
aV \u2014
p2872
aV \u2014
p2873
aV Coach
p2874
aV Courtney
p2875
ag129
ag129
ag129
ag129
ag129
ag129
ag129
ag129
aV Courtney
p2876
aV Courtney
p2877
aV Courtney
p2878
aV Courtney
p2879
aV \u2014
p2880
aV \u2014
p2881
aV Courtney
p2882
aV \u2014
p2883
aV \u2014
p2884
aV \u2014
p2885
aV Jerri
p2886
ag129
ag129
ag129
ag129
ag129
ag129
ag129
ag129
ag129
aV J.T.
p2887
aV J.T.
p2888
aV J.T.
p2889
aV J.T.
p2890
aV Jerri
p2891
aV Jerri
p2892
aV J.T.
p2893
aV Jerri
p2894
aV Jerri
p2895
aV Jerri
p2896
ag129
ag129
ag129
ag129
ag129
ag129
ag129
ag129
ag129
ag129
aV Amanda
p2897
aV Amanda
p2898
aV Amanda
p2899
aV Amanda
p2900
aV Parvati
p2901
aV Parvati
p2902
aV Amanda
p2903
aV Amanda
p2904
aV Parvati
p2905
ag129
ag129
ag129
ag129
ag129
ag129
ag129
ag129
ag129
ag129
ag129
aV Candice
p2906
aV Rupert
p2907
aV Candice
p2908
aV Candice
p2909
aV Candice
p2910
aV Candice
p2911
aV Rupert
p2912
aV Rupert
p2913
ag129
ag129
ag129
ag129
ag129
ag129
ag129
ag129
ag129
ag129
ag129
ag129
aV Rupert
p2914
aV Rupert
p2915
aV Danielle
p2916
aV Danielle
p2917
aV Danielle
p2918
aV Danielle
p2919
aV Rupert
p2920
ag129
ag129
ag129
ag129
ag129
ag129
ag129
ag129
ag129
ag129
ag129
ag129
ag129
aV Rupert
p2921
aV Rupert
p2922
aV Rupert
p2923
aV Rupert
p2924
aV Sandra
p2925
aV Sandra
p2926
ag129
ag129
ag129
ag129
ag129
ag129
ag129
ag129
ag129
ag129
ag129
ag129
ag129
ag129
aV Colby
p2927
aV Colby
p2928
aV Colby
p2929
aV Colby
p2930
aV Sandra
p2931
ag129
ag129
ag129
ag129
ag129
ag129
ag129
ag129
ag129
ag129
ag129
ag129
ag129
ag129
ag129
aV Jerri
p2932
aV Jerri
p2933
aV Jerri
p2934
aV Parvati
p2935
ag129
ag129
ag129
ag129
ag129
ag129
ag129
ag129
ag129
ag129
ag129
ag129
ag129
ag129
ag129
ag129
ag319
ag319
ag319
ag129
ag129
ag129
ag129
ag129
ag129
ag129
ag129
ag129
ag129
ag129
ag129
ag129
ag129
ag129
ag129
ag129
ag319
ag319
ag319
aV Parvati
p2936
ag129
ag129
aV Parvati
p2937
ag129
ag129
ag129
ag129
aV Parvati
p2938
ag129
ag129
ag129
ag129
ag129
ag129
ag129
ag129
ag319
ag319
ag319
ag129
aV Sandra
p2939
aV Sandra
p2940
ag129
aV Sandra
p2941
aV Sandra
p2942
aV Sandra
p2943
aV Sandra
p2944
ag129
ag129
ag129
ag129
ag129
ag129
ag129
ag129
ag129
atp2945
ba(lp2946
g21
(g22
(dp2947
g24
g25
(g26
(I0
tp2948
g28
tp2949
Rp2950
(I1
(L20L
tp2951
g35
I00
(lp2952
g2671
ag2672
ag2673
ag2674
ag2675
ag2676
ag2677
ag2678
ag2679
ag2680
ag2681
ag2682
ag2683
ag2684
ag2685
ag2686
ag2687
ag2688
ag2689
ag2690
atp2953
bsg63
Nstp2954
Rp2955
a(dp2956
g339
(dp2957
g341
g2664
sg342
(lp2958
(dp2959
g345
g346
(I0
I20
I1
tp2960
Rp2961
sg349
g2729
sasstp2962
bsbsg351
I20
ssVGuatemala
p2963
(dp2964
g3
Vhttp://survivor.wikia.com/wiki/Survivor:_Guatemala
p2965
sg5
g6
(g7
g8
Ntp2966
Rp2967
(dp2968
g12
g13
sg14
g15
sg16
g6
(g17
g8
Ntp2969
Rp2970
((lp2971
g21
(g22
(dp2972
g24
g25
(g26
(I0
tp2973
g28
tp2974
Rp2975
(I1
(L18L
tp2976
g35
I00
(lp2977
VJim
p2978
aVMorgan
p2979
aVBrianna
p2980
aVBrooke
p2981
aVBlake
p2982
aVMargaret
p2983
aVBrian
p2984
aVAmy
p2985
aVBrandon
p2986
aVBobby Jon
p2987
aVJamie
p2988
aVGary
p2989
aVJudd
p2990
aVCindy
p2991
aVLydia
p2992
aVRafe
p2993
aVStephenie
p2994
aVDanni
p2995
atp2996
bsg63
Nstp2997
Rp2998
ag21
(g22
(dp2999
g24
g25
(g26
(I0
tp3000
g28
tp3001
Rp3002
(I1
(L18L
tp3003
g35
I00
(lp3004
VDanni
p3005
aVStephenie
p3006
aVRafe
p3007
aVLydia
p3008
aVCindy
p3009
aVJudd
p3010
aVGary
p3011
aVJamie
p3012
aVBobby Jon
p3013
aVBrandon
p3014
aVAmy
p3015
aVBrian
p3016
aVMargaret
p3017
aVBlake
p3018
aVBrooke
p3019
aVBrianna
p3020
aVMorgan
p3021
aVJim
p3022
atp3023
bsg63
g93
(g96
S'\x01\x00\x00\x00\x00\x00\x00\x00'
p3024
tp3025
Rp3026
stp3027
Rp3028
a(lp3029
g25
(g26
(I0
tp3030
g28
tp3031
Rp3032
(I1
(L18L
L18L
tp3033
g35
I00
(lp3034
V Jim
p3035
aV \u2014
p3036
aV \u2014
p3037
aV \u2014
p3038
aV Jim
p3039
aV Jim
p3040
aV \u2014
p3041
aV \u2014
p3042
aV Jim
p3043
aV Jim
p3044
aV \u2014
p3045
aV \u2014
p3046
aV Jim
p3047
aV Jim
p3048
aV Jim
p3049
aV \u2014
p3050
aV \u2014
p3051
aV Margaret
p3052
aV \u2014
p3053
aV Morgan
p3054
aV Morgan
p3055
aV Morgan
p3056
aV \u2014
p3057
aV \u2014
p3058
aV Morgan
p3059
aV Morgan
p3060
aV \u2014
p3061
aV \u2014
p3062
aV Morgan
p3063
aV Morgan
p3064
aV \u2014
p3065
aV \u2014
p3066
aV \u2014
p3067
aV Morgan
p3068
aV Lydia
p3069
ag129
aV \u2014
p3070
aV Brianna
p3071
aV Brianna
p3072
aV Brianna
p3073
aV \u2014
p3074
aV \u2014
p3075
aV Brianna
p3076
aV Brianna
p3077
aV \u2014
p3078
aV \u2014
p3079
aV Brianna
p3080
aV Brianna
p3081
aV \u2014
p3082
aV \u2014
p3083
aV \u2014
p3084
aV Lydia
p3085
ag129
ag129
aV \u2014
p3086
aV Brooke
p3087
aV Brooke
p3088
aV Brooke
p3089
aV Lydia
p3090
aV Brooke
p3091
aV \u2014
p3092
aV Brooke
p3093
aV \u2014
p3094
aV \u2014
p3095
aV \u2014
p3096
aV \u2014
p3097
aV Lydia
p3098
aV \u2014
p3099
aV Lydia
p3100
ag129
ag129
ag129
aV Blake
p3101
aV \u2014
p3102
aV \u2014
p3103
aV \u2014
p3104
aV \u2014
p3105
aV \u2014
p3106
aV Blake
p3107
aV \u2014
p3108
aV Blake
p3109
aV Brian
p3110
aV Blake
p3111
aV Blake
p3112
aV \u2014
p3113
aV Brian
p3114
ag129
ag129
ag129
ag129
aV \u2014
p3115
aV Margaret
p3116
aV Margaret
p3117
aV Margaret
p3118
aV Margaret
p3119
aV Margaret
p3120
aV \u2014
p3121
aV Margaret
p3122
aV \u2014
p3123
aV \u2014
p3124
aV \u2014
p3125
aV \u2014
p3126
aV Judd
p3127
ag129
ag129
ag129
ag129
ag129
aV Brian
p3128
aV \u2014
p3129
aV \u2014
p3130
aV \u2014
p3131
aV \u2014
p3132
aV \u2014
p3133
aV Brian
p3134
aV \u2014
p3135
aV Brian
p3136
aV Brian
p3137
aV Brian
p3138
aV Bobby Jon
p3139
ag129
ag129
ag129
ag129
ag129
ag129
aV Amy
p3140
aV \u2014
p3141
aV \u2014
p3142
aV \u2014
p3143
aV \u2014
p3144
aV \u2014
p3145
aV Amy
p3146
aV \u2014
p3147
aV Amy
p3148
aV Amy
p3149
aV Bobby Jon
p3150
ag129
ag129
ag129
ag129
ag129
ag129
ag129
aV Jamie
p3151
aV Brandon
p3152
aV Brandon
p3153
aV Brandon
p3154
aV Brandon
p3155
aV Brandon
p3156
aV Jamie
p3157
aV Brandon
p3158
aV Jamie
p3159
aV Jamie
p3160
ag129
ag129
ag129
ag129
ag129
ag129
ag129
ag129
aV Stephenie
p3161
aV Bobby Jon
p3162
aV Bobby Jon
p3163
aV Bobby Jon
p3164
aV Bobby Jon
p3165
aV Bobby Jon
p3166
aV Cindy
p3167
aV Bobby Jon
p3168
aV Stephenie
p3169
ag129
ag129
ag129
ag129
ag129
ag129
ag129
ag129
ag129
aV Jamie
p3170
aV Jamie
p3171
aV Jamie
p3172
aV Jamie
p3173
aV Jamie
p3174
aV Gary
p3175
aV Jamie
p3176
aV Gary
p3177
ag129
ag129
ag129
ag129
ag129
ag129
ag129
ag129
ag129
ag129
aV Gary
p3178
aV Gary
p3179
aV Gary
p3180
aV Gary
p3181
aV Gary
p3182
aV Gary
p3183
aV Cindy
p3184
ag129
ag129
ag129
ag129
ag129
ag129
ag129
ag129
ag129
ag129
ag129
aV Judd
p3185
aV Judd
p3186
aV Judd
p3187
aV Judd
p3188
aV Lydia
p3189
aV Lydia
p3190
ag129
ag129
ag129
ag129
ag129
ag129
ag129
ag129
ag129
ag129
ag129
ag129
aV Cindy
p3191
aV Cindy
p3192
aV Cindy
p3193
aV Cindy
p3194
aV Rafe
p3195
ag129
ag129
ag129
ag129
ag129
ag129
ag129
ag129
ag129
ag129
ag129
ag129
ag129
aV Lydia
p3196
aV Lydia
p3197
aV Lydia
p3198
aV Danni
p3199
ag129
ag129
ag129
ag129
ag129
ag129
ag129
ag129
ag129
ag129
ag129
ag129
ag129
ag129
aV Rafe
p3200
aV \u2014
p3201
aV  \u2014
p3202
ag129
ag129
ag129
ag129
ag129
ag129
ag129
ag129
ag129
ag129
ag129
ag129
ag129
ag129
ag129
ag319
ag319
aV Stephenie
p3203
ag129
ag129
ag129
ag129
ag129
ag129
ag129
ag129
ag129
ag129
ag129
ag129
ag129
ag129
ag129
ag319
ag319
ag129
aV Danni
p3204
aV Danni
p3205
aV Danni
p3206
aV Danni
p3207
aV Danni
p3208
aV Danni
p3209
ag129
ag129
ag129
ag129
ag129
ag129
ag129
ag129
ag129
atp3210
ba(lp3211
g21
(g22
(dp3212
g24
g25
(g26
(I0
tp3213
g28
tp3214
Rp3215
(I1
(L18L
tp3216
g35
I00
(lp3217
g2978
ag2979
ag2980
ag2981
ag2982
ag2983
ag2984
ag2985
ag2986
ag2987
ag2988
ag2989
ag2990
ag2991
ag2992
ag2993
ag2994
ag2995
atp3218
bsg63
Nstp3219
Rp3220
a(dp3221
g339
(dp3222
g341
g2971
sg342
(lp3223
(dp3224
g345
g346
(I0
I18
I1
tp3225
Rp3226
sg349
g3032
sasstp3227
bsbsg351
I11
ssVChina
p3228
(dp3229
g3
Vhttp://survivor.wikia.com/wiki/Survivor:_China
p3230
sg5
g6
(g7
g8
Ntp3231
Rp3232
(dp3233
g12
g13
sg14
g15
sg16
g6
(g17
g8
Ntp3234
Rp3235
((lp3236
g21
(g22
(dp3237
g24
g25
(g26
(I0
tp3238
g28
tp3239
Rp3240
(I1
(L16L
tp3241
g35
I00
(lp3242
VChicken
p3243
aVAshley
p3244
aVLeslie
p3245
aVDave
p3246
aVAaron
p3247
aVSherea
p3248
aVJaime
p3249
aVJean-Robert
p3250
aVFrosti
p3251
aVJames
p3252
aVErik
p3253
aVPeih-Gee
p3254
aVDenise
p3255
aVAmanda
p3256
aVCourtney
p3257
aVTodd
p3258
atp3259
bsg63
Nstp3260
Rp3261
ag21
(g22
(dp3262
g24
g25
(g26
(I0
tp3263
g28
tp3264
Rp3265
(I1
(L16L
tp3266
g35
I00
(lp3267
VTodd
p3268
aVCourtney
p3269
aVAmanda
p3270
aVDenise
p3271
aVPeih-Gee
p3272
aVErik
p3273
aVJames
p3274
aVFrosti
p3275
aVJean-Robert
p3276
aVJaime
p3277
aVSherea
p3278
aVAaron
p3279
aVDave
p3280
aVLeslie
p3281
aVAshley
p3282
aVChicken
p3283
atp3284
bsg63
g93
(g96
S'\x01\x00\x00\x00\x00\x00\x00\x00'
p3285
tp3286
Rp3287
stp3288
Rp3289
a(lp3290
g25
(g26
(I0
tp3291
g28
tp3292
Rp3293
(I1
(L16L
L16L
tp3294
g35
I00
(lp3295
V \u2014
p3296
aV \u2014
p3297
aV \u2014
p3298
aV \u2014
p3299
aV Chicken
p3300
aV Chicken
p3301
aV \u2014
p3302
aV Chicken
p3303
aV \u2014
p3304
aV Chicken
p3305
aV Chicken
p3306
aV \u2014
p3307
aV Ashley
p3308
aV \u2014
p3309
aV Peih-Gee
p3310
aV Ashley
p3311
aV \u2014
p3312
aV \u2014
p3313
aV \u2014
p3314
aV \u2014
p3315
aV Ashley
p3316
aV Ashley
p3317
aV \u2014
p3318
aV Ashley
p3319
aV \u2014
p3320
aV Ashley
p3321
aV Ashley
p3322
aV \u2014
p3323
aV Ashley
p3324
aV \u2014
p3325
aV Dave
p3326
ag129
aV Leslie
p3327
aV Jean-Robert
p3328
aV Leslie
p3329
aV Leslie
p3330
aV \u2014
p3331
aV \u2014
p3332
aV Leslie
p3333
aV \u2014
p3334
aV Leslie
p3335
aV \u2014
p3336
aV \u2014
p3337
aV Leslie
p3338
aV \u2014
p3339
aV Jean-Robert
p3340
ag129
ag129
aV \u2014
p3341
aV \u2014
p3342
aV \u2014
p3343
aV \u2014
p3344
aV Dave
p3345
aV Dave
p3346
aV \u2014
p3347
aV Dave
p3348
aV \u2014
p3349
aV Dave
p3350
aV Dave
p3351
aV \u2014
p3352
aV Sherea
p3353
ag129
ag129
ag129
aV \u2014
p3354
aV \u2014
p3355
aV \u2014
p3356
aV \u2014
p3357
aV Aaron
p3358
aV Aaron
p3359
aV Peih-Gee
p3360
aV \u2014
p3361
aV \u2014
p3362
aV Aaron
p3363
aV \u2014
p3364
aV James
p3365
ag129
ag129
ag129
ag129
aV Sherea
p3366
aV Jean-Robert
p3367
aV Sherea
p3368
aV Sherea
p3369
aV \u2014
p3370
aV \u2014
p3371
aV \u2014
p3372
aV Sherea
p3373
aV Sherea
p3374
aV \u2014
p3375
aV Jean-Robert
p3376
ag129
ag129
ag129
ag129
ag129
aV Jaime
p3377
aV Jaime
p3378
aV Jaime
p3379
aV Jaime
p3380
aV Jean-Robert
p3381
aV Jean-Robert
p3382
aV Jaime
p3383
aV Jaime
p3384
aV Jaime
p3385
aV Jean-Robert
p3386
ag129
ag129
ag129
ag129
ag129
ag129
aV Jean-Robert
p3387
aV Jean-Robert
p3388
aV Jean-Robert
p3389
aV Peih-Gee
p3390
aV James
p3391
aV James
p3392
aV Jean-Robert
p3393
aV Jean-Robert
p3394
aV James
p3395
ag129
ag129
ag129
ag129
ag129
ag129
ag129
aV Frosti
p3396
aV Frosti
p3397
aV Frosti
p3398
aV Frosti
p3399
aV Frosti
p3400
aV Frosti
p3401
aV Frosti
p3402
aV Erik
p3403
ag129
ag129
ag129
ag129
ag129
ag129
ag129
ag129
aV James
p3404
aV James
p3405
aV James
p3406
aV James
p3407
aV Todd
p3408
aV James
p3409
aV Peih-Gee
p3410
ag129
ag129
ag129
ag129
ag129
ag129
ag129
ag129
ag129
aV Erik
p3411
aV Erik
p3412
aV Erik
p3413
aV Erik
p3414
aV Todd
p3415
aV Todd
p3416
ag129
ag129
ag129
ag129
ag129
ag129
ag129
ag129
ag129
ag129
aV Peih-Gee
p3417
aV Peih-Gee
p3418
aV Peih-Gee
p3419
aV Peih-Gee
p3420
aV Todd
p3421
ag129
ag129
ag129
ag129
ag129
ag129
ag129
ag129
ag129
ag129
ag129
aV Denise
p3422
aV Denise
p3423
aV Denise
p3424
aV Todd
p3425
ag129
ag129
ag129
ag129
ag129
ag129
ag129
ag129
ag129
ag129
ag129
ag129
ag319
ag319
ag319
ag129
ag129
aV Amanda
p3426
ag129
ag129
ag129
ag129
ag129
ag129
ag129
ag129
ag129
ag129
ag319
ag319
ag319
aV Courtney
p3427
ag129
ag129
aV Courtney
p3428
ag129
ag129
ag129
ag129
ag129
ag129
ag129
ag129
ag129
ag319
ag319
ag319
ag129
aV Todd
p3429
ag129
ag129
aV Todd
p3430
aV Todd
p3431
aV Todd
p3432
ag129
ag129
ag129
ag129
ag129
ag129
atp3433
ba(lp3434
g21
(g22
(dp3435
g24
g25
(g26
(I0
tp3436
g28
tp3437
Rp3438
(I1
(L16L
tp3439
g35
I00
(lp3440
g3243
ag3244
ag3245
ag3246
ag3247
ag3248
ag3249
ag3250
ag3251
ag3252
ag3253
ag3254
ag3255
ag3256
ag3257
ag3258
atp3441
bsg63
Nstp3442
Rp3443
a(dp3444
g339
(dp3445
g341
g3236
sg342
(lp3446
(dp3447
g345
g346
(I0
I16
I1
tp3448
Rp3449
sg349
g3293
sasstp3450
bsbsg351
I15
ssVWorlds_Apart
p3451
(dp3452
g3
Vhttp://survivor.wikia.com/wiki/Survivor:_Worlds_Apart
p3453
sg5
g6
(g7
g8
Ntp3454
Rp3455
(dp3456
g12
g13
sg14
g15
sg16
g6
(g17
g8
Ntp3457
Rp3458
((lp3459
g21
(g22
(dp3460
g24
g25
(g26
(I0
tp3461
g28
tp3462
Rp3463
(I1
(L20L
tp3464
g35
I00
(lp3465
VSo
p3466
aVVince
p3467
aVNina
p3468
aVLindsey
p3469
aVLindsey
p3470
aVMax
p3471
aVJoaquin
p3472
aVKelly
p3473
aVHali
p3474
aVJoe
p3475
aVJenn
p3476
aVShirin
p3477
aVTyler
p3478
aVDan
p3479
aVDan
p3480
aVSierra
p3481
aVRodney
p3482
aVWill
p3483
aVCarolyn
p3484
aVMike
p3485
atp3486
bsg63
Nstp3487
Rp3488
ag21
(g22
(dp3489
g24
g25
(g26
(I0
tp3490
g28
tp3491
Rp3492
(I1
(L18L
tp3493
g35
I00
(lp3494
VMike
p3495
aVCarolyn
p3496
aVWill
p3497
aVRodney
p3498
aVSierra
p3499
aVDan
p3500
aVTyler
p3501
aVShirin
p3502
aVJenn
p3503
aVJoe
p3504
aVHali
p3505
aVKelly
p3506
aVJoaquin
p3507
aVMax
p3508
aVLindsey
p3509
aVNina
p3510
aVVince
p3511
aVSo
p3512
atp3513
bsg63
g93
(g96
S'\x01\x00\x00\x00\x00\x00\x00\x00'
p3514
tp3515
Rp3516
stp3517
Rp3518
a(lp3519
g25
(g26
(I0
tp3520
g28
tp3521
Rp3522
(I1
(L20L
L18L
tp3523
g35
I00
(lp3524
V \u2014
p3525
aV So
p3526
aV \u2014
p3527
aV \u2014
p3528
aV \u2014
p3529
aV \u2014
p3530
aV So
p3531
aV So
p3532
aV \u2014
p3533
aV \u2014
p3534
aV \u2014
p3535
aV \u2014
p3536
aV Carolyn
p3537
aV So
p3538
aV \u2014
p3539
aV \u2014
p3540
aV \u2014
p3541
aV Carolyn
p3542
aV \u2014
p3543
aV \u2014
p3544
aV Vince
p3545
aV \u2014
p3546
aV \u2014
p3547
aV \u2014
p3548
aV \u2014
p3549
aV \u2014
p3550
aV Vince
p3551
aV Nina
p3552
aV Vince
p3553
aV \u2014
p3554
aV \u2014
p3555
aV \u2014
p3556
aV \u2014
p3557
aV Jenn
p3558
aV Jenn
p3559
ag129
aV \u2014
p3560
aV \u2014
p3561
aV Nina
p3562
aV \u2014
p3563
aV \u2014
p3564
aV \u2014
p3565
aV \u2014
p3566
aV \u2014
p3567
aV Nina
p3568
aV Nina
p3569
aV Will
p3570
aV \u2014
p3571
aV \u2014
p3572
aV \u2014
p3573
aV \u2014
p3574
aV Will
p3575
ag129
ag129
aV Lindsey
p3576
aV\u2014
p3577
aV\u2014
p3578
aV Sierra
p3579
aV Rodney
p3580
aV Lindsey
p3581
aV\u2014
p3582
aV\u2014
p3583
aV\u2014
p3584
aV\u2014
p3585
aV\u2014
p3586
aV Sierra
p3587
aV\u2014
p3588
aV\u2014
p3589
aV Rodney
p3590
ag129
ag129
ag129
aV Lindsey
p3591
ag3577
ag3578
aV None
p3592
aV None
p3593
aV Lindsey
p3594
ag3582
ag3583
ag3584
ag3585
ag3586
aV Lindsey
p3595
ag3588
ag3589
aV None
p3596
ag129
ag129
ag129
aV \u2014
p3597
aV Max
p3598
aV Max
p3599
aV \u2014
p3600
aV \u2014
p3601
aV \u2014
p3602
aV \u2014
p3603
aV Will
p3604
aV Max
p3605
aV \u2014
p3606
aV Max
p3607
aV Max
p3608
aV \u2014
p3609
aV Will
p3610
ag129
ag129
ag129
ag129
aV Joaquin
p3611
aV \u2014
p3612
aV \u2014
p3613
aV Joe
p3614
aV Joaquin
p3615
aV Joaquin
p3616
aV Joe
p3617
aV \u2014
p3618
aV \u2014
p3619
aV Joaquin
p3620
aV \u2014
p3621
aV \u2014
p3622
aV Joe
p3623
ag129
ag129
ag129
ag129
ag129
aV Jenn
p3624
aV Jenn
p3625
aV Hali
p3626
aV Jenn
p3627
aV Jenn
p3628
aV Jenn
p3629
aV Jenn
p3630
aV Kelly
p3631
aV Kelly
p3632
aV Kelly
p3633
aV Kelly
p3634
aV Jenn
p3635
ag129
ag129
ag129
ag129
ag129
ag129
aV Hali
p3636
aV Hali
p3637
aV Hali
p3638
aV Hali
p3639
aV Hali
p3640
aV Hali
p3641
aV Hali
p3642
aV Dan
p3643
aV Dan
p3644
aV Dan
p3645
aV Dan
p3646
ag129
ag129
ag129
ag129
ag129
ag129
ag129
aV Joe
p3647
aV Jenn
p3648
aV Jenn
p3649
aV Joe
p3650
aV Joe
p3651
aV Joe
p3652
aV Jenn
p3653
aV Joe
p3654
aV Dan
p3655
aV Jenn
p3656
ag129
ag129
ag129
ag129
ag129
ag129
ag129
ag129
aV Jenn
p3657
aV Jenn
p3658
aV Jenn
p3659
aV Shirin
p3660
aV Shirin
p3661
aV Shirin
p3662
aV Jenn
p3663
aV Jenn
p3664
aV Carolyn
p3665
ag129
ag129
ag129
ag129
ag129
ag129
ag129
ag129
ag129
aV Tyler
p3666
aV Shirin
p3667
aV Dan
p3668
aV Shirin
p3669
aV Shirin
p3670
aV Shirin
p3671
aV Dan
p3672
aV Tyler
p3673
ag129
ag129
ag129
ag129
ag129
ag129
ag129
ag129
ag129
ag129
aV Tyler
p3674
aV Tyler
p3675
aV Mike
p3676
aV Mike
p3677
aV Tyler
p3678
aV Mike
p3679
aV Mike
p3680
ag129
ag129
ag129
ag129
ag129
ag129
ag129
ag129
ag129
ag129
ag129
aV Dan
p3681
aV Dan
p3682
aV Carolyn
p3683
aV Carolyn
p3684
aV Carolyn
p3685
aV Carolyn
p3686
ag129
ag129
ag129
ag129
ag129
ag129
ag129
ag129
ag129
ag129
ag129
ag129
ag3681
ag3682
ag3683
ag3684
ag3685
aV Carolyn
p3687
ag129
ag129
ag129
ag129
ag129
ag129
ag129
ag129
ag129
ag129
ag129
ag129
aV Sierra
p3688
aV Sierra
p3689
aV Sierra
p3690
aV Sierra
p3691
aV Rodney
p3692
ag129
ag129
ag129
ag129
ag129
ag129
ag129
ag129
ag129
ag129
ag129
ag129
ag129
aV Rodney
p3693
aV Rodney
p3694
aV Carolyn
p3695
aV Carolyn
p3696
ag129
ag129
ag129
ag129
ag129
ag129
ag129
ag129
ag129
ag129
ag129
ag129
ag129
ag129
ag319
ag319
ag319
aV Will
p3697
ag129
ag129
ag129
ag129
ag129
ag129
ag129
ag129
ag129
ag129
ag129
ag129
ag129
ag129
ag319
ag319
ag319
ag129
aV Carolyn
p3698
ag129
ag129
ag129
ag129
ag129
ag129
ag129
ag129
ag129
ag129
ag129
ag129
ag129
ag319
ag319
ag319
ag129
ag129
aV Mike
p3699
aV Mike
p3700
aV Mike
p3701
aV Mike
p3702
aV Mike
p3703
aV Mike
p3704
ag129
ag129
ag129
ag129
ag129
ag129
ag129
atp3705
ba(lp3706
g21
(g22
(dp3707
g24
g25
(g26
(I0
tp3708
g28
tp3709
Rp3710
(I1
(L20L
tp3711
g35
I00
(lp3712
g3466
ag3467
ag3468
ag3469
ag3470
ag3471
ag3472
ag3473
ag3474
ag3475
ag3476
ag3477
ag3478
ag3479
ag3480
ag3481
ag3482
ag3483
ag3484
ag3485
atp3713
bsg63
Nstp3714
Rp3715
a(dp3716
g339
(dp3717
g341
g3459
sg342
(lp3718
(dp3719
g345
g346
(I0
I20
I1
tp3720
Rp3721
sg349
g3522
sasstp3722
bsbsg351
I30
ssVThailand
p3723
(dp3724
g3
Vhttp://survivor.wikia.com/wiki/Survivor:_Thailand
p3725
sg5
g6
(g7
g8
Ntp3726
Rp3727
(dp3728
g12
g13
sg14
g15
sg16
g6
(g17
g8
Ntp3729
Rp3730
((lp3731
g21
(g22
(dp3732
g24
g25
(g26
(I0
tp3733
g28
tp3734
Rp3735
(I1
(L16L
tp3736
g35
I00
(lp3737
VJohn
p3738
aVTanya
p3739
aVJed
p3740
aVGhandia
p3741
aVStephanie
p3742
aVRobb
p3743
aVShii Ann
p3744
aVErin
p3745
aVKen
p3746
aVPenny
p3747
aVJake
p3748
aVTed
p3749
aVHelen
p3750
aVJan
p3751
aVClay
p3752
aVBrian
p3753
atp3754
bsg63
Nstp3755
Rp3756
ag21
(g22
(dp3757
g24
g25
(g26
(I0
tp3758
g28
tp3759
Rp3760
(I1
(L16L
tp3761
g35
I00
(lp3762
VBrian
p3763
aVClay
p3764
aVJan
p3765
aVHelen
p3766
aVTed
p3767
aVJake
p3768
aVPenny
p3769
aVKen
p3770
aVErin
p3771
aVShii Ann
p3772
aVRobb
p3773
aVStephanie
p3774
aVGhandia
p3775
aVJed
p3776
aVTanya
p3777
aVJohn
p3778
atp3779
bsg63
g93
(g96
S'\x01\x00\x00\x00\x00\x00\x00\x00'
p3780
tp3781
Rp3782
stp3783
Rp3784
a(lp3785
g25
(g26
(I0
tp3786
g28
tp3787
Rp3788
(I1
(L16L
L16L
tp3789
g35
I00
(lp3790
V John
p3791
aV John
p3792
aV John
p3793
aV Clay
p3794
aV John
p3795
aV \u2014
p3796
aV \u2014
p3797
aV \u2014
p3798
aV \u2014
p3799
aV \u2014
p3800
aV \u2014
p3801
aV \u2014
p3802
aV John
p3803
aV \u2014
p3804
aV John
p3805
aV Ghandia
p3806
aV Tanya
p3807
aV Tanya
p3808
aV Tanya
p3809
aV Tanya
p3810
aV Tanya
p3811
aV \u2014
p3812
aV \u2014
p3813
aV \u2014
p3814
aV \u2014
p3815
aV \u2014
p3816
aV \u2014
p3817
aV \u2014
p3818
aV Helen
p3819
aV \u2014
p3820
aV Helen
p3821
ag129
aV \u2014
p3822
aV \u2014
p3823
aV \u2014
p3824
aV \u2014
p3825
aV \u2014
p3826
aV Jed
p3827
aV Jed
p3828
aV Jed
p3829
aV Jed
p3830
aV Jed
p3831
aV Shii Ann
p3832
aV Shii Ann
p3833
aV \u2014
p3834
aV Shii Ann
p3835
ag129
ag129
aV Ghandia
p3836
aV Ghandia
p3837
aV Clay
p3838
aV Ghandia
p3839
aV Ghandia
p3840
aV \u2014
p3841
aV \u2014
p3842
aV \u2014
p3843
aV \u2014
p3844
aV \u2014
p3845
aV \u2014
p3846
aV \u2014
p3847
aV Clay
p3848
ag129
ag129
ag129
aV \u2014
p3849
aV \u2014
p3850
aV \u2014
p3851
aV \u2014
p3852
aV \u2014
p3853
aV Stephanie
p3854
aV Stephanie
p3855
aV Stephanie
p3856
aV Stephanie
p3857
aV Stephanie
p3858
aV Shii Ann
p3859
aV Shii Ann
p3860
ag129
ag129
ag129
ag129
aV \u2014
p3861
aV \u2014
p3862
aV \u2014
p3863
aV \u2014
p3864
aV \u2014
p3865
aV Robb
p3866
aV Robb
p3867
aV Robb
p3868
aV Robb
p3869
aV Robb
p3870
aV Shii Ann
p3871
ag129
ag129
ag129
ag129
ag129
aV \u2014
p3872
aV \u2014
p3873
aV \u2014
p3874
aV \u2014
p3875
aV \u2014
p3876
aV Shii Ann
p3877
aV Shii Ann
p3878
aV Shii Ann
p3879
aV Shii Ann
p3880
aV Penny
p3881
ag129
ag129
ag129
ag129
ag129
ag129
aV \u2014
p3882
aV \u2014
p3883
aV \u2014
p3884
aV \u2014
p3885
aV \u2014
p3886
aV Erin
p3887
aV Erin
p3888
aV Erin
p3889
aV Ken
p3890
ag129
ag129
ag129
ag129
ag129
ag129
ag129
aV Ken
p3891
aV Ken
p3892
aV Ken
p3893
aV Ken
p3894
aV Ken
p3895
aV Ted
p3896
aV Ted
p3897
aV Ted
p3898
ag129
ag129
ag129
ag129
ag129
ag129
ag129
ag129
aV Penny
p3899
aV Jake
p3900
aV Penny
p3901
aV Penny
p3902
aV Penny
p3903
aV Jan
p3904
aV Jake
p3905
ag129
ag129
ag129
ag129
ag129
ag129
ag129
ag129
ag129
aV Jake
p3906
aV Jake
p3907
aV Jake
p3908
aV Jake
p3909
aV Jake
p3910
aV Jan
p3911
ag129
ag129
ag129
ag129
ag129
ag129
ag129
ag129
ag129
ag129
aV Ted
p3912
aV Ted
p3913
aV Ted
p3914
aV Ted
p3915
aV Jan
p3916
ag129
ag129
ag129
ag129
ag129
ag129
ag129
ag129
ag129
ag129
ag129
aV Helen
p3917
aV Helen
p3918
aV Helen
p3919
aV Jan
p3920
ag129
ag129
ag129
ag129
ag129
ag129
ag129
ag129
ag129
ag129
ag129
ag129
aV Jan
p3921
aV \u2014
p3922
aV \u2014
p3923
ag129
ag129
ag129
ag129
ag129
ag129
ag129
ag129
ag129
ag129
ag129
ag129
ag129
ag319
ag319
ag129
ag129
ag129
ag129
aV Clay
p3924
aV Clay
p3925
aV Clay
p3926
ag129
ag129
ag129
ag129
ag129
ag129
ag129
ag319
ag319
aV Brian
p3927
aV Brian
p3928
aV Brian
p3929
aV Brian
p3930
ag129
ag129
ag129
ag129
ag129
ag129
ag129
ag129
ag129
ag129
atp3931
ba(lp3932
g21
(g22
(dp3933
g24
g25
(g26
(I0
tp3934
g28
tp3935
Rp3936
(I1
(L16L
tp3937
g35
I00
(lp3938
g3738
ag3739
ag3740
ag3741
ag3742
ag3743
ag3744
ag3745
ag3746
ag3747
ag3748
ag3749
ag3750
ag3751
ag3752
ag3753
atp3939
bsg63
Nstp3940
Rp3941
a(dp3942
g339
(dp3943
g341
g3731
sg342
(lp3944
(dp3945
g345
g346
(I0
I16
I1
tp3946
Rp3947
sg349
g3788
sasstp3948
bsbsg351
I5
ssVThe_Amazon
p3949
(dp3950
g3
Vhttp://survivor.wikia.com/wiki/Survivor:_The_Amazon
p3951
sg5
g6
(g7
g8
Ntp3952
Rp3953
(dp3954
g12
g13
sg14
g15
sg16
g6
(g17
g8
Ntp3955
Rp3956
((lp3957
g21
(g22
(dp3958
g24
g25
(g26
(I0
tp3959
g28
tp3960
Rp3961
(I1
(L16L
tp3962
g35
I00
(lp3963
VRyan
p3964
aVJanet
p3965
aVDaniel
p3966
aVJoanna
p3967
aVJeanne
p3968
aVShawna
p3969
aVRoger
p3970
aVDave
p3971
aVDeena
p3972
aVAlex
p3973
aVChristy
p3974
aVHeidi
p3975
aVButch
p3976
aVRob
p3977
aVMatthew
p3978
aVJenna
p3979
atp3980
bsg63
Nstp3981
Rp3982
ag21
(g22
(dp3983
g24
g25
(g26
(I0
tp3984
g28
tp3985
Rp3986
(I1
(L16L
tp3987
g35
I00
(lp3988
VJenna
p3989
aVMatthew
p3990
aVRob
p3991
aVButch
p3992
aVHeidi
p3993
aVChristy
p3994
aVAlex
p3995
aVDeena
p3996
aVDave
p3997
aVRoger
p3998
aVShawna
p3999
aVJeanne
p4000
aVJoanna
p4001
aVDaniel
p4002
aVJanet
p4003
aVRyan
p4004
atp4005
bsg63
g93
(g96
S'\x01\x00\x00\x00\x00\x00\x00\x00'
p4006
tp4007
Rp4008
stp4009
Rp4010
a(lp4011
g25
(g26
(I0
tp4012
g28
tp4013
Rp4014
(I1
(L16L
L16L
tp4015
g35
I00
(lp4016
V \u2014
p4017
aV Roger
p4018
aV Ryan
p4019
aV Ryan
p4020
aV \u2014
p4021
aV \u2014
p4022
aV Ryan
p4023
aV \u2014
p4024
aV Daniel
p4025
aV Ryan
p4026
aV \u2014
p4027
aV \u2014
p4028
aV \u2014
p4029
aV Roger
p4030
aV \u2014
p4031
aV Roger
p4032
aV Janet
p4033
aV \u2014
p4034
aV \u2014
p4035
aV \u2014
p4036
aV Janet
p4037
aV Jenna
p4038
aV \u2014
p4039
aV Janet
p4040
aV \u2014
p4041
aV \u2014
p4042
aV Janet
p4043
aV Janet
p4044
aV Christy
p4045
aV \u2014
p4046
aV Jeanne
p4047
ag129
aV \u2014
p4048
aV Daniel
p4049
aV Daniel
p4050
aV Daniel
p4051
aV \u2014
p4052
aV \u2014
p4053
aV Daniel
p4054
aV \u2014
p4055
aV Daniel
p4056
aV Daniel
p4057
aV \u2014
p4058
aV \u2014
p4059
aV \u2014
p4060
aV Roger
p4061
ag129
ag129
aV Joanna
p4062
aV \u2014
p4063
aV \u2014
p4064
aV \u2014
p4065
aV Joanna
p4066
aV Joanna
p4067
aV \u2014
p4068
aV Joanna
p4069
aV \u2014
p4070
aV \u2014
p4071
aV Christy
p4072
aV Shawna
p4073
aV Shawna
p4074
ag129
ag129
ag129
aV \u2014
p4075
aV \u2014
p4076
aV \u2014
p4077
aV Jeanne
p4078
aV Jeanne
p4079
aV Butch
p4080
aV \u2014
p4081
aV \u2014
p4082
aV Jeanne
p4083
aV Jeanne
p4084
aV \u2014
p4085
aV Butch
p4086
ag129
ag129
ag129
ag129
aV Shawna
p4087
aV Shawna
p4088
aV Shawna
p4089
aV \u2014
p4090
aV \u2014
p4091
aV \u2014
p4092
aV Matthew
p4093
aV Shawna
p4094
aV \u2014
p4095
aV \u2014
p4096
aV Matthew
p4097
ag129
ag129
ag129
ag129
ag129
aV Roger
p4098
aV Roger
p4099
aV Roger
p4100
aV Christy
p4101
aV Roger
p4102
aV Roger
p4103
aV Roger
p4104
aV Roger
p4105
aV Christy
p4106
aV Christy
p4107
ag129
ag129
ag129
ag129
ag129
ag129
aV Dave
p4108
aV Dave
p4109
aV Dave
p4110
aV Dave
p4111
aV Dave
p4112
aV Dave
p4113
aV Dave
p4114
aV Dave
p4115
aV Matthew
p4116
ag129
ag129
ag129
ag129
ag129
ag129
ag129
aV Deena
p4117
aV Deena
p4118
aV Deena
p4119
aV Deena
p4120
aV Deena
p4121
aV Alex
p4122
aV Deena
p4123
aV Alex
p4124
ag129
ag129
ag129
ag129
ag129
ag129
ag129
ag129
aV Matthew
p4125
aV Alex
p4126
aV Alex
p4127
aV Alex
p4128
aV Matthew
p4129
aV Alex
p4130
aV Matthew
p4131
ag129
ag129
ag129
ag129
ag129
ag129
ag129
ag129
ag129
aV Christy
p4132
aV Christy
p4133
aV Christy
p4134
aV Jenna
p4135
aV Christy
p4136
aV Jenna
p4137
ag129
ag129
ag129
ag129
ag129
ag129
ag129
ag129
ag129
ag129
aV Rob
p4138
aV Heidi
p4139
aV Heidi
p4140
aV Heidi
p4141
aV Rob
p4142
ag129
ag129
ag129
ag129
ag129
ag129
ag129
ag129
ag129
ag129
ag129
aV Butch
p4143
aV Butch
p4144
aV Butch
p4145
aV Rob
p4146
ag129
ag129
ag129
ag129
ag129
ag129
ag129
ag129
ag129
ag129
ag129
ag129
aV Rob
p4147
aV \u2014
p4148
aV \u2014
p4149
ag129
ag129
ag129
ag129
ag129
ag129
ag129
ag129
ag129
ag129
ag129
ag129
ag129
ag319
ag319
ag129
aV Matthew
p4150
ag129
ag129
ag129
ag129
ag129
ag129
ag129
ag129
ag129
ag129
ag129
ag129
ag319
ag319
aV Jenna
p4151
ag129
aV Jenna
p4152
aV Jenna
p4153
aV Jenna
p4154
aV Jenna
p4155
aV Jenna
p4156
ag129
ag129
ag129
ag129
ag129
ag129
ag129
atp4157
ba(lp4158
g21
(g22
(dp4159
g24
g25
(g26
(I0
tp4160
g28
tp4161
Rp4162
(I1
(L16L
tp4163
g35
I00
(lp4164
g3964
ag3965
ag3966
ag3967
ag3968
ag3969
ag3970
ag3971
ag3972
ag3973
ag3974
ag3975
ag3976
ag3977
ag3978
ag3979
atp4165
bsg63
Nstp4166
Rp4167
a(dp4168
g339
(dp4169
g341
g3957
sg342
(lp4170
(dp4171
g345
g346
(I0
I16
I1
tp4172
Rp4173
sg349
g4014
sasstp4174
bsbsg351
I6
ssVCagayan
p4175
(dp4176
g3
Vhttp://survivor.wikia.com/wiki/Survivor:_Cagayan
p4177
sg5
g6
(g7
g8
Ntp4178
Rp4179
(dp4180
g12
g13
sg14
g15
sg16
g6
(g17
g8
Ntp4181
Rp4182
((lp4183
g21
(g22
(dp4184
g24
g25
(g26
(I0
tp4185
g28
tp4186
Rp4187
(I1
(L19L
tp4188
g35
I00
(lp4189
VDavid
p4190
aVGarrett
p4191
aVBrice
p4192
aVBrice
p4193
aVJ'Tia
p4194
aVCliff
p4195
aVLindsey
p4196
aVAlexis
p4197
aVSarah
p4198
aVMorgan
p4199
aVLJ
p4200
aVJeremiah
p4201
aVJefra
p4202
aVTasha
p4203
aVTrish
p4204
aVSpencer
p4205
aVKass
p4206
aVWoo
p4207
aVTony
p4208
atp4209
bsg63
Nstp4210
Rp4211
ag21
(g22
(dp4212
g24
g25
(g26
(I0
tp4213
g28
tp4214
Rp4215
(I1
(L18L
tp4216
g35
I00
(lp4217
VTony
p4218
aVWoo
p4219
aVKass
p4220
aVSpencer
p4221
aVTrish
p4222
aVTasha
p4223
aVJefra
p4224
aVJeremiah
p4225
aVLJ
p4226
aVMorgan
p4227
aVSarah
p4228
aVAlexis
p4229
aVLindsey
p4230
aVCliff
p4231
aVJ'Tia
p4232
aVBrice
p4233
aVGarrett
p4234
aVDavid
p4235
atp4236
bsg63
g93
(g96
S'\x01\x00\x00\x00\x00\x00\x00\x00'
p4237
tp4238
Rp4239
stp4240
Rp4241
a(lp4242
g25
(g26
(I0
tp4243
g28
tp4244
Rp4245
(I1
(L19L
L18L
tp4246
g35
I00
(lp4247
V \u2014
p4248
aV \u2014
p4249
aV J'Tia
p4250
aV David
p4251
aV \u2014
p4252
aV David
p4253
aV \u2014
p4254
aV \u2014
p4255
aV \u2014
p4256
aV \u2014
p4257
aV \u2014
p4258
aV \u2014
p4259
aV \u2014
p4260
aV \u2014
p4261
aV David
p4262
aV \u2014
p4263
aV David
p4264
aV J'Tia
p4265
aV \u2014
p4266
aV \u2014
p4267
aV Garrett
p4268
aV J'Tia
p4269
aV \u2014
p4270
aV Garrett
p4271
aV \u2014
p4272
aV \u2014
p4273
aV \u2014
p4274
aV \u2014
p4275
aV \u2014
p4276
aV \u2014
p4277
aV \u2014
p4278
aV \u2014
p4279
aV Garrett
p4280
aV \u2014
p4281
aV J'Tia
p4282
ag129
aV \u2014
p4283
aV \u2014
p4284
aV \u2014
p4285
aV \u2014
p4286
aV \u2014
p4287
aV \u2014
p4288
aV Brice
p4289
aV Morgan
p4290
aV Morgan
p4291
aV Alexis
p4292
aV \u2014
p4293
aV Brice
p4294
aV \u2014
p4295
aV \u2014
p4296
aV \u2014
p4297
aV Alexis
p4298
ag129
ag129
ag4283
ag4284
ag4285
ag4286
ag4287
ag4288
aV Brice
p4299
aV Brice
p4300
aV Brice
p4301
aV None
p4302
ag4293
aV None
p4303
ag4295
ag4296
ag4297
aV None
p4304
ag129
ag129
aV \u2014
p4305
aV \u2014
p4306
aV J'Tia
p4307
aV J'Tia
p4308
aV \u2014
p4309
aV J'Tia
p4310
aV \u2014
p4311
aV \u2014
p4312
aV \u2014
p4313
aV \u2014
p4314
aV \u2014
p4315
aV \u2014
p4316
aV \u2014
p4317
aV \u2014
p4318
aV Spencer
p4319
ag129
ag129
ag129
aV Cliff
p4320
aV LJ
p4321
aV \u2014
p4322
aV \u2014
p4323
aV Cliff
p4324
aV \u2014
p4325
aV Cliff
p4326
aV \u2014
p4327
aV Cliff
p4328
aV \u2014
p4329
aV \u2014
p4330
aV \u2014
p4331
aV LJ
p4332
aV LJ
p4333
ag129
ag129
ag129
ag129
aV\u2014
p4334
aV\u2014
p4335
aV \u2014
p4336
aV \u2014
p4337
aV\u2014
p4338
aV \u2014
p4339
aV\u2014
p4340
aV \u2014
p4341
aV\u2014
p4342
aV \u2014
p4343
aV \u2014
p4344
aV \u2014
p4345
aV Quit
p4346
ag129
ag129
ag129
ag129
ag129
ag4334
ag4335
aV Alexis
p4347
aV Alexis
p4348
ag4338
aV Alexis
p4349
ag4340
aV Alexis
p4350
ag4342
aV Alexis
p4351
aV Alexis
p4352
aV Jeremiah
p4353
ag129
ag129
ag129
ag129
ag129
ag129
aV Sarah
p4354
aV Sarah
p4355
aV Sarah
p4356
aV Jefra
p4357
aV Sarah
p4358
aV Jefra
p4359
aV Sarah
p4360
aV Jefra
p4361
aV Sarah
p4362
aV Jefra
p4363
aV Jefra
p4364
ag129
ag129
ag129
ag129
ag129
ag129
ag129
aV Morgan
p4365
aV Morgan
p4366
aV Morgan
p4367
aV Tony
p4368
aV Morgan
p4369
aV Tony
p4370
aV Morgan
p4371
aV Tony
p4372
aV Morgan
p4373
aV Tony
p4374
ag129
ag129
ag129
ag129
ag129
ag129
ag129
ag129
aV LJ
p4375
aV LJ
p4376
aV Jeremiah
p4377
aV LJ
p4378
aV Jeremiah
p4379
aV LJ
p4380
aV Jeremiah
p4381
aV LJ
p4382
aV Spencer
p4383
ag129
ag129
ag129
ag129
ag129
ag129
ag129
ag129
ag129
aV Jeremiah
p4384
aV Jeremiah
p4385
aV Jeremiah
p4386
aV Woo
p4387
aV Jeremiah
p4388
aV Woo
p4389
aV Jeremiah
p4390
aV Woo
p4391
ag129
ag129
ag129
ag129
ag129
ag129
ag129
ag129
ag129
ag129
aV Jefra
p4392
aV Jefra
p4393
aV Spencer
p4394
aV Jefra
p4395
aV Spencer
p4396
aV Jefra
p4397
aV Spencer
p4398
ag129
ag129
ag129
ag129
ag129
ag129
ag129
ag129
ag129
ag129
ag129
aV Tasha
p4399
aV Tasha
p4400
aV Tasha
p4401
aV Tony
p4402
aV Tasha
p4403
aV Trish
p4404
ag129
ag129
ag129
ag129
ag129
ag129
ag129
ag129
ag129
ag129
ag129
ag129
aV Trish
p4405
aV Trish
p4406
aV Trish
p4407
aV Trish
p4408
aV Kass
p4409
ag129
ag129
ag129
ag129
ag129
ag129
ag129
ag129
ag129
ag129
ag129
ag129
ag129
aV Spencer
p4410
aV Spencer
p4411
aV Spencer
p4412
aV Woo
p4413
ag129
ag129
ag129
ag129
ag129
ag129
ag129
ag129
ag129
ag129
ag129
ag129
ag129
ag129
aV \u2014
p4414
aV Kass
p4415
aV \u2014
p4416
ag129
ag129
ag129
ag129
ag129
ag129
ag129
ag129
ag129
ag129
ag129
ag129
ag129
ag129
ag129
ag319
ag319
ag129
ag129
ag129
aV Woo
p4417
ag129
ag129
ag129
ag129
ag129
ag129
ag129
ag129
ag129
ag129
ag129
ag129
ag319
ag319
aV Tony
p4418
aV Tony
p4419
aV Tony
p4420
ag129
aV Tony
p4421
aV Tony
p4422
aV Tony
p4423
aV Tony
p4424
aV Tony
p4425
ag129
ag129
ag129
ag129
ag129
ag129
ag129
atp4426
ba(lp4427
g21
(g22
(dp4428
g24
g25
(g26
(I0
tp4429
g28
tp4430
Rp4431
(I1
(L19L
tp4432
g35
I00
(lp4433
g4190
ag4191
ag4192
ag4193
ag4194
ag4195
ag4196
ag4197
ag4198
ag4199
ag4200
ag4201
ag4202
ag4203
ag4204
ag4205
ag4206
ag4207
ag4208
atp4434
bsg63
Nstp4435
Rp4436
a(dp4437
g339
(dp4438
g341
g4183
sg342
(lp4439
(dp4440
g345
g346
(I0
I19
I1
tp4441
Rp4442
sg349
g4245
sasstp4443
bsbsg351
I28
ssVSouth_Pacific
p4444
(dp4445
g3
Vhttp://survivor.wikia.com/wiki/Survivor:_South_Pacific
p4446
sg5
g6
(g7
g8
Ntp4447
Rp4448
(dp4449
g12
g13
sg14
g15
sg16
g6
(g17
g8
Ntp4450
Rp4451
((lp4452
g21
(g22
(dp4453
g24
g25
(g26
(I0
tp4454
g28
tp4455
Rp4456
(I1
(L21L
tp4457
g35
I00
(lp4458
VSemhar
p4459
aVChristine
p4460
aVMark
p4461
aVStacey
p4462
aVElyse
p4463
aVMikayla
p4464
aVOzzy
p4465
aVKeith
p4466
aVKeith
p4467
aVOzzy
p4468
aVJim
p4469
aVDawn
p4470
aVWhitney
p4471
aVCochran
p4472
aVEdna
p4473
aVBrandon
p4474
aVRick
p4475
aVOzzy
p4476
aVAlbert
p4477
aVCoach
p4478
aVSophie
p4479
atp4480
bsg63
Nstp4481
Rp4482
ag21
(g22
(dp4483
g24
g25
(g26
(I0
tp4484
g28
tp4485
Rp4486
(I1
(L18L
tp4487
g35
I00
(lp4488
VSophie
p4489
aVCoach
p4490
aVAlbert
p4491
aVOzzy
p4492
aVRick
p4493
aVBrandon
p4494
aVEdna
p4495
aVCochran
p4496
aVWhitney
p4497
aVDawn
p4498
aVKeith
p4499
aVJim
p4500
aVChristine
p4501
aVMikayla
p4502
aVElyse
p4503
aVStacey
p4504
aVMark
p4505
aVSemhar
p4506
atp4507
bsg63
g93
(g96
S'\x01\x00\x00\x00\x00\x00\x00\x00'
p4508
tp4509
Rp4510
stp4511
Rp4512
a(lp4513
g25
(g26
(I0
tp4514
g28
tp4515
Rp4516
(I1
(L21L
L18L
tp4517
g35
I00
(lp4518
V \u2014
p4519
aV \u2014
p4520
aV \u2014
p4521
aV Semhar
p4522
aV \u2014
p4523
aV \u2014
p4524
aV \u2014
p4525
aV Semhar
p4526
aV Semhar
p4527
aV Semhar
p4528
aV Semhar
p4529
aV Semhar
p4530
aV \u2014
p4531
aV \u2014
p4532
aV Semhar
p4533
aV \u2014
p4534
aV Semhar
p4535
aV Cochran
p4536
aV Stacey
p4537
aV Christine
p4538
aV Christine
p4539
aV \u2014
p4540
aV Stacey
p4541
aV Christine
p4542
aV Stacey
p4543
aV \u2014
p4544
aV \u2014
p4545
aV \u2014
p4546
aV \u2014
p4547
aV \u2014
p4548
aV Edna
p4549
aV Christine
p4550
aV \u2014
p4551
aV Sophie
p4552
aV \u2014
p4553
aV 
p4554
aV \u2014
p4555
aV \u2014
p4556
aV \u2014
p4557
aV Mark
p4558
aV \u2014
p4559
aV \u2014
p4560
aV \u2014
p4561
aV Mark
p4562
aV Mark
p4563
aV Mark
p4564
aV Mark
p4565
aV Cochran
p4566
ag4554
aV \u2014
p4567
aV Mark
p4568
aV \u2014
p4569
aV Jim
p4570
ag4554
aV Stacey
p4571
aV Stacey
p4572
aV Stacey
p4573
aV \u2014
p4574
aV Stacey
p4575
aV Stacey
p4576
aV Stacey
p4577
aV \u2014
p4578
aV \u2014
p4579
aV \u2014
p4580
aV \u2014
p4581
aV \u2014
p4582
ag4554
aV Stacey
p4583
aV \u2014
p4584
aV Edna
p4585
ag4554
ag129
aV \u2014
p4586
aV \u2014
p4587
aV \u2014
p4588
aV Cochran
p4589
aV \u2014
p4590
aV \u2014
p4591
aV \u2014
p4592
aV Elyse
p4593
aV Dawn
p4594
aV Elyse
p4595
aV Dawn
p4596
aV Elyse
p4597
ag4554
aV \u2014
p4598
aV Cochran
p4599
ag4554
ag129
ag129
aV Edna
p4600
aV Mikayla
p4601
aV Edna
p4602
aV \u2014
p4603
aV Mikayla
p4604
aV Mikayla
p4605
aV Mikayla
p4606
aV \u2014
p4607
aV \u2014
p4608
aV \u2014
p4609
aV \u2014
p4610
aV \u2014
p4611
ag4554
aV Edna
p4612
ag4554
ag129
ag129
ag129
aV \u2014
p4613
aV \u2014
p4614
aV \u2014
p4615
aV Cochran
p4616
aV \u2014
p4617
aV \u2014
p4618
aV \u2014
p4619
aV Ozzy
p4620
aV Ozzy
p4621
aV Ozzy
p4622
aV Ozzy
p4623
aV Ozzy
p4624
ag4554
ag4554
ag129
ag129
ag129
ag129
aV Keith
p4625
aV Keith
p4626
aV Keith
p4627
aV Rick
p4628
aV Keith
p4629
aV Keith
p4630
aV Keith
p4631
aV Rick
p4632
aV Rick
p4633
aV Rick
p4634
aV Rick
p4635
aV Rick
p4636
ag4554
ag129
ag129
ag129
ag129
ag129
aV Keith
p4637
aV Keith
p4638
aV Keith
p4639
aV Rick
p4640
aVNone
p4641
aV Keith
p4642
aV Keith
p4643
aV Keith
p4644
aV Rick
p4645
aV Rick
p4646
aVNone
p4647
aV Rick
p4648
ag4554
ag129
ag129
ag129
ag129
ag129
aV Ozzy
p4649
aV Ozzy
p4650
aV Ozzy
p4651
aV Cochran
p4652
aV Ozzy
p4653
aV Ozzy
p4654
aV Ozzy
p4655
aV Ozzy
p4656
aV Ozzy
p4657
aV Ozzy
p4658
ag4554
aV Cochran
p4659
ag129
ag129
ag129
ag129
ag129
ag129
aV Jim
p4660
aV Jim
p4661
aV Jim
p4662
ag4554
aV Jim
p4663
aV Jim
p4664
aV Jim
p4665
aV Jim
p4666
aV Edna
p4667
aV Edna
p4668
ag4554
aV Edna
p4669
ag129
ag129
ag129
ag129
ag129
ag129
aV Dawn
p4670
aV Dawn
p4671
aV Dawn
p4672
ag4554
aV Dawn
p4673
aV Dawn
p4674
aV Dawn
p4675
aV Dawn
p4676
aV Edna
p4677
aV Edna
p4678
ag4554
ag4554
ag129
ag129
ag129
ag129
ag129
ag129
aV Whitney
p4679
aV Whitney
p4680
aV Whitney
p4681
ag4554
aV Whitney
p4682
aV Whitney
p4683
aV Whitney
p4684
aV Whitney
p4685
aV Cochran
p4686
ag4554
ag129
ag129
ag129
ag129
ag129
ag129
ag129
ag129
aV Cochran
p4687
aV Cochran
p4688
aV Cochran
p4689
ag4554
aV Cochran
p4690
aV Cochran
p4691
aV Rick
p4692
aV Rick
p4693
ag4554
ag4554
ag129
ag129
ag129
ag129
ag129
ag129
ag129
ag129
aV Edna
p4694
aV Edna
p4695
aV Edna
p4696
ag4554
aV Edna
p4697
aV Edna
p4698
aV Brandon
p4699
ag4554
ag129
ag129
ag129
ag129
ag129
ag129
ag129
ag129
ag129
ag129
aV Brandon
p4700
aV Brandon
p4701
aV Sophie
p4702
ag4554
aV Brandon
p4703
aV Sophie
p4704
ag4554
ag129
ag129
ag129
ag129
ag129
ag129
ag129
ag129
ag129
ag129
ag129
aV Rick
p4705
aV Rick
p4706
aV Rick
p4707
aV Sophie
p4708
aV Sophie
p4709
ag4554
ag129
ag129
ag129
ag129
ag129
ag129
ag129
ag129
ag129
ag129
ag129
ag129
aV Ozzy
p4710
aV Ozzy
p4711
aV Ozzy
p4712
aV Albert
p4713
ag129
ag129
ag129
ag129
ag129
ag129
ag129
ag129
ag129
ag129
ag129
ag129
ag129
ag129
ag319
ag319
ag319
ag129
ag129
ag129
ag129
ag129
ag129
ag129
ag129
ag129
ag129
ag129
ag129
ag129
ag129
ag129
ag319
ag319
ag319
ag129
aV Coach
p4714
ag129
aV Coach
p4715
aV Coach
p4716
ag129
ag129
ag129
ag129
ag129
ag129
ag129
ag129
ag129
ag129
ag319
ag319
ag319
aV Sophie
p4717
ag129
aV Sophie
p4718
ag129
ag129
aV Sophie
p4719
aV Sophie
p4720
aV Sophie
p4721
aV Sophie
p4722
ag129
ag129
ag129
ag129
ag129
ag129
atp4723
ba(lp4724
g21
(g22
(dp4725
g24
g25
(g26
(I0
tp4726
g28
tp4727
Rp4728
(I1
(L21L
tp4729
g35
I00
(lp4730
g4459
ag4460
ag4461
ag4462
ag4463
ag4464
ag4465
ag4466
ag4467
ag4468
ag4469
ag4470
ag4471
ag4472
ag4473
ag4474
ag4475
ag4476
ag4477
ag4478
ag4479
atp4731
bsg63
Nstp4732
Rp4733
a(dp4734
g339
(dp4735
g341
g4452
sg342
(lp4736
(dp4737
g345
g346
(I0
I21
I1
tp4738
Rp4739
sg349
g4516
sasstp4740
bsbsg351
I23
ssVOne_World
p4741
(dp4742
g3
Vhttp://survivor.wikia.com/wiki/Survivor:_One_World
p4743
sg5
g6
(g7
g8
Ntp4744
Rp4745
(dp4746
g12
g13
sg14
g15
sg16
g6
(g17
g8
Ntp4747
Rp4748
((lp4749
g21
(g22
(dp4750
g24
g25
(g26
(I0
tp4751
g28
tp4752
Rp4753
(I1
(L18L
tp4754
g35
I00
(lp4755
VKourtney
p4756
aVNina
p4757
aVMatt
p4758
aVBill
p4759
aVMonica
p4760
aVColton
p4761
aVJonas
p4762
aVMichael
p4763
aVJay
p4764
aVLeif
p4765
aVTroyzan
p4766
aVKat
p4767
aVTarzan
p4768
aVAlicia
p4769
aVChristina
p4770
aVChelsea
p4771
aVSabrina
p4772
aVKim
p4773
atp4774
bsg63
Nstp4775
Rp4776
ag21
(g22
(dp4777
g24
g25
(g26
(I0
tp4778
g28
tp4779
Rp4780
(I1
(L18L
tp4781
g35
I00
(lp4782
VKim
p4783
aVSabrina
p4784
aVChelsea
p4785
aVChristina
p4786
aVAlicia
p4787
aVTarzan
p4788
aVKat
p4789
aVTroyzan
p4790
aVLeif
p4791
aVJay
p4792
aVMichael
p4793
aVJonas
p4794
aVColton
p4795
aVMonica
p4796
aVBill
p4797
aVMatt
p4798
aVNina
p4799
aVKourtney
p4800
atp4801
bsg63
g93
(g96
S'\x01\x00\x00\x00\x00\x00\x00\x00'
p4802
tp4803
Rp4804
stp4805
Rp4806
a(lp4807
g25
(g26
(I0
tp4808
g28
tp4809
Rp4810
(I1
(L18L
L18L
tp4811
g35
I00
(lp4812
V \u2014
p4813
aV \u2014
p4814
aV \u2014
p4815
aV \u2014
p4816
aV \u2014
p4817
aV \u2014
p4818
aV \u2014
p4819
aV \u2014
p4820
aV \u2014
p4821
aV \u2014
p4822
aV \u2014
p4823
aV \u2014
p4824
aV \u2014
p4825
aV \u2014
p4826
aV \u2014
p4827
aV \u2014
p4828
aV \u2014
p4829
aVEvacuated
p4830
aV Nina
p4831
aV Nina
p4832
aV Nina
p4833
aV Nina
p4834
aV Nina
p4835
aV \u2014
p4836
aV Nina
p4837
aV \u2014
p4838
aV \u2014
p4839
aV \u2014
p4840
aV \u2014
p4841
aV \u2014
p4842
aV \u2014
p4843
aV Christina
p4844
aV \u2014
p4845
aV \u2014
p4846
aV Kat
p4847
ag129
aV \u2014
p4848
aV \u2014
p4849
aV \u2014
p4850
aV \u2014
p4851
aV \u2014
p4852
aV Matt
p4853
aV \u2014
p4854
aV Matt
p4855
aV Matt
p4856
aV Matt
p4857
aV Bill
p4858
aV Matt
p4859
aV Matt
p4860
aV \u2014
p4861
aV Matt
p4862
aV Colton
p4863
ag129
ag129
aV \u2014
p4864
aV \u2014
p4865
aV \u2014
p4866
aV \u2014
p4867
aV \u2014
p4868
aV Bill
p4869
aV \u2014
p4870
aV Bill
p4871
aV Bill
p4872
aV Bill
p4873
aV Bill
p4874
aV Bill
p4875
aV Bill
p4876
aV \u2014
p4877
aV Leif
p4878
ag129
ag129
ag129
aV \u2014
p4879
aV \u2014
p4880
aV \u2014
p4881
aV Tarzan
p4882
aV Monica
p4883
aV Monica
p4884
aV \u2014
p4885
aV \u2014
p4886
aV Monica
p4887
aV \u2014
p4888
aV \u2014
p4889
aV Monica
p4890
aV Monica
p4891
aV Tarzan
p4892
ag129
ag129
ag129
ag129
aV \u2014
p4893
aV \u2014
p4894
aV \u2014
p4895
aV \u2014
p4896
aV\u2014
p4897
aV \u2014
p4898
aV \u2014
p4899
aV \u2014
p4900
aV \u2014
p4901
aV \u2014
p4902
aV \u2014
p4903
aV \u2014
p4904
aVEvacuated
p4905
ag129
ag129
ag129
ag129
ag129
aV Jonas
p4906
aV Jonas
p4907
aV Jonas
p4908
aV Jonas
p4909
aV Jonas
p4910
aV Jonas
p4911
aV Jonas
p4912
aV Jonas
p4913
aV Michael
p4914
aV Jonas
p4915
aV Jonas
p4916
aV Michael
p4917
ag129
ag129
ag129
ag129
ag129
ag129
aV Michael
p4918
aV Michael
p4919
aV Michael
p4920
aV Tarzan
p4921
aV Tarzan
p4922
aV Christina
p4923
aV Michael
p4924
aV Michael
p4925
aV Michael
p4926
aV Michael
p4927
aV Christina
p4928
ag129
ag129
ag129
ag129
ag129
ag129
ag129
aV Jay
p4929
aV Jay
p4930
aV Troyzan
p4931
aV Jay
p4932
aV Jay
p4933
aV Jay
p4934
aV Troyzan
p4935
aV Kim
p4936
aV Alicia
p4937
aV Alicia
p4938
ag129
ag129
ag129
ag129
ag129
ag129
ag129
ag129
aV Tarzan
p4939
aV Leif
p4940
aV Leif
p4941
aV Tarzan
p4942
aV Tarzan
p4943
aV Leif
p4944
aV Leif
p4945
aV Kim
p4946
aV Kim
p4947
ag129
ag129
ag129
ag129
ag129
ag129
ag129
ag129
ag129
aV Troyzan
p4948
aV Christina
p4949
aV Troyzan
p4950
aV Chelsea
p4951
aV Troyzan
p4952
aV Christina
p4953
aV Troyzan
p4954
aV Christina
p4955
ag129
ag129
ag129
ag129
ag129
ag129
ag129
ag129
ag129
ag129
aV Kat
p4956
aV Kat
p4957
aV Kat
p4958
aV Kat
p4959
aV Kat
p4960
aV Kat
p4961
aV Sabrina
p4962
ag129
ag129
ag129
ag129
ag129
ag129
ag129
ag129
ag129
ag129
ag129
aV Tarzan
p4963
aV Tarzan
p4964
aV Tarzan
p4965
aV Tarzan
p4966
aV Tarzan
p4967
aV Chelsea
p4968
ag129
ag129
ag129
ag129
ag129
ag129
ag129
ag129
ag129
ag129
ag129
ag129
aV Alicia
p4969
aV Alicia
p4970
aV Alicia
p4971
aV Chelsea
p4972
aV Chelsea
p4973
ag129
ag129
ag129
ag129
ag129
ag129
ag129
ag129
ag129
ag129
ag129
ag129
ag129
aV Christina
p4974
aV Christina
p4975
aV Christina
p4976
aV Sabrina
p4977
ag129
ag129
ag129
ag129
ag129
ag129
ag129
ag129
ag129
ag129
ag129
ag129
ag129
ag129
ag319
ag319
ag319
ag129
ag129
ag129
ag129
ag129
ag129
ag129
ag129
ag129
ag129
ag129
ag129
ag129
ag129
ag129
ag319
ag319
ag319
ag129
ag129
ag129
ag129
aV Sabrina
p4978
aV Sabrina
p4979
ag129
ag129
ag129
ag129
ag129
ag129
ag129
ag129
ag129
ag319
ag319
ag319
aV Kim
p4980
aV Kim
p4981
aV Kim
p4982
aV Kim
p4983
ag129
ag129
aV Kim
p4984
aV Kim
p4985
aV Kim
p4986
ag129
ag129
ag129
ag129
ag129
ag129
atp4987
ba(lp4988
g21
(g22
(dp4989
g24
g25
(g26
(I0
tp4990
g28
tp4991
Rp4992
(I1
(L18L
tp4993
g35
I00
(lp4994
g4756
ag4757
ag4758
ag4759
ag4760
ag4761
ag4762
ag4763
ag4764
ag4765
ag4766
ag4767
ag4768
ag4769
ag4770
ag4771
ag4772
ag4773
atp4995
bsg63
Nstp4996
Rp4997
a(dp4998
g339
(dp4999
g341
g4749
sg342
(lp5000
(dp5001
g345
g346
(I0
I18
I1
tp5002
Rp5003
sg349
g4810
sasstp5004
bsbsg351
I24
ssVPhilippines
p5005
(dp5006
g3
Vhttp://survivor.wikia.com/wiki/Survivor:_Philippines
p5007
sg5
g6
(g7
g8
Ntp5008
Rp5009
(dp5010
g12
g13
sg14
g15
sg16
g6
(g17
g8
Ntp5011
Rp5012
((lp5013
g21
(g22
(dp5014
g24
g25
(g26
(I0
tp5015
g28
tp5016
Rp5017
(I1
(L18L
tp5018
g35
I00
(lp5019
VZane
p5020
aVRoxanne
p5021
aVAngie
p5022
aVRussell
p5023
aVDana
p5024
aVDawson
p5025
aVKatie
p5026
aVR.C.
p5027
aVJeff
p5028
aVArtis
p5029
aVPete
p5030
aVJonathan
p5031
aVCarter
p5032
aVAbi-Maria
p5033
aVMalcolm
p5034
aVMichael
p5035
aVLisa
p5036
aVDenise
p5037
atp5038
bsg63
Nstp5039
Rp5040
ag21
(g22
(dp5041
g24
g25
(g26
(I0
tp5042
g28
tp5043
Rp5044
(I1
(L18L
tp5045
g35
I00
(lp5046
VDenise
p5047
aVLisa
p5048
aVMichael
p5049
aVMalcolm
p5050
aVAbi-Maria
p5051
aVCarter
p5052
aVJonathan
p5053
aVPete
p5054
aVArtis
p5055
aVJeff
p5056
aVR.C.
p5057
aVKatie
p5058
aVDawson
p5059
aVDana
p5060
aVRussell
p5061
aVAngie
p5062
aVRoxanne
p5063
aVZane
p5064
atp5065
bsg63
g93
(g96
S'\x01\x00\x00\x00\x00\x00\x00\x00'
p5066
tp5067
Rp5068
stp5069
Rp5070
a(lp5071
g25
(g26
(I0
tp5072
g28
tp5073
Rp5074
(I1
(L18L
L18L
tp5075
g35
I00
(lp5076
V Zane
p5077
aV \u2014
p5078
aV \u2014
p5079
aV Zane
p5080
aV \u2014
p5081
aV \u2014
p5082
aV \u2014
p5083
aV \u2014
p5084
aV \u2014
p5085
aV \u2014
p5086
aV \u2014
p5087
aV \u2014
p5088
aV \u2014
p5089
aV \u2014
p5090
aV Zane
p5091
aV Zane
p5092
aV Zane
p5093
aV Russell
p5094
aV Roxanne
p5095
aV \u2014
p5096
aV \u2014
p5097
aV Roxanne
p5098
aV \u2014
p5099
aV \u2014
p5100
aV \u2014
p5101
aV \u2014
p5102
aV \u2014
p5103
aV \u2014
p5104
aV \u2014
p5105
aV \u2014
p5106
aV \u2014
p5107
aV \u2014
p5108
aV Roxanne
p5109
aV Roxanne
p5110
aV Angie
p5111
ag129
aV Angie
p5112
aV \u2014
p5113
aV \u2014
p5114
aV Angie
p5115
aV \u2014
p5116
aV \u2014
p5117
aV \u2014
p5118
aV \u2014
p5119
aV \u2014
p5120
aV \u2014
p5121
aV \u2014
p5122
aV \u2014
p5123
aV \u2014
p5124
aV \u2014
p5125
aV Angie
p5126
aV Russell
p5127
ag129
ag129
aV Russell
p5128
aV \u2014
p5129
aV \u2014
p5130
aV Russell
p5131
aV \u2014
p5132
aV \u2014
p5133
aV \u2014
p5134
aV \u2014
p5135
aV \u2014
p5136
aV \u2014
p5137
aV \u2014
p5138
aV \u2014
p5139
aV \u2014
p5140
aV \u2014
p5141
aV Malcolm
p5142
ag129
ag129
ag129
aV \u2014
p5143
aV \u2014
p5144
aV \u2014
p5145
aV \u2014
p5146
aV \u2014
p5147
aV \u2014
p5148
aV \u2014
p5149
aV \u2014
p5150
aV \u2014
p5151
aV \u2014
p5152
aV \u2014
p5153
aV \u2014
p5154
aV \u2014
p5155
aVQuit
p5156
ag129
ag129
ag129
ag129
aV Dawson
p5157
aV \u2014
p5158
aV \u2014
p5159
aV \u2014
p5160
aV \u2014
p5161
aV Dawson
p5162
aV Dawson
p5163
aV \u2014
p5164
aV \u2014
p5165
aV Dawson
p5166
aV \u2014
p5167
aV Dawson
p5168
aV Denise
p5169
ag129
ag129
ag129
ag129
ag129
aV Katie
p5170
aV \u2014
p5171
aV \u2014
p5172
aV \u2014
p5173
aV \u2014
p5174
aV Katie
p5175
aV Katie
p5176
aV \u2014
p5177
aV \u2014
p5178
aV Katie
p5179
aV \u2014
p5180
aV Jonathan
p5181
ag129
ag129
ag129
ag129
ag129
ag129
aV Jonathan
p5182
aV Jonathan
p5183
aV Jonathan
p5184
aV Jonathan
p5185
aV Jonathan
p5186
aV R.C.
p5187
aV Pete
p5188
aV R.C.
p5189
aV R.C.
p5190
aV R.C.
p5191
aV Pete
p5192
ag129
ag129
ag129
ag129
ag129
ag129
ag129
aV Pete
p5193
aV Jeff
p5194
aV Jeff
p5195
aV Pete
p5196
aV Jeff
p5197
aV Pete
p5198
aV Abi-Maria
p5199
aV Jeff
p5200
aV Jeff
p5201
aV Pete
p5202
ag129
ag129
ag129
ag129
ag129
ag129
ag129
ag129
aV Artis
p5203
aV Jonathan
p5204
aV Artis
p5205
aV Artis
p5206
aV Jonathan
p5207
aV Artis
p5208
aV Artis
p5209
aV Jonathan
p5210
aV Jonathan
p5211
ag129
ag129
ag129
ag129
ag129
ag129
ag129
ag129
ag129
aV Abi-Maria
p5212
aV Abi-Maria
p5213
aV Abi-Maria
p5214
aV Pete
p5215
aV Malcolm
p5216
aV Pete
p5217
aV Pete
p5218
aV Malcolm
p5219
ag129
ag129
ag129
ag129
ag129
ag129
ag129
ag129
ag129
ag129
aV Jonathan
p5220
aV Jonathan
p5221
aV Jonathan
p5222
aV Jonathan
p5223
aV Denise
p5224
aV Denise
p5225
aV Denise
p5226
ag129
ag129
ag129
ag129
ag129
ag129
ag129
ag129
ag129
ag129
ag129
aV Carter
p5227
aV Carter
p5228
aV Carter
p5229
aV Carter
p5230
aV Carter
p5231
aV Abi-Maria
p5232
ag129
ag129
ag129
ag129
ag129
ag129
ag129
ag129
ag129
ag129
ag129
ag129
aV Abi-Maria
p5233
aV Abi-Maria
p5234
aV Abi-Maria
p5235
aV Abi-Maria
p5236
aV Denise
p5237
ag129
ag129
ag129
ag129
ag129
ag129
ag129
ag129
ag129
ag129
ag129
ag129
ag129
aV Malcolm
p5238
aV Malcolm
p5239
aV Malcolm
p5240
aV Denise
p5241
ag129
ag129
ag129
ag129
ag129
ag129
ag129
ag129
ag129
ag129
ag129
ag129
ag129
ag129
ag319
ag319
ag319
ag129
ag129
aV Michael
p5242
ag129
ag129
ag129
ag129
ag129
ag129
ag129
ag129
ag129
ag129
ag129
ag129
ag319
ag319
ag319
ag129
ag129
ag129
ag129
ag129
ag129
ag129
aV Lisa
p5243
ag129
ag129
ag129
ag129
ag129
ag129
ag129
ag319
ag319
ag319
aV Denise
p5244
aV Denise
p5245
ag129
aV Denise
p5246
aV Denise
p5247
aV Denise
p5248
aV Denise
p5249
ag129
ag129
ag129
ag129
ag129
ag129
ag129
ag129
atp5250
ba(lp5251
g21
(g22
(dp5252
g24
g25
(g26
(I0
tp5253
g28
tp5254
Rp5255
(I1
(L18L
tp5256
g35
I00
(lp5257
g5020
ag5021
ag5022
ag5023
ag5024
ag5025
ag5026
ag5027
ag5028
ag5029
ag5030
ag5031
ag5032
ag5033
ag5034
ag5035
ag5036
ag5037
atp5258
bsg63
Nstp5259
Rp5260
a(dp5261
g339
(dp5262
g341
g5013
sg342
(lp5263
(dp5264
g345
g346
(I0
I18
I1
tp5265
Rp5266
sg349
g5074
sasstp5267
bsbsg351
I25
ssVCaramoan
p5268
(dp5269
g3
Vhttp://survivor.wikia.com/wiki/Survivor:_Caramoan
p5270
sg5
g6
(g7
g8
Ntp5271
Rp5272
(dp5273
g12
g13
sg14
g15
sg16
g6
(g17
g8
Ntp5274
Rp5275
((lp5276
g21
(g22
(dp5277
g24
g25
(g26
(I0
tp5278
g28
tp5279
Rp5280
(I1
(L23L
tp5281
g35
I00
(lp5282
VFrancesca
p5283
aVAllie
p5284
aVHope
p5285
aVHope
p5286
aVShamar
p5287
aVLaura
p5288
aVBrandon
p5289
aVMatt
p5290
aVJulia
p5291
aVJulia
p5292
aVCorinne
p5293
aVMichael
p5294
aVPhillip
p5295
aVMalcolm
p5296
aVMalcolm
p5297
aVReynold
p5298
aVAndrea
p5299
aVBrenda
p5300
aVErik
p5301
aVEddie
p5302
aVSherri
p5303
aVDawn
p5304
aVCochran
p5305
atp5306
bsg63
Nstp5307
Rp5308
ag21
(g22
(dp5309
g24
g25
(g26
(I0
tp5310
g28
tp5311
Rp5312
(I1
(L20L
tp5313
g35
I00
(lp5314
V Cochran
p5315
aV Dawn
p5316
aV Sherri
p5317
aV Eddie
p5318
aV Erik
p5319
aV Brenda
p5320
aV Andrea
p5321
aV Reynold
p5322
aV Malcolm
p5323
aV Phillip
p5324
aV Michael
p5325
aV Corinne
p5326
aV Julia
p5327
aV Matt
p5328
aV Brandon
p5329
aV Laura
p5330
aV Shamar
p5331
aV Hope
p5332
aV Allie
p5333
aV Francesca
p5334
atp5335
bsg63
g93
(g96
S'\x01\x00\x00\x00\x00\x00\x00\x00'
p5336
tp5337
Rp5338
stp5339
Rp5340
a(lp5341
g25
(g26
(I0
tp5342
g28
tp5343
Rp5344
(I1
(L23L
L20L
tp5345
g35
I00
(lp5346
V Francesca
p5347
aV Francesca
p5348
aV \u2014
p5349
aV \u2014
p5350
aV Andrea
p5351
aV Andrea
p5352
aV Francesca
p5353
aV \u2014
p5354
aV Francesca
p5355
aV Francesca
p5356
aV \u2014
p5357
aV Francesca
p5358
aV \u2014
p5359
aV \u2014
p5360
aV Andrea
p5361
aV \u2014
p5362
aV \u2014
p5363
aV \u2014
p5364
aV \u2014
p5365
aV Andrea
p5366
aV \u2014
p5367
aV \u2014
p5368
aV Allie
p5369
aV Shamar
p5370
aV \u2014
p5371
aV \u2014
p5372
aV \u2014
p5373
aV Shamar
p5374
aV \u2014
p5375
aV \u2014
p5376
aV Allie
p5377
aV \u2014
p5378
aV Allie
p5379
aV Allie
p5380
aV \u2014
p5381
aV Allie
p5382
aV Allie
p5383
aV Shamar
p5384
aV Shamar
p5385
ag129
aV \u2014
p5386
aV \u2014
p5387
aV Hope
p5388
aV Shamar
p5389
aV \u2014
p5390
aV \u2014
p5391
aV \u2014
p5392
aV Shamar
p5393
aV \u2014
p5394
aV \u2014
p5395
aV Eddie
p5396
aV \u2014
p5397
aV Hope
p5398
aV Eddie
p5399
aV \u2014
p5400
aV Hope
p5401
aV Eddie
p5402
aV Shamar
p5403
ag129
ag129
ag5386
ag5387
aV Hope
p5404
aVNone
p5405
ag5390
ag5391
ag5392
aV Shamar
p5406
ag5394
ag5395
aV Hope
p5407
ag5397
aV Hope
p5408
aV Hope
p5409
ag5400
aV Hope
p5410
aVNone
p5411
aVNone
p5412
ag129
ag129
aV \u2014
p5413
aV \u2014
p5414
aV \u2014
p5415
aV \u2014
p5416
aV \u2014
p5417
aV \u2014
p5418
aV \u2014
p5419
aV \u2014
p5420
aV \u2014
p5421
aV \u2014
p5422
aV \u2014
p5423
aV \u2014
p5424
aV \u2014
p5425
aV \u2014
p5426
aV \u2014
p5427
aV \u2014
p5428
aVEvacuated
p5429
ag129
ag129
ag129
aV \u2014
p5430
aV \u2014
p5431
aV Laura
p5432
aV Laura
p5433
aV \u2014
p5434
aV \u2014
p5435
aV \u2014
p5436
aV Laura
p5437
aV \u2014
p5438
aV \u2014
p5439
aV Laura
p5440
aV \u2014
p5441
aV Laura
p5442
aV Laura
p5443
aV \u2014
p5444
aV Reynold
p5445
ag129
ag129
ag129
ag129
aV Brandon
p5446
aV Brandon
p5447
aV \u2014
p5448
aV \u2014
p5449
aV Brandon
p5450
aV Brandon
p5451
aV Brandon
p5452
aV \u2014
p5453
aV Brandon
p5454
aV Brandon
p5455
aV \u2014
p5456
aV Brandon
p5457
aV \u2014
p5458
aV \u2014
p5459
aV Phillip
p5460
ag129
ag129
ag129
ag129
ag129
aV Matt
p5461
aV Matt
p5462
aV \u2014
p5463
aV \u2014
p5464
aV \u2014
p5465
aV \u2014
p5466
aV \u2014
p5467
aV \u2014
p5468
aV \u2014
p5469
aV Matt
p5470
aV Julia
p5471
aV Matt
p5472
aV Dawn
p5473
aV Julia
p5474
ag129
ag129
ag129
ag129
ag129
ag129
aV Michael
p5475
aV Julia
p5476
aV \u2014
p5477
aV \u2014
p5478
aV \u2014
p5479
aV \u2014
p5480
aV \u2014
p5481
aV \u2014
p5482
aV \u2014
p5483
aV Michael
p5484
aV Julia
p5485
aV Julia
p5486
aV Michael
p5487
ag129
ag129
ag129
ag129
ag129
ag129
ag129
aV Julia
p5488
aV Julia
p5489
ag5477
ag5478
ag5479
ag5480
ag5481
ag5482
ag5483
aV Julia
p5490
aVNone
p5491
aV Julia
p5492
aVNone
p5493
ag129
ag129
ag129
ag129
ag129
ag129
ag129
aV Corinne
p5494
aV Corinne
p5495
aV Corinne
p5496
aV Sherri
p5497
aV Corinne
p5498
aV Corinne
p5499
aV Corinne
p5500
aV Sherri
p5501
aV Sherri
p5502
aV Corinne
p5503
aV Sherri
p5504
aV Sherri
p5505
ag129
ag129
ag129
ag129
ag129
ag129
ag129
ag129
aV Michael
p5506
aV Michael
p5507
aV Michael
p5508
aV Andrea
p5509
aV Michael
p5510
aV Michael
p5511
aV Michael
p5512
aV Andrea
p5513
aV Reynold
p5514
aV Michael
p5515
aV Andrea
p5516
ag129
ag129
ag129
ag129
ag129
ag129
ag129
ag129
ag129
aV Malcolm
p5517
aV Eddie
p5518
aV Eddie
p5519
aV Phillip
p5520
aV Phillip
p5521
aV Eddie
p5522
aV Eddie
p5523
aV Phillip
p5524
aV Phillip
p5525
aV Malcolm
p5526
ag129
ag129
ag129
ag129
ag129
ag129
ag129
ag129
ag129
ag129
aV Malcolm
p5527
aV Reynold
p5528
aV Reynold
p5529
aV Andrea
p5530
aV Malcolm
p5531
aV Reynold
p5532
aV Malcolm
p5533
aV Andrea
p5534
aV Andrea
p5535
ag129
ag129
ag129
ag129
ag129
ag129
ag129
ag129
ag129
ag129
ag129
aV Malcolm
p5536
aV Malcolm
p5537
aV Malcolm
p5538
aV Malcolm
p5539
aV Malcolm
p5540
aV Malcolm
p5541
aVNone
p5542
aVNone
p5543
aVNone
p5544
ag129
ag129
ag129
ag129
ag129
ag129
ag129
ag129
ag129
ag129
ag129
aV Eddie
p5545
aV Reynold
p5546
aV Reynold
p5547
aV Sherri
p5548
aV Eddie
p5549
aV Reynold
p5550
aV Reynold
p5551
aV Erik
p5552
ag129
ag129
ag129
ag129
ag129
ag129
ag129
ag129
ag129
ag129
ag129
ag129
aV Eddie
p5553
aV Eddie
p5554
aV Andrea
p5555
aV Brenda
p5556
aV Andrea
p5557
aV Andrea
p5558
aV Brenda
p5559
ag129
ag129
ag129
ag129
ag129
ag129
ag129
ag129
ag129
ag129
ag129
ag129
ag129
aV Brenda
p5560
aV Brenda
p5561
aV Brenda
p5562
aV Erik
p5563
aV Eddie
p5564
aV Eddie
p5565
ag129
ag129
ag129
ag129
ag129
ag129
ag129
ag129
ag129
ag129
ag129
ag129
ag129
ag129
aV \u2014
p5566
aV \u2014
p5567
aV \u2014
p5568
aV \u2014
p5569
aVEvacuated
p5570
ag129
ag129
ag129
ag129
ag129
ag129
ag129
ag129
ag129
ag129
ag129
ag129
ag129
ag129
ag129
aV Eddie
p5571
aV Eddie
p5572
aV Eddie
p5573
aV Dawn
p5574
ag129
ag129
ag129
ag129
ag129
ag129
ag129
ag129
ag129
ag129
ag129
ag129
ag129
ag129
ag129
ag129
ag319
ag319
ag319
ag129
ag129
ag129
ag129
ag129
ag129
ag129
ag129
ag129
ag129
ag129
ag129
ag129
ag129
ag129
ag129
ag129
ag319
ag319
ag319
ag129
ag129
ag129
ag129
ag129
ag129
ag129
ag129
ag129
ag129
ag129
ag129
ag129
ag129
ag129
ag129
ag129
ag319
ag319
ag319
aV Cochran
p5575
aV Cochran
p5576
aV Cochran
p5577
aV Cochran
p5578
aV Cochran
p5579
aV Cochran
p5580
aV Cochran
p5581
aV Cochran
p5582
ag129
ag129
ag129
ag129
ag129
ag129
ag129
ag129
ag129
atp5583
ba(lp5584
g21
(g22
(dp5585
g24
g25
(g26
(I0
tp5586
g28
tp5587
Rp5588
(I1
(L23L
tp5589
g35
I00
(lp5590
g5283
ag5284
ag5285
ag5286
ag5287
ag5288
ag5289
ag5290
ag5291
ag5292
ag5293
ag5294
ag5295
ag5296
ag5297
ag5298
ag5299
ag5300
ag5301
ag5302
ag5303
ag5304
ag5305
atp5591
bsg63
Nstp5592
Rp5593
a(dp5594
g339
(dp5595
g341
g5276
sg342
(lp5596
(dp5597
g345
g346
(I0
I23
I1
tp5598
Rp5599
sg349
g5344
sasstp5600
bsbsg351
I26
ssVGabon
p5601
(dp5602
g3
Vhttp://survivor.wikia.com/wiki/Survivor:_Gabon
p5603
sg5
g6
(g7
g8
Ntp5604
Rp5605
(dp5606
g12
g13
sg14
g15
sg16
g6
(g17
g8
Ntp5607
Rp5608
((lp5609
g21
(g22
(dp5610
g24
g25
(g26
(I0
tp5611
g28
tp5612
Rp5613
(I1
(L18L
tp5614
g35
I00
(lp5615
VMichelle
p5616
aVGillian
p5617
aVPaloma
p5618
aVJacquie
p5619
aVG.C.
p5620
aVKelly
p5621
aVAce
p5622
aVDan
p5623
aVMarcus
p5624
aVCharlie
p5625
aVRandy
p5626
aVCorinne
p5627
aVCrystal
p5628
aVKen
p5629
aVMatty
p5630
aVSugar
p5631
aVSusie
p5632
aVBob
p5633
atp5634
bsg63
Nstp5635
Rp5636
ag21
(g22
(dp5637
g24
g25
(g26
(I0
tp5638
g28
tp5639
Rp5640
(I1
(L18L
tp5641
g35
I00
(lp5642
VBob
p5643
aVSusie
p5644
aVSugar
p5645
aVMatty
p5646
aVKen
p5647
aVCrystal
p5648
aVCorinne
p5649
aVRandy
p5650
aVCharlie
p5651
aVMarcus
p5652
aVDan
p5653
aVAce
p5654
aVKelly
p5655
aVG.C.
p5656
aVJacquie
p5657
aVPaloma
p5658
aVGillian
p5659
aVMichelle
p5660
atp5661
bsg63
g93
(g96
S'\x01\x00\x00\x00\x00\x00\x00\x00'
p5662
tp5663
Rp5664
stp5665
Rp5666
a(lp5667
g25
(g26
(I0
tp5668
g28
tp5669
Rp5670
(I1
(L18L
L18L
tp5671
g35
I00
(lp5672
V \u2014
p5673
aV Michelle
p5674
aV \u2014
p5675
aV Michelle
p5676
aV Michelle
p5677
aV Michelle
p5678
aV \u2014
p5679
aV Michelle
p5680
aV \u2014
p5681
aV \u2014
p5682
aV Michelle
p5683
aV \u2014
p5684
aV \u2014
p5685
aV Michelle
p5686
aV \u2014
p5687
aV \u2014
p5688
aV Michelle
p5689
aV Gillian
p5690
aV \u2014
p5691
aV Gillian
p5692
aV \u2014
p5693
aV Gillian
p5694
aV Gillian
p5695
aV Gillian
p5696
aV \u2014
p5697
aV Gillian
p5698
aV \u2014
p5699
aV \u2014
p5700
aV Gillian
p5701
aV \u2014
p5702
aV \u2014
p5703
aV Gillian
p5704
aV \u2014
p5705
aV \u2014
p5706
aV Ken
p5707
ag129
aV Paloma
p5708
aV \u2014
p5709
aV Paloma
p5710
aV \u2014
p5711
aV \u2014
p5712
aV \u2014
p5713
aV Paloma
p5714
aV \u2014
p5715
aV Paloma
p5716
aV Paloma
p5717
aV \u2014
p5718
aV Paloma
p5719
aV Ace
p5720
aV \u2014
p5721
aV Paloma
p5722
aV Ace
p5723
ag129
ag129
aV \u2014
p5724
aV \u2014
p5725
aVExiled
p5726
aV Jacquie
p5727
aV Jacquie
p5728
aV Jacquie
p5729
aV \u2014
p5730
aV \u2014
p5731
aV \u2014
p5732
aV \u2014
p5733
aV \u2014
p5734
aV Kelly
p5735
aV Jacquie
p5736
aV Jacquie
p5737
aV Kelly
p5738
ag129
ag129
ag129
aV \u2014
p5739
aV \u2014
p5740
aV G.C.
p5741
aV G.C.
p5742
aV G.C.
p5743
aV G.C.
p5744
aV \u2014
p5745
aV \u2014
p5746
aV \u2014
p5747
aV \u2014
p5748
aV \u2014
p5749
aV G.C.
p5750
aV G.C.
p5751
aV Kelly
p5752
ag129
ag129
ag129
ag129
aV \u2014
p5753
aV \u2014
p5754
aV Kelly
p5755
aV Kelly
p5756
aV Kelly
p5757
aV Kelly
p5758
aV \u2014
p5759
aV \u2014
p5760
aV \u2014
p5761
aV \u2014
p5762
aV \u2014
p5763
aV Kelly
p5764
aV Crystal
p5765
ag129
ag129
ag129
ag129
ag129
aV \u2014
p5766
aV \u2014
p5767
aV Ace
p5768
aV Crystal
p5769
aV Ace
p5770
aV Ace
p5771
aV \u2014
p5772
aV \u2014
p5773
aV \u2014
p5774
aV \u2014
p5775
aV \u2014
p5776
aV Crystal
p5777
ag129
ag129
ag129
ag129
ag129
ag129
aV Dan
p5778
aV Dan
p5779
aV \u2014
p5780
aV \u2014
p5781
aV \u2014
p5782
aV \u2014
p5783
aV Dan
p5784
aV Susie
p5785
aV Dan
p5786
aV Susie
p5787
aV Susie
p5788
ag129
ag129
ag129
ag129
ag129
ag129
ag129
aV Ken
p5789
aV Marcus
p5790
aV \u2014
p5791
aV \u2014
p5792
aV Marcus
p5793
aV Marcus
p5794
aV \u2014
p5795
aV \u2014
p5796
aV \u2014
p5797
aV Ken
p5798
ag129
ag129
ag129
ag129
ag129
ag129
ag129
ag129
aV Crystal
p5799
aV Charlie
p5800
aV Charlie
p5801
aV Charlie
p5802
aV Charlie
p5803
aV Charlie
p5804
aV Crystal
p5805
aV Crystal
p5806
aV Crystal
p5807
ag129
ag129
ag129
ag129
ag129
ag129
ag129
ag129
ag129
aV Susie
p5808
aV Randy
p5809
aV Randy
p5810
aV Randy
p5811
aV Randy
p5812
aV Randy
p5813
aV Susie
p5814
aV Susie
p5815
ag129
ag129
ag129
ag129
ag129
ag129
ag129
ag129
ag129
ag129
aV Matty
p5816
aV Corinne
p5817
aV Corinne
p5818
aV Corinne
p5819
aV Matty
p5820
aV Corinne
p5821
aV Matty
p5822
ag129
ag129
ag129
ag129
ag129
ag129
ag129
ag129
ag129
ag129
ag129
aV Crystal
p5823
aV Crystal
p5824
aV Crystal
p5825
aV Crystal
p5826
aV Matty
p5827
aV Matty
p5828
ag129
ag129
ag129
ag129
ag129
ag129
ag129
ag129
ag129
ag129
ag129
ag129
aV Ken
p5829
aV Ken
p5830
aV Ken
p5831
aV Ken
p5832
aV Susie
p5833
ag129
ag129
ag129
ag129
ag129
ag129
ag129
ag129
ag129
ag129
ag129
ag129
ag129
aV Matty
p5834
aV Bob
p5835
aV Matty
p5836
aV Bob
p5837
ag129
ag129
ag129
ag129
ag129
ag129
ag129
ag129
ag129
ag129
ag129
ag129
ag129
ag129
ag319
ag319
ag319
ag129
ag129
ag129
ag129
ag129
ag129
ag129
ag129
ag129
ag129
ag129
ag129
ag129
ag129
ag129
ag319
ag319
ag319
aV Susie
p5838
aV Susie
p5839
aV Susie
p5840
ag129
ag129
ag129
ag129
ag129
ag129
ag129
ag129
ag129
ag129
ag129
ag129
ag319
ag319
ag319
ag129
ag129
ag129
aV Bob
p5841
aV Bob
p5842
aV Bob
p5843
aV Bob
p5844
ag129
ag129
ag129
ag129
ag129
ag129
ag129
ag129
atp5845
ba(lp5846
g21
(g22
(dp5847
g24
g25
(g26
(I0
tp5848
g28
tp5849
Rp5850
(I1
(L18L
tp5851
g35
I00
(lp5852
g5616
ag5617
ag5618
ag5619
ag5620
ag5621
ag5622
ag5623
ag5624
ag5625
ag5626
ag5627
ag5628
ag5629
ag5630
ag5631
ag5632
ag5633
atp5853
bsg63
Nstp5854
Rp5855
a(dp5856
g339
(dp5857
g341
g5609
sg342
(lp5858
(dp5859
g345
g346
(I0
I18
I1
tp5860
Rp5861
sg349
g5670
sasstp5862
bsbsg351
I17
ssVMicronesia
p5863
(dp5864
g3
Vhttp://survivor.wikia.com/wiki/Survivor:_Micronesia
p5865
sg5
g6
(g7
g8
Ntp5866
Rp5867
(dp5868
g12
g13
sg14
g15
sg16
g6
(g17
g8
Ntp5869
Rp5870
((lp5871
g21
(g22
(dp5872
g24
g25
(g26
(I0
tp5873
g28
tp5874
Rp5875
(I1
(L20L
tp5876
g35
I00
(lp5877
VJon
p5878
aVMary
p5879
aVYau-Man
p5880
aVMikey B.
p5881
aVJoel
p5882
aVJonathan
p5883
aVChet
p5884
aVKathy
p5885
aVTracy
p5886
aVAmi
p5887
aVEliza
p5888
aVOzzy
p5889
aVJason
p5890
aVJames
p5891
aVAlexis
p5892
aVErik
p5893
aVNatalie
p5894
aVCirie
p5895
aVAmanda
p5896
aVParvati
p5897
atp5898
bsg63
Nstp5899
Rp5900
ag21
(g22
(dp5901
g24
g25
(g26
(I0
tp5902
g28
tp5903
Rp5904
(I1
(L20L
tp5905
g35
I00
(lp5906
VParvati
p5907
aVAmanda
p5908
aVCirie
p5909
aVNatalie
p5910
aVErik
p5911
aVAlexis
p5912
aVJames
p5913
aVJason
p5914
aVOzzy
p5915
aVEliza
p5916
aVAmi
p5917
aVTracy
p5918
aVKathy
p5919
aVChet
p5920
aVJonathan
p5921
aVJoel
p5922
aVMikey B.
p5923
aVYau-Man
p5924
aVMary
p5925
aVJon
p5926
atp5927
bsg63
g93
(g96
S'\x01\x00\x00\x00\x00\x00\x00\x00'
p5928
tp5929
Rp5930
stp5931
Rp5932
a(lp5933
g25
(g26
(I0
tp5934
g28
tp5935
Rp5936
(I1
(L20L
L20L
tp5937
g35
I00
(lp5938
V Jon
p5939
aV Jon
p5940
aV Jon
p5941
aV \u2014
p5942
aV \u2014
p5943
aV \u2014
p5944
aV Jon
p5945
aV \u2014
p5946
aV Jon
p5947
aV Jon
p5948
aV Jon
p5949
aV \u2014
p5950
aV \u2014
p5951
aV \u2014
p5952
aV Jon
p5953
aV \u2014
p5954
aV \u2014
p5955
aV Jon
p5956
aV\u2014
p5957
aV Ozzy
p5958
aV \u2014
p5959
aV \u2014
p5960
aV \u2014
p5961
aV Mary
p5962
aV Mary
p5963
aV Mary
p5964
aV \u2014
p5965
aV Chet
p5966
aV \u2014
p5967
aV \u2014
p5968
aV \u2014
p5969
aV Mary
p5970
aV Mary
p5971
aV Mary
p5972
aV \u2014
p5973
aV Tracy
p5974
aV Chet
p5975
aV \u2014
p5976
aV Tracy
p5977
ag129
aV Yau-Man
p5978
aV Yau-Man
p5979
aV Yau-Man
p5980
aV \u2014
p5981
aV \u2014
p5982
aV \u2014
p5983
aV Yau-Man
p5984
aV \u2014
p5985
aV Yau-Man
p5986
aV Yau-Man
p5987
aV Cirie
p5988
aV \u2014
p5989
aV \u2014
p5990
aV \u2014
p5991
aV Parvati
p5992
aV \u2014
p5993
aV \u2014
p5994
aV Parvati
p5995
ag129
ag129
aV \u2014
p5996
aV \u2014
p5997
aV \u2014
p5998
aV Mikey B.
p5999
aV Mikey B.
p6000
aV Chet
p6001
aV \u2014
p6002
aV Chet
p6003
aV \u2014
p6004
aV \u2014
p6005
aV \u2014
p6006
aV Mikey B.
p6007
aV Mikey B.
p6008
aV Mikey B.
p6009
aV \u2014
p6010
aV Mikey B.
p6011
aV Chet
p6012
ag129
ag129
ag129
aV \u2014
p6013
aV Joel
p6014
aV Joel
p6015
aV \u2014
p6016
aV Chet
p6017
aV \u2014
p6018
aV \u2014
p6019
aV \u2014
p6020
aV Joel
p6021
aV \u2014
p6022
aV Joel
p6023
aV Joel
p6024
aV \u2014
p6025
aV Joel
p6026
aV \u2014
p6027
aV Chet
p6028
ag129
ag129
ag129
ag129
aV \u2014
p6029
aV \u2014
p6030
aV \u2014
p6031
aV \u2014
p6032
aV \u2014
p6033
aV \u2014
p6034
aV \u2014
p6035
aV \u2014
p6036
aV \u2014
p6037
aV \u2014
p6038
aV \u2014
p6039
aV \u2014
p6040
aV \u2014
p6041
aV \u2014
p6042
aVEvacuated
p6043
ag129
ag129
ag129
ag129
ag129
aV \u2014
p6044
aV Chet
p6045
aV Chet
p6046
aV \u2014
p6047
aV Chet
p6048
aV \u2014
p6049
aV \u2014
p6050
aV \u2014
p6051
aV Chet
p6052
aV \u2014
p6053
aV Chet
p6054
aV Erik
p6055
aV \u2014
p6056
aV Erik
p6057
ag129
ag129
ag129
ag129
ag129
ag129
aV \u2014
p6058
aV \u2014
p6059
aV \u2014
p6060
aV \u2014
p6061
aV \u2014
p6062
aV \u2014
p6063
aV \u2014
p6064
aV \u2014
p6065
aV \u2014
p6066
aV \u2014
p6067
aV \u2014
p6068
aV \u2014
p6069
aVQuit
p6070
ag129
ag129
ag129
ag129
ag129
ag129
ag129
aV \u2014
p6071
aV Tracy
p6072
aV Tracy
p6073
aV \u2014
p6074
aV Tracy
p6075
aV \u2014
p6076
aV \u2014
p6077
aV \u2014
p6078
aV Tracy
p6079
aV \u2014
p6080
aV Tracy
p6081
aV Ozzy
p6082
ag129
ag129
ag129
ag129
ag129
ag129
ag129
ag129
aV \u2014
p6083
aV Ami
p6084
aV Ami
p6085
aV \u2014
p6086
aV Ami
p6087
aV \u2014
p6088
aV \u2014
p6089
aV \u2014
p6090
aV Ami
p6091
aV \u2014
p6092
aV Erik
p6093
ag129
ag129
ag129
ag129
ag129
ag129
ag129
ag129
ag129
aV Eliza
p6094
aV Eliza
p6095
aV Eliza
p6096
aV Eliza
p6097
aV Eliza
p6098
aV Eliza
p6099
aV Eliza
p6100
aV Ozzy
p6101
aV Eliza
p6102
aV Ozzy
p6103
ag129
ag129
ag129
ag129
ag129
ag129
ag129
ag129
ag129
ag129
aV Ozzy
p6104
aV Jason
p6105
aV Ozzy
p6106
aV Ozzy
p6107
aV Jason
p6108
aV Ozzy
p6109
aV Jason
p6110
aV Ozzy
p6111
aV Jason
p6112
ag129
ag129
ag129
ag129
ag129
ag129
ag129
ag129
ag129
ag129
ag129
aV Jason
p6113
aV Jason
p6114
aV Jason
p6115
aV James
p6116
aV Jason
p6117
aV James
p6118
aV Parvati
p6119
aV James
p6120
ag129
ag129
ag129
ag129
ag129
ag129
ag129
ag129
ag129
ag129
ag129
ag129
aV \u2014
p6121
aV \u2014
p6122
aV \u2014
p6123
aV \u2014
p6124
aV \u2014
p6125
aV \u2014
p6126
aVEvacuated
p6127
ag129
ag129
ag129
ag129
ag129
ag129
ag129
ag129
ag129
ag129
ag129
ag129
ag129
aV Alexis
p6128
aV Alexis
p6129
aV Amanda
p6130
aV Amanda
p6131
aV Amanda
p6132
aV Amanda
p6133
ag129
ag129
ag129
ag129
ag129
ag129
ag129
ag129
ag129
ag129
ag129
ag129
ag129
ag129
aV Erik
p6134
aV Erik
p6135
aV Erik
p6136
aV Erik
p6137
aV Parvati
p6138
ag129
ag129
ag129
ag129
ag129
ag129
ag129
ag129
ag129
ag129
ag129
ag129
ag129
ag129
ag129
aV Natalie
p6139
aV Natalie
p6140
aV Natalie
p6141
aV Cirie
p6142
ag129
ag129
ag129
ag129
ag129
ag129
ag129
ag129
ag129
ag129
ag129
ag129
ag129
ag129
ag129
ag129
aV \u2014
p6143
aV Cirie
p6144
aV \u2014
p6145
ag129
ag129
ag129
ag129
ag129
ag129
ag129
ag129
ag129
ag129
ag129
ag129
ag129
ag129
ag129
ag129
ag129
ag319
ag319
ag129
ag129
aV Amanda
p6146
ag129
aV Amanda
p6147
ag129
aV Amanda
p6148
ag129
ag129
ag129
ag129
ag129
ag129
ag129
ag129
ag129
ag129
ag129
ag319
ag319
aV Parvati
p6149
aV Parvati
p6150
ag129
aV Parvati
p6151
ag129
aV Parvati
p6152
ag129
aV Parvati
p6153
ag129
ag129
ag129
ag129
ag129
ag129
ag129
ag129
ag129
ag129
atp6154
ba(lp6155
g21
(g22
(dp6156
g24
g25
(g26
(I0
tp6157
g28
tp6158
Rp6159
(I1
(L20L
tp6160
g35
I00
(lp6161
g5878
ag5879
ag5880
ag5881
ag5882
ag5883
ag5884
ag5885
ag5886
ag5887
ag5888
ag5889
ag5890
ag5891
ag5892
ag5893
ag5894
ag5895
ag5896
ag5897
atp6162
bsg63
Nstp6163
Rp6164
a(dp6165
g339
(dp6166
g341
g5871
sg342
(lp6167
(dp6168
g345
g346
(I0
I20
I1
tp6169
Rp6170
sg349
g5936
sasstp6171
bsbsg351
I16
ssVSamoa
p6172
(dp6173
g3
Vhttp://survivor.wikia.com/wiki/Survivor:_Samoa
p6174
sg5
g6
(g7
g8
Ntp6175
Rp6176
(dp6177
g12
g13
sg14
g15
sg16
g6
(g17
g8
Ntp6178
Rp6179
((lp6180
g21
(g22
(dp6181
g24
g25
(g26
(I0
tp6182
g28
tp6183
Rp6184
(I1
(L21L
tp6185
g35
I00
(lp6186
VMarisa
p6187
aVMike
p6188
aVBetsy
p6189
aVBen
p6190
aVYasmin
p6191
aVAshley
p6192
aVRussell S.
p6193
aVLiz
p6194
aVErik
p6195
aVKelly
p6196
aVLaura
p6197
aVLaura
p6198
aVJohn
p6199
aVDave
p6200
aVMonica
p6201
aVShambo
p6202
aVJaison
p6203
aVBrett
p6204
aVMick
p6205
aVRussell H.
p6206
aVNatalie
p6207
atp6208
bsg63
Nstp6209
Rp6210
ag21
(g22
(dp6211
g24
g25
(g26
(I0
tp6212
g28
tp6213
Rp6214
(I1
(L20L
tp6215
g35
I00
(lp6216
VNatalie
p6217
aVRussell H.
p6218
aVMick
p6219
aVBrett
p6220
aVJaison
p6221
aVShambo
p6222
aVMonica
p6223
aVDave
p6224
aVJohn
p6225
aVLaura
p6226
aVKelly
p6227
aVErik
p6228
aVLiz
p6229
aVRussell S.
p6230
aVAshley
p6231
aVYasmin
p6232
aVBen
p6233
aVBetsy
p6234
aVMike
p6235
aVMarisa
p6236
atp6237
bsg63
g93
(g96
S'\x01\x00\x00\x00\x00\x00\x00\x00'
p6238
tp6239
Rp6240
stp6241
Rp6242
a(lp6243
g25
(g26
(I0
tp6244
g28
tp6245
Rp6246
(I1
(L21L
L20L
tp6247
g35
I00
(lp6248
V Marisa
p6249
aV Marisa
p6250
aV Ashley
p6251
aV \u2014
p6252
aV Marisa
p6253
aV \u2014
p6254
aV \u2014
p6255
aV \u2014
p6256
aV \u2014
p6257
aV \u2014
p6258
aV \u2014
p6259
aV \u2014
p6260
aV Marisa
p6261
aV \u2014
p6262
aV Marisa
p6263
aV \u2014
p6264
aV Marisa
p6265
aV Ashley
p6266
aV Marisa
p6267
aV Ashley
p6268
aV \u2014
p6269
aV \u2014
p6270
aV \u2014
p6271
aV \u2014
p6272
aV \u2014
p6273
aV \u2014
p6274
aV \u2014
p6275
aV \u2014
p6276
aV \u2014
p6277
aV \u2014
p6278
aV \u2014
p6279
aV \u2014
p6280
aV \u2014
p6281
aV \u2014
p6282
aV \u2014
p6283
aV \u2014
p6284
aV \u2014
p6285
aV \u2014
p6286
aVEvacuated
p6287
ag129
aV Betsy
p6288
aV Betsy
p6289
aV Betsy
p6290
aV \u2014
p6291
aV Betsy
p6292
aV \u2014
p6293
aV \u2014
p6294
aV \u2014
p6295
aV \u2014
p6296
aV \u2014
p6297
aV \u2014
p6298
aV \u2014
p6299
aV Betsy
p6300
aV \u2014
p6301
aV Betsy
p6302
aV \u2014
p6303
aV Betsy
p6304
aV Ben
p6305
ag129
ag129
aV Ben
p6306
aV Ben
p6307
aV Ben
p6308
aV \u2014
p6309
aV Ben
p6310
aV \u2014
p6311
aV \u2014
p6312
aV \u2014
p6313
aV \u2014
p6314
aV \u2014
p6315
aV \u2014
p6316
aV \u2014
p6317
aV Ben
p6318
aV \u2014
p6319
aV Ben
p6320
aV \u2014
p6321
aV Ashley
p6322
ag129
ag129
ag129
aV \u2014
p6323
aV \u2014
p6324
aV \u2014
p6325
aV Yasmin
p6326
aV \u2014
p6327
aV Monica
p6328
aV Yasmin
p6329
aV Yasmin
p6330
aV Yasmin
p6331
aV Yasmin
p6332
aV Yasmin
p6333
aV Yasmin
p6334
aV \u2014
p6335
aV Yasmin
p6336
aV \u2014
p6337
aV Monica
p6338
ag129
ag129
ag129
ag129
aV Ashley
p6339
aV Ashley
p6340
aV Ashley
p6341
aV \u2014
p6342
aV Ashley
p6343
aV \u2014
p6344
aV \u2014
p6345
aV \u2014
p6346
aV \u2014
p6347
aV \u2014
p6348
aV \u2014
p6349
aV \u2014
p6350
aV Ashley
p6351
aV \u2014
p6352
aV Liz
p6353
ag129
ag129
ag129
ag129
ag129
aV \u2014
p6354
aV \u2014
p6355
aV \u2014
p6356
aV \u2014
p6357
aV \u2014
p6358
aV \u2014
p6359
aV \u2014
p6360
aV \u2014
p6361
aV \u2014
p6362
aV \u2014
p6363
aV \u2014
p6364
aV \u2014
p6365
aV \u2014
p6366
aVEvacuated
p6367
ag129
ag129
ag129
ag129
ag129
ag129
aV Liz
p6368
aV Liz
p6369
aV Liz
p6370
aV \u2014
p6371
aV Liz
p6372
aV \u2014
p6373
aV \u2014
p6374
aV \u2014
p6375
aV \u2014
p6376
aV \u2014
p6377
aV \u2014
p6378
aV \u2014
p6379
aV Jaison
p6380
ag129
ag129
ag129
ag129
ag129
ag129
ag129
aV Erik
p6381
aV Erik
p6382
aV Erik
p6383
aV Erik
p6384
aV Erik
p6385
aV Jaison
p6386
aV Erik
p6387
aV Erik
p6388
aV Erik
p6389
aV Erik
p6390
aV Erik
p6391
aV Jaison
p6392
ag129
ag129
ag129
ag129
ag129
ag129
ag129
ag129
aV Kelly
p6393
aV Kelly
p6394
aV Kelly
p6395
aV Russell H.
p6396
aV Kelly
p6397
aV Russell H.
p6398
aV Russell H.
p6399
aV Russell H.
p6400
aV Russell H.
p6401
aV Russell H.
p6402
aV Russell H.
p6403
ag129
ag129
ag129
ag129
ag129
ag129
ag129
ag129
ag129
aV Laura
p6404
aV Laura
p6405
aV Laura
p6406
aV Natalie
p6407
aV Laura
p6408
aV Laura
p6409
aV Natalie
p6410
aV Natalie
p6411
aV Natalie
p6412
aV Natalie
p6413
ag129
ag129
ag129
ag129
ag129
ag129
ag129
ag129
ag129
ag129
aVNone
p6414
aV Laura
p6415
aV Laura
p6416
aV Natalie
p6417
aV Laura
p6418
aV Laura
p6419
aV Natalie
p6420
aV Natalie
p6421
aV Laura
p6422
aVNone
p6423
ag129
ag129
ag129
ag129
ag129
ag129
ag129
ag129
ag129
ag129
aV John
p6424
aV John
p6425
aV John
p6426
aV John
p6427
aV John
p6428
aV Dave
p6429
aV John
p6430
aV John
p6431
aV Mick
p6432
ag129
ag129
ag129
ag129
ag129
ag129
ag129
ag129
ag129
ag129
ag129
aV Dave
p6433
aV Dave
p6434
aV Dave
p6435
aV Dave
p6436
aV Dave
p6437
aV Dave
p6438
aV Dave
p6439
aV Shambo
p6440
ag129
ag129
ag129
ag129
ag129
ag129
ag129
ag129
ag129
ag129
ag129
ag129
aV Monica
p6441
aV Monica
p6442
aV Monica
p6443
aV Russell H.
p6444
aV Monica
p6445
aV Monica
p6446
aV Russell H.
p6447
ag129
ag129
ag129
ag129
ag129
ag129
ag129
ag129
ag129
ag129
ag129
ag129
ag129
aV Shambo
p6448
aV Shambo
p6449
aV Shambo
p6450
aV Shambo
p6451
aV Shambo
p6452
aV Mick
p6453
ag129
ag129
ag129
ag129
ag129
ag129
ag129
ag129
ag129
ag129
ag129
ag129
ag129
ag129
aV Jaison
p6454
aV Jaison
p6455
aV Jaison
p6456
aV Jaison
p6457
aV Mick
p6458
ag129
ag129
ag129
ag129
ag129
ag129
ag129
ag129
ag129
ag129
ag129
ag129
ag129
ag129
ag129
aV Brett
p6459
aV Brett
p6460
aV Brett
p6461
aV Mick
p6462
ag129
ag129
ag129
ag129
ag129
ag129
ag129
ag129
ag129
ag129
ag129
ag129
ag129
ag129
ag129
ag129
ag319
ag319
ag319
ag129
ag129
ag129
ag129
ag129
ag129
ag129
ag129
ag129
ag129
ag129
ag129
ag129
ag129
ag129
ag129
ag129
ag319
ag319
ag319
ag129
ag129
aV Russell H.
p6463
ag129
ag129
aV Russell H.
p6464
ag129
ag129
ag129
ag129
ag129
ag129
ag129
ag129
ag129
ag129
ag129
ag319
ag319
ag319
aV Natalie
p6465
aV Natalie
p6466
ag129
aV Natalie
p6467
aV Natalie
p6468
ag129
aV Natalie
p6469
aV Natalie
p6470
aV Natalie
p6471
ag129
ag129
ag129
ag129
ag129
ag129
ag129
ag129
atp6472
ba(lp6473
g21
(g22
(dp6474
g24
g25
(g26
(I0
tp6475
g28
tp6476
Rp6477
(I1
(L21L
tp6478
g35
I00
(lp6479
g6187
ag6188
ag6189
ag6190
ag6191
ag6192
ag6193
ag6194
ag6195
ag6196
ag6197
ag6198
ag6199
ag6200
ag6201
ag6202
ag6203
ag6204
ag6205
ag6206
ag6207
atp6480
bsg63
Nstp6481
Rp6482
a(dp6483
g339
(dp6484
g341
g6180
sg342
(lp6485
(dp6486
g345
g346
(I0
I21
I1
tp6487
Rp6488
sg349
g6246
sasstp6489
bsbsg351
I19
ssVAll-Stars
p6490
(dp6491
g3
Vhttp://survivor.wikia.com/wiki/Survivor:_All-Stars
p6492
sg5
g6
(g7
g8
Ntp6493
Rp6494
(dp6495
g12
g13
sg14
g15
sg16
g6
(g17
g8
Ntp6496
Rp6497
((lp6498
g21
(g22
(dp6499
g24
g25
(g26
(I0
tp6500
g28
tp6501
Rp6502
(I1
(L18L
tp6503
g35
I00
(lp6504
VTina
p6505
aVRudy
p6506
aVJenna M.
p6507
aVRob C.
p6508
aVRichard
p6509
aVSusan
p6510
aVColby
p6511
aVEthan
p6512
aVJerri
p6513
aVLex
p6514
aVKathy
p6515
aVAlicia
p6516
aVShii Ann
p6517
aVTom
p6518
aVRupert
p6519
aVJenna L.
p6520
aVRob M.
p6521
aVAmber
p6522
atp6523
bsg63
Nstp6524
Rp6525
ag21
(g22
(dp6526
g24
g25
(g26
(I0
tp6527
g28
tp6528
Rp6529
(I1
(L18L
tp6530
g35
I00
(lp6531
VAmber
p6532
aVRob M.
p6533
aVJenna L.
p6534
aVRupert
p6535
aVTom
p6536
aVShii Ann
p6537
aVAlicia
p6538
aVKathy
p6539
aVLex
p6540
aVJerri
p6541
aVEthan
p6542
aVColby
p6543
aVSusan
p6544
aVRichard
p6545
aVRob C.
p6546
aVJenna M.
p6547
aVRudy
p6548
aVTina
p6549
atp6550
bsg63
g93
(g96
S'\x01\x00\x00\x00\x00\x00\x00\x00'
p6551
tp6552
Rp6553
stp6554
Rp6555
a(lp6556
g25
(g26
(I0
tp6557
g28
tp6558
Rp6559
(I1
(L18L
L18L
tp6560
g35
I00
(lp6561
V\u2014
p6562
aV \u2014
p6563
aV Tina
p6564
aV Tina
p6565
aV \u2014
p6566
aV \u2014
p6567
aV \u2014
p6568
aV \u2014
p6569
aV \u2014
p6570
aV Tina
p6571
aV Jenna L.
p6572
aV \u2014
p6573
aV \u2014
p6574
aV \u2014
p6575
aV \u2014
p6576
aV \u2014
p6577
aV Tina
p6578
aV Jenna L.
p6579
aV\u2014
p6580
aV \u2014
p6581
aV Rudy
p6582
aV Ethan
p6583
aV \u2014
p6584
aV \u2014
p6585
aV \u2014
p6586
aV \u2014
p6587
aV \u2014
p6588
aV Rudy
p6589
aV Rudy
p6590
aV \u2014
p6591
aV \u2014
p6592
aV \u2014
p6593
aV \u2014
p6594
aV \u2014
p6595
aV Ethan
p6596
ag129
aV\u2014
p6597
aV \u2014
p6598
aV \u2014
p6599
aV \u2014
p6600
aV \u2014
p6601
aV \u2014
p6602
aV \u2014
p6603
aV \u2014
p6604
aV \u2014
p6605
aV \u2014
p6606
aV \u2014
p6607
aV \u2014
p6608
aV \u2014
p6609
aV \u2014
p6610
aV \u2014
p6611
aVQuit
p6612
ag129
ag129
aV Rob C.
p6613
aV Rob C.
p6614
aV \u2014
p6615
aV \u2014
p6616
aV Rob C.
p6617
aV \u2014
p6618
aV Rob C.
p6619
aV \u2014
p6620
aV \u2014
p6621
aV \u2014
p6622
aV \u2014
p6623
aV \u2014
p6624
aV Rob C.
p6625
aV \u2014
p6626
aV Alicia
p6627
ag129
ag129
ag129
aV \u2014
p6628
aV \u2014
p6629
aV \u2014
p6630
aV \u2014
p6631
aV \u2014
p6632
aV Richard
p6633
aV \u2014
p6634
aV Richard
p6635
aV Richard
p6636
aV Richard
p6637
aV Richard
p6638
aV Richard
p6639
aV \u2014
p6640
aV Colby
p6641
ag129
ag129
ag129
ag129
aV \u2014
p6642
aV \u2014
p6643
aV \u2014
p6644
aV \u2014
p6645
aV \u2014
p6646
aV \u2014
p6647
aV \u2014
p6648
aV \u2014
p6649
aV \u2014
p6650
aV \u2014
p6651
aV \u2014
p6652
aV \u2014
p6653
aVQuit
p6654
ag129
ag129
ag129
ag129
ag129
aV \u2014
p6655
aV \u2014
p6656
aV \u2014
p6657
aV \u2014
p6658
aV \u2014
p6659
aV Colby
p6660
aV \u2014
p6661
aVKidnapped
p6662
aV Colby
p6663
aV Colby
p6664
aV Jerri
p6665
aV Jerri
p6666
ag129
ag129
ag129
ag129
ag129
ag129
aV \u2014
p6667
aV \u2014
p6668
aV \u2014
p6669
aV \u2014
p6670
aV \u2014
p6671
aV Ethan
p6672
aV \u2014
p6673
aV Ethan
p6674
aV Ethan
p6675
aV Ethan
p6676
aV Jerri
p6677
ag129
ag129
ag129
ag129
ag129
ag129
ag129
aV Jerri
p6678
aV \u2014
p6679
aV \u2014
p6680
aV \u2014
p6681
aV \u2014
p6682
aV Jerri
p6683
aV \u2014
p6684
aV Jerri
p6685
aV Jerri
p6686
aV Amber
p6687
ag129
ag129
ag129
ag129
ag129
ag129
ag129
ag129
aV Lex
p6688
aV Lex
p6689
aV Lex
p6690
aV Lex
p6691
aV Lex
p6692
aV Lex
p6693
aV Lex
p6694
aV Amber
p6695
aV Amber
p6696
ag129
ag129
ag129
ag129
ag129
ag129
ag129
ag129
ag129
aV Kathy
p6697
aV Kathy
p6698
aV Kathy
p6699
aV Kathy
p6700
aV Kathy
p6701
aV Amber
p6702
aV Kathy
p6703
aV Amber
p6704
ag129
ag129
ag129
ag129
ag129
ag129
ag129
ag129
ag129
ag129
aV Alicia
p6705
aV Alicia
p6706
aV Alicia
p6707
aV Alicia
p6708
aV Alicia
p6709
aV Alicia
p6710
aV Rupert
p6711
ag129
ag129
ag129
ag129
ag129
ag129
ag129
ag129
ag129
ag129
ag129
aV Shii Ann
p6712
aV Shii Ann
p6713
aV Shii Ann
p6714
aV Shii Ann
p6715
aV Shii Ann
p6716
aV Amber
p6717
ag129
ag129
ag129
ag129
ag129
ag129
ag129
ag129
ag129
ag129
ag129
ag129
aV Tom
p6718
aV Tom
p6719
aV Tom
p6720
aV Tom
p6721
aV Jenna L.
p6722
ag129
ag129
ag129
ag129
ag129
ag129
ag129
ag129
ag129
ag129
ag129
ag129
ag129
aV Rupert
p6723
aV Rupert
p6724
aV Rupert
p6725
aV Rob M.
p6726
ag129
ag129
ag129
ag129
ag129
ag129
ag129
ag129
ag129
ag129
ag129
ag129
ag129
ag129
aV \u2014
p6727
aV Jenna L.
p6728
aV \u2014
p6729
ag129
ag129
ag129
ag129
ag129
ag129
ag129
ag129
ag129
ag129
ag129
ag129
ag129
ag129
ag129
ag319
ag319
aV Rob M.
p6730
aV Rob M.
p6731
ag129
ag129
ag129
aV Rob M.
p6732
ag129
ag129
ag129
ag129
ag129
ag129
ag129
ag129
ag129
ag129
ag319
ag319
ag129
ag129
aV Amber
p6733
aV Amber
p6734
aV Amber
p6735
ag129
aV Amber
p6736
ag129
ag129
ag129
ag129
ag129
ag129
ag129
ag129
ag129
atp6737
ba(lp6738
g21
(g22
(dp6739
g24
g25
(g26
(I0
tp6740
g28
tp6741
Rp6742
(I1
(L18L
tp6743
g35
I00
(lp6744
g6505
ag6506
ag6507
ag6508
ag6509
ag6510
ag6511
ag6512
ag6513
ag6514
ag6515
ag6516
ag6517
ag6518
ag6519
ag6520
ag6521
ag6522
atp6745
bsg63
Nstp6746
Rp6747
a(dp6748
g339
(dp6749
g341
g6498
sg342
(lp6750
(dp6751
g345
g346
(I0
I18
I1
tp6752
Rp6753
sg349
g6559
sasstp6754
bsbsg351
I8
ssVFiji
p6755
(dp6756
g3
Vhttp://survivor.wikia.com/wiki/Survivor:_Fiji
p6757
sg5
g6
(g7
g8
Ntp6758
Rp6759
(dp6760
g12
g13
sg14
g15
sg16
g6
(g17
g8
Ntp6761
Rp6762
((lp6763
g21
(g22
(dp6764
g24
g25
(g26
(I0
tp6765
g28
tp6766
Rp6767
(I1
(L19L
tp6768
g35
I00
(lp6769
VJessica
p6770
aVErica
p6771
aVSylvia
p6772
aVGary
p6773
aVLiliana
p6774
aVRita
p6775
aVAnthony
p6776
aVRocky
p6777
aVLisi
p6778
aVMichelle
p6779
aVEdgardo
p6780
aVMookie
p6781
aVAlex
p6782
aVStacy
p6783
aVBoo
p6784
aVYau-Man
p6785
aVDreamz
p6786
aVCassandra
p6787
aVEarl
p6788
atp6789
bsg63
Nstp6790
Rp6791
ag21
(g22
(dp6792
g24
g25
(g26
(I0
tp6793
g28
tp6794
Rp6795
(I1
(L19L
tp6796
g35
I00
(lp6797
VEarl
p6798
aVCassandra
p6799
aVDreamz
p6800
aVYau-Man
p6801
aVBoo
p6802
aVStacy
p6803
aVAlex
p6804
aVMookie
p6805
aVEdgardo
p6806
aVMichelle
p6807
aVLisi
p6808
aVRocky
p6809
aVAnthony
p6810
aVRita
p6811
aVLiliana
p6812
aVGary
p6813
aVSylvia
p6814
aVErica
p6815
aVJessica
p6816
atp6817
bsg63
g93
(g96
S'\x01\x00\x00\x00\x00\x00\x00\x00'
p6818
tp6819
Rp6820
stp6821
Rp6822
a(lp6823
g25
(g26
(I0
tp6824
g28
tp6825
Rp6826
(I1
(L19L
L19L
tp6827
g35
I00
(lp6828
V Jessica
p6829
aV \u2014
p6830
aV \u2014
p6831
aV Jessica
p6832
aV \u2014
p6833
aV \u2014
p6834
aV \u2014
p6835
aV Jessica
p6836
aV \u2014
p6837
aV Jessica
p6838
aV \u2014
p6839
aV Mookie
p6840
aV Jessica
p6841
aV Jessica
p6842
aV \u2014
p6843
aV \u2014
p6844
aVExiled
p6845
aV Yau-Man
p6846
aV Rita
p6847
aVExiled
p6848
aV \u2014
p6849
aV \u2014
p6850
aV Erica
p6851
aV \u2014
p6852
aV \u2014
p6853
aV \u2014
p6854
aV Erica
p6855
aV \u2014
p6856
aV Erica
p6857
aV \u2014
p6858
aV Erica
p6859
aV Sylvia
p6860
aV Erica
p6861
aV \u2014
p6862
aV \u2014
p6863
aV Erica
p6864
aV Sylvia
p6865
ag129
aV Sylvia
p6866
aV \u2014
p6867
aV \u2014
p6868
aV Sylvia
p6869
aV \u2014
p6870
aV \u2014
p6871
aV \u2014
p6872
aV Anthony
p6873
aV \u2014
p6874
aV Sylvia
p6875
aV \u2014
p6876
aV Anthony
p6877
aV Sylvia
p6878
aV Earl
p6879
aV \u2014
p6880
aV \u2014
p6881
aV Anthony
p6882
ag129
ag129
aV \u2014
p6883
aV \u2014
p6884
aV \u2014
p6885
aV \u2014
p6886
aV \u2014
p6887
aV \u2014
p6888
aV \u2014
p6889
aV \u2014
p6890
aV \u2014
p6891
aV \u2014
p6892
aV \u2014
p6893
aV \u2014
p6894
aV \u2014
p6895
aV \u2014
p6896
aV \u2014
p6897
aVQuit
p6898
ag129
ag129
ag129
aV \u2014
p6899
aV Lisi
p6900
aV Liliana
p6901
aV \u2014
p6902
aV Liliana
p6903
aV Liliana
p6904
aV Liliana
p6905
aV \u2014
p6906
aV Liliana
p6907
aV \u2014
p6908
aV Liliana
p6909
aV \u2014
p6910
aV \u2014
p6911
aV \u2014
p6912
aV Cassandra
p6913
ag129
ag129
ag129
ag129
aV Rita
p6914
aV \u2014
p6915
aV \u2014
p6916
aV Rita
p6917
aV \u2014
p6918
aV \u2014
p6919
aV \u2014
p6920
aV Rita
p6921
aV \u2014
p6922
aV Anthony
p6923
aV \u2014
p6924
aV Rita
p6925
aV Rita
p6926
aV Anthony
p6927
ag129
ag129
ag129
ag129
ag129
aV \u2014
p6928
aV \u2014
p6929
aV Anthony
p6930
aV \u2014
p6931
aV \u2014
p6932
aV \u2014
p6933
aV Anthony
p6934
aV Anthony
p6935
aV Anthony
p6936
aV \u2014
p6937
aVExiled
p6938
aV Anthony
p6939
aV Rocky
p6940
ag129
ag129
ag129
ag129
ag129
ag129
aV \u2014
p6941
aV \u2014
p6942
aV Rocky
p6943
aV \u2014
p6944
aV \u2014
p6945
aV \u2014
p6946
aV Rocky
p6947
aV Lisi
p6948
aV Rocky
p6949
aV \u2014
p6950
aV Rocky
p6951
aV Lisi
p6952
ag129
ag129
ag129
ag129
ag129
ag129
ag129
aV \u2014
p6953
aV \u2014
p6954
aV Lisi
p6955
aV \u2014
p6956
aV \u2014
p6957
aV \u2014
p6958
aV Lisi
p6959
aV Lisi
p6960
aV Lisi
p6961
aV \u2014
p6962
aV Dreamz
p6963
ag129
ag129
ag129
ag129
ag129
ag129
ag129
ag129
aV \u2014
p6964
aV \u2014
p6965
aV Michelle
p6966
aV \u2014
p6967
aV \u2014
p6968
aV Michelle
p6969
aV Michelle
p6970
aV Stacy
p6971
aV \u2014
p6972
aV Stacy
p6973
ag129
ag129
ag129
ag129
ag129
ag129
ag129
ag129
ag129
aV Edgardo
p6974
aV Edgardo
p6975
aV Mookie
p6976
aV Edgardo
p6977
aV Edgardo
p6978
aV Edgardo
p6979
aV Cassandra
p6980
aV Cassandra
p6981
aV Cassandra
p6982
ag129
ag129
ag129
ag129
ag129
ag129
ag129
ag129
ag129
ag129
aV Alex
p6983
aV Mookie
p6984
aV Mookie
p6985
aV Alex
p6986
aV Alex
p6987
aV Mookie
p6988
aV Mookie
p6989
aV Boo
p6990
ag129
ag129
ag129
ag129
ag129
ag129
ag129
ag129
ag129
ag129
ag129
aV Alex
p6991
aV Alex
p6992
aV Alex
p6993
aV Alex
p6994
aV Alex
p6995
aV Alex
p6996
aV Yau-Man
p6997
ag129
ag129
ag129
ag129
ag129
ag129
ag129
ag129
ag129
ag129
ag129
ag129
aV Stacy
p6998
aV Yau-Man
p6999
aV Yau-Man
p7000
aV Stacy
p7001
aV Yau-Man
p7002
aV Yau-Man
p7003
ag129
ag129
ag129
ag129
ag129
ag129
ag129
ag129
ag129
ag129
ag129
ag129
ag129
aV Boo
p7004
aV Boo
p7005
aV Boo
p7006
aV Boo
p7007
aV Dreamz
p7008
ag129
ag129
ag129
ag129
ag129
ag129
ag129
ag129
ag129
ag129
ag129
ag129
ag129
ag129
aV Yau-Man
p7009
aV Yau-Man
p7010
aV Yau-Man
p7011
aV Cassandra
p7012
ag129
ag129
ag129
ag129
ag129
ag129
ag129
ag129
ag129
ag129
ag129
ag129
ag129
ag129
ag129
ag319
ag319
ag319
ag129
ag129
ag129
ag129
ag129
ag129
ag129
ag129
ag129
ag129
ag129
ag129
ag129
ag129
ag129
ag129
ag319
ag319
ag319
ag129
ag129
ag129
ag129
ag129
ag129
ag129
ag129
ag129
ag129
ag129
ag129
ag129
ag129
ag129
ag129
ag319
ag319
ag319
aV Earl
p7013
aV Earl
p7014
aV Earl
p7015
aV Earl
p7016
aV Earl
p7017
aV Earl
p7018
aV Earl
p7019
aV Earl
p7020
aV Earl
p7021
ag129
ag129
ag129
ag129
ag129
ag129
ag129
atp7022
ba(lp7023
g21
(g22
(dp7024
g24
g25
(g26
(I0
tp7025
g28
tp7026
Rp7027
(I1
(L19L
tp7028
g35
I00
(lp7029
g6770
ag6771
ag6772
ag6773
ag6774
ag6775
ag6776
ag6777
ag6778
ag6779
ag6780
ag6781
ag6782
ag6783
ag6784
ag6785
ag6786
ag6787
ag6788
atp7030
bsg63
Nstp7031
Rp7032
a(dp7033
g339
(dp7034
g341
g6763
sg342
(lp7035
(dp7036
g345
g346
(I0
I19
I1
tp7037
Rp7038
sg349
g6826
sasstp7039
bsbsg351
I14
ssVAfrica
p7040
(dp7041
g3
Vhttp://survivor.wikia.com/wiki/Survivor:_Africa
p7042
sg5
g6
(g7
g8
Ntp7043
Rp7044
(dp7045
g12
g13
sg14
g15
sg16
g6
(g17
g8
Ntp7046
Rp7047
((lp7048
g21
(g22
(dp7049
g24
g25
(g26
(I0
tp7050
g28
tp7051
Rp7052
(I1
(L18L
tp7053
g35
I00
(lp7054
VDiane
p7055
aVJessie
p7056
aVCarl
p7057
aVCarl
p7058
aVLinda
p7059
aVSilas
p7060
aVLindsey
p7061
aVLindsey
p7062
aVClarence
p7063
aVKelly
p7064
aVBrandon
p7065
aVFrank
p7066
aVKim P.
p7067
aVTeresa
p7068
aVTom
p7069
aVLex
p7070
aVKim J.
p7071
aVEthan
p7072
atp7073
bsg63
Nstp7074
Rp7075
ag21
(g22
(dp7076
g24
g25
(g26
(I0
tp7077
g28
tp7078
Rp7079
(I1
(L16L
tp7080
g35
I00
(lp7081
VEthan
p7082
aVKim J.
p7083
aVLex
p7084
aVTom
p7085
aVTeresa
p7086
aVKim P.
p7087
aVFrank
p7088
aVBrandon
p7089
aVKelly
p7090
aVClarence
p7091
aVLindsey
p7092
aVSilas
p7093
aVLinda
p7094
aVCarl
p7095
aVJessie
p7096
aVDiane
p7097
atp7098
bsg63
g93
(g96
S'\x01\x00\x00\x00\x00\x00\x00\x00'
p7099
tp7100
Rp7101
stp7102
Rp7103
a(lp7104
g25
(g26
(I0
tp7105
g28
tp7106
Rp7107
(I1
(L18L
L16L
tp7108
g35
I00
(lp7109
V Diane
p7110
aV Diane
p7111
aV Diane
p7112
aV Clarence
p7113
aV \u2014
p7114
aV \u2014
p7115
aV \u2014
p7116
aV \u2014
p7117
aV Diane
p7118
aV Diane
p7119
aV \u2014
p7120
aV \u2014
p7121
aV \u2014
p7122
aV \u2014
p7123
aV Diane
p7124
aV Clarence
p7125
aV Jessie
p7126
aV Jessie
p7127
aV Jessie
p7128
aV Clarence
p7129
aV \u2014
p7130
aV \u2014
p7131
aV \u2014
p7132
aV \u2014
p7133
aV Jessie
p7134
aV Jessie
p7135
aV \u2014
p7136
aV \u2014
p7137
aV \u2014
p7138
aV \u2014
p7139
aV Clarence
p7140
ag129
aV \u2014
p7141
aV \u2014
p7142
aV \u2014
p7143
aV \u2014
p7144
aV Lindsey
p7145
aV Carl
p7146
aV Lindsey
p7147
aV Carl
p7148
aV \u2014
p7149
aV \u2014
p7150
aV Carl
p7151
aV Carl
p7152
aV Lindsey
p7153
aV Lindsey
p7154
ag129
ag129
ag7141
ag7142
ag7143
ag7144
aV Lindsey
p7155
aV Carl
p7156
aV Lindsey
p7157
aV Carl
p7158
ag7149
ag7150
aVNone
p7159
aV Carl
p7160
aV Lindsey
p7161
aVNone
p7162
ag129
ag129
aV \u2014
p7163
aV \u2014
p7164
aV \u2014
p7165
aV \u2014
p7166
aV Silas
p7167
aV Linda
p7168
aV Silas
p7169
aV Linda
p7170
aV \u2014
p7171
aV \u2014
p7172
aV Linda
p7173
aV Linda
p7174
aV Silas
p7175
ag129
ag129
ag129
aV Silas
p7176
aV Silas
p7177
aV \u2014
p7178
aV \u2014
p7179
aV Silas
p7180
aV \u2014
p7181
aV Silas
p7182
aV \u2014
p7183
aV \u2014
p7184
aV Silas
p7185
aV \u2014
p7186
aV Frank
p7187
ag129
ag129
ag129
ag129
aV \u2014
p7188
aV \u2014
p7189
aV Lindsey
p7190
aV Lindsey
p7191
aV \u2014
p7192
aV Tom
p7193
aV \u2014
p7194
aV Tom
p7195
aV Lindsey
p7196
aV \u2014
p7197
aV Tom
p7198
ag129
ag129
ag129
ag129
ag129
ag7188
ag7189
aV Lindsey
p7199
aVNone
p7200
ag7192
aV Tom
p7201
ag7194
aV Tom
p7202
aV Lindsey
p7203
ag7197
aVNone
p7204
ag129
ag129
ag129
ag129
ag129
aV Clarence
p7205
aV Clarence
p7206
aV Clarence
p7207
aV Clarence
p7208
aV Lex
p7209
aV Clarence
p7210
aV Clarence
p7211
aV Clarence
p7212
aV Clarence
p7213
aV Lex
p7214
ag129
ag129
ag129
ag129
ag129
ag129
aV Kelly
p7215
aV Kelly
p7216
aV Kelly
p7217
aV Kelly
p7218
aV Lex
p7219
aV Lex
p7220
aV Lex
p7221
aV Kelly
p7222
aV Lex
p7223
ag129
ag129
ag129
ag129
ag129
ag129
ag129
aV Brandon
p7224
aV Brandon
p7225
aV Frank
p7226
aV Brandon
p7227
aV Brandon
p7228
aV Brandon
p7229
aV Brandon
p7230
aV Frank
p7231
ag129
ag129
ag129
ag129
ag129
ag129
ag129
ag129
aV Frank
p7232
aV Frank
p7233
aV Frank
p7234
aV Frank
p7235
aV Frank
p7236
aV Frank
p7237
aV Kim J.
p7238
ag129
ag129
ag129
ag129
ag129
ag129
ag129
ag129
ag129
aV Kim P.
p7239
aV Kim P.
p7240
aV Kim P.
p7241
aV Kim P.
p7242
aV Lex
p7243
aV Lex
p7244
ag129
ag129
ag129
ag129
ag129
ag129
ag129
ag129
ag129
ag129
aV Teresa
p7245
aV Teresa
p7246
aV Teresa
p7247
aV Teresa
p7248
aV Tom
p7249
ag129
ag129
ag129
ag129
ag129
ag129
ag129
ag129
ag129
ag129
ag129
aV Tom
p7250
aV Tom
p7251
aV Tom
p7252
aV Lex
p7253
ag129
ag129
ag129
ag129
ag129
ag129
ag129
ag129
ag129
ag129
ag129
ag129
aV \u2014
p7254
aV Lex
p7255
aV \u2014
p7256
ag129
ag129
ag129
ag129
ag129
ag129
ag129
ag129
ag129
ag129
ag129
ag129
ag129
ag319
ag319
ag129
ag129
ag129
aV Kim J.
p7257
ag129
aV Kim J.
p7258
ag129
ag129
ag129
ag129
ag129
ag129
ag129
ag129
ag319
ag319
aV Ethan
p7259
aV Ethan
p7260
aV Ethan
p7261
ag129
aV Ethan
p7262
ag129
aV Ethan
p7263
ag129
ag129
ag129
ag129
ag129
ag129
ag129
atp7264
ba(lp7265
g21
(g22
(dp7266
g24
g25
(g26
(I0
tp7267
g28
tp7268
Rp7269
(I1
(L18L
tp7270
g35
I00
(lp7271
g7055
ag7056
ag7057
ag7058
ag7059
ag7060
ag7061
ag7062
ag7063
ag7064
ag7065
ag7066
ag7067
ag7068
ag7069
ag7070
ag7071
ag7072
atp7272
bsg63
Nstp7273
Rp7274
a(dp7275
g339
(dp7276
g341
g7048
sg342
(lp7277
(dp7278
g345
g346
(I0
I18
I1
tp7279
Rp7280
sg349
g7107
sasstp7281
bsbsg351
I3
ssVSan_Juan_del_Sur
p7282
(dp7283
g3
Vhttp://survivor.wikia.com/wiki/Survivor:_San_Juan_del_Sur
p7284
sg5
g6
(g7
g8
Ntp7285
Rp7286
(dp7287
g12
g13
sg14
g15
sg16
g6
(g17
g8
Ntp7288
Rp7289
((lp7290
g21
(g22
(dp7291
g24
g25
(g26
(I0
tp7292
g28
tp7293
Rp7294
(I1
(L20L
tp7295
g35
I00
(lp7296
VNadiya
p7297
aVVal
p7298
aVVal
p7299
aVJohn
p7300
aVDrew
p7301
aVKelley
p7302
aVDale
p7303
aVJulie
p7304
aVJosh
p7305
aVJeremy
p7306
aVWes
p7307
aVReed
p7308
aVAlec
p7309
aVJon
p7310
aVJon
p7311
aVBaylor
p7312
aVKeith
p7313
aVMissy
p7314
aVJaclyn
p7315
aVNatalie
p7316
atp7317
bsg63
Nstp7318
Rp7319
ag21
(g22
(dp7320
g24
g25
(g26
(I0
tp7321
g28
tp7322
Rp7323
(I1
(L18L
tp7324
g35
I00
(lp7325
VNatalie
p7326
aVJaclyn
p7327
aVMissy
p7328
aVKeith
p7329
aVBaylor
p7330
aVJon
p7331
aVAlec
p7332
aVReed
p7333
aVWes
p7334
aVJeremy
p7335
aVJosh
p7336
aVJulie
p7337
aVDale
p7338
aVKelley
p7339
aVDrew
p7340
aVJohn
p7341
aVVal
p7342
aVNadiya
p7343
atp7344
bsg63
g93
(g96
S'\x01\x00\x00\x00\x00\x00\x00\x00'
p7345
tp7346
Rp7347
stp7348
Rp7349
a(lp7350
g25
(g26
(I0
tp7351
g28
tp7352
Rp7353
(I1
(L20L
L18L
tp7354
g35
I00
(lp7355
V \u2014
p7356
aV Dale
p7357
aV \u2014
p7358
aV \u2014
p7359
aV Nadiya
p7360
aV \u2014
p7361
aV Nadiya
p7362
aV \u2014
p7363
aV Nadiya
p7364
aV \u2014
p7365
aV Baylor
p7366
aV \u2014
p7367
aV Nadiya
p7368
aV \u2014
p7369
aV \u2014
p7370
aV Nadiya
p7371
aV Dale
p7372
aV Dale
p7373
aV \u2014
p7374
aV Baylor
p7375
aV \u2014
p7376
aV \u2014
p7377
aV Val
p7378
aV \u2014
p7379
aV Baylor
p7380
aV \u2014
p7381
aV Val
p7382
aV \u2014
p7383
aV Val
p7384
aV \u2014
p7385
aV Val
p7386
aV \u2014
p7387
aV \u2014
p7388
aV Baylor
p7389
aV Baylor
p7390
ag129
ag7374
aV Baylor
p7391
ag7376
ag7377
aV None
p7392
ag7379
aV Val
p7393
ag7381
aV Val
p7394
ag7383
aV Val
p7395
ag7385
aV Val
p7396
ag7387
ag7388
aV Val
p7397
aV None
p7398
ag129
aV \u2014
p7399
aV John
p7400
aV \u2014
p7401
aV \u2014
p7402
aV John
p7403
aV \u2014
p7404
aV John
p7405
aV \u2014
p7406
aV John
p7407
aV \u2014
p7408
aV John
p7409
aV \u2014
p7410
aV Baylor
p7411
aV \u2014
p7412
aV \u2014
p7413
aV Baylor
p7414
ag129
ag129
aV Drew
p7415
aV \u2014
p7416
aV Drew
p7417
aV Julie
p7418
aV \u2014
p7419
aV Keith
p7420
aV \u2014
p7421
aV Julie
p7422
aV \u2014
p7423
aV Drew
p7424
aV \u2014
p7425
aV Drew
p7426
aV \u2014
p7427
aV Drew
p7428
aV Kelley
p7429
ag129
ag129
ag129
aV \u2014
p7430
aV Kelley
p7431
aV Kelley
p7432
aV Dale
p7433
aV Kelley
p7434
aV Dale
p7435
aV \u2014
p7436
aV \u2014
p7437
aV \u2014
p7438
aV \u2014
p7439
aV \u2014
p7440
aV \u2014
p7441
aV Baylor
p7442
aV Baylor
p7443
ag129
ag129
ag129
ag129
aV \u2014
p7444
aV Dale
p7445
aV Keith
p7446
aV Dale
p7447
aV Keith
p7448
aV Dale
p7449
aV \u2014
p7450
aV \u2014
p7451
aV \u2014
p7452
aV \u2014
p7453
aV \u2014
p7454
aV \u2014
p7455
aV Missy
p7456
ag129
ag129
ag129
ag129
ag129
aV \u2014
p7457
aV \u2014
p7458
aV \u2014
p7459
aV \u2014
p7460
aV \u2014
p7461
aV \u2014
p7462
aV \u2014
p7463
aV \u2014
p7464
aV \u2014
p7465
aV \u2014
p7466
aV \u2014
p7467
aV Quit
p7468
ag129
ag129
ag129
ag129
ag129
ag129
aV Josh
p7469
aV Josh
p7470
aV Josh
p7471
aV Baylor
p7472
aV Josh
p7473
aV Josh
p7474
aV Baylor
p7475
aV Baylor
p7476
aV Baylor
p7477
aV Josh
p7478
aV Baylor
p7479
ag129
ag129
ag129
ag129
ag129
ag129
ag129
aV Keith
p7480
aV Jeremy
p7481
aV Jeremy
p7482
aV Reed
p7483
aV Jeremy
p7484
aV Jeremy
p7485
aV Reed
p7486
aV Jeremy
p7487
aV Reed
p7488
aV Keith
p7489
ag129
ag129
ag129
ag129
ag129
ag129
ag129
ag129
aV Keith
p7490
aV Wes
p7491
aV Keith
p7492
aV Jon
p7493
aV Keith
p7494
aV Wes
p7495
aV Jon
p7496
aV Jon
p7497
aV Jon
p7498
ag129
ag129
ag129
ag129
ag129
ag129
ag129
ag129
ag129
aV Reed
p7499
aV Reed
p7500
aV Reed
p7501
aV Reed
p7502
aV Reed
p7503
aV Reed
p7504
aV Reed
p7505
aV Missy
p7506
ag129
ag129
ag129
ag129
ag129
ag129
ag129
ag129
ag129
ag129
aV Alec
p7507
aV Keith
p7508
aV Alec
p7509
aV Alec
p7510
aV Alec
p7511
aV Keith
p7512
aV Keith
p7513
ag129
ag129
ag129
ag129
ag129
ag129
ag129
ag129
ag129
ag129
ag129
aV Jon
p7514
aV Keith
p7515
aV Jaclyn
p7516
aV Jon
p7517
aV Jaclyn
p7518
aV Keith
p7519
ag129
ag129
ag129
ag129
ag129
ag129
ag129
ag129
ag129
ag129
ag129
ag129
aV Jon
p7520
aV None
p7521
aV Jaclyn
p7522
aV None
p7523
aV Jon
p7524
aV None
p7525
ag129
ag129
ag129
ag129
ag129
ag129
ag129
ag129
ag129
ag129
ag129
ag129
aV Baylor
p7526
aV Baylor
p7527
aV Jaclyn
p7528
aV Jaclyn
p7529
aV Jaclyn
p7530
ag129
ag129
ag129
ag129
ag129
ag129
ag129
ag129
ag129
ag129
ag129
ag129
ag129
aV Keith
p7531
aV Keith
p7532
aV Keith
p7533
aV Missy
p7534
ag129
ag129
ag129
ag129
ag129
ag129
ag129
ag129
ag129
ag129
ag129
ag129
ag129
ag129
ag319
ag319
ag319
ag129
aV Missy
p7535
ag129
ag129
ag129
ag129
ag129
ag129
ag129
ag129
ag129
ag129
ag129
ag129
ag129
ag319
ag319
ag319
ag129
ag129
aV Jaclyn
p7536
ag129
aV Jaclyn
p7537
ag129
ag129
ag129
ag129
ag129
ag129
ag129
ag129
ag129
ag129
ag319
ag319
ag319
aV Natalie
p7538
ag129
ag129
aV Natalie
p7539
ag129
aV Natalie
p7540
aV Natalie
p7541
aV Natalie
p7542
ag129
ag129
ag129
ag129
ag129
ag129
ag129
atp7543
ba(lp7544
g21
(g22
(dp7545
g24
g25
(g26
(I0
tp7546
g28
tp7547
Rp7548
(I1
(L20L
tp7549
g35
I00
(lp7550
g7297
ag7298
ag7299
ag7300
ag7301
ag7302
ag7303
ag7304
ag7305
ag7306
ag7307
ag7308
ag7309
ag7310
ag7311
ag7312
ag7313
ag7314
ag7315
ag7316
atp7551
bsg63
Nstp7552
Rp7553
a(dp7554
g339
(dp7555
g341
g7290
sg342
(lp7556
(dp7557
g345
g346
(I0
I20
I1
tp7558
Rp7559
sg349
g7353
sasstp7560
bsbsg351
I29
ssVCook_Islands
p7561
(dp7562
g3
Vhttp://survivor.wikia.com/wiki/Survivor:_Cook_Islands
p7563
sg5
g6
(g7
g8
Ntp7564
Rp7565
(dp7566
g12
g13
sg14
g15
sg16
g6
(g17
g8
Ntp7567
Rp7568
((lp7569
g21
(g22
(dp7570
g24
g25
(g26
(I0
tp7571
g28
tp7572
Rp7573
(I1
(L20L
tp7574
g35
I00
(lp7575
VSekou
p7576
aVBilly
p7577
aVCecilia
p7578
aVJ.P.
p7579
aVStephannie
p7580
aVCao Boi
p7581
aVCristina
p7582
aVJessica
p7583
aVBrad
p7584
aVRebecca
p7585
aVJenny
p7586
aVNate
p7587
aVCandice
p7588
aVJonathan
p7589
aVParvati
p7590
aVAdam
p7591
aVSundra
p7592
aVBecky
p7593
aVOzzy
p7594
aVYul
p7595
atp7596
bsg63
Nstp7597
Rp7598
ag21
(g22
(dp7599
g24
g25
(g26
(I0
tp7600
g28
tp7601
Rp7602
(I1
(L20L
tp7603
g35
I00
(lp7604
VYul
p7605
aVOzzy
p7606
aVBecky
p7607
aVSundra
p7608
aVAdam
p7609
aVParvati
p7610
aVJonathan
p7611
aVCandice
p7612
aVNate
p7613
aVJenny
p7614
aVRebecca
p7615
aVBrad
p7616
aVJessica
p7617
aVCristina
p7618
aVCao Boi
p7619
aVStephannie
p7620
aVJ.P.
p7621
aVCecilia
p7622
aVBilly
p7623
aVSekou
p7624
atp7625
bsg63
g93
(g96
S'\x01\x00\x00\x00\x00\x00\x00\x00'
p7626
tp7627
Rp7628
stp7629
Rp7630
a(lp7631
g25
(g26
(I0
tp7632
g28
tp7633
Rp7634
(I1
(L20L
L20L
tp7635
g35
I00
(lp7636
V \u2014
p7637
aV \u2014
p7638
aV \u2014
p7639
aV Sekou
p7640
aV \u2014
p7641
aV \u2014
p7642
aV \u2014
p7643
aV \u2014
p7644
aV Sundra
p7645
aV \u2014
p7646
aV Sekou
p7647
aV \u2014
p7648
aV \u2014
p7649
aV \u2014
p7650
aV \u2014
p7651
aV Sekou
p7652
aV \u2014
p7653
aV \u2014
p7654
aV \u2014
p7655
aV Sundra
p7656
aV \u2014
p7657
aV Billy
p7658
aV \u2014
p7659
aV \u2014
p7660
aV \u2014
p7661
aV \u2014
p7662
aV \u2014
p7663
aV \u2014
p7664
aV \u2014
p7665
aV \u2014
p7666
aV \u2014
p7667
aV \u2014
p7668
aV \u2014
p7669
aV Billy
p7670
aV \u2014
p7671
aV \u2014
p7672
aV Billy
p7673
aV Billy
p7674
aV Ozzy
p7675
ag129
aV Cecilia
p7676
aV Becky
p7677
aV Cecilia
p7678
aV Becky
p7679
aV \u2014
p7680
aV \u2014
p7681
aV Cecilia
p7682
aVExiled
p7683
aV \u2014
p7684
aV \u2014
p7685
aV \u2014
p7686
aV \u2014
p7687
aV Cecilia
p7688
aV \u2014
p7689
aV Cecilia
p7690
aV \u2014
p7691
aV \u2014
p7692
aV Becky
p7693
ag129
ag129
aV \u2014
p7694
aV \u2014
p7695
aV \u2014
p7696
aV \u2014
p7697
aV J.P.
p7698
aV J.P.
p7699
aV \u2014
p7700
aV \u2014
p7701
aV Stephannie
p7702
aV J.P.
p7703
aV J.P.
p7704
aV J.P.
p7705
aV \u2014
p7706
aV J.P.
p7707
aV \u2014
p7708
aV J.P.
p7709
aV Stephannie
p7710
ag129
ag129
ag129
aV \u2014
p7711
aV \u2014
p7712
aV \u2014
p7713
aV \u2014
p7714
aV Stephannie
p7715
aV Stephannie
p7716
aV \u2014
p7717
aV \u2014
p7718
aV Stephannie
p7719
aV Stephannie
p7720
aV Stephannie
p7721
aV Stephannie
p7722
aV \u2014
p7723
aV Stephannie
p7724
aV \u2014
p7725
aV Cristina
p7726
ag129
ag129
ag129
ag129
aV Cao Boi
p7727
aV Cao Boi
p7728
aV Cao Boi
p7729
aV Cao Boi
p7730
aV \u2014
p7731
aV \u2014
p7732
aV Cao Boi
p7733
aV Cao Boi
p7734
aV \u2014
p7735
aV \u2014
p7736
aV \u2014
p7737
aV \u2014
p7738
aV Jonathan
p7739
aV \u2014
p7740
aV Candice
p7741
ag129
ag129
ag129
ag129
ag129
aV \u2014
p7742
aV \u2014
p7743
aV \u2014
p7744
aV \u2014
p7745
aV Cristina
p7746
aV Cristina
p7747
aV \u2014
p7748
aV \u2014
p7749
aVKidnapped
p7750
aV Cristina
p7751
aV Cristina
p7752
aV Jenny
p7753
aV \u2014
p7754
aV Jenny
p7755
ag129
ag129
ag129
ag129
ag129
ag129
aV Jessica
p7756
aV Jessica
p7757
aV Jessica
p7758
aV Jessica
p7759
aV \u2014
p7760
aV \u2014
p7761
aV Jessica
p7762
aV Jessica
p7763
aV \u2014
p7764
aV \u2014
p7765
aV \u2014
p7766
aV \u2014
p7767
aV Jonathan
p7768
ag129
ag129
ag129
ag129
ag129
ag129
ag129
aV \u2014
p7769
aV \u2014
p7770
aV \u2014
p7771
aV \u2014
p7772
aV Brad
p7773
aV Brad
p7774
aV Brad
p7775
aV Brad
p7776
aV Brad
p7777
aV Brad
p7778
aV Brad
p7779
aV Jonathan
p7780
ag129
ag129
ag129
ag129
ag129
ag129
ag129
ag129
aV \u2014
p7781
aV \u2014
p7782
aV \u2014
p7783
aV \u2014
p7784
aV Rebecca
p7785
aV Rebecca
p7786
aV Rebecca
p7787
aV Rebecca
p7788
aV Rebecca
p7789
aV Rebecca
p7790
aV Jonathan
p7791
ag129
ag129
ag129
ag129
ag129
ag129
ag129
ag129
ag129
aV \u2014
p7792
aV \u2014
p7793
aV \u2014
p7794
aV \u2014
p7795
aV Jenny
p7796
aV Jenny
p7797
aV Jenny
p7798
aV Jenny
p7799
aV Jonathan
p7800
aV Jonathan
p7801
ag129
ag129
ag129
ag129
ag129
ag129
ag129
ag129
ag129
ag129
aV Nate
p7802
aV Nate
p7803
aV Nate
p7804
aV Nate
p7805
aV Yul
p7806
aV Yul
p7807
aV Nate
p7808
aV Yul
p7809
aV Yul
p7810
ag129
ag129
ag129
ag129
ag129
ag129
ag129
ag129
ag129
ag129
ag129
aV Candice
p7811
aV Candice
p7812
aV Candice
p7813
aV Candice
p7814
aV Jonathan
p7815
aV Jonathan
p7816
aV Candice
p7817
aV Jonathan
p7818
ag129
ag129
ag129
ag129
ag129
ag129
ag129
ag129
ag129
ag129
ag129
ag129
aV Jonathan
p7819
aV Jonathan
p7820
aV Jonathan
p7821
aV Jonathan
p7822
aV Jonathan
p7823
aV Jonathan
p7824
aV Adam
p7825
ag129
ag129
ag129
ag129
ag129
ag129
ag129
ag129
ag129
ag129
ag129
ag129
ag129
aV Parvati
p7826
aV Parvati
p7827
aV Parvati
p7828
aV Parvati
p7829
aV Sundra
p7830
aV Sundra
p7831
ag129
ag129
ag129
ag129
ag129
ag129
ag129
ag129
ag129
ag129
ag129
ag129
ag129
ag129
aV Adam
p7832
aV Adam
p7833
aV Adam
p7834
aV Adam
p7835
aV Yul
p7836
ag129
ag129
ag129
ag129
ag129
ag129
ag129
ag129
ag129
ag129
ag129
ag129
ag129
ag129
ag129
aV Sundra
p7837
aV Becky
p7838
aV Sundra
p7839
aV Becky
p7840
ag129
ag129
ag129
ag129
ag129
ag129
ag129
ag129
ag129
ag129
ag129
ag129
ag129
ag129
ag129
ag129
ag319
ag319
ag319
ag129
ag129
ag129
ag129
ag129
ag129
ag129
ag129
ag129
ag129
ag129
ag129
ag129
ag129
ag129
ag129
ag129
ag319
ag319
ag319
ag129
ag129
aV Ozzy
p7841
ag129
ag129
aV Ozzy
p7842
aV Ozzy
p7843
aV Ozzy
p7844
ag129
ag129
ag129
ag129
ag129
ag129
ag129
ag129
ag129
ag319
ag319
ag319
aV Yul
p7845
aV Yul
p7846
ag129
aV Yul
p7847
aV Yul
p7848
ag129
ag129
ag129
aV Yul
p7849
ag129
ag129
ag129
ag129
ag129
ag129
ag129
ag129
atp7850
ba(lp7851
g21
(g22
(dp7852
g24
g25
(g26
(I0
tp7853
g28
tp7854
Rp7855
(I1
(L20L
tp7856
g35
I00
(lp7857
g7576
ag7577
ag7578
ag7579
ag7580
ag7581
ag7582
ag7583
ag7584
ag7585
ag7586
ag7587
ag7588
ag7589
ag7590
ag7591
ag7592
ag7593
ag7594
ag7595
atp7858
bsg63
Nstp7859
Rp7860
a(dp7861
g339
(dp7862
g341
g7569
sg342
(lp7863
(dp7864
g345
g346
(I0
I20
I1
tp7865
Rp7866
sg349
g7634
sasstp7867
bsbsg351
I13
ssVRedemption_Island
p7868
(dp7869
g3
Vhttp://survivor.wikia.com/wiki/Survivor:_Redemption_Island
p7870
sg5
g6
(g7
g8
Ntp7871
Rp7872
(dp7873
g12
g13
sg14
g15
sg16
g6
(g17
g8
Ntp7874
Rp7875
((lp7876
g21
(g22
(dp7877
g24
g25
(g26
(I0
tp7878
g28
tp7879
Rp7880
(I1
(L21L
tp7881
g35
I00
(lp7882
VFrancesca
p7883
aVMatthew
p7884
aVRussell
p7885
aVRussell
p7886
aVKristina
p7887
aVKrista
p7888
aVStephanie
p7889
aVSarita
p7890
aVMatthew
p7891
aVMike
p7892
aVDavid
p7893
aVJulie
p7894
aVRalph
p7895
aVSteve
p7896
aVAndrea
p7897
aVGrant
p7898
aVAndrea
p7899
aVAshley
p7900
aVNatalie
p7901
aVPhillip
p7902
aVRob
p7903
atp7904
bsg63
Nstp7905
Rp7906
ag21
(g22
(dp7907
g24
g25
(g26
(I0
tp7908
g28
tp7909
Rp7910
(I1
(L18L
tp7911
g35
I00
(lp7912
VRob
p7913
aVPhillip
p7914
aVNatalie
p7915
aVAshley
p7916
aVAndrea
p7917
aVMike
p7918
aVMatthew
p7919
aVGrant
p7920
aV Ralph
p7921
aVSteve
p7922
aVJulie
p7923
aVDavid
p7924
aVSarita
p7925
aVStephanie
p7926
aVKrista
p7927
aVKristina
p7928
aVRussell
p7929
aVFrancesca
p7930
atp7931
bsg63
g93
(g96
S'\x01\x00\x00\x00\x00\x00\x00\x00'
p7932
tp7933
Rp7934
stp7935
Rp7936
a(lp7937
g25
(g26
(I0
tp7938
g28
tp7939
Rp7940
(I1
(L21L
L18L
tp7941
g35
I00
(lp7942
V Francesca
p7943
aV Francesca
p7944
aV Kristina
p7945
aV Kristina
p7946
aV Kristina
p7947
aV \u2014
p7948
aV Francesca
p7949
aV Francesca
p7950
aV \u2014
p7951
aV \u2014
p7952
aV \u2014
p7953
aV \u2014
p7954
aV \u2014
p7955
aV \u2014
p7956
aV \u2014
p7957
aV Phillip
p7958
aV \u2014
p7959
aV Phillip
p7960
aV Matthew
p7961
aV Kristina
p7962
aV Matthew
p7963
aV Matthew
p7964
aV Kristina
p7965
aV \u2014
p7966
aV Phillip
p7967
aV Matthew
p7968
aV \u2014
p7969
aV \u2014
p7970
aV \u2014
p7971
aV \u2014
p7972
aV \u2014
p7973
aV \u2014
p7974
aV \u2014
p7975
aV Phillip
p7976
aV \u2014
p7977
ag4554
aV \u2014
p7978
aV \u2014
p7979
aV \u2014
p7980
aV \u2014
p7981
aV \u2014
p7982
aV Russell
p7983
ag4554
aV \u2014
p7984
aV Russell
p7985
aV Stephanie
p7986
aV Stephanie
p7987
aV Russell
p7988
aV Stephanie
p7989
aV Ralph
p7990
aV Ralph
p7991
aV \u2014
p7992
aV Ralph
p7993
ag4554
ag7978
ag7979
ag7980
ag7981
ag7982
aV Russell
p7994
ag4554
ag7984
aVNone
p7995
aV Russell
p7996
aV Russell
p7997
aV Russell
p7998
aV Russell
p7999
aVNone
p8000
aV Ralph
p8001
ag7992
aVNone
p8002
ag4554
aV Phillip
p8003
aV Kristina
p8004
aV Kristina
p8005
aV Kristina
p8006
aV Kristina
p8007
aV \u2014
p8008
ag4554
aV Phillip
p8009
aV \u2014
p8010
aV \u2014
p8011
aV \u2014
p8012
aV \u2014
p8013
aV \u2014
p8014
aV \u2014
p8015
aV\u2014
p8016
aV Phillip
p8017
ag4554
ag129
aV \u2014
p8018
aV \u2014
p8019
aV \u2014
p8020
aV \u2014
p8021
aV \u2014
p8022
aV Krista
p8023
ag4554
aV \u2014
p8024
aV Krista
p8025
aV Krista
p8026
aV Krista
p8027
aV Krista
p8028
aV Krista
p8029
aV Steve
p8030
aV Steve
p8031
ag4554
ag129
ag129
aV \u2014
p8032
aV \u2014
p8033
aV \u2014
p8034
aV \u2014
p8035
aV \u2014
p8036
aV Stephanie
p8037
ag4554
aV \u2014
p8038
aV Stephanie
p8039
aV Stephanie
p8040
aV Stephanie
p8041
aV Sarita
p8042
aV Stephanie
p8043
aV Sarita
p8044
ag4554
ag129
ag129
ag129
aV \u2014
p8045
aV \u2014
p8046
aV \u2014
p8047
aV \u2014
p8048
aV \u2014
p8049
aV Sarita
p8050
ag4554
aV \u2014
p8051
aV David
p8052
aV Sarita
p8053
aV Sarita
p8054
aV Sarita
p8055
aV David
p8056
ag4554
ag129
ag129
ag129
ag129
aV Matthew
p8057
aV Matthew
p8058
aV Matthew
p8059
aV Matthew
p8060
aV Matthew
p8061
aV Grant
p8062
aV Steve
p8063
aV Matthew
p8064
aV Grant
p8065
aV Grant
p8066
aV Grant
p8067
aV Grant
p8068
ag4554
ag129
ag129
ag129
ag129
ag129
aV Mike
p8069
aV Mike
p8070
aV Mike
p8071
aV Mike
p8072
aV Mike
p8073
aV Phillip
p8074
ag4554
aV Mike
p8075
aV Phillip
p8076
aV Phillip
p8077
aV Phillip
p8078
aV Phillip
p8079
ag129
ag129
ag129
ag129
ag129
ag129
aV David
p8080
aV David
p8081
aV David
p8082
aV David
p8083
aV David
p8084
ag4554
ag4554
aV David
p8085
aV Rob
p8086
aV Rob
p8087
aV Rob
p8088
aV Rob
p8089
ag129
ag129
ag129
ag129
ag129
ag129
aV Julie
p8090
aV Julie
p8091
aV Julie
p8092
aV Julie
p8093
aV Julie
p8094
ag4554
ag4554
aV Julie
p8095
aV Phillip
p8096
aV Phillip
p8097
aV Phillip
p8098
ag4554
ag129
ag129
ag129
ag129
ag129
ag129
aV Ralph
p8099
aV Ralph
p8100
aV Ralph
p8101
aV Ralph
p8102
aV Ralph
p8103
ag4554
ag4554
aV Ralph
p8104
aV Rob
p8105
aV Rob
p8106
ag4554
ag129
ag129
ag129
ag129
ag129
ag129
ag129
aV Steve
p8107
aV Steve
p8108
aV Steve
p8109
aV Steve
p8110
aV Steve
p8111
ag4554
ag4554
aV Steve
p8112
ag4554
aV Grant
p8113
ag129
ag129
ag129
ag129
ag129
ag129
ag129
ag129
aV Andrea
p8114
aV Andrea
p8115
aV Andrea
p8116
aV Andrea
p8117
aV Phillip
p8118
ag4554
ag4554
aV Andrea
p8119
ag4554
ag4554
ag129
ag129
ag129
ag129
ag129
ag129
ag129
ag129
aV Grant
p8120
aV Grant
p8121
aV Grant
p8122
aV Grant
p8123
ag4554
ag4554
ag4554
aV Natalie
p8124
ag4554
ag129
ag129
ag129
ag129
ag129
ag129
ag129
ag129
ag129
aV Andrea
p8125
aV Andrea
p8126
aV Andrea
p8127
aV Andrea
p8128
aV Rob
p8129
ag4554
ag4554
ag4554
ag129
ag129
ag129
ag129
ag129
ag129
ag129
ag129
ag129
ag129
ag319
ag319
ag319
ag319
ag129
ag129
ag129
ag129
ag129
ag129
ag129
ag129
ag129
ag129
ag129
ag129
ag129
ag129
ag319
ag319
ag319
ag319
ag129
ag129
ag129
ag129
ag129
ag129
ag129
ag129
ag129
ag129
ag129
ag129
ag129
ag129
ag319
ag319
ag319
ag319
ag129
ag129
ag129
ag129
aV Phillip
p8130
ag129
ag129
ag129
ag129
ag129
ag129
ag129
ag129
ag129
ag319
ag319
ag319
ag319
aV Rob
p8131
aV Rob
p8132
aV Rob
p8133
aV Rob
p8134
ag129
aV Rob
p8135
aV Rob
p8136
aV Rob
p8137
ag129
ag129
ag129
ag129
ag129
ag129
atp8138
ba(lp8139
g21
(g22
(dp8140
g24
g25
(g26
(I0
tp8141
g28
tp8142
Rp8143
(I1
(L21L
tp8144
g35
I00
(lp8145
g7883
ag7884
ag7885
ag7886
ag7887
ag7888
ag7889
ag7890
ag7891
ag7892
ag7893
ag7894
ag7895
ag7896
ag7897
ag7898
ag7899
ag7900
ag7901
ag7902
ag7903
atp8146
bsg63
Nstp8147
Rp8148
a(dp8149
g339
(dp8150
g341
g7876
sg342
(lp8151
(dp8152
g345
g346
(I0
I21
I1
tp8153
Rp8154
sg349
g7940
sasstp8155
bsbsg351
I22
ssVNicaragua
p8156
(dp8157
g3
Vhttp://survivor.wikia.com/wiki/Survivor:_Nicaragua
p8158
sg5
g6
(g7
g8
Ntp8159
Rp8160
(dp8161
g12
g13
sg14
g15
sg16
g6
(g17
g8
Ntp8162
Rp8163
((lp8164
g21
(g22
(dp8165
g24
g25
(g26
(I0
tp8166
g28
tp8167
Rp8168
(I1
(L21L
tp8169
g35
I00
(lp8170
VWendy
p8171
aVShannon
p8172
aVJimmy J.
p8173
aVJimmy T.
p8174
aVTyrone
p8175
aVKelly B.
p8176
aVKelly B.
p8177
aVYve
p8178
aVJill
p8179
aVAlina
p8180
aVMarty
p8181
aVBrenda
p8182
aVNaOnka
p8183
aVKelly S.
p8184
aVBenry
p8185
aVJane
p8186
aVDan
p8187
aVHolly
p8188
aVSash
p8189
aVChase
p8190
aVFabio
p8191
atp8192
bsg63
Nstp8193
Rp8194
ag21
(g22
(dp8195
g24
g25
(g26
(I0
tp8196
g28
tp8197
Rp8198
(I1
(L20L
tp8199
g35
I00
(lp8200
VFabio
p8201
aVChase
p8202
aVSash
p8203
aVHolly
p8204
aVDan
p8205
aVJane
p8206
aVBenry
p8207
aVKelly S.
p8208
aVNaOnka
p8209
aVBrenda
p8210
aVMarty
p8211
aVAlina
p8212
aVJill
p8213
aVYve
p8214
aVKelly B.
p8215
aVTyrone
p8216
aVJimmy T.
p8217
aVJimmy J.
p8218
aVShannon
p8219
aVWendy
p8220
atp8221
bsg63
g93
(g96
S'\x01\x00\x00\x00\x00\x00\x00\x00'
p8222
tp8223
Rp8224
stp8225
Rp8226
a(lp8227
g25
(g26
(I0
tp8228
g28
tp8229
Rp8230
(I1
(L21L
L20L
tp8231
g35
I00
(lp8232
V \u2014
p8233
aV \u2014
p8234
aV \u2014
p8235
aV Wendy
p8236
aV Wendy
p8237
aV Wendy
p8238
aV \u2014
p8239
aV \u2014
p8240
aV \u2014
p8241
aV \u2014
p8242
aV Wendy
p8243
aV \u2014
p8244
aV Wendy
p8245
aV Wendy
p8246
aV \u2014
p8247
aV Wendy
p8248
aV Wendy
p8249
aV Wendy
p8250
aV \u2014
p8251
aV Yve
p8252
aV Brenda
p8253
aV Shannon
p8254
aV Shannon
p8255
aV \u2014
p8256
aV \u2014
p8257
aV \u2014
p8258
aV Shannon
p8259
aV Shannon
p8260
aV Shannon
p8261
aV Shannon
p8262
aV \u2014
p8263
aV Brenda
p8264
aV \u2014
p8265
aV \u2014
p8266
aV Shannon
p8267
aV \u2014
p8268
aV \u2014
p8269
aV \u2014
p8270
aV Brenda
p8271
ag129
aV \u2014
p8272
aV \u2014
p8273
aV \u2014
p8274
aV Jimmy J.
p8275
aV Jimmy J.
p8276
aV Jimmy J.
p8277
aV \u2014
p8278
aV \u2014
p8279
aV \u2014
p8280
aV \u2014
p8281
aV Jimmy J.
p8282
aV \u2014
p8283
aV Jimmy J.
p8284
aV Jimmy J.
p8285
aV \u2014
p8286
aV Jimmy J.
p8287
aV Jimmy J.
p8288
aV Dan
p8289
ag129
ag129
aV \u2014
p8290
aV \u2014
p8291
aV \u2014
p8292
aV Dan
p8293
aV Jimmy T.
p8294
aV Dan
p8295
aV \u2014
p8296
aV \u2014
p8297
aV \u2014
p8298
aV \u2014
p8299
aV Jimmy T.
p8300
aV \u2014
p8301
aV Jimmy T.
p8302
aV Jimmy T.
p8303
aV \u2014
p8304
aV Jimmy T.
p8305
aV Dan
p8306
ag129
ag129
ag129
aV \u2014
p8307
aV Tyrone
p8308
ag8292
aV Tyrone
p8309
aV Tyrone
p8310
aV \u2014
p8311
aV Tyrone
p8312
aV \u2014
p8313
aV Tyrone
p8314
aV \u2014
p8315
aV \u2014
p8316
aV Tyrone
p8317
aV \u2014
p8318
aV NaOnka
p8319
aV \u2014
p8320
aV NaOnka
p8321
ag129
ag129
ag129
ag129
aV Kelly B.
p8322
aV \u2014
p8323
aV Marty
p8324
aV \u2014
p8325
aV \u2014
p8326
aV Marty
p8327
aV \u2014
p8328
aV Kelly B.
p8329
aV \u2014
p8330
aV Kelly B.
p8331
aV Brenda
p8332
aV \u2014
p8333
aV Brenda
p8334
aV \u2014
p8335
aV Marty
p8336
ag129
ag129
ag129
ag129
ag129
aV Kelly B.
p8337
ag8323
aV Kelly B.
p8338
ag8325
ag8326
aV Marty
p8339
ag8328
aV Kelly B.
p8340
ag8330
aV Kelly B.
p8341
aVNone
p8342
ag8333
aV Kelly B.
p8343
ag8335
aVNone
p8344
ag129
ag129
ag129
ag129
ag129
aV \u2014
p8345
aV Yve
p8346
aV \u2014
p8347
aV Yve
p8348
aV Yve
p8349
aV \u2014
p8350
aV Yve
p8351
aV \u2014
p8352
aV Yve
p8353
aV \u2014
p8354
aV \u2014
p8355
aV Yve
p8356
aV \u2014
p8357
aV Dan
p8358
ag129
ag129
ag129
ag129
ag129
ag129
aV Marty
p8359
aV \u2014
p8360
aV Jill
p8361
aV \u2014
p8362
aV \u2014
p8363
aV Marty
p8364
aV \u2014
p8365
aV Jill
p8366
aV \u2014
p8367
aV Jill
p8368
aV Jane
p8369
aV \u2014
p8370
aV Jane
p8371
ag129
ag129
ag129
ag129
ag129
ag129
ag129
aV Alina
p8372
aV Alina
p8373
aV Alina
p8374
aV Alina
p8375
aV Alina
p8376
aV Marty
p8377
aV Alina
p8378
aV Alina
p8379
aV Alina
p8380
aV Alina
p8381
aV Alina
p8382
aV Marty
p8383
ag129
ag129
ag129
ag129
ag129
ag129
ag129
ag129
aV Jane
p8384
aV Marty
p8385
aV Marty
p8386
aV Marty
p8387
aV Jane
p8388
aV Marty
p8389
aV Jane
p8390
aV Marty
p8391
aV Marty
p8392
aV Marty
p8393
aV Jane
p8394
ag129
ag129
ag129
ag129
ag129
ag129
ag129
ag129
ag129
aV Brenda
p8395
aV Brenda
p8396
aV Brenda
p8397
aV Brenda
p8398
aV Brenda
p8399
aV Brenda
p8400
aV Brenda
p8401
aV Benry
p8402
aV Brenda
p8403
aV NaOnka
p8404
ag129
ag129
ag129
ag129
ag129
ag129
ag129
ag129
ag129
ag129
aV \u2014
p8405
aV \u2014
p8406
aV \u2014
p8407
aV \u2014
p8408
aV \u2014
p8409
aV \u2014
p8410
aV \u2014
p8411
aVQuit
p8412
aVQuit
p8413
ag129
ag129
ag129
ag129
ag129
ag129
ag129
ag129
ag129
ag129
ag129
ag8405
ag8406
ag8407
ag8408
ag8409
ag8410
ag8411
ag8412
ag8413
ag129
ag129
ag129
ag129
ag129
ag129
ag129
ag129
ag129
ag129
ag129
aV Holly
p8414
aV Benry
p8415
aV Benry
p8416
aV Benry
p8417
aV Fabio
p8418
aV Benry
p8419
aV Fabio
p8420
ag129
ag129
ag129
ag129
ag129
ag129
ag129
ag129
ag129
ag129
ag129
ag129
ag129
aV Jane
p8421
aV Jane
p8422
aV Jane
p8423
aV Jane
p8424
aV Jane
p8425
aV Sash
p8426
ag129
ag129
ag129
ag129
ag129
ag129
ag129
ag129
ag129
ag129
ag129
ag129
ag129
ag129
aV Dan
p8427
aV Dan
p8428
aV Dan
p8429
aV Dan
p8430
aV Chase
p8431
ag129
ag129
ag129
ag129
ag129
ag129
ag129
ag129
ag129
ag129
ag129
ag129
ag129
ag129
ag129
aV Holly
p8432
aV Holly
p8433
aV Holly
p8434
aV Sash
p8435
ag129
ag129
ag129
ag129
ag129
ag129
ag129
ag129
ag129
ag129
ag129
ag129
ag129
ag129
ag129
ag129
ag319
ag319
ag319
ag129
ag129
ag129
ag129
ag129
ag129
ag129
ag129
ag129
ag129
ag129
ag129
ag129
ag129
ag129
ag129
ag129
ag319
ag319
ag319
aV Chase
p8436
ag129
aV Chase
p8437
ag129
ag129
ag129
aV Chase
p8438
ag129
aV Chase
p8439
ag129
ag129
ag129
ag129
ag129
ag129
ag129
ag129
ag319
ag319
ag319
ag129
aV Fabio
p8440
ag129
aV Fabio
p8441
aV Fabio
p8442
aV Fabio
p8443
ag129
aV Fabio
p8444
ag129
ag129
ag129
ag129
ag129
ag129
ag129
ag129
ag129
atp8445
ba(lp8446
g21
(g22
(dp8447
g24
g25
(g26
(I0
tp8448
g28
tp8449
Rp8450
(I1
(L21L
tp8451
g35
I00
(lp8452
g8171
ag8172
ag8173
ag8174
ag8175
ag8176
ag8177
ag8178
ag8179
ag8180
ag8181
ag8182
ag8183
ag8184
ag8185
ag8186
ag8187
ag8188
ag8189
ag8190
ag8191
atp8453
bsg63
Nstp8454
Rp8455
a(dp8456
g339
(dp8457
g341
g8164
sg342
(lp8458
(dp8459
g345
g346
(I0
I21
I1
tp8460
Rp8461
sg349
g8230
sasstp8462
bsbsg351
I21
ss.