(dp0
VPalau
p1
(dp2
S'url'
p3
Vhttp://survivor.wikia.com/wiki/Survivor:_Palau
p4
sS'votes'
p5
ccopy_reg
_reconstructor
p6
(cpandas.core.frame
DataFrame
p7
c__builtin__
object
p8
Ntp9
Rp10
(dp11
S'_metadata'
p12
(lp13
sS'_typ'
p14
S'dataframe'
p15
sS'_data'
p16
g6
(cpandas.core.internals
BlockManager
p17
g8
Ntp18
Rp19
((lp20
cpandas.core.index
_new_Index
p21
(cpandas.core.index
Index
p22
(dp23
S'data'
p24
cnumpy.core.multiarray
_reconstruct
p25
(cnumpy
ndarray
p26
(I0
tp27
S'b'
p28
tp29
Rp30
(I1
(L23L
tp31
cnumpy
dtype
p32
(S'O8'
p33
I0
I1
tp34
Rp35
(I3
S'|'
p36
NNNI-1
I-1
I63
tp37
bI00
(lp38
V Jonathan
p39
aV Wanda
p40
aV Jolanda
p41
aV Ashlee
p42
aV Jeff
p43
aV Kim
p44
aV Willard
p45
aV Angie
p46
ag46
aV James
p47
ag47
aV Ibrehem
p48
aV Bobby Jon
p49
aV Coby
p50
aV Janu
p51
aV Stephenie
p52
aV Gregg
p53
aV Caryn
p54
aV Jenn
p55
ag55
aV Ian
p56
aV Katie
p57
aV Tom
p58
atp59
bsS'name'
p60
Nstp61
Rp62
ag21
(g22
(dp63
g24
g25
(g26
(I0
tp64
g28
tp65
Rp66
(I1
(L20L
tp67
g35
I00
(lp68
VTom
p69
aVKatie
p70
aVIan
p71
aVJenn
p72
aVCaryn
p73
aVGregg
p74
aVStephenie
p75
aVJanu
p76
aVCoby
p77
aVBobby Jon
p78
aVIbrehem
p79
aVJames
p80
aVAngie
p81
aVWillard
p82
aVKim
p83
aVJeff
p84
aVAshlee
p85
aVJolanda
p86
aVWanda
p87
aVJonathan
p88
atp89
bsg60
cnumpy.core.multiarray
scalar
p90
(g32
(S'i8'
p91
I0
I1
tp92
Rp93
(I3
S'<'
p94
NNNI-1
I-1
I0
tp95
bS'\x01\x00\x00\x00\x00\x00\x00\x00'
p96
tp97
Rp98
stp99
Rp100
a(lp101
g25
(g26
(I0
tp102
g28
tp103
Rp104
(I1
(L23L
L20L
tp105
g35
I00
(lp106
V \u2014
p107
aV \u2014
p108
aV \u2014
p109
aV\u2014
p110
aV \u2014
p111
aV\u2014
p112
aV \u2014
p113
aV \u2014
p114
aV \u2014
p115
aV \u2014
p116
aV \u2014
p117
aV \u2014
p118
aV \u2014
p119
aV\u2014
p120
aV \u2014
p121
aV \u2014
p122
aV \u2014
p123
aV \u2014
p124
aVEliminated
p125
aV
p126
ag107
ag108
ag109
ag110
ag111
ag112
ag113
ag114
ag115
ag116
ag117
ag118
ag119
ag120
ag121
ag122
ag123
ag124
ag125
ag126
aV \u2014
p127
aV \u2014
p128
aV \u2014
p129
aV \u2014
p130
aV \u2014
p131
aV \u2014
p132
aV Jolanda
p133
aV \u2014
p134
aV \u2014
p135
aV Angie
p136
aV Angie
p137
aV Jolanda
p138
aV Jolanda
p139
aV \u2014
p140
aV Jolanda
p141
aV Jolanda
p142
aV Jolanda
p143
aV Angie
p144
ag126
ag126
aV \u2014
p145
aV \u2014
p146
aV \u2014
p147
aV \u2014
p148
aV \u2014
p149
aV \u2014
p150
aV Ashlee
p151
aV \u2014
p152
aV \u2014
p153
aV Ashlee
p154
aV Kim
p155
aV Ashlee
p156
aV Ashlee
p157
aV \u2014
p158
aV Ashlee
p159
aV Ashlee
p160
aV Jeff
p161
ag126
ag126
ag126
aV \u2014
p162
aV \u2014
p163
aV \u2014
p164
aV \u2014
p165
aV \u2014
p166
aV \u2014
p167
aV Jeff
p168
aV \u2014
p169
aV \u2014
p170
aV Kim
p171
aV Jeff
p172
aV Kim
p173
aV Jeff
p174
aV \u2014
p175
aV Jeff
p176
aV James
p177
ag126
ag126
ag126
ag126
aV \u2014
p178
aV \u2014
p179
aV \u2014
p180
aV \u2014
p181
aV \u2014
p182
aV \u2014
p183
aV Kim
p184
aV \u2014
p185
aV \u2014
p186
aV Kim
p187
aV Kim
p188
aV Kim
p189
aV Kim
p190
aV \u2014
p191
aV James
p192
ag126
ag126
ag126
ag126
ag126
aV Willard
p193
aV Willard
p194
aV Willard
p195
aV Willard
p196
aV Willard
p197
aV Willard
p198
aV \u2014
p199
aV Willard
p200
aV Willard
p201
aV \u2014
p202
aV \u2014
p203
aV \u2014
p204
aV \u2014
p205
aV Katie
p206
ag126
ag126
ag126
ag126
ag126
ag126
aV \u2014
p207
aV \u2014
p208
aV \u2014
p209
aV \u2014
p210
aV\u2014
p211
aV \u2014
p212
aV Bobby Jon
p213
aV \u2014
p214
aV \u2014
p215
aV Angie
p216
aV James
p217
aV Angie
p218
aV Bobby Jon
p219
ag126
ag126
ag126
ag126
ag126
ag126
ag126
ag207
ag208
ag209
ag210
ag211
ag212
aV Angie
p220
ag214
ag215
aVNone
p221
aV Angie
p222
aV Angie
p223
aVNone 
p224
ag126
ag126
ag126
ag126
ag126
ag126
ag126
aV \u2014
p225
aV \u2014
p226
aV \u2014
p227
aV \u2014
p228
aV \u2014
p229
aV \u2014
p230
aV Ibrehem
p231
aV \u2014
p232
aV \u2014
p233
aV James
p234
aV James
p235
aV Ibrehem
p236
ag126
ag126
ag126
ag126
ag126
ag126
ag126
ag126
aV \u2014
p237
aV \u2014
p238
aV \u2014
p239
aV \u2014
p240
aV \u2014
p241
aV \u2014
p242
aV James
p243
aV \u2014
p244
aV \u2014
p245
aV James
p246
aVNone
p247
aVNone
p248
ag126
ag126
ag126
ag126
ag126
ag126
ag126
ag126
aV \u2014
p249
aV \u2014
p250
aV \u2014
p251
aV \u2014
p252
aV \u2014
p253
aV \u2014
p254
aV Ibrehem
p255
aV \u2014
p256
aV \u2014
p257
aV Ibrehem
p258
aV Stephenie
p259
ag126
ag126
ag126
ag126
ag126
ag126
ag126
ag126
ag126
aV \u2014
p260
aV \u2014
p261
aV \u2014
p262
aV \u2014
p263
aV \u2014
p264
aV \u2014
p265
aV \u2014
p266
aV \u2014
p267
aV \u2014
p268
aVEliminated
p269
ag126
ag126
ag126
ag126
ag126
ag126
ag126
ag126
ag126
ag126
aV Coby
p270
aV Coby
p271
aV Coby
p272
aV Coby
p273
aV Coby
p274
aV Coby
p275
aV Coby
p276
aV Stephenie
p277
aV Janu
p278
ag126
ag126
ag126
ag126
ag126
ag126
ag126
ag126
ag126
ag126
ag126
aV \u2014
p279
aV \u2014
p280
aV \u2014
p281
aV \u2014
p282
aV \u2014
p283
aV \u2014
p284
aV \u2014
p285
aVQuit
p286
ag126
ag126
ag126
ag126
ag126
ag126
ag126
ag126
ag126
ag126
ag126
ag126
aV Stephenie
p287
aV Stephenie
p288
aV Stephenie
p289
aV Stephenie
p290
aV Stephenie
p291
aV Stephenie
p292
aV Caryn
p293
ag126
ag126
ag126
ag126
ag126
ag126
ag126
ag126
ag126
ag126
ag126
ag126
ag126
aV Gregg
p294
aV Gregg
p295
aV Gregg
p296
aV Caryn
p297
aV Gregg
p298
aV Caryn
p299
ag126
ag126
ag126
ag126
ag126
ag126
ag126
ag126
ag126
ag126
ag126
ag126
ag126
ag126
aV Caryn
p300
aV Caryn
p301
aV Caryn
p302
aV Caryn
p303
aV Ian
p304
ag126
ag126
ag126
ag126
ag126
ag126
ag126
ag126
ag126
ag126
ag126
ag126
ag126
ag126
ag126
aV Ian
p305
aV Jenn
p306
aV Jenn
p307
aV Ian
p308
ag126
ag126
ag126
ag126
ag126
ag126
ag126
ag126
ag126
ag126
ag126
ag126
ag126
ag126
ag126
ag126
aV Ian
p309
aV Jenn
p310
aVNone
p311
aVNone
p312
ag126
ag126
ag126
ag126
ag126
ag126
ag126
ag126
ag126
ag126
ag126
ag126
ag126
ag126
ag126
ag126
aV Ian
p313
aV \u2014
p314
aV \u2014
p315
ag126
ag126
ag126
ag126
ag126
ag126
ag126
ag126
ag126
ag126
ag126
ag126
ag126
ag126
ag126
ag126
ag126
aNaNag126
ag126
ag126
ag126
ag126
ag126
aV Katie
p316
ag126
ag126
ag126
ag126
ag126
ag126
ag126
ag126
ag126
ag126
aNaNaNaV Tom
p317
aV Tom
p318
aV Tom
p319
aV Tom
p320
aV Tom
p321
aV Tom
p322
ag126
ag126
ag126
ag126
ag126
ag126
ag126
ag126
ag126
ag126
ag126
aNatp323
ba(lp324
g21
(g22
(dp325
g24
g25
(g26
(I0
tp326
g28
tp327
Rp328
(I1
(L23L
tp329
g35
I00
(lp330
g39
ag40
ag41
ag42
ag43
ag44
ag45
ag46
ag46
ag47
ag47
ag48
ag49
ag50
ag51
ag52
ag53
ag54
ag55
ag55
ag56
ag57
ag58
atp331
bsg60
Nstp332
Rp333
a(dp334
S'0.14.1'
p335
(dp336
S'axes'
p337
g20
sS'blocks'
p338
(lp339
(dp340
S'mgr_locs'
p341
c__builtin__
slice
p342
(I0
I23
I1
tp343
Rp344
sS'values'
p345
g104
sasstp346
bsbssVTocantins
p347
(dp348
g3
Vhttp://survivor.wikia.com/wiki/Survivor:_Tocantins
p349
sg5
g6
(g7
g8
Ntp350
Rp351
(dp352
g12
g13
sg14
g15
sg16
g6
(g17
g8
Ntp353
Rp354
((lp355
g21
(g22
(dp356
g24
g25
(g26
(I0
tp357
g28
tp358
Rp359
(I1
(L16L
tp360
g35
I00
(lp361
V Carolina
p362
aV Candace
p363
aV Jerry
p364
aV Sandy
p365
aV Spencer
p366
aV Sydney
p367
aV Joe
p368
aV Brendan
p369
aV Tyson
p370
aV Sierra
p371
aV Debbie
p372
aV Coach
p373
aV Taj
p374
aV Erinn
p375
aV Stephen
p376
aV J.T.
p377
atp378
bsg60
Nstp379
Rp380
ag21
(g22
(dp381
g24
g25
(g26
(I0
tp382
g28
tp383
Rp384
(I1
(L16L
tp385
g35
I00
(lp386
VJ.T.
p387
aVStephen
p388
aVErinn
p389
aVTaj
p390
aVCoach
p391
aVDebbie
p392
aVSierra
p393
aVTyson
p394
aVBrendan
p395
aVJoe
p396
aVSydney
p397
aVSpencer
p398
aVSandy
p399
aVJerry
p400
aVCandace
p401
aVCarolina
p402
atp403
bsg60
g90
(g93
S'\x01\x00\x00\x00\x00\x00\x00\x00'
p404
tp405
Rp406
stp407
Rp408
a(lp409
g25
(g26
(I0
tp410
g28
tp411
Rp412
(I1
(L16L
L16L
tp413
g35
I00
(lp414
V Carolina
p415
aV Carolina
p416
aV \u2014
p417
aV Carolina
p418
aV \u2014
p419
aV \u2014
p420
aV \u2014
p421
aV \u2014
p422
aV \u2014
p423
aV Carolina
p424
aV Carolina
p425
aV Carolina
p426
aV Carolina
p427
aV \u2014
p428
aV \u2014
p429
aV Sandy
p430
aV \u2014
p431
aV \u2014
p432
aV Candace
p433
aV \u2014
p434
aV Candace
p435
aV Candace
p436
aV Candace
p437
aV Candace
p438
aV Candace
p439
aV \u2014
p440
aV \u2014
p441
aV \u2014
p442
aV \u2014
p443
aV Candace
p444
aV Sierra
p445
ag126
aV \u2014
p446
aV \u2014
p447
aV Jerry
p448
aV \u2014
p449
aV Jerry
p450
aV Jerry
p451
aV Jerry
p452
aV Jerry
p453
aV Jerry
p454
aV \u2014
p455
aV \u2014
p456
aV \u2014
p457
aV \u2014
p458
aV Erinn
p459
ag126
ag126
aV Sandy
p460
aV Sandy
p461
aV \u2014
p462
aV Joe
p463
aV \u2014
p464
aV \u2014
p465
aV \u2014
p466
aV \u2014
p467
aV \u2014
p468
aV Sandy
p469
aV Sandy
p470
aV Sandy
p471
aV Sydney
p472
ag126
ag126
ag126
aV Spencer
p473
aV Spencer
p474
aV \u2014
p475
aV Spencer
p476
aV \u2014
p477
aV \u2014
p478
aV \u2014
p479
aV \u2014
p480
aV \u2014
p481
aV Spencer
p482
aV Spencer
p483
aV Taj
p484
ag126
ag126
ag126
ag126
aV Sydney
p485
aV Sydney
p486
aV \u2014
p487
aV Sydney
p488
aV \u2014
p489
aV \u2014
p490
aV \u2014
p491
aV \u2014
p492
aV \u2014
p493
aV Taj
p494
aV Taj
p495
ag126
ag126
ag126
ag126
ag126
aV \u2014
p496
aV \u2014
p497
aV \u2014
p498
aV \u2014
p499
aV \u2014
p500
aV \u2014
p501
aV \u2014
p502
aV \u2014
p503
aV \u2014
p504
aVEvacuated
p505
ag126
ag126
ag126
ag126
ag126
ag126
aV Sierra
p506
aV Brendan
p507
aV Sierra
p508
aV Brendan
p509
aV Brendan
p510
aV Brendan
p511
aV Coach
p512
aV Sierra
p513
aV Coach
p514
ag126
ag126
ag126
ag126
ag126
ag126
ag126
aV Tyson
p515
aV Tyson
p516
aV Tyson
p517
aV Tyson
p518
aV Sierra
p519
aV Sierra
p520
aV Tyson
p521
aV Sierra
p522
ag126
ag126
ag126
ag126
ag126
ag126
ag126
ag126
aV Sierra
p523
aV Sierra
p524
aV Stephen
p525
aV Debbie
p526
aV Sierra
p527
aV Sierra
p528
aV Debbie
p529
ag126
ag126
ag126
ag126
ag126
ag126
ag126
ag126
ag126
aV Debbie
p530
aV Debbie
p531
aV Debbie
p532
aV Debbie
p533
aV Taj
p534
aV Coach
p535
ag126
ag126
ag126
ag126
ag126
ag126
ag126
ag126
ag126
ag126
aV Erinn
p536
aV Coach
p537
aV Coach
p538
aV Coach
p539
aV Erinn
p540
ag126
ag126
ag126
ag126
ag126
ag126
ag126
ag126
ag126
ag126
ag126
aV Taj
p541
aV Taj
p542
aV Taj
p543
aV Erinn
p544
ag126
ag126
ag126
ag126
ag126
ag126
ag126
ag126
ag126
ag126
ag126
ag126
aV Erinn
p545
aV \u2014
p546
aV \u2014
p547
ag126
ag126
ag126
ag126
ag126
ag126
ag126
ag126
ag126
ag126
ag126
ag126
ag126
aNaNag126
ag126
ag126
ag126
ag126
ag126
ag126
ag126
ag126
ag126
ag126
ag126
ag126
ag126
aNaNaV J.T.
p548
aV J.T.
p549
aV J.T.
p550
aV J.T.
p551
aV J.T.
p552
aV J.T.
p553
aV J.T.
p554
ag126
ag126
ag126
ag126
ag126
ag126
ag126
atp555
ba(lp556
g21
(g22
(dp557
g24
g25
(g26
(I0
tp558
g28
tp559
Rp560
(I1
(L16L
tp561
g35
I00
(lp562
g362
ag363
ag364
ag365
ag366
ag367
ag368
ag369
ag370
ag371
ag372
ag373
ag374
ag375
ag376
ag377
atp563
bsg60
Nstp564
Rp565
a(dp566
g335
(dp567
g337
g355
sg338
(lp568
(dp569
g341
g342
(I0
I16
I1
tp570
Rp571
sg345
g412
sasstp572
bsbssVBorneo
p573
(dp574
g3
Vhttp://survivor.wikia.com/wiki/Survivor:_Borneo
p575
sg5
g6
(g7
g8
Ntp576
Rp577
(dp578
g12
g13
sg14
g15
sg16
g6
(g17
g8
Ntp579
Rp580
((lp581
g21
(g22
(dp582
g24
g25
(g26
(I0
tp583
g28
tp584
Rp585
(I1
(L17L
tp586
g35
I00
(lp587
V Sonja
p588
aV B.B.
p589
aV Stacey
p590
aV Ramona
p591
aV Dirk
p592
aV Joel
p593
aV Gretchen
p594
aV Greg
p595
aV Jenna
p596
aV Gervase
p597
aV Colleen
p598
aV Sean
p599
aV Susan
p600
ag600
aV Rudy
p601
aV Kelly
p602
aV Richard
p603
atp604
bsg60
Nstp605
Rp606
ag21
(g22
(dp607
g24
g25
(g26
(I0
tp608
g28
tp609
Rp610
(I1
(L16L
tp611
g35
I00
(lp612
VRichard
p613
aVKelly
p614
aVRudy
p615
aVSusan
p616
aVSean
p617
aVColleen
p618
aVGervase
p619
aVJenna
p620
aVGreg
p621
aVGretchen
p622
aVJoel
p623
aVDirk
p624
aVRamona
p625
aVStacey
p626
aVB.B.
p627
aVSonja
p628
atp629
bsg60
g90
(g93
S'\x01\x00\x00\x00\x00\x00\x00\x00'
p630
tp631
Rp632
stp633
Rp634
a(lp635
g25
(g26
(I0
tp636
g28
tp637
Rp638
(I1
(L17L
L16L
tp639
g35
I00
(lp640
V Stacey
p641
aV Rudy
p642
aV Sonja
p643
aV Sonja
p644
aV Sonja
p645
aV \u2014
p646
aV \u2014
p647
aV \u2014
p648
aV \u2014
p649
aV \u2014
p650
aV \u2014
p651
aV Sonja
p652
aV \u2014
p653
aV Rudy
p654
aV \u2014
p655
aV Rudy
p656
aV \u2014
p657
aV \u2014
p658
aV \u2014
p659
aV \u2014
p660
aV \u2014
p661
aV B.B.
p662
aV B.B.
p663
aV B.B.
p664
aV Ramona
p665
aV B.B.
p666
aV B.B.
p667
aV \u2014
p668
aV B.B.
p669
aV \u2014
p670
aV Ramona
p671
ag126
aV Stacey
p672
aV Rudy
p673
aV Stacey
p674
aV Stacey
p675
aV Stacey
p676
aV \u2014
p677
aV \u2014
p678
aV \u2014
p679
aV \u2014
p680
aV \u2014
p681
aV \u2014
p682
aV Stacey
p683
aV \u2014
p684
aV Rudy
p685
ag126
ag126
aV \u2014
p686
aV \u2014
p687
aV \u2014
p688
aV \u2014
p689
aV \u2014
p690
aV Ramona
p691
aV Colleen
p692
aV Ramona
p693
aV Jenna
p694
aV Ramona
p695
aV Ramona
p696
aV \u2014
p697
aV Colleen
p698
ag126
ag126
ag126
aV Dirk
p699
aV Dirk
p700
aV Dirk
p701
aV Dirk
p702
aV Rudy
p703
aV \u2014
p704
aV \u2014
p705
aV \u2014
p706
aV \u2014
p707
aV \u2014
p708
aV \u2014
p709
aV Susan
p710
ag126
ag126
ag126
ag126
aV \u2014
p711
aV \u2014
p712
aV \u2014
p713
aV \u2014
p714
aV \u2014
p715
aV Joel
p716
aV Jenna
p717
aV Joel
p718
aV Joel
p719
aV Joel
p720
aV Jenna
p721
ag126
ag126
ag126
ag126
ag126
aV Gretchen
p722
aV Gretchen
p723
aV Gretchen
p724
aV Gretchen
p725
aV Colleen
p726
aV Richard
p727
aV Susan
p728
aV Gervase
p729
aV Jenna
p730
aV Rudy
p731
ag126
ag126
ag126
ag126
ag126
ag126
aV Greg
p732
aV Greg
p733
aV Greg
p734
aV Greg
p735
aV Greg
p736
aV Jenna
p737
aV Jenna
p738
aV Greg
p739
aV Jenna
p740
ag126
ag126
ag126
ag126
ag126
ag126
ag126
aV Jenna
p741
aV Sean
p742
aV Jenna
p743
aV Jenna
p744
aV Jenna
p745
aV Richard
p746
aV Richard
p747
aV Richard
p748
ag126
ag126
ag126
ag126
ag126
ag126
ag126
ag126
aV Gervase
p749
aV Gervase
p750
aV Gervase
p751
aV Gervase
p752
aV Gervase
p753
aV Sean
p754
aV Sean
p755
ag126
ag126
ag126
ag126
ag126
ag126
ag126
ag126
ag126
aV Colleen
p756
aV Sean
p757
aV Colleen
p758
aV Colleen
p759
aV Colleen
p760
aV Sean
p761
ag126
ag126
ag126
ag126
ag126
ag126
ag126
ag126
ag126
ag126
aV Sean
p762
aV Sean
p763
aV Sean
p764
aV Sean
p765
aV Susan
p766
ag126
ag126
ag126
ag126
ag126
ag126
ag126
ag126
ag126
ag126
ag126
aV Susan
p767
aV Richard
p768
aV Susan
p769
aV Richard
p770
ag126
ag126
ag126
ag126
ag126
ag126
ag126
ag126
ag126
ag126
ag126
ag126
aVNone
p771
aV Susan
p772
aV Susan
p773
aVNone 
p774
ag126
ag126
ag126
ag126
ag126
ag126
ag126
ag126
ag126
ag126
ag126
ag126
aV \u2014
p775
aV Rudy
p776
aV \u2014
p777
ag126
ag126
ag126
ag126
ag126
ag126
ag126
ag126
ag126
ag126
ag126
ag126
ag126
aVJury Vote
p778
aNag126
ag126
ag126
aV Kelly
p779
aV Kelly
p780
aV Kelly
p781
ag126
ag126
ag126
ag126
ag126
ag126
ag126
ag126
ag778
aNaV Richard
p782
aV Richard
p783
aV Richard
p784
ag126
ag126
ag126
aV Richard
p785
ag126
ag126
ag126
ag126
ag126
ag126
ag126
atp786
ba(lp787
g21
(g22
(dp788
g24
g25
(g26
(I0
tp789
g28
tp790
Rp791
(I1
(L17L
tp792
g35
I00
(lp793
g588
ag589
ag590
ag591
ag592
ag593
ag594
ag595
ag596
ag597
ag598
ag599
ag600
ag600
ag601
ag602
ag603
atp794
bsg60
Nstp795
Rp796
a(dp797
g335
(dp798
g337
g581
sg338
(lp799
(dp800
g341
g342
(I0
I17
I1
tp801
Rp802
sg345
g638
sasstp803
bsbssVHeroes_vs._Villains
p804
(dp805
g3
Vhttp://survivor.wikia.com/wiki/Survivor:_Heroes_vs._Villains
p806
sg5
g6
(g7
g8
Ntp807
Rp808
(dp809
g12
g13
sg14
g15
sg16
g6
(g17
g8
Ntp810
Rp811
((lp812
g21
(g22
(dp813
g24
g25
(g26
(I0
tp814
g28
tp815
Rp816
(I1
(L20L
tp817
g35
I00
(lp818
V Sugar
p819
aV Stephenie
p820
aV Randy
p821
aV Cirie
p822
aV Tom
p823
aV Tyson
p824
aV James
p825
aV Rob
p826
aV Coach
p827
aV Courtney
p828
aV J.T.
p829
aV Amanda
p830
aV Candice
p831
aV Danielle
p832
aV Rupert
p833
aV Colby
p834
aV Jerri
p835
aV Russell
p836
aV Parvati
p837
aV Sandra
p838
atp839
bsg60
Nstp840
Rp841
ag21
(g22
(dp842
g24
g25
(g26
(I0
tp843
g28
tp844
Rp845
(I1
(L20L
tp846
g35
I00
(lp847
VSandra
p848
aVParvati
p849
aVRussell
p850
aVJerri
p851
aVColby
p852
aVRupert
p853
aVDanielle
p854
aVCandice
p855
aVAmanda
p856
aVJ.T.
p857
aVCourtney
p858
aVCoach
p859
aVRob
p860
aVJames
p861
aVTyson
p862
aVTom
p863
aVCirie
p864
aVRandy
p865
aVStephenie
p866
aVSugar
p867
atp868
bsg60
g90
(g93
S'\x01\x00\x00\x00\x00\x00\x00\x00'
p869
tp870
Rp871
stp872
Rp873
a(lp874
g25
(g26
(I0
tp875
g28
tp876
Rp877
(I1
(L20L
L20L
tp878
g35
I00
(lp879
V \u2014
p880
aV \u2014
p881
aV \u2014
p882
aV \u2014
p883
aV Sugar
p884
aV Sugar
p885
aV \u2014
p886
aV Sugar
p887
aV Sugar
p888
aV Sugar
p889
aV \u2014
p890
aV \u2014
p891
aV \u2014
p892
aV Sugar
p893
aV \u2014
p894
aV Sugar
p895
aV Sugar
p896
aV \u2014
p897
aV Sugar
p898
aV Amanda
p899
aV \u2014
p900
aV \u2014
p901
aV \u2014
p902
aV \u2014
p903
aV Amanda
p904
aV Stephenie
p905
aV \u2014
p906
aV Stephenie
p907
aV Stephenie
p908
aV Stephenie
p909
aV \u2014
p910
aV \u2014
p911
aV \u2014
p912
aV Stephenie
p913
aV \u2014
p914
aV Amanda
p915
aV Stephenie
p916
aV \u2014
p917
aV Amanda
p918
ag126
aV Randy
p919
aV Randy
p920
aV Randy
p921
aV Randy
p922
aV \u2014
p923
aV \u2014
p924
aV Randy
p925
aV \u2014
p926
aV \u2014
p927
aV \u2014
p928
aV Randy
p929
aV Randy
p930
aV Randy
p931
aV \u2014
p932
aV Randy
p933
aV \u2014
p934
aV \u2014
p935
aV Rob
p936
ag126
ag126
aV \u2014
p937
aV \u2014
p938
aV \u2014
p939
aV \u2014
p940
aV Cirie
p941
aV Colby
p942
aV \u2014
p943
aV Tom
p944
aV Tom
p945
aV Cirie
p946
aV \u2014
p947
aV \u2014
p948
aV \u2014
p949
aV Colby
p950
aV \u2014
p951
aV Cirie
p952
aV Tom
p953
ag126
ag126
ag126
aV \u2014
p954
aV \u2014
p955
aV \u2014
p956
aV \u2014
p957
aV James
p958
aV Tom
p959
aV \u2014
p960
aV Tom
p961
aV Tom
p962
aV Tom
p963
aV \u2014
p964
aV \u2014
p965
aV \u2014
p966
aV Tom
p967
aV \u2014
p968
aV James
p969
ag126
ag126
ag126
ag126
aV Russell
p970
aV Tyson
p971
aV Tyson
p972
aV Parvati
p973
aV \u2014
p974
aV \u2014
p975
aV Tyson
p976
aV \u2014
p977
aV \u2014
p978
aV \u2014
p979
aV Parvati
p980
aV Parvati
p981
aV Russell
p982
aV \u2014
p983
aV Parvati
p984
ag126
ag126
ag126
ag126
ag126
aV \u2014
p985
aV \u2014
p986
aV \u2014
p987
aV \u2014
p988
aV James
p989
aV James
p990
aV \u2014
p991
aV James
p992
aV James
p993
aV James
p994
aV \u2014
p995
aV \u2014
p996
aV \u2014
p997
aV Colby
p998
ag126
ag126
ag126
ag126
ag126
ag126
aV Russell
p999
aV Rob
p1000
aV Rob
p1001
aV Rob
p1002
aV \u2014
p1003
aV \u2014
p1004
aV Rob
p1005
aV \u2014
p1006
aV \u2014
p1007
aV \u2014
p1008
aV Russell
p1009
aV Courtney
p1010
aV Russell
p1011
ag126
ag126
ag126
ag126
ag126
ag126
ag126
aV Coach
p1012
aV Coach
p1013
aV Courtney
p1014
aV Courtney
p1015
aV \u2014
p1016
aV \u2014
p1017
aV Coach
p1018
aV \u2014
p1019
aV \u2014
p1020
aV \u2014
p1021
aV Coach
p1022
aV Courtney
p1023
ag126
ag126
ag126
ag126
ag126
ag126
ag126
ag126
aV Courtney
p1024
aV Courtney
p1025
aV Courtney
p1026
aV Courtney
p1027
aV \u2014
p1028
aV \u2014
p1029
aV Courtney
p1030
aV \u2014
p1031
aV \u2014
p1032
aV \u2014
p1033
aV Jerri
p1034
ag126
ag126
ag126
ag126
ag126
ag126
ag126
ag126
ag126
aV J.T.
p1035
aV J.T.
p1036
aV J.T.
p1037
aV J.T.
p1038
aV Jerri
p1039
aV Jerri
p1040
aV J.T.
p1041
aV Jerri
p1042
aV Jerri
p1043
aV Jerri
p1044
ag126
ag126
ag126
ag126
ag126
ag126
ag126
ag126
ag126
ag126
aV Amanda
p1045
aV Amanda
p1046
aV Amanda
p1047
aV Amanda
p1048
aV Parvati
p1049
aV Parvati
p1050
aV Amanda
p1051
aV Amanda
p1052
aV Parvati
p1053
ag126
ag126
ag126
ag126
ag126
ag126
ag126
ag126
ag126
ag126
ag126
aV Candice
p1054
aV Rupert
p1055
aV Candice
p1056
aV Candice
p1057
aV Candice
p1058
aV Candice
p1059
aV Rupert
p1060
aV Rupert
p1061
ag126
ag126
ag126
ag126
ag126
ag126
ag126
ag126
ag126
ag126
ag126
ag126
aV Rupert
p1062
aV Rupert
p1063
aV Danielle
p1064
aV Danielle
p1065
aV Danielle
p1066
aV Danielle
p1067
aV Rupert
p1068
ag126
ag126
ag126
ag126
ag126
ag126
ag126
ag126
ag126
ag126
ag126
ag126
ag126
aV Rupert
p1069
aV Rupert
p1070
aV Rupert
p1071
aV Rupert
p1072
aV Sandra
p1073
aV Sandra
p1074
ag126
ag126
ag126
ag126
ag126
ag126
ag126
ag126
ag126
ag126
ag126
ag126
ag126
ag126
aV Colby
p1075
aV Colby
p1076
aV Colby
p1077
aV Colby
p1078
aV Sandra
p1079
ag126
ag126
ag126
ag126
ag126
ag126
ag126
ag126
ag126
ag126
ag126
ag126
ag126
ag126
ag126
aV Jerri
p1080
aV Jerri
p1081
aV Jerri
p1082
aV Parvati
p1083
ag126
ag126
ag126
ag126
ag126
ag126
ag126
ag126
ag126
ag126
ag126
ag126
ag126
ag126
ag126
ag126
aNaNaNag126
ag126
ag126
ag126
ag126
ag126
ag126
ag126
ag126
ag126
ag126
ag126
ag126
ag126
ag126
ag126
ag126
aNaNaNaV Parvati
p1084
ag126
ag126
aV Parvati
p1085
ag126
ag126
ag126
ag126
aV Parvati
p1086
ag126
ag126
ag126
ag126
ag126
ag126
ag126
ag126
aNaNaNag126
aV Sandra
p1087
aV Sandra
p1088
ag126
aV Sandra
p1089
aV Sandra
p1090
aV Sandra
p1091
aV Sandra
p1092
ag126
ag126
ag126
ag126
ag126
ag126
ag126
ag126
ag126
atp1093
ba(lp1094
g21
(g22
(dp1095
g24
g25
(g26
(I0
tp1096
g28
tp1097
Rp1098
(I1
(L20L
tp1099
g35
I00
(lp1100
g819
ag820
ag821
ag822
ag823
ag824
ag825
ag826
ag827
ag828
ag829
ag830
ag831
ag832
ag833
ag834
ag835
ag836
ag837
ag838
atp1101
bsg60
Nstp1102
Rp1103
a(dp1104
g335
(dp1105
g337
g812
sg338
(lp1106
(dp1107
g341
g342
(I0
I20
I1
tp1108
Rp1109
sg345
g877
sasstp1110
bsbssVPanama
p1111
(dp1112
g3
Vhttp://survivor.wikia.com/wiki/Survivor:_Panama
p1113
sg5
g6
(g7
g8
Ntp1114
Rp1115
(dp1116
g12
g13
sg14
g15
sg16
g6
(g17
g8
Ntp1117
Rp1118
((lp1119
g21
(g22
(dp1120
g24
g25
(g26
(I0
tp1121
g28
tp1122
Rp1123
(I1
(L16L
tp1124
g35
I00
(lp1125
V Tina
p1126
aV Melinda
p1127
aV Misty
p1128
aV Ruth-Marie
p1129
aV Bobby
p1130
aV Dan
p1131
aV Nick
p1132
aV Austin
p1133
aV Sally
p1134
aV Bruce
p1135
aV Courtney
p1136
aV Shane
p1137
aV Cirie
p1138
aV Terry
p1139
aV Danielle
p1140
aV Aras
p1141
atp1142
bsg60
Nstp1143
Rp1144
ag21
(g22
(dp1145
g24
g25
(g26
(I0
tp1146
g28
tp1147
Rp1148
(I1
(L16L
tp1149
g35
I00
(lp1150
VAras
p1151
aVDanielle
p1152
aVTerry
p1153
aVCirie
p1154
aVShane
p1155
aVCourtney
p1156
aVBruce
p1157
aVSally
p1158
aVAustin
p1159
aVNick
p1160
aVDan
p1161
aVBobby
p1162
aVRuth-Marie
p1163
aVMisty
p1164
aVMelinda
p1165
aVTina
p1166
atp1167
bsg60
g90
(g93
S'\x01\x00\x00\x00\x00\x00\x00\x00'
p1168
tp1169
Rp1170
stp1171
Rp1172
a(lp1173
g25
(g26
(I0
tp1174
g28
tp1175
Rp1176
(I1
(L16L
L16L
tp1177
g35
I00
(lp1178
V \u2014
p1179
aV \u2014
p1180
aV \u2014
p1181
aV Tina
p1182
aV \u2014
p1183
aV \u2014
p1184
aV \u2014
p1185
aV \u2014
p1186
aV \u2014
p1187
aV \u2014
p1188
aV \u2014
p1189
aV \u2014
p1190
aV Tina
p1191
aV \u2014
p1192
aV Tina
p1193
aV Cirie
p1194
aV Melinda
p1195
aV Melinda
p1196
aV \u2014
p1197
aV Shane
p1198
aV Melinda
p1199
aV Melinda
p1200
aVExiled 
p1201
aV \u2014
p1202
aV \u2014
p1203
aV \u2014
p1204
aV \u2014
p1205
aV Melinda
p1206
aV \u2014
p1207
aV \u2014
p1208
aV Shane
p1209
ag126
aV \u2014
p1210
aV \u2014
p1211
aV Misty
p1212
aV \u2014
p1213
aV \u2014
p1214
aV \u2014
p1215
aV \u2014
p1216
aV Ruth-Marie
p1217
aV Misty
p1218
aV Misty
p1219
aV Misty
p1220
aV \u2014
p1221
aV Misty
p1222
aV Ruth-Marie
p1223
ag126
ag126
aV \u2014
p1224
aV \u2014
p1225
aV Ruth-Marie
p1226
aV \u2014
p1227
aV \u2014
p1228
aV \u2014
p1229
aV \u2014
p1230
aV Ruth-Marie
p1231
aV Ruth-Marie
p1232
aV Ruth-Marie
p1233
aV Sally
p1234
aV \u2014
p1235
aV Sally
p1236
ag126
ag126
ag126
aV Bruce
p1237
aV Bobby
p1238
aV \u2014
p1239
aV Bobby
p1240
aV Aras
p1241
aV Bobby
p1242
aV Courtney
p1243
aV \u2014
p1244
aV \u2014
p1245
aV \u2014
p1246
aV \u2014
p1247
aV Bruce
p1248
ag126
ag126
ag126
ag126
aV \u2014
p1249
aV \u2014
p1250
aV Dan
p1251
aV \u2014
p1252
aV \u2014
p1253
aV \u2014
p1254
aV \u2014
p1255
aVExiled 
p1256
aV Dan
p1257
aV Dan
p1258
aV Austin
p1259
ag126
ag126
ag126
ag126
ag126
aV Nick
p1260
aV Nick
p1261
aV Shane
p1262
aV Nick
p1263
aV Nick
p1264
aV Nick
p1265
aV Nick
p1266
aV Shane
p1267
aV Shane
p1268
aV Shane
p1269
ag126
ag126
ag126
ag126
ag126
ag126
aV Austin
p1270
aV Austin
p1271
aV Aras
p1272
aV Austin
p1273
aV Austin
p1274
aV Austin
p1275
aV Austin
p1276
aV Aras
p1277
aV Aras
p1278
ag126
ag126
ag126
ag126
ag126
ag126
ag126
aV Sally
p1279
aV Sally
p1280
aV Aras
p1281
aV Sally
p1282
aV Sally
p1283
aV Sally
p1284
aV Sally
p1285
aV Aras
p1286
ag126
ag126
ag126
ag126
ag126
ag126
ag126
ag126
aV \u2014
p1287
aV \u2014
p1288
aV \u2014
p1289
aV \u2014
p1290
aV \u2014
p1291
aV \u2014
p1292
aVEvacuated
p1293
ag126
ag126
ag126
ag126
ag126
ag126
ag126
ag126
ag126
aV Courtney
p1294
aV Courtney
p1295
aV Aras
p1296
aV Courtney
p1297
aV Danielle
p1298
aV Aras
p1299
ag126
ag126
ag126
ag126
ag126
ag126
ag126
ag126
ag126
ag126
aV Shane
p1300
aV Shane
p1301
aV Aras
p1302
aV Shane
p1303
aV Danielle
p1304
ag126
ag126
ag126
ag126
ag126
ag126
ag126
ag126
ag126
ag126
ag126
aV Danielle
p1305
aV Cirie
p1306
aV Cirie
p1307
aV Danielle
p1308
ag126
ag126
ag126
ag126
ag126
ag126
ag126
ag126
ag126
ag126
ag126
ag126
aV \u2014
p1309
aV Terry
p1310
aV \u2014
p1311
ag126
ag126
ag126
ag126
ag126
ag126
ag126
ag126
ag126
ag126
ag126
ag126
ag126
aNaNag126
ag126
aV Danielle
p1312
ag126
aV Danielle
p1313
ag126
ag126
ag126
ag126
ag126
ag126
ag126
ag126
ag126
aNaNaV Aras
p1314
aV Aras
p1315
ag126
aV Aras
p1316
ag126
aV Aras
p1317
aV Aras
p1318
ag126
ag126
ag126
ag126
ag126
ag126
ag126
atp1319
ba(lp1320
g21
(g22
(dp1321
g24
g25
(g26
(I0
tp1322
g28
tp1323
Rp1324
(I1
(L16L
tp1325
g35
I00
(lp1326
g1126
ag1127
ag1128
ag1129
ag1130
ag1131
ag1132
ag1133
ag1134
ag1135
ag1136
ag1137
ag1138
ag1139
ag1140
ag1141
atp1327
bsg60
Nstp1328
Rp1329
a(dp1330
g335
(dp1331
g337
g1119
sg338
(lp1332
(dp1333
g341
g342
(I0
I16
I1
tp1334
Rp1335
sg345
g1176
sasstp1336
bsbssVCambodia
p1337
(dp1338
g3
Vhttp://survivor.wikia.com/wiki/Survivor:_Cambodia
p1339
sg5
g6
(g7
g8
Ntp1340
Rp1341
(dp1342
g12
g13
sg14
g15
sg16
g6
(g17
g8
Ntp1343
Rp1344
((lp1345
g21
(g22
(dp1346
g24
g25
(g26
(I0
tp1347
g28
tp1348
Rp1349
(I1
(L15L
tp1350
g35
I00
(lp1351
V Vytas
p1352
aV Shirin
p1353
aV Peih-Gee
p1354
aV Jeff
p1355
aV Monica
p1356
aV Terry
p1357
aV Woo
p1358
aV Kass
p1359
aV Andrew
p1360
aV Kelly
p1361
aV Ciera
p1362
aV Stephen
p1363
ag1363
aV Joe
p1364
aV TBA
p1365
atp1366
bsg60
Nstp1367
Rp1368
ag21
(g22
(dp1369
g24
g25
(g26
(I0
tp1370
g28
tp1371
Rp1372
(I1
(L20L
tp1373
g35
I00
(lp1374
VAbi-Maria
p1375
aVJeremy
p1376
aVKeith
p1377
aVKelley
p1378
aVKimmi
p1379
aVSpencer
p1380
aVTasha
p1381
aVJoe
p1382
aVStephen
p1383
aVCiera
p1384
aVKelly
p1385
aVAndrew
p1386
aVKass
p1387
aVWoo
p1388
aVTerry
p1389
aVMonica
p1390
aVJeff
p1391
aVPeih-Gee
p1392
aVShirin
p1393
aVVytas
p1394
atp1395
bsg60
g90
(g93
S'\x01\x00\x00\x00\x00\x00\x00\x00'
p1396
tp1397
Rp1398
stp1399
Rp1400
a(lp1401
g25
(g26
(I0
tp1402
g28
tp1403
Rp1404
(I1
(L15L
L20L
tp1405
g35
I00
(lp1406
V Vytas
p1407
aV \u2014
p1408
aV \u2014
p1409
aV Vytas
p1410
aV \u2014
p1411
aV Vytas
p1412
aV \u2014
p1413
aV \u2014
p1414
aV \u2014
p1415
aV \u2014
p1416
aV Abi-Maria
p1417
aV \u2014
p1418
aV \u2014
p1419
aV Abi-Maria
p1420
aV Abi-Maria
p1421
aV \u2014
p1422
aV Vytas
p1423
aV Vytas
p1424
aV Vytas
p1425
aV Abi-Maria
p1426
aV Spencer
p1427
aV \u2014
p1428
aV \u2014
p1429
aV Spencer
p1430
aV \u2014
p1431
aV Shirin
p1432
aV \u2014
p1433
aV \u2014
p1434
aV \u2014
p1435
aV \u2014
p1436
aV Shirin
p1437
aV \u2014
p1438
aV \u2014
p1439
aV Shirin
p1440
aV Spencer
p1441
aV \u2014
p1442
aV Shirin
p1443
aV Shirin
p1444
aV Spencer
p1445
ag126
aV Peih-Gee
p1446
aV \u2014
p1447
aV \u2014
p1448
aV \u2014
p1449
aV \u2014
p1450
aV \u2014
p1451
aV Peih-Gee
p1452
aV \u2014
p1453
aV \u2014
p1454
aV \u2014
p1455
aV \u2014
p1456
aV Peih-Gee
p1457
aV \u2014
p1458
aV Abi-Maria
p1459
aV \u2014
p1460
aV \u2014
p1461
aV Peih-Gee
p1462
aV Abi-Maria
p1463
ag126
ag126
aV Jeff
p1464
aV \u2014
p1465
aV \u2014
p1466
aV \u2014
p1467
aV \u2014
p1468
aV \u2014
p1469
aV Jeff
p1470
aV \u2014
p1471
aV \u2014
p1472
aV \u2014
p1473
aV \u2014
p1474
aV Jeff
p1475
aV \u2014
p1476
aV Jeff
p1477
aV \u2014
p1478
aV \u2014
p1479
aV Woo
p1480
ag126
ag126
ag126
aV \u2014
p1481
aV Monica
p1482
aV \u2014
p1483
aV \u2014
p1484
aV Monica
p1485
aV Kelly
p1486
aV \u2014
p1487
aV \u2014
p1488
aV Monica
p1489
aV \u2014
p1490
aV Spencer
p1491
aV \u2014
p1492
aV \u2014
p1493
aV \u2014
p1494
aV \u2014
p1495
aV Kelly
p1496
ag126
ag126
ag126
ag126
aV \u2014
p1497
aV \u2014
p1498
aV \u2014
p1499
aV \u2014
p1500
aV \u2014
p1501
aV \u2014
p1502
aV \u2014
p1503
aV \u2014
p1504
aV \u2014
p1505
aV \u2014
p1506
aV \u2014
p1507
aV \u2014
p1508
aV \u2014
p1509
aV \u2014
p1510
aV Evacuated
p1511
ag126
ag126
ag126
ag126
ag126
aV Woo
p1512
aV \u2014
p1513
aV \u2014
p1514
aV \u2014
p1515
aV \u2014
p1516
aV Woo
p1517
aV \u2014
p1518
aV \u2014
p1519
aV \u2014
p1520
aV Woo
p1521
aV Spencer
p1522
aV Spencer
p1523
aV Woo
p1524
aV Spencer
p1525
ag126
ag126
ag126
ag126
ag126
ag126
aV Tasha
p1526
aV Ciera
p1527
aV Kass
p1528
aV Kass
p1529
aV Kass
p1530
aV Ciera
p1531
aV Kass
p1532
aV Ciera
p1533
aV Kass
p1534
aV Andrew
p1535
aV Ciera
p1536
aV Kass
p1537
aV Tasha
p1538
ag126
ag126
ag126
ag126
ag126
ag126
ag126
aV Andrew
p1539
aV Kelley
p1540
aV Kelley
p1541
aV Andrew
p1542
aV Kelley
p1543
aV Kelley
p1544
aV Kelley
p1545
aV Kelley
p1546
aV Kelley
p1547
aV Andrew
p1548
aV Kelley
p1549
aV Kelley
p1550
ag126
ag126
ag126
ag126
ag126
ag126
ag126
ag126
aV Kelly
p1551
aV Kelly
p1552
aV Kelley
p1553
aV Kelly
p1554
aV Ciera
p1555
aV Kelly
p1556
aV Ciera
p1557
aV Kelley
p1558
aV Kelly
p1559
aV Kelly
p1560
aV Ciera
p1561
ag126
ag126
ag126
ag126
ag126
ag126
ag126
ag126
ag126
aV Stephen
p1562
aV Ciera
p1563
aV Stephen
p1564
aV Kimmi
p1565
aV Ciera
p1566
aV Stephen
p1567
aV Stephen
p1568
aV Stephen
p1569
aV Ciera
p1570
aV Kimmi
p1571
ag126
ag126
ag126
ag126
ag126
ag126
ag126
ag126
ag126
ag126
aV Stephen
p1572
aV Joe
p1573
aV Stephen
p1574
aV Stephen
p1575
aV Abi-Maria
p1576
aV Stephen
p1577
aV Abi-Maria
p1578
aV None
p1579
aV Abi-Maria
p1580
ag126
ag126
ag126
ag126
ag126
ag126
ag126
ag126
ag126
ag126
ag126
ag1572
ag1573
ag1574
ag1575
ag1576
ag1577
ag1578
ag1579
aV Joe
p1581
ag126
ag126
ag126
ag126
ag126
ag126
ag126
ag126
ag126
ag126
ag126
aV Joe
p1582
aV Joe
p1583
aV Tasha
p1584
aV Joe
p1585
aV Joe
p1586
aV Joe
p1587
aV Joe
p1588
aV Abi-Maria
p1589
ag126
ag126
ag126
ag126
ag126
ag126
ag126
ag126
ag126
ag126
ag126
ag126
aV TBA
p1590
aV TBA
p1591
aV TBA
p1592
aV TBA
p1593
aV TBA
p1594
aV TBA
p1595
aV TBA
p1596
ag126
ag126
ag126
ag126
ag126
ag126
ag126
ag126
ag126
ag126
ag126
ag126
ag126
atp1597
ba(lp1598
g21
(g22
(dp1599
g24
g25
(g26
(I0
tp1600
g28
tp1601
Rp1602
(I1
(L15L
tp1603
g35
I00
(lp1604
g1352
ag1353
ag1354
ag1355
ag1356
ag1357
ag1358
ag1359
ag1360
ag1361
ag1362
ag1363
ag1363
ag1364
ag1365
atp1605
bsg60
Nstp1606
Rp1607
a(dp1608
g335
(dp1609
g337
g1345
sg338
(lp1610
(dp1611
g341
g342
(I0
I15
I1
tp1612
Rp1613
sg345
g1404
sasstp1614
bsbssVBlood_vs._Water
p1615
(dp1616
g3
Vhttp://survivor.wikia.com/wiki/Survivor:_Blood_vs._Water
p1617
sg5
g6
(g7
g8
Ntp1618
Rp1619
(dp1620
g12
g13
sg14
g15
sg16
g6
(g17
g8
Ntp1621
Rp1622
((lp1623
g21
(g22
(dp1624
g24
g25
(g26
(I0
tp1625
g28
tp1626
Rp1627
(I1
(L25L
tp1628
g35
I00
(lp1629
V Laura B.
p1630
aV Candice
p1631
aV Rupert
p1632
aV Marissa
p1633
aV Rachel
p1634
aV Colton
p1635
aV John
p1636
aV Brad
p1637
ag1637
aV Laura M.
p1638
aV Kat
p1639
aV Laura B.
p1640
aV Aras
p1641
aV Vytas
p1642
aV Tina
p1643
aV Laura M.
p1644
aV Caleb
p1645
aV Katie
p1646
ag1646
aV Hayden
p1647
aV Ciera
p1648
aV Tina
p1649
aV Gervase
p1650
aV Monica
p1651
aV Tyson
p1652
atp1653
bsg60
Nstp1654
Rp1655
ag21
(g22
(dp1656
g24
g25
(g26
(I0
tp1657
g28
tp1658
Rp1659
(I1
(L20L
tp1660
g35
I00
(lp1661
VTyson
p1662
aVMonica
p1663
aVGervase
p1664
aVTina
p1665
aVCiera
p1666
aVLaura M.
p1667
aVHayden
p1668
aVKatie
p1669
aVCaleb
p1670
aVVytas
p1671
aVAras
p1672
aVLaura B.
p1673
aVJohn
p1674
aVKat
p1675
aVBrad
p1676
aVCandice
p1677
aVMarissa
p1678
aVRachel
p1679
aVColton
p1680
aVRupert
p1681
atp1682
bsg60
g90
(g93
S'\x01\x00\x00\x00\x00\x00\x00\x00'
p1683
tp1684
Rp1685
stp1686
Rp1687
a(lp1688
g25
(g26
(I0
tp1689
g28
tp1690
Rp1691
(I1
(L25L
L20L
tp1692
g35
I00
(lp1693
V\u2014
p1694
aV\u2014
p1695
aV\u2014
p1696
aV\u2014
p1697
aV Laura B.
p1698
aV\u2014
p1699
aV Laura B.
p1700
aV Marissa
p1701
aV Laura B.
p1702
aV Laura B.
p1703
aV\u2014
p1704
aV Marissa
p1705
aV Laura B.
p1706
aV\u2014
p1707
aV Laura B.
p1708
aV\u2014
p1709
aV Brad
p1710
aV Katie
p1711
aV\u2014
p1712
aV\u2014
p1713
aV Laura M.
p1714
aV Candice
p1715
aV Candice
p1716
aV Candice
p1717
aV\u2014
p1718
aV Candice
p1719
aV\u2014
p1720
aV\u2014
p1721
aV\u2014
p1722
aV\u2014
p1723
aV Gervase
p1724
ag126
aV\u2014
p1725
aV Candice
p1726
aV\u2014
p1727
aV Laura M.
p1728
aV\u2014
p1729
aV\u2014
p1730
aV Candice
p1731
aV Laura M.
p1732
aV\u2014
p1733
aV\u2014
p1734
aV\u2014
p1735
aV\u2014
p1736
ag1718
aV\u2014
p1737
ag1720
ag1721
ag1722
ag1723
aV\u2014
p1738
aV Switched
p1739
ag1725
aV\u2014
p1740
ag1727
ag126
ag1729
ag1730
aV\u2014
p1741
aVSwitched
p1742
ag1733
ag1734
ag1735
ag1736
aV Marissa
p1743
ag1737
aV Marissa
p1744
aV Marissa
p1745
aV Marissa
p1746
aV Marissa
p1747
ag1738
aV\u2014
p1748
aV Marissa
p1749
ag1740
aV Marissa
p1750
ag126
aV Katie
p1751
aV Marissa
p1752
ag1741
ag126
aV\u2014
p1753
aV\u2014
p1754
aV\u2014
p1755
aV\u2014
p1756
aV John
p1757
aV\u2014
p1758
aV Rachel
p1759
aV John
p1760
aV Rachel
p1761
aV Rachel
p1762
aV\u2014
p1763
aV\u2014
p1764
aV Rachel
p1765
aV\u2014
p1766
aV Rachel
p1767
ag126
ag126
aV Ciera
p1768
aV\u2014
p1769
ag126
aV\u2014
p1770
aV\u2014
p1771
aV\u2014
p1772
aV\u2014
p1773
aV\u2014
p1774
aV\u2014
p1775
aV\u2014
p1776
aV\u2014
p1777
aV\u2014
p1778
aV\u2014
p1779
aV\u2014
p1780
aV\u2014
p1781
aV\u2014
p1782
aV\u2014
p1783
aV\u2014
p1784
ag126
ag126
ag126
aVQuit
p1785
ag126
ag1770
ag1771
ag1772
ag1773
aV John
p1786
ag1775
aV John
p1787
aV John
p1788
aV John
p1789
aV John
p1790
ag1780
ag1781
aV Ciera
p1791
ag1783
aV John
p1792
ag126
ag126
ag126
ag126
ag126
aV\u2014
p1793
aV\u2014
p1794
aV\u2014
p1795
aV\u2014
p1796
aV Brad
p1797
aV\u2014
p1798
aV Ciera
p1799
aV Brad
p1800
aV Brad
p1801
aV Ciera
p1802
aV\u2014
p1803
aV\u2014
p1804
ag126
aV\u2014
p1805
aV Ciera
p1806
ag126
ag126
ag126
ag126
ag126
ag1793
ag1794
ag1795
ag1796
aVNone
p1807
ag1798
aV Ciera
p1808
aV Brad
p1809
aV Brad
p1810
aV Brad
p1811
ag1803
ag1804
ag126
ag1805
aVNone
p1812
ag126
ag126
ag126
ag126
ag126
aV Laura M.
p1813
aV Laura M.
p1814
aV Laura M.
p1815
aV Laura M.
p1816
aV\u2014
p1817
aV Laura B.
p1818
aV\u2014
p1819
aV\u2014
p1820
aV\u2014
p1821
aV\u2014
p1822
aV Laura M.
p1823
aV Laura M.
p1824
ag126
aV Laura M.
p1825
ag126
ag126
ag126
ag126
ag126
ag126
aV\u2014
p1826
aV Kat
p1827
aV\u2014
p1828
aV Kat
p1829
aV\u2014
p1830
ag126
aV\u2014
p1831
aV Kat
p1832
aV\u2014
p1833
aV Kat
p1834
aV\u2014
p1835
aV Kat
p1836
ag126
aV Vytas
p1837
ag126
ag126
ag126
ag126
ag126
ag126
aV\u2014
p1838
aV Laura B.
p1839
aV\u2014
p1840
aV Laura B.
p1841
aV\u2014
p1842
ag126
aV\u2014
p1843
aV Laura B.
p1844
aV\u2014
p1845
aV Laura B.
p1846
aV\u2014
p1847
aV Vytas
p1848
ag126
ag126
ag126
ag126
ag126
ag126
ag126
ag126
aV Aras
p1849
aV Aras
p1850
aV Aras
p1851
aV Ciera
p1852
aV Aras
p1853
aV Aras
p1854
aV Aras
p1855
aV Ciera
p1856
aV Aras
p1857
aV Laura M.
p1858
aV Laura M.
p1859
ag126
ag126
ag126
ag126
ag126
ag126
ag126
ag126
ag126
aV Vytas
p1860
aV Vytas
p1861
aV Vytas
p1862
aV Vytas
p1863
aV Katie
p1864
aV Vytas
p1865
aV Vytas
p1866
aV Vytas
p1867
aV Vytas
p1868
aV Tyson
p1869
ag126
ag126
ag126
ag126
ag126
ag126
ag126
ag126
ag126
ag126
aV Tina
p1870
aV Tina
p1871
aV Tina
p1872
aV Tyson
p1873
aV Tina
p1874
aV Tina
p1875
aV Tina
p1876
aV Monica
p1877
aV Tina
p1878
ag126
ag126
ag126
ag126
ag126
ag126
ag126
ag126
ag126
ag126
ag126
aV Laura M.
p1879
aV Laura M.
p1880
aV Laura M.
p1881
ag126
aV Laura M.
p1882
aV Katie
p1883
aV Laura M.
p1884
aV Laura M.
p1885
aV Laura M.
p1886
ag126
ag126
ag126
ag126
ag126
ag126
ag126
ag126
ag126
ag126
ag126
aV Caleb
p1887
aV Caleb
p1888
aV Caleb
p1889
ag126
aV Caleb
p1890
ag126
aV Ciera
p1891
aV Ciera
p1892
aV Ciera
p1893
ag126
ag126
ag126
ag126
ag126
ag126
ag126
ag126
ag126
ag126
ag126
aV Hayden
p1894
aV Hayden
p1895
aV Hayden
p1896
ag126
aV Monica
p1897
ag126
aV Monica
p1898
aV Monica
p1899
ag126
ag126
ag126
ag126
ag126
ag126
ag126
ag126
ag126
ag126
ag126
ag126
aV Hayden
p1900
aVNone
p1901
aV Hayden
p1902
ag126
aV Monica
p1903
ag126
aVNone
p1904
aV Monica
p1905
ag126
ag126
ag126
ag126
ag126
ag126
ag126
ag126
ag126
ag126
ag126
ag126
aV Hayden
p1906
aV Hayden
p1907
aV Hayden
p1908
ag126
aV Gervase
p1909
ag126
aV Gervase
p1910
ag126
ag126
ag126
ag126
ag126
ag126
ag126
ag126
ag126
ag126
ag126
ag126
ag126
aV Ciera
p1911
aV Ciera
p1912
aV Ciera
p1913
aV Gervase
p1914
aV Gervase
p1915
ag126
ag126
ag126
ag126
ag126
ag126
ag126
ag126
ag126
ag126
ag126
ag126
ag126
ag126
ag126
aV Tina
p1916
aV Tina
p1917
aV Tina
p1918
aV Gervase
p1919
ag126
ag126
ag126
ag126
ag126
ag126
ag126
ag126
ag126
ag126
ag126
ag126
ag126
ag126
ag126
ag126
aNaNaNag126
ag126
ag126
ag126
ag126
ag126
ag126
ag126
ag126
ag126
ag126
ag126
ag126
ag126
ag126
ag126
ag126
aNaNaNag126
ag126
ag126
ag126
ag126
ag126
aV Monica
p1920
ag126
ag126
ag126
ag126
ag126
ag126
ag126
ag126
ag126
ag126
aNaNaNaV Tyson
p1921
aV Tyson
p1922
aV Tyson
p1923
aV Tyson
p1924
aV Tyson
p1925
aV Tyson
p1926
ag126
aV Tyson
p1927
ag126
ag126
ag126
ag126
ag126
ag126
ag126
ag126
ag126
atp1928
ba(lp1929
g21
(g22
(dp1930
g24
g25
(g26
(I0
tp1931
g28
tp1932
Rp1933
(I1
(L25L
tp1934
g35
I00
(lp1935
g1630
ag1631
ag1632
ag1633
ag1634
ag1635
ag1636
ag1637
ag1637
ag1638
ag1639
ag1640
ag1641
ag1642
ag1643
ag1644
ag1645
ag1646
ag1646
ag1647
ag1648
ag1649
ag1650
ag1651
ag1652
atp1936
bsg60
Nstp1937
Rp1938
a(dp1939
g335
(dp1940
g337
g1623
sg338
(lp1941
(dp1942
g341
g342
(I0
I25
I1
tp1943
Rp1944
sg345
g1691
sasstp1945
bsbssVMarquesas
p1946
(dp1947
g3
Vhttp://survivor.wikia.com/wiki/Survivor:_Marquesas
p1948
sg5
g6
(g7
g8
Ntp1949
Rp1950
(dp1951
g12
g13
sg14
g15
sg16
g6
(g17
g8
Ntp1952
Rp1953
((lp1954
g21
(g22
(dp1955
g24
g25
(g26
(I0
tp1956
g28
tp1957
Rp1958
(I1
(L17L
tp1959
g35
I00
(lp1960
V Peter
p1961
aV Patricia
p1962
aV Hunter
p1963
aV Sarah
p1964
aV Gabriel
p1965
aV Gina
p1966
aV Rob
p1967
aV John
p1968
aV Zoe
p1969
aV Tammy
p1970
aV Robert
p1971
aV Sean
p1972
aV Paschal
p1973
ag1973
aV Kathy
p1974
aV Neleh
p1975
aV Vecepia
p1976
atp1977
bsg60
Nstp1978
Rp1979
ag21
(g22
(dp1980
g24
g25
(g26
(I0
tp1981
g28
tp1982
Rp1983
(I1
(L16L
tp1984
g35
I00
(lp1985
VVecepia
p1986
aVNeleh
p1987
aVKathy
p1988
aVPaschal
p1989
aVSean
p1990
aVRobert
p1991
aVTammy
p1992
aVZoe
p1993
aVJohn
p1994
aVRob
p1995
aVGina
p1996
aVGabriel
p1997
aVSarah
p1998
aVHunter
p1999
aVPatricia
p2000
aVPeter
p2001
atp2002
bsg60
g90
(g93
S'\x01\x00\x00\x00\x00\x00\x00\x00'
p2003
tp2004
Rp2005
stp2006
Rp2007
a(lp2008
g25
(g26
(I0
tp2009
g28
tp2010
Rp2011
(I1
(L17L
L16L
tp2012
g35
I00
(lp2013
V Sarah
p2014
aV \u2014
p2015
aV \u2014
p2016
aV \u2014
p2017
aV Sarah
p2018
aV \u2014
p2019
aV \u2014
p2020
aV \u2014
p2021
aV \u2014
p2022
aV Peter
p2023
aV Peter
p2024
aV \u2014
p2025
aV Peter
p2026
aV Peter
p2027
aV Peter
p2028
aV Patricia
p2029
aV Patricia
p2030
aV \u2014
p2031
aV \u2014
p2032
aV \u2014
p2033
aV Patricia
p2034
aV \u2014
p2035
aV \u2014
p2036
aV \u2014
p2037
aV \u2014
p2038
aV Patricia
p2039
aV Sarah
p2040
aV \u2014
p2041
aV Patricia
p2042
aV Sarah
p2043
aV Sarah
p2044
ag126
aV Hunter
p2045
aV \u2014
p2046
aV \u2014
p2047
aV \u2014
p2048
aV Hunter
p2049
aV \u2014
p2050
aV \u2014
p2051
aV \u2014
p2052
aV \u2014
p2053
aV Hunter
p2054
aV Sarah
p2055
aV \u2014
p2056
aV Hunter
p2057
aV Sarah
p2058
ag126
ag126
aV \u2014
p2059
aV Sarah
p2060
aV Sarah
p2061
aV Sarah
p2062
aV \u2014
p2063
aV \u2014
p2064
aV \u2014
p2065
aV \u2014
p2066
aV \u2014
p2067
aV \u2014
p2068
aV Sarah
p2069
aV \u2014
p2070
aV Kathy
p2071
ag126
ag126
ag126
aV Gabriel
p2072
aV \u2014
p2073
aV \u2014
p2074
aV \u2014
p2075
aV Gabriel
p2076
aV Gabriel
p2077
aV Gabriel
p2078
aV Gabriel
p2079
aV Gabriel
p2080
aV Gabriel
p2081
aV \u2014
p2082
aV Rob
p2083
ag126
ag126
ag126
ag126
aV \u2014
p2084
aV Gina
p2085
aV Gina
p2086
aV Gina
p2087
aV \u2014
p2088
aV \u2014
p2089
aV \u2014
p2090
aV \u2014
p2091
aV \u2014
p2092
aV \u2014
p2093
aV Kathy
p2094
ag126
ag126
ag126
ag126
ag126
aV Rob
p2095
aV Rob
p2096
aV Zoe
p2097
aV Rob
p2098
aV John
p2099
aV Rob
p2100
aV Rob
p2101
aV Rob
p2102
aV Rob
p2103
aV John
p2104
ag126
ag126
ag126
ag126
ag126
ag126
aV John
p2105
aV John
p2106
aV John
p2107
aV John
p2108
aV John
p2109
aV Sean
p2110
aV Sean
p2111
aV John
p2112
aV Sean
p2113
ag126
ag126
ag126
ag126
ag126
ag126
ag126
aV Zoe
p2114
aV Zoe
p2115
aV Zoe
p2116
aV Zoe
p2117
aV Zoe
p2118
aV Zoe
p2119
aV Zoe
p2120
aV Robert
p2121
ag126
ag126
ag126
ag126
ag126
ag126
ag126
ag126
aV Tammy
p2122
aV Tammy
p2123
aV Tammy
p2124
aV Tammy
p2125
aV Tammy
p2126
aV Vecepia
p2127
aV Vecepia
p2128
ag126
ag126
ag126
ag126
ag126
ag126
ag126
ag126
ag126
aV Robert
p2129
aV Robert
p2130
aV Robert
p2131
aV Robert
p2132
aV Robert
p2133
aV Sean
p2134
ag126
ag126
ag126
ag126
ag126
ag126
ag126
ag126
ag126
ag126
aV Neleh
p2135
aV Sean
p2136
aV Sean
p2137
aV Sean
p2138
aV Neleh
p2139
ag126
ag126
ag126
ag126
ag126
ag126
ag126
ag126
ag126
ag126
ag126
aV Neleh
p2140
aV Kathy
p2141
aV Neleh
p2142
aV Kathy
p2143
ag126
ag126
ag126
ag126
ag126
ag126
ag126
ag126
ag126
ag126
ag126
ag126
aV \u2014
p2144
aV \u2014
p2145
aV \u2014
p2146
aVEliminated
p2147
ag126
ag126
ag126
ag126
ag126
ag126
ag126
ag126
ag126
ag126
ag126
ag126
aV \u2014
p2148
aV Kathy
p2149
aV \u2014
p2150
ag126
ag126
ag126
ag126
ag126
ag126
ag126
ag126
ag126
ag126
ag126
ag126
ag126
aNaNaV Neleh
p2151
aV Neleh
p2152
ag126
ag126
ag126
aV Neleh
p2153
ag126
ag126
ag126
ag126
ag126
ag126
ag126
ag126
aNaNag126
ag126
aV Vecepia
p2154
aV Vecepia
p2155
aV Vecepia
p2156
ag126
aV Vecepia
p2157
ag126
ag126
ag126
ag126
ag126
ag126
ag126
atp2158
ba(lp2159
g21
(g22
(dp2160
g24
g25
(g26
(I0
tp2161
g28
tp2162
Rp2163
(I1
(L17L
tp2164
g35
I00
(lp2165
g1961
ag1962
ag1963
ag1964
ag1965
ag1966
ag1967
ag1968
ag1969
ag1970
ag1971
ag1972
ag1973
ag1973
ag1974
ag1975
ag1976
atp2166
bsg60
Nstp2167
Rp2168
a(dp2169
g335
(dp2170
g337
g1954
sg338
(lp2171
(dp2172
g341
g342
(I0
I17
I1
tp2173
Rp2174
sg345
g2011
sasstp2175
bsbssVPearl_Islands
p2176
(dp2177
g3
Vhttp://survivor.wikia.com/wiki/Survivor:_Pearl_Islands
p2178
sg5
g6
(g7
g8
Ntp2179
Rp2180
(dp2181
g12
g13
sg14
g15
sg16
g6
(g17
g8
Ntp2182
Rp2183
((lp2184
g21
(g22
(dp2185
g24
g25
(g26
(I0
tp2186
g28
tp2187
Rp2188
(I1
(L20L
tp2189
g35
I00
(lp2190
V Nicole
p2191
aV Ryan S.
p2192
aV Lillian
p2193
aV Burton
p2194
aV Michelle
p2195
aV Trish
p2196
aV Shawn
p2197
aV Osten
p2198
aV Burton
p2199
aV Lillian
p2200
aV Andrew
p2201
aV Ryan O.
p2202
aV Rupert
p2203
aV Tijuana
p2204
aV Christa
p2205
aV Burton
p2206
aV Darrah
p2207
aV Jon
p2208
aV Lillian
p2209
aV Sandra
p2210
atp2211
bsg60
Nstp2212
Rp2213
ag21
(g22
(dp2214
g24
g25
(g26
(I0
tp2215
g28
tp2216
Rp2217
(I1
(L16L
tp2218
g35
I00
(lp2219
VSandra
p2220
aVLillian
p2221
aVJon
p2222
aVDarrah
p2223
aVBurton
p2224
aVChrista
p2225
aVTijuana
p2226
aVRupert
p2227
aVRyan O.
p2228
aVAndrew
p2229
aVOsten
p2230
aVShawn
p2231
aVTrish
p2232
aVMichelle
p2233
aVRyan S.
p2234
aVNicole
p2235
atp2236
bsg60
g90
(g93
S'\x01\x00\x00\x00\x00\x00\x00\x00'
p2237
tp2238
Rp2239
stp2240
Rp2241
a(lp2242
g25
(g26
(I0
tp2243
g28
tp2244
Rp2245
(I1
(L20L
L16L
tp2246
g35
I00
(lp2247
V \u2014
p2248
aV Nicole
p2249
aV \u2014
p2250
aV Nicole
p2251
aV \u2014
p2252
aV \u2014
p2253
aV Nicole
p2254
aV \u2014
p2255
aV Nicole
p2256
aV Nicole
p2257
aV Nicole
p2258
aV \u2014
p2259
aV \u2014
p2260
aV \u2014
p2261
aV Nicole
p2262
aV Ryan S.
p2263
aV \u2014
p2264
aV Osten
p2265
aV \u2014
p2266
aV Ryan S.
p2267
aV \u2014
p2268
aV \u2014
p2269
aV Ryan S.
p2270
aV \u2014
p2271
aV Ryan S.
p2272
aV Ryan S.
p2273
aV Ryan S.
p2274
aV \u2014
p2275
aV \u2014
p2276
aV \u2014
p2277
aV Osten
p2278
ag126
aV \u2014
p2279
aV Darrah
p2280
aV \u2014
p2281
aV Lillian
p2282
aV \u2014
p2283
aV \u2014
p2284
aV Lillian
p2285
aV \u2014
p2286
aV Lillian
p2287
aV Lillian
p2288
aV Lillian
p2289
aV \u2014
p2290
aV \u2014
p2291
aV \u2014
p2292
ag126
ag126
aV Burton
p2293
ag126
aV Burton
p2294
aV \u2014
p2295
aV Christa
p2296
aV Burton
p2297
aV \u2014
p2298
aVKidnapped 
p2299
aV \u2014
p2300
aV \u2014
p2301
aV \u2014
p2302
aV Burton
p2303
aV Burton
p2304
aV Christa
p2305
ag126
ag126
aV Michelle
p2306
ag126
aV Michelle
p2307
aV \u2014
p2308
ag126
aV Michelle
p2309
aV \u2014
p2310
aV Michelle
p2311
aV \u2014
p2312
aV \u2014
p2313
aV \u2014
p2314
aV Michelle
p2315
aV Michelle
p2316
aV Shawn
p2317
ag126
ag126
aV Trish
p2318
ag126
aV Rupert
p2319
aV \u2014
p2320
ag126
aV Trish
p2321
aV \u2014
p2322
aV Trish
p2323
aV \u2014
p2324
aV \u2014
p2325
aV \u2014
p2326
aV Trish
p2327
aV Rupert
p2328
ag126
ag126
ag126
aV Shawn
p2329
ag126
aV Shawn
p2330
aV \u2014
p2331
ag126
aV Shawn
p2332
aV \u2014
p2333
aV Shawn
p2334
aV \u2014
p2335
aV \u2014
p2336
aV \u2014
p2337
aV Jon
p2338
ag126
ag126
ag126
ag126
aV \u2014
p2339
ag126
aV \u2014
p2340
aV \u2014
p2341
ag126
aV \u2014
p2342
aV \u2014
p2343
aV \u2014
p2344
aV \u2014
p2345
aV \u2014
p2346
aVQuit
p2347
ag126
ag126
ag126
ag126
ag126
aV \u2014
p2348
aV Ryan S.
p2349
aV \u2014
p2350
aV \u2014
p2351
aV Michelle
p2352
aV \u2014
p2353
aV \u2014
p2354
aV \u2014
p2355
aV \u2014
p2356
aV \u2014
p2357
ag126
ag126
aV Burton
p2358
aV Burton
p2359
aV Burton
p2360
aV Lillian
p2361
ag2348
aV Trish
p2362
ag2350
ag2351
aV Nicole
p2363
ag2353
ag2354
ag2355
ag2356
ag2357
ag126
ag126
aV Lillian
p2364
aV Nicole
p2365
aV Lillian
p2366
aV Ryan S.
p2367
aV Andrew
p2368
aV Andrew
p2369
aV Andrew
p2370
aV Jon
p2371
aV Andrew
p2372
aV Andrew
p2373
aV Jon
p2374
aV Andrew
p2375
aV Jon
p2376
aV Jon
p2377
ag126
ag126
ag126
ag126
ag126
ag126
aV Ryan O.
p2378
aV Ryan O.
p2379
aV Ryan O.
p2380
aV Ryan O.
p2381
aV Ryan O.
p2382
aV Ryan O.
p2383
aV Ryan O.
p2384
aV Ryan O.
p2385
aV Christa
p2386
ag126
ag126
ag126
ag126
ag126
ag126
ag126
aV Jon
p2387
aV Rupert
p2388
aV Rupert
p2389
aV Rupert
p2390
aV Rupert
p2391
aV Darrah
p2392
aV Rupert
p2393
aV Darrah
p2394
ag126
ag126
ag126
ag126
ag126
ag126
ag126
ag126
aV Tijuana
p2395
aV Tijuana
p2396
aV Tijuana
p2397
aV Burton
p2398
aV Tijuana
p2399
aV Tijuana
p2400
aV Burton
p2401
ag126
ag126
ag126
ag126
ag126
ag126
ag126
ag126
ag126
aV Lillian
p2402
aV Christa
p2403
aV Christa
p2404
aV Christa
p2405
aV Christa
p2406
aV Lillian
p2407
ag126
ag126
ag126
ag126
ag126
ag126
ag126
ag126
ag126
ag126
aV Burton
p2408
aV Burton
p2409
aV Lillian
p2410
aV Burton
p2411
aV Lillian
p2412
ag126
ag126
ag126
ag126
ag126
ag126
ag126
ag126
ag126
ag126
ag126
aV Darrah
p2413
aV Darrah
p2414
aV Darrah
p2415
aV Lillian
p2416
ag126
ag126
ag126
ag126
ag126
ag126
ag126
ag126
ag126
ag126
ag126
ag126
aV \u2014
p2417
aV Jon
p2418
aV \u2014
p2419
ag126
ag126
ag126
ag126
ag126
ag126
ag126
ag126
ag126
ag126
ag126
ag126
ag126
aNaNag126
ag126
ag126
ag126
aV Lillian
p2420
ag126
ag126
ag126
ag126
ag126
ag126
ag126
ag126
ag126
aNaNaV Sandra
p2421
aV Sandra
p2422
aV Sandra
p2423
aV Sandra
p2424
ag126
aV Sandra
p2425
aV Sandra
p2426
ag126
ag126
ag126
ag126
ag126
ag126
ag126
atp2427
ba(lp2428
g21
(g22
(dp2429
g24
g25
(g26
(I0
tp2430
g28
tp2431
Rp2432
(I1
(L20L
tp2433
g35
I00
(lp2434
g2191
ag2192
ag2193
ag2194
ag2195
ag2196
ag2197
ag2198
ag2199
ag2200
ag2201
ag2202
ag2203
ag2204
ag2205
ag2206
ag2207
ag2208
ag2209
ag2210
atp2435
bsg60
Nstp2436
Rp2437
a(dp2438
g335
(dp2439
g337
g2184
sg338
(lp2440
(dp2441
g341
g342
(I0
I20
I1
tp2442
Rp2443
sg345
g2245
sasstp2444
bsbssVVanuatu
p2445
(dp2446
g3
Vhttp://survivor.wikia.com/wiki/Survivor:_Vanuatu
p2447
sg5
g6
(g7
g8
Ntp2448
Rp2449
(dp2450
g12
g13
sg14
g15
sg16
g6
(g17
g8
Ntp2451
Rp2452
((lp2453
g21
(g22
(dp2454
g24
g25
(g26
(I0
tp2455
g28
tp2456
Rp2457
(I1
(L18L
tp2458
g35
I00
(lp2459
V Brook
p2460
aV Dolly
p2461
aV John P.
p2462
aV Mia
p2463
aV Brady
p2464
aV Travis
p2465
aV Lisa
p2466
aV John K.
p2467
aV Rory
p2468
aV Lea
p2469
aV Chad
p2470
aV Leann
p2471
aV Ami
p2472
aV Julie
p2473
aV Eliza
p2474
aV Scout
p2475
aV Twila
p2476
aV Chris
p2477
atp2478
bsg60
Nstp2479
Rp2480
ag21
(g22
(dp2481
g24
g25
(g26
(I0
tp2482
g28
tp2483
Rp2484
(I1
(L18L
tp2485
g35
I00
(lp2486
VChris
p2487
aVTwila
p2488
aVScout
p2489
aVEliza
p2490
aVJulie
p2491
aVAmi
p2492
aVLeann
p2493
aVChad
p2494
aVLea
p2495
aVRory
p2496
aVJohn K.
p2497
aVLisa
p2498
aVTravis
p2499
aVBrady
p2500
aVMia
p2501
aVJohn P.
p2502
aVDolly
p2503
aVBrook
p2504
atp2505
bsg60
g90
(g93
S'\x01\x00\x00\x00\x00\x00\x00\x00'
p2506
tp2507
Rp2508
stp2509
Rp2510
a(lp2511
g25
(g26
(I0
tp2512
g28
tp2513
Rp2514
(I1
(L18L
L18L
tp2515
g35
I00
(lp2516
V Brook
p2517
aV \u2014
p2518
aV \u2014
p2519
aV \u2014
p2520
aV \u2014
p2521
aV \u2014
p2522
aV \u2014
p2523
aV Brook
p2524
aV Brook
p2525
aV Brook
p2526
aV Chris
p2527
aV \u2014
p2528
aV Brook
p2529
aV Rory
p2530
aV \u2014
p2531
aV Chris
p2532
aV \u2014
p2533
aV Chris
p2534
aV \u2014
p2535
aV Dolly
p2536
aV Dolly
p2537
aV Dolly
p2538
aV Leann
p2539
aV Dolly
p2540
aV Dolly
p2541
aV \u2014
p2542
aV \u2014
p2543
aV \u2014
p2544
aV \u2014
p2545
aV Leann
p2546
aV \u2014
p2547
aV \u2014
p2548
aV Leann
p2549
aV \u2014
p2550
aV Leann
p2551
ag126
aV John P.
p2552
aV \u2014
p2553
aV \u2014
p2554
aV \u2014
p2555
aV \u2014
p2556
aV \u2014
p2557
aV \u2014
p2558
aV John P.
p2559
aV John P.
p2560
aV John P.
p2561
aV Rory
p2562
aV \u2014
p2563
aV John P.
p2564
aV Rory
p2565
aV \u2014
p2566
aV Rory
p2567
ag126
ag126
aV \u2014
p2568
aV Mia
p2569
aV Mia
p2570
aV Twila
p2571
aV Twila
p2572
aV Mia
p2573
aV Mia
p2574
aV \u2014
p2575
aV \u2014
p2576
aV \u2014
p2577
aV \u2014
p2578
aV Mia
p2579
aV \u2014
p2580
aV \u2014
p2581
aV Twila
p2582
ag126
ag126
ag126
aV Brady
p2583
aV \u2014
p2584
aV \u2014
p2585
aV \u2014
p2586
aV \u2014
p2587
aV \u2014
p2588
aV \u2014
p2589
aV Brady
p2590
aV Brady
p2591
aV Brady
p2592
aV Brady
p2593
aV \u2014
p2594
aV Brady
p2595
aV Rory
p2596
ag126
ag126
ag126
ag126
aV \u2014
p2597
aV \u2014
p2598
aV Travis
p2599
aV Travis
p2600
aV \u2014
p2601
aV Travis
p2602
aV Travis
p2603
aV \u2014
p2604
aV \u2014
p2605
aV Travis
p2606
aV \u2014
p2607
aV Travis
p2608
aV Rory
p2609
ag126
ag126
ag126
ag126
ag126
aV \u2014
p2610
aV \u2014
p2611
aV Rory
p2612
aV Lisa
p2613
aV \u2014
p2614
aV Lisa
p2615
aV Lisa
p2616
aV \u2014
p2617
aV \u2014
p2618
aV Lisa
p2619
aV \u2014
p2620
aV Rory
p2621
ag126
ag126
ag126
ag126
ag126
ag126
aV John K.
p2622
aV John K.
p2623
aV \u2014
p2624
aV \u2014
p2625
aV John K.
p2626
aV \u2014
p2627
aV \u2014
p2628
aV John K.
p2629
aV John K.
p2630
aV \u2014
p2631
aV Chad
p2632
ag126
ag126
ag126
ag126
ag126
ag126
ag126
aV Ami
p2633
aV Rory
p2634
aV Rory
p2635
aV Rory
p2636
aV Rory
p2637
aV Rory
p2638
aV Rory
p2639
aV Ami
p2640
aV Ami
p2641
aV Ami
p2642
ag126
ag126
ag126
ag126
ag126
ag126
ag126
ag126
aV Lea
p2643
aV Lea
p2644
aV Lea
p2645
aV Lea
p2646
aV Lea
p2647
aV Lea
p2648
aV Lea
p2649
aV Julie
p2650
aV Eliza
p2651
ag126
ag126
ag126
ag126
ag126
ag126
ag126
ag126
ag126
aV Eliza
p2652
aV Chad
p2653
aV Chad
p2654
aV Chad
p2655
aV Chad
p2656
aV Chad
p2657
aV Chad
p2658
aV Eliza
p2659
ag126
ag126
ag126
ag126
ag126
ag126
ag126
ag126
ag126
ag126
aV Leann
p2660
aV Leann
p2661
aV Leann
p2662
aV Leann
p2663
aV Eliza
p2664
aV Eliza
p2665
aV Eliza
p2666
ag126
ag126
ag126
ag126
ag126
ag126
ag126
ag126
ag126
ag126
ag126
aV Ami
p2667
aV Ami
p2668
aV Ami
p2669
aV Ami
p2670
aV Scout
p2671
aV Scout
p2672
ag126
ag126
ag126
ag126
ag126
ag126
ag126
ag126
ag126
ag126
ag126
ag126
aV Julie
p2673
aV Julie
p2674
aV Julie
p2675
aV Twila
p2676
aV Twila
p2677
ag126
ag126
ag126
ag126
ag126
ag126
ag126
ag126
ag126
ag126
ag126
ag126
ag126
aV Eliza
p2678
aV Eliza
p2679
aV Eliza
p2680
aV Twila
p2681
ag126
ag126
ag126
ag126
ag126
ag126
ag126
ag126
ag126
ag126
ag126
ag126
ag126
ag126
aV Scout
p2682
aV \u2014
p2683
aV \u2014
p2684
ag126
ag126
ag126
ag126
ag126
ag126
ag126
ag126
ag126
ag126
ag126
ag126
ag126
ag126
ag126
aNaNaV Twila
p2685
ag126
ag126
aV Twila
p2686
ag126
ag126
ag126
ag126
ag126
ag126
ag126
ag126
ag126
ag126
ag126
ag126
aNaNag126
aV Chris
p2687
aV Chris
p2688
ag126
aV Chris
p2689
aV Chris
p2690
aV Chris
p2691
ag126
ag126
ag126
ag126
ag126
ag126
ag126
ag126
ag126
atp2692
ba(lp2693
g21
(g22
(dp2694
g24
g25
(g26
(I0
tp2695
g28
tp2696
Rp2697
(I1
(L18L
tp2698
g35
I00
(lp2699
g2460
ag2461
ag2462
ag2463
ag2464
ag2465
ag2466
ag2467
ag2468
ag2469
ag2470
ag2471
ag2472
ag2473
ag2474
ag2475
ag2476
ag2477
atp2700
bsg60
Nstp2701
Rp2702
a(dp2703
g335
(dp2704
g337
g2453
sg338
(lp2705
(dp2706
g341
g342
(I0
I18
I1
tp2707
Rp2708
sg345
g2514
sasstp2709
bsbssVThe_Australian_Outback
p2710
(dp2711
g3
Vhttp://survivor.wikia.com/wiki/Survivor:_The_Australian_Outback
p2712
sg5
g6
(g7
g8
Ntp2713
Rp2714
(dp2715
g12
g13
sg14
g15
sg16
g6
(g17
g8
Ntp2716
Rp2717
((lp2718
g21
(g22
(dp2719
g24
g25
(g26
(I0
tp2720
g28
tp2721
Rp2722
(I1
(L18L
tp2723
g35
I00
(lp2724
V Debb
p2725
aV Kel
p2726
aV Maralyn
p2727
aV Mitchell
p2728
ag2728
aV Kimmi
p2729
aV Michael
p2730
aV Jeff
p2731
ag2731
aV Alicia
p2732
aV Jerri
p2733
aV Nick
p2734
aV Amber
p2735
aV Rodger
p2736
aV Elisabeth
p2737
aV Keith
p2738
aV Colby
p2739
aV Tina
p2740
atp2741
bsg60
Nstp2742
Rp2743
ag21
(g22
(dp2744
g24
g25
(g26
(I0
tp2745
g28
tp2746
Rp2747
(I1
(L16L
tp2748
g35
I00
(lp2749
VTina
p2750
aVColby
p2751
aVKeith
p2752
aVElisabeth
p2753
aVRodger
p2754
aVAmber
p2755
aVNick
p2756
aVJerri
p2757
aVAlicia
p2758
aVJeff
p2759
aVMichael
p2760
aVKimmi
p2761
aVMitchell
p2762
aVMaralyn
p2763
aVKel
p2764
aVDebb
p2765
atp2766
bsg60
g90
(g93
S'\x01\x00\x00\x00\x00\x00\x00\x00'
p2767
tp2768
Rp2769
stp2770
Rp2771
a(lp2772
g25
(g26
(I0
tp2773
g28
tp2774
Rp2775
(I1
(L18L
L16L
tp2776
g35
I00
(lp2777
V \u2014
p2778
aV \u2014
p2779
aV \u2014
p2780
aV Debb
p2781
aV Debb
p2782
aV \u2014
p2783
aV Debb
p2784
aV \u2014
p2785
aV Debb
p2786
aV Debb
p2787
aV Debb
p2788
aV Debb
p2789
aV \u2014
p2790
aV \u2014
p2791
aV \u2014
p2792
aV Jeff
p2793
aV Kel
p2794
aV Kel
p2795
aV Kel
p2796
aV \u2014
p2797
aV \u2014
p2798
aV Kel
p2799
aV \u2014
p2800
aV Kel
p2801
aV \u2014
p2802
aV \u2014
p2803
aV \u2014
p2804
aV \u2014
p2805
aV Kel
p2806
aV Kel
p2807
aV Jerri
p2808
ag126
aV Maralyn
p2809
aV Maralyn
p2810
aV Mitchell
p2811
aV \u2014
p2812
aV \u2014
p2813
aV Maralyn
p2814
aV \u2014
p2815
aV Maralyn
p2816
aV \u2014
p2817
aV \u2014
p2818
aV \u2014
p2819
aV \u2014
p2820
aV Maralyn
p2821
aV Jerri
p2822
ag126
ag126
aV Mitchell
p2823
aV Mitchell
p2824
aV Mitchell
p2825
aV \u2014
p2826
aV \u2014
p2827
aV Keith
p2828
aV \u2014
p2829
aV Keith
p2830
aV \u2014
p2831
aV \u2014
p2832
aV \u2014
p2833
aV \u2014
p2834
aV Keith
p2835
ag126
ag126
ag126
aV Mitchell
p2836
aV Mitchell
p2837
aVNone
p2838
ag2826
ag2827
aV Keith
p2839
ag2829
aV Keith
p2840
ag2831
ag2832
ag2833
ag2834
aVNone
p2841
ag126
ag126
ag126
aV \u2014
p2842
aV \u2014
p2843
aV \u2014
p2844
aV Kimmi
p2845
aV Kimmi
p2846
aV \u2014
p2847
aV Kimmi
p2848
aV \u2014
p2849
aV Kimmi
p2850
aV Kimmi
p2851
aV Kimmi
p2852
aV Jeff
p2853
ag126
ag126
ag126
ag126
aV \u2014
p2854
aV \u2014
p2855
aV \u2014
p2856
aV \u2014
p2857
aV \u2014
p2858
aV \u2014
p2859
aV \u2014
p2860
aV \u2014
p2861
aV \u2014
p2862
aV \u2014
p2863
aVEvacuated
p2864
ag126
ag126
ag126
ag126
ag126
aV Jeff
p2865
aV Jeff
p2866
aV Jeff
p2867
aV Colby
p2868
aV Colby
p2869
aV Jeff
p2870
aV Colby
p2871
aV Jeff
p2872
aV Colby
p2873
aV Colby
p2874
ag126
ag126
ag126
ag126
ag126
ag126
aV Jeff
p2875
aVNone
p2876
aV Jeff
p2877
aV Colby
p2878
aV Colby
p2879
aV Jeff
p2880
aV Colby
p2881
aV Jeff
p2882
aV Colby
p2883
aVNone
p2884
ag126
ag126
ag126
ag126
ag126
ag126
aV Alicia
p2885
aV Alicia
p2886
aV Alicia
p2887
aV Jerri
p2888
aV Jerri
p2889
aV Alicia
p2890
aV Jerri
p2891
aV Alicia
p2892
aV Jerri
p2893
ag126
ag126
ag126
ag126
ag126
ag126
ag126
aV Jerri
p2894
aV Jerri
p2895
aV Jerri
p2896
aV Jerri
p2897
aV Jerri
p2898
aV Elisabeth
p2899
aV Jerri
p2900
aV Elisabeth
p2901
ag126
ag126
ag126
ag126
ag126
ag126
ag126
ag126
aV Nick
p2902
aV Nick
p2903
aV Nick
p2904
aV Amber
p2905
aV Amber
p2906
aV Nick
p2907
aV Keith
p2908
ag126
ag126
ag126
ag126
ag126
ag126
ag126
ag126
ag126
aV Amber
p2909
aV Rodger
p2910
aV Amber
p2911
aV Amber
p2912
aV Amber
p2913
aV Rodger
p2914
ag126
ag126
ag126
ag126
ag126
ag126
ag126
ag126
ag126
ag126
aV Rodger
p2915
aV Rodger
p2916
aV Rodger
p2917
aV Keith
p2918
aV Keith
p2919
ag126
ag126
ag126
ag126
ag126
ag126
ag126
ag126
ag126
ag126
ag126
aV Elisabeth
p2920
aV Elisabeth
p2921
aV Elisabeth
p2922
aV Keith
p2923
ag126
ag126
ag126
ag126
ag126
ag126
ag126
ag126
ag126
ag126
ag126
ag126
aV \u2014
p2924
aV Keith
p2925
aV \u2014
p2926
ag126
ag126
ag126
ag126
ag126
ag126
ag126
ag126
ag126
ag126
ag126
ag126
ag126
aV Jury Vote
p2927
aNag126
ag126
aV Colby
p2928
aV Colby
p2929
aV Colby
p2930
ag126
ag126
ag126
ag126
ag126
ag126
ag126
ag126
ag126
ag2927
aNaV Tina
p2931
aV Tina
p2932
ag126
ag126
ag126
aV Tina
p2933
aV Tina
p2934
ag126
ag126
ag126
ag126
ag126
ag126
ag126
atp2935
ba(lp2936
g21
(g22
(dp2937
g24
g25
(g26
(I0
tp2938
g28
tp2939
Rp2940
(I1
(L18L
tp2941
g35
I00
(lp2942
g2725
ag2726
ag2727
ag2728
ag2728
ag2729
ag2730
ag2731
ag2731
ag2732
ag2733
ag2734
ag2735
ag2736
ag2737
ag2738
ag2739
ag2740
atp2943
bsg60
Nstp2944
Rp2945
a(dp2946
g335
(dp2947
g337
g2718
sg338
(lp2948
(dp2949
g341
g342
(I0
I18
I1
tp2950
Rp2951
sg345
g2775
sasstp2952
bsbssVHeroes_vs_Villains
p2953
(dp2954
g3
Vhttp://survivor.wikia.com/wiki/Survivor:_Heroes_vs_Villains
p2955
sg5
g6
(g7
g8
Ntp2956
Rp2957
(dp2958
g12
g13
sg14
g15
sg16
g6
(g17
g8
Ntp2959
Rp2960
((lp2961
g21
(g22
(dp2962
g24
g25
(g26
(I0
tp2963
g28
tp2964
Rp2965
(I1
(L20L
tp2966
g35
I00
(lp2967
V Sugar
p2968
aV Stephenie
p2969
aV Randy
p2970
aV Cirie
p2971
aV Tom
p2972
aV Tyson
p2973
aV James
p2974
aV Rob
p2975
aV Coach
p2976
aV Courtney
p2977
aV J.T.
p2978
aV Amanda
p2979
aV Candice
p2980
aV Danielle
p2981
aV Rupert
p2982
aV Colby
p2983
aV Jerri
p2984
aV Russell
p2985
aV Parvati
p2986
aV Sandra
p2987
atp2988
bsg60
Nstp2989
Rp2990
ag21
(g22
(dp2991
g24
g25
(g26
(I0
tp2992
g28
tp2993
Rp2994
(I1
(L20L
tp2995
g35
I00
(lp2996
VSandra
p2997
aVParvati
p2998
aVRussell
p2999
aVJerri
p3000
aVColby
p3001
aVRupert
p3002
aVDanielle
p3003
aVCandice
p3004
aVAmanda
p3005
aVJ.T.
p3006
aVCourtney
p3007
aVCoach
p3008
aVRob
p3009
aVJames
p3010
aVTyson
p3011
aVTom
p3012
aVCirie
p3013
aVRandy
p3014
aVStephenie
p3015
aVSugar
p3016
atp3017
bsg60
g90
(g93
S'\x01\x00\x00\x00\x00\x00\x00\x00'
p3018
tp3019
Rp3020
stp3021
Rp3022
a(lp3023
g25
(g26
(I0
tp3024
g28
tp3025
Rp3026
(I1
(L20L
L20L
tp3027
g35
I00
(lp3028
V \u2014
p3029
aV \u2014
p3030
aV \u2014
p3031
aV \u2014
p3032
aV Sugar
p3033
aV Sugar
p3034
aV \u2014
p3035
aV Sugar
p3036
aV Sugar
p3037
aV Sugar
p3038
aV \u2014
p3039
aV \u2014
p3040
aV \u2014
p3041
aV Sugar
p3042
aV \u2014
p3043
aV Sugar
p3044
aV Sugar
p3045
aV \u2014
p3046
aV Sugar
p3047
aV Amanda
p3048
aV \u2014
p3049
aV \u2014
p3050
aV \u2014
p3051
aV \u2014
p3052
aV Amanda
p3053
aV Stephenie
p3054
aV \u2014
p3055
aV Stephenie
p3056
aV Stephenie
p3057
aV Stephenie
p3058
aV \u2014
p3059
aV \u2014
p3060
aV \u2014
p3061
aV Stephenie
p3062
aV \u2014
p3063
aV Amanda
p3064
aV Stephenie
p3065
aV \u2014
p3066
aV Amanda
p3067
ag126
aV Randy
p3068
aV Randy
p3069
aV Randy
p3070
aV Randy
p3071
aV \u2014
p3072
aV \u2014
p3073
aV Randy
p3074
aV \u2014
p3075
aV \u2014
p3076
aV \u2014
p3077
aV Randy
p3078
aV Randy
p3079
aV Randy
p3080
aV \u2014
p3081
aV Randy
p3082
aV \u2014
p3083
aV \u2014
p3084
aV Rob
p3085
ag126
ag126
aV \u2014
p3086
aV \u2014
p3087
aV \u2014
p3088
aV \u2014
p3089
aV Cirie
p3090
aV Colby
p3091
aV \u2014
p3092
aV Tom
p3093
aV Tom
p3094
aV Cirie
p3095
aV \u2014
p3096
aV \u2014
p3097
aV \u2014
p3098
aV Colby
p3099
aV \u2014
p3100
aV Cirie
p3101
aV Tom
p3102
ag126
ag126
ag126
aV \u2014
p3103
aV \u2014
p3104
aV \u2014
p3105
aV \u2014
p3106
aV James
p3107
aV Tom
p3108
aV \u2014
p3109
aV Tom
p3110
aV Tom
p3111
aV Tom
p3112
aV \u2014
p3113
aV \u2014
p3114
aV \u2014
p3115
aV Tom
p3116
aV \u2014
p3117
aV James
p3118
ag126
ag126
ag126
ag126
aV Russell
p3119
aV Tyson
p3120
aV Tyson
p3121
aV Parvati
p3122
aV \u2014
p3123
aV \u2014
p3124
aV Tyson
p3125
aV \u2014
p3126
aV \u2014
p3127
aV \u2014
p3128
aV Parvati
p3129
aV Parvati
p3130
aV Russell
p3131
aV \u2014
p3132
aV Parvati
p3133
ag126
ag126
ag126
ag126
ag126
aV \u2014
p3134
aV \u2014
p3135
aV \u2014
p3136
aV \u2014
p3137
aV James
p3138
aV James
p3139
aV \u2014
p3140
aV James
p3141
aV James
p3142
aV James
p3143
aV \u2014
p3144
aV \u2014
p3145
aV \u2014
p3146
aV Colby
p3147
ag126
ag126
ag126
ag126
ag126
ag126
aV Russell
p3148
aV Rob
p3149
aV Rob
p3150
aV Rob
p3151
aV \u2014
p3152
aV \u2014
p3153
aV Rob
p3154
aV \u2014
p3155
aV \u2014
p3156
aV \u2014
p3157
aV Russell
p3158
aV Courtney
p3159
aV Russell
p3160
ag126
ag126
ag126
ag126
ag126
ag126
ag126
aV Coach
p3161
aV Coach
p3162
aV Courtney
p3163
aV Courtney
p3164
aV \u2014
p3165
aV \u2014
p3166
aV Coach
p3167
aV \u2014
p3168
aV \u2014
p3169
aV \u2014
p3170
aV Coach
p3171
aV Courtney
p3172
ag126
ag126
ag126
ag126
ag126
ag126
ag126
ag126
aV Courtney
p3173
aV Courtney
p3174
aV Courtney
p3175
aV Courtney
p3176
aV \u2014
p3177
aV \u2014
p3178
aV Courtney
p3179
aV \u2014
p3180
aV \u2014
p3181
aV \u2014
p3182
aV Jerri
p3183
ag126
ag126
ag126
ag126
ag126
ag126
ag126
ag126
ag126
aV J.T.
p3184
aV J.T.
p3185
aV J.T.
p3186
aV J.T.
p3187
aV Jerri
p3188
aV Jerri
p3189
aV J.T.
p3190
aV Jerri
p3191
aV Jerri
p3192
aV Jerri
p3193
ag126
ag126
ag126
ag126
ag126
ag126
ag126
ag126
ag126
ag126
aV Amanda
p3194
aV Amanda
p3195
aV Amanda
p3196
aV Amanda
p3197
aV Parvati
p3198
aV Parvati
p3199
aV Amanda
p3200
aV Amanda
p3201
aV Parvati
p3202
ag126
ag126
ag126
ag126
ag126
ag126
ag126
ag126
ag126
ag126
ag126
aV Candice
p3203
aV Rupert
p3204
aV Candice
p3205
aV Candice
p3206
aV Candice
p3207
aV Candice
p3208
aV Rupert
p3209
aV Rupert
p3210
ag126
ag126
ag126
ag126
ag126
ag126
ag126
ag126
ag126
ag126
ag126
ag126
aV Rupert
p3211
aV Rupert
p3212
aV Danielle
p3213
aV Danielle
p3214
aV Danielle
p3215
aV Danielle
p3216
aV Rupert
p3217
ag126
ag126
ag126
ag126
ag126
ag126
ag126
ag126
ag126
ag126
ag126
ag126
ag126
aV Rupert
p3218
aV Rupert
p3219
aV Rupert
p3220
aV Rupert
p3221
aV Sandra
p3222
aV Sandra
p3223
ag126
ag126
ag126
ag126
ag126
ag126
ag126
ag126
ag126
ag126
ag126
ag126
ag126
ag126
aV Colby
p3224
aV Colby
p3225
aV Colby
p3226
aV Colby
p3227
aV Sandra
p3228
ag126
ag126
ag126
ag126
ag126
ag126
ag126
ag126
ag126
ag126
ag126
ag126
ag126
ag126
ag126
aV Jerri
p3229
aV Jerri
p3230
aV Jerri
p3231
aV Parvati
p3232
ag126
ag126
ag126
ag126
ag126
ag126
ag126
ag126
ag126
ag126
ag126
ag126
ag126
ag126
ag126
ag126
aNaNaNag126
ag126
ag126
ag126
ag126
ag126
ag126
ag126
ag126
ag126
ag126
ag126
ag126
ag126
ag126
ag126
ag126
aNaNaNaV Parvati
p3233
ag126
ag126
aV Parvati
p3234
ag126
ag126
ag126
ag126
aV Parvati
p3235
ag126
ag126
ag126
ag126
ag126
ag126
ag126
ag126
aNaNaNag126
aV Sandra
p3236
aV Sandra
p3237
ag126
aV Sandra
p3238
aV Sandra
p3239
aV Sandra
p3240
aV Sandra
p3241
ag126
ag126
ag126
ag126
ag126
ag126
ag126
ag126
ag126
atp3242
ba(lp3243
g21
(g22
(dp3244
g24
g25
(g26
(I0
tp3245
g28
tp3246
Rp3247
(I1
(L20L
tp3248
g35
I00
(lp3249
g2968
ag2969
ag2970
ag2971
ag2972
ag2973
ag2974
ag2975
ag2976
ag2977
ag2978
ag2979
ag2980
ag2981
ag2982
ag2983
ag2984
ag2985
ag2986
ag2987
atp3250
bsg60
Nstp3251
Rp3252
a(dp3253
g335
(dp3254
g337
g2961
sg338
(lp3255
(dp3256
g341
g342
(I0
I20
I1
tp3257
Rp3258
sg345
g3026
sasstp3259
bsbssVGuatemala
p3260
(dp3261
g3
Vhttp://survivor.wikia.com/wiki/Survivor:_Guatemala
p3262
sg5
g6
(g7
g8
Ntp3263
Rp3264
(dp3265
g12
g13
sg14
g15
sg16
g6
(g17
g8
Ntp3266
Rp3267
((lp3268
g21
(g22
(dp3269
g24
g25
(g26
(I0
tp3270
g28
tp3271
Rp3272
(I1
(L18L
tp3273
g35
I00
(lp3274
V Jim
p3275
aV Morgan
p3276
aV Brianna
p3277
aV Brooke
p3278
aV Blake
p3279
aV Margaret
p3280
aV Brian
p3281
aV Amy
p3282
aV Brandon
p3283
aV Bobby Jon
p3284
aV Jamie
p3285
aV Gary
p3286
aV Judd
p3287
aV Cindy
p3288
aV Lydia
p3289
aV Rafe
p3290
aV Stephenie
p3291
aV Danni
p3292
atp3293
bsg60
Nstp3294
Rp3295
ag21
(g22
(dp3296
g24
g25
(g26
(I0
tp3297
g28
tp3298
Rp3299
(I1
(L18L
tp3300
g35
I00
(lp3301
VDanni
p3302
aVStephenie
p3303
aVRafe
p3304
aVLydia
p3305
aVCindy
p3306
aVJudd
p3307
aVGary
p3308
aVJamie
p3309
aVBobby Jon
p3310
aVBrandon
p3311
aVAmy
p3312
aVBrian
p3313
aVMargaret
p3314
aVBlake
p3315
aVBrooke
p3316
aVBrianna
p3317
aVMorgan
p3318
aVJim
p3319
atp3320
bsg60
g90
(g93
S'\x01\x00\x00\x00\x00\x00\x00\x00'
p3321
tp3322
Rp3323
stp3324
Rp3325
a(lp3326
g25
(g26
(I0
tp3327
g28
tp3328
Rp3329
(I1
(L18L
L18L
tp3330
g35
I00
(lp3331
V Jim
p3332
aV \u2014
p3333
aV \u2014
p3334
aV \u2014
p3335
aV Jim
p3336
aV Jim
p3337
aV \u2014
p3338
aV \u2014
p3339
aV Jim
p3340
aV Jim
p3341
aV \u2014
p3342
aV \u2014
p3343
aV Jim
p3344
aV Jim
p3345
aV Jim
p3346
aV \u2014
p3347
aV \u2014
p3348
aV Margaret
p3349
aV \u2014
p3350
aV Morgan
p3351
aV Morgan
p3352
aV Morgan
p3353
aV \u2014
p3354
aV \u2014
p3355
aV Morgan
p3356
aV Morgan
p3357
aV \u2014
p3358
aV \u2014
p3359
aV Morgan
p3360
aV Morgan
p3361
aV \u2014
p3362
aV \u2014
p3363
aV \u2014
p3364
aV Morgan
p3365
aV Lydia
p3366
ag126
aV \u2014
p3367
aV Brianna
p3368
aV Brianna
p3369
aV Brianna
p3370
aV \u2014
p3371
aV \u2014
p3372
aV Brianna
p3373
aV Brianna
p3374
aV \u2014
p3375
aV \u2014
p3376
aV Brianna
p3377
aV Brianna
p3378
aV \u2014
p3379
aV \u2014
p3380
aV \u2014
p3381
aV Lydia
p3382
ag126
ag126
aV \u2014
p3383
aV Brooke
p3384
aV Brooke
p3385
aV Brooke
p3386
aV Lydia
p3387
aV Brooke
p3388
aV \u2014
p3389
aV Brooke
p3390
aV \u2014
p3391
aV \u2014
p3392
aV \u2014
p3393
aV \u2014
p3394
aV Lydia
p3395
aV \u2014
p3396
aV Lydia
p3397
ag126
ag126
ag126
aV Blake
p3398
aV \u2014
p3399
aV \u2014
p3400
aV \u2014
p3401
aV \u2014
p3402
aV \u2014
p3403
aV Blake
p3404
aV \u2014
p3405
aV Blake
p3406
aV Brian
p3407
aV Blake
p3408
aV Blake
p3409
aV \u2014
p3410
aV Brian
p3411
ag126
ag126
ag126
ag126
aV \u2014
p3412
aV Margaret
p3413
aV Margaret
p3414
aV Margaret
p3415
aV Margaret
p3416
aV Margaret
p3417
aV \u2014
p3418
aV Margaret
p3419
aV \u2014
p3420
aV \u2014
p3421
aV \u2014
p3422
aV \u2014
p3423
aV Judd
p3424
ag126
ag126
ag126
ag126
ag126
aV Brian
p3425
aV \u2014
p3426
aV \u2014
p3427
aV \u2014
p3428
aV \u2014
p3429
aV \u2014
p3430
aV Brian
p3431
aV \u2014
p3432
aV Brian
p3433
aV Brian
p3434
aV Brian
p3435
aV Bobby Jon
p3436
ag126
ag126
ag126
ag126
ag126
ag126
aV Amy
p3437
aV \u2014
p3438
aV \u2014
p3439
aV \u2014
p3440
aV \u2014
p3441
aV \u2014
p3442
aV Amy
p3443
aV \u2014
p3444
aV Amy
p3445
aV Amy
p3446
aV Bobby Jon
p3447
ag126
ag126
ag126
ag126
ag126
ag126
ag126
aV Jamie
p3448
aV Brandon
p3449
aV Brandon
p3450
aV Brandon
p3451
aV Brandon
p3452
aV Brandon
p3453
aV Jamie
p3454
aV Brandon
p3455
aV Jamie
p3456
aV Jamie
p3457
ag126
ag126
ag126
ag126
ag126
ag126
ag126
ag126
aV Stephenie
p3458
aV Bobby Jon
p3459
aV Bobby Jon
p3460
aV Bobby Jon
p3461
aV Bobby Jon
p3462
aV Bobby Jon
p3463
aV Cindy
p3464
aV Bobby Jon
p3465
aV Stephenie
p3466
ag126
ag126
ag126
ag126
ag126
ag126
ag126
ag126
ag126
aV Jamie
p3467
aV Jamie
p3468
aV Jamie
p3469
aV Jamie
p3470
aV Jamie
p3471
aV Gary
p3472
aV Jamie
p3473
aV Gary
p3474
ag126
ag126
ag126
ag126
ag126
ag126
ag126
ag126
ag126
ag126
aV Gary
p3475
aV Gary
p3476
aV Gary
p3477
aV Gary
p3478
aV Gary
p3479
aV Gary
p3480
aV Cindy
p3481
ag126
ag126
ag126
ag126
ag126
ag126
ag126
ag126
ag126
ag126
ag126
aV Judd
p3482
aV Judd
p3483
aV Judd
p3484
aV Judd
p3485
aV Lydia
p3486
aV Lydia
p3487
ag126
ag126
ag126
ag126
ag126
ag126
ag126
ag126
ag126
ag126
ag126
ag126
aV Cindy
p3488
aV Cindy
p3489
aV Cindy
p3490
aV Cindy
p3491
aV Rafe
p3492
ag126
ag126
ag126
ag126
ag126
ag126
ag126
ag126
ag126
ag126
ag126
ag126
ag126
aV Lydia
p3493
aV Lydia
p3494
aV Lydia
p3495
aV Danni
p3496
ag126
ag126
ag126
ag126
ag126
ag126
ag126
ag126
ag126
ag126
ag126
ag126
ag126
ag126
aV Rafe
p3497
aV \u2014
p3498
aV  \u2014
p3499
ag126
ag126
ag126
ag126
ag126
ag126
ag126
ag126
ag126
ag126
ag126
ag126
ag126
ag126
ag126
aNaNaV Stephenie
p3500
ag126
ag126
ag126
ag126
ag126
ag126
ag126
ag126
ag126
ag126
ag126
ag126
ag126
ag126
ag126
aNaNag126
aV Danni
p3501
aV Danni
p3502
aV Danni
p3503
aV Danni
p3504
aV Danni
p3505
aV Danni
p3506
ag126
ag126
ag126
ag126
ag126
ag126
ag126
ag126
ag126
atp3507
ba(lp3508
g21
(g22
(dp3509
g24
g25
(g26
(I0
tp3510
g28
tp3511
Rp3512
(I1
(L18L
tp3513
g35
I00
(lp3514
g3275
ag3276
ag3277
ag3278
ag3279
ag3280
ag3281
ag3282
ag3283
ag3284
ag3285
ag3286
ag3287
ag3288
ag3289
ag3290
ag3291
ag3292
atp3515
bsg60
Nstp3516
Rp3517
a(dp3518
g335
(dp3519
g337
g3268
sg338
(lp3520
(dp3521
g341
g342
(I0
I18
I1
tp3522
Rp3523
sg345
g3329
sasstp3524
bsbssVChina
p3525
(dp3526
g3
Vhttp://survivor.wikia.com/wiki/Survivor:_China
p3527
sg5
g6
(g7
g8
Ntp3528
Rp3529
(dp3530
g12
g13
sg14
g15
sg16
g6
(g17
g8
Ntp3531
Rp3532
((lp3533
g21
(g22
(dp3534
g24
g25
(g26
(I0
tp3535
g28
tp3536
Rp3537
(I1
(L16L
tp3538
g35
I00
(lp3539
V Chicken
p3540
aV Ashley
p3541
aV Leslie
p3542
aV Dave
p3543
aV Aaron
p3544
aV Sherea
p3545
aV Jaime
p3546
aV Jean-Robert
p3547
aV Frosti
p3548
aV James
p3549
aV Erik
p3550
aV Peih-Gee
p3551
aV Denise
p3552
aV Amanda
p3553
aV Courtney
p3554
aV Todd
p3555
atp3556
bsg60
Nstp3557
Rp3558
ag21
(g22
(dp3559
g24
g25
(g26
(I0
tp3560
g28
tp3561
Rp3562
(I1
(L16L
tp3563
g35
I00
(lp3564
VTodd
p3565
aVCourtney
p3566
aVAmanda
p3567
aVDenise
p3568
aVPeih-Gee
p3569
aVErik
p3570
aVJames
p3571
aVFrosti
p3572
aVJean-Robert
p3573
aVJaime
p3574
aVSherea
p3575
aVAaron
p3576
aVDave
p3577
aVLeslie
p3578
aVAshley
p3579
aVChicken
p3580
atp3581
bsg60
g90
(g93
S'\x01\x00\x00\x00\x00\x00\x00\x00'
p3582
tp3583
Rp3584
stp3585
Rp3586
a(lp3587
g25
(g26
(I0
tp3588
g28
tp3589
Rp3590
(I1
(L16L
L16L
tp3591
g35
I00
(lp3592
V \u2014
p3593
aV \u2014
p3594
aV \u2014
p3595
aV \u2014
p3596
aV Chicken
p3597
aV Chicken
p3598
aV \u2014
p3599
aV Chicken
p3600
aV \u2014
p3601
aV Chicken
p3602
aV Chicken
p3603
aV \u2014
p3604
aV Ashley
p3605
aV \u2014
p3606
aV Peih-Gee
p3607
aV Ashley
p3608
aV \u2014
p3609
aV \u2014
p3610
aV \u2014
p3611
aV \u2014
p3612
aV Ashley
p3613
aV Ashley
p3614
aV \u2014
p3615
aV Ashley
p3616
aV \u2014
p3617
aV Ashley
p3618
aV Ashley
p3619
aV \u2014
p3620
aV Ashley
p3621
aV \u2014
p3622
aV Dave
p3623
ag126
aV Leslie
p3624
aV Jean-Robert
p3625
aV Leslie
p3626
aV Leslie
p3627
aV \u2014
p3628
aV \u2014
p3629
aV Leslie
p3630
aV \u2014
p3631
aV Leslie
p3632
aV \u2014
p3633
aV \u2014
p3634
aV Leslie
p3635
aV \u2014
p3636
aV Jean-Robert
p3637
ag126
ag126
aV \u2014
p3638
aV \u2014
p3639
aV \u2014
p3640
aV \u2014
p3641
aV Dave
p3642
aV Dave
p3643
aV \u2014
p3644
aV Dave
p3645
aV \u2014
p3646
aV Dave
p3647
aV Dave
p3648
aV \u2014
p3649
aV Sherea
p3650
ag126
ag126
ag126
aV \u2014
p3651
aV \u2014
p3652
aV \u2014
p3653
aV \u2014
p3654
aV Aaron
p3655
aV Aaron
p3656
aV Peih-Gee
p3657
aV \u2014
p3658
aV \u2014
p3659
aV Aaron
p3660
aV \u2014
p3661
aV James
p3662
ag126
ag126
ag126
ag126
aV Sherea
p3663
aV Jean-Robert
p3664
aV Sherea
p3665
aV Sherea
p3666
aV \u2014
p3667
aV \u2014
p3668
aV \u2014
p3669
aV Sherea
p3670
aV Sherea
p3671
aV \u2014
p3672
aV Jean-Robert
p3673
ag126
ag126
ag126
ag126
ag126
aV Jaime
p3674
aV Jaime
p3675
aV Jaime
p3676
aV Jaime
p3677
aV Jean-Robert
p3678
aV Jean-Robert
p3679
aV Jaime
p3680
aV Jaime
p3681
aV Jaime
p3682
aV Jean-Robert
p3683
ag126
ag126
ag126
ag126
ag126
ag126
aV Jean-Robert
p3684
aV Jean-Robert
p3685
aV Jean-Robert
p3686
aV Peih-Gee
p3687
aV James
p3688
aV James
p3689
aV Jean-Robert
p3690
aV Jean-Robert
p3691
aV James
p3692
ag126
ag126
ag126
ag126
ag126
ag126
ag126
aV Frosti
p3693
aV Frosti
p3694
aV Frosti
p3695
aV Frosti
p3696
aV Frosti
p3697
aV Frosti
p3698
aV Frosti
p3699
aV Erik
p3700
ag126
ag126
ag126
ag126
ag126
ag126
ag126
ag126
aV James
p3701
aV James
p3702
aV James
p3703
aV James
p3704
aV Todd
p3705
aV James
p3706
aV Peih-Gee
p3707
ag126
ag126
ag126
ag126
ag126
ag126
ag126
ag126
ag126
aV Erik
p3708
aV Erik
p3709
aV Erik
p3710
aV Erik
p3711
aV Todd
p3712
aV Todd
p3713
ag126
ag126
ag126
ag126
ag126
ag126
ag126
ag126
ag126
ag126
aV Peih-Gee
p3714
aV Peih-Gee
p3715
aV Peih-Gee
p3716
aV Peih-Gee
p3717
aV Todd
p3718
ag126
ag126
ag126
ag126
ag126
ag126
ag126
ag126
ag126
ag126
ag126
aV Denise
p3719
aV Denise
p3720
aV Denise
p3721
aV Todd
p3722
ag126
ag126
ag126
ag126
ag126
ag126
ag126
ag126
ag126
ag126
ag126
ag126
aNaNaNag126
ag126
aV Amanda
p3723
ag126
ag126
ag126
ag126
ag126
ag126
ag126
ag126
ag126
ag126
aNaNaNaV Courtney
p3724
ag126
ag126
aV Courtney
p3725
ag126
ag126
ag126
ag126
ag126
ag126
ag126
ag126
ag126
aNaNaNag126
aV Todd
p3726
ag126
ag126
aV Todd
p3727
aV Todd
p3728
aV Todd
p3729
ag126
ag126
ag126
ag126
ag126
ag126
atp3730
ba(lp3731
g21
(g22
(dp3732
g24
g25
(g26
(I0
tp3733
g28
tp3734
Rp3735
(I1
(L16L
tp3736
g35
I00
(lp3737
g3540
ag3541
ag3542
ag3543
ag3544
ag3545
ag3546
ag3547
ag3548
ag3549
ag3550
ag3551
ag3552
ag3553
ag3554
ag3555
atp3738
bsg60
Nstp3739
Rp3740
a(dp3741
g335
(dp3742
g337
g3533
sg338
(lp3743
(dp3744
g341
g342
(I0
I16
I1
tp3745
Rp3746
sg345
g3590
sasstp3747
bsbssVWorlds_Apart
p3748
(dp3749
g3
Vhttp://survivor.wikia.com/wiki/Survivor:_Worlds_Apart
p3750
sg5
g6
(g7
g8
Ntp3751
Rp3752
(dp3753
g12
g13
sg14
g15
sg16
g6
(g17
g8
Ntp3754
Rp3755
((lp3756
g21
(g22
(dp3757
g24
g25
(g26
(I0
tp3758
g28
tp3759
Rp3760
(I1
(L20L
tp3761
g35
I00
(lp3762
V So
p3763
aV Vince
p3764
aV Nina
p3765
aV Lindsey
p3766
ag3766
aV Max
p3767
aV Joaquin
p3768
aV Kelly
p3769
aV Hali
p3770
aV Joe
p3771
aV Jenn
p3772
aV Shirin
p3773
aV Tyler
p3774
aV Dan
p3775
ag3775
aV Sierra
p3776
aV Rodney
p3777
aV Will
p3778
aV Carolyn
p3779
aV Mike
p3780
atp3781
bsg60
Nstp3782
Rp3783
ag21
(g22
(dp3784
g24
g25
(g26
(I0
tp3785
g28
tp3786
Rp3787
(I1
(L18L
tp3788
g35
I00
(lp3789
VMike
p3790
aVCarolyn
p3791
aVWill
p3792
aVRodney
p3793
aVSierra
p3794
aVDan
p3795
aVTyler
p3796
aVShirin
p3797
aVJenn
p3798
aVJoe
p3799
aVHali
p3800
aVKelly
p3801
aVJoaquin
p3802
aVMax
p3803
aVLindsey
p3804
aVNina
p3805
aVVince
p3806
aVSo
p3807
atp3808
bsg60
g90
(g93
S'\x01\x00\x00\x00\x00\x00\x00\x00'
p3809
tp3810
Rp3811
stp3812
Rp3813
a(lp3814
g25
(g26
(I0
tp3815
g28
tp3816
Rp3817
(I1
(L20L
L18L
tp3818
g35
I00
(lp3819
V \u2014
p3820
aV So
p3821
aV \u2014
p3822
aV \u2014
p3823
aV \u2014
p3824
aV \u2014
p3825
aV So
p3826
aV So
p3827
aV \u2014
p3828
aV \u2014
p3829
aV \u2014
p3830
aV \u2014
p3831
aV Carolyn
p3832
aV So
p3833
aV \u2014
p3834
aV \u2014
p3835
aV \u2014
p3836
aV Carolyn
p3837
aV \u2014
p3838
aV \u2014
p3839
aV Vince
p3840
aV \u2014
p3841
aV \u2014
p3842
aV \u2014
p3843
aV \u2014
p3844
aV \u2014
p3845
aV Vince
p3846
aV Nina
p3847
aV Vince
p3848
aV \u2014
p3849
aV \u2014
p3850
aV \u2014
p3851
aV \u2014
p3852
aV Jenn
p3853
aV Jenn
p3854
ag126
aV \u2014
p3855
aV \u2014
p3856
aV Nina
p3857
aV \u2014
p3858
aV \u2014
p3859
aV \u2014
p3860
aV \u2014
p3861
aV \u2014
p3862
aV Nina
p3863
aV Nina
p3864
aV Will
p3865
aV \u2014
p3866
aV \u2014
p3867
aV \u2014
p3868
aV \u2014
p3869
aV Will
p3870
ag126
ag126
aV Lindsey
p3871
aV\u2014
p3872
aV\u2014
p3873
aV Sierra
p3874
aV Rodney
p3875
aV Lindsey
p3876
aV\u2014
p3877
aV\u2014
p3878
aV\u2014
p3879
aV\u2014
p3880
aV\u2014
p3881
aV Sierra
p3882
aV\u2014
p3883
aV\u2014
p3884
aV Rodney
p3885
ag126
ag126
ag126
aV Lindsey
p3886
ag3872
ag3873
aV None
p3887
aV None
p3888
aV Lindsey
p3889
ag3877
ag3878
ag3879
ag3880
ag3881
aV Lindsey
p3890
ag3883
ag3884
aV None
p3891
ag126
ag126
ag126
aV \u2014
p3892
aV Max
p3893
aV Max
p3894
aV \u2014
p3895
aV \u2014
p3896
aV \u2014
p3897
aV \u2014
p3898
aV Will
p3899
aV Max
p3900
aV \u2014
p3901
aV Max
p3902
aV Max
p3903
aV \u2014
p3904
aV Will
p3905
ag126
ag126
ag126
ag126
aV Joaquin
p3906
aV \u2014
p3907
aV \u2014
p3908
aV Joe
p3909
aV Joaquin
p3910
aV Joaquin
p3911
aV Joe
p3912
aV \u2014
p3913
aV \u2014
p3914
aV Joaquin
p3915
aV \u2014
p3916
aV \u2014
p3917
aV Joe
p3918
ag126
ag126
ag126
ag126
ag126
aV Jenn
p3919
aV Jenn
p3920
aV Hali
p3921
aV Jenn
p3922
aV Jenn
p3923
aV Jenn
p3924
aV Jenn
p3925
aV Kelly
p3926
aV Kelly
p3927
aV Kelly
p3928
aV Kelly
p3929
aV Jenn
p3930
ag126
ag126
ag126
ag126
ag126
ag126
aV Hali
p3931
aV Hali
p3932
aV Hali
p3933
aV Hali
p3934
aV Hali
p3935
aV Hali
p3936
aV Hali
p3937
aV Dan
p3938
aV Dan
p3939
aV Dan
p3940
aV Dan
p3941
ag126
ag126
ag126
ag126
ag126
ag126
ag126
aV Joe
p3942
aV Jenn
p3943
aV Jenn
p3944
aV Joe
p3945
aV Joe
p3946
aV Joe
p3947
aV Jenn
p3948
aV Joe
p3949
aV Dan
p3950
aV Jenn
p3951
ag126
ag126
ag126
ag126
ag126
ag126
ag126
ag126
aV Jenn
p3952
aV Jenn
p3953
aV Jenn
p3954
aV Shirin
p3955
aV Shirin
p3956
aV Shirin
p3957
aV Jenn
p3958
aV Jenn
p3959
aV Carolyn
p3960
ag126
ag126
ag126
ag126
ag126
ag126
ag126
ag126
ag126
aV Tyler
p3961
aV Shirin
p3962
aV Dan
p3963
aV Shirin
p3964
aV Shirin
p3965
aV Shirin
p3966
aV Dan
p3967
aV Tyler
p3968
ag126
ag126
ag126
ag126
ag126
ag126
ag126
ag126
ag126
ag126
aV Tyler
p3969
aV Tyler
p3970
aV Mike
p3971
aV Mike
p3972
aV Tyler
p3973
aV Mike
p3974
aV Mike
p3975
ag126
ag126
ag126
ag126
ag126
ag126
ag126
ag126
ag126
ag126
ag126
aV Dan
p3976
aV Dan
p3977
aV Carolyn
p3978
aV Carolyn
p3979
aV Carolyn
p3980
aV Carolyn
p3981
ag126
ag126
ag126
ag126
ag126
ag126
ag126
ag126
ag126
ag126
ag126
ag126
ag3976
ag3977
ag3978
ag3979
ag3980
aV Carolyn
p3982
ag126
ag126
ag126
ag126
ag126
ag126
ag126
ag126
ag126
ag126
ag126
ag126
aV Sierra
p3983
aV Sierra
p3984
aV Sierra
p3985
aV Sierra
p3986
aV Rodney
p3987
ag126
ag126
ag126
ag126
ag126
ag126
ag126
ag126
ag126
ag126
ag126
ag126
ag126
aV Rodney
p3988
aV Rodney
p3989
aV Carolyn
p3990
aV Carolyn
p3991
ag126
ag126
ag126
ag126
ag126
ag126
ag126
ag126
ag126
ag126
ag126
ag126
ag126
ag126
aVJury Vote
p3992
aNaNaV Will
p3993
ag126
ag126
ag126
ag126
ag126
ag126
ag126
ag126
ag126
ag126
ag126
ag126
ag126
ag126
ag3992
aNaNag126
aV Carolyn
p3994
ag126
ag126
ag126
ag126
ag126
ag126
ag126
ag126
ag126
ag126
ag126
ag126
ag126
ag3992
aNaNag126
ag126
aV Mike
p3995
aV Mike
p3996
aV Mike
p3997
aV Mike
p3998
aV Mike
p3999
aV Mike
p4000
ag126
ag126
ag126
ag126
ag126
ag126
ag126
atp4001
ba(lp4002
g21
(g22
(dp4003
g24
g25
(g26
(I0
tp4004
g28
tp4005
Rp4006
(I1
(L20L
tp4007
g35
I00
(lp4008
g3763
ag3764
ag3765
ag3766
ag3766
ag3767
ag3768
ag3769
ag3770
ag3771
ag3772
ag3773
ag3774
ag3775
ag3775
ag3776
ag3777
ag3778
ag3779
ag3780
atp4009
bsg60
Nstp4010
Rp4011
a(dp4012
g335
(dp4013
g337
g3756
sg338
(lp4014
(dp4015
g341
g342
(I0
I20
I1
tp4016
Rp4017
sg345
g3817
sasstp4018
bsbssVThailand
p4019
(dp4020
g3
Vhttp://survivor.wikia.com/wiki/Survivor:_Thailand
p4021
sg5
g6
(g7
g8
Ntp4022
Rp4023
(dp4024
g12
g13
sg14
g15
sg16
g6
(g17
g8
Ntp4025
Rp4026
((lp4027
g21
(g22
(dp4028
g24
g25
(g26
(I0
tp4029
g28
tp4030
Rp4031
(I1
(L16L
tp4032
g35
I00
(lp4033
V John
p4034
aV Tanya
p4035
aV Jed
p4036
aV Ghandia
p4037
aV Stephanie
p4038
aV Robb
p4039
aV Shii Ann
p4040
aV Erin
p4041
aV Ken
p4042
aV Penny
p4043
aV Jake
p4044
aV Ted
p4045
aV Helen
p4046
aV Jan
p4047
aV Clay
p4048
aV Brian
p4049
atp4050
bsg60
Nstp4051
Rp4052
ag21
(g22
(dp4053
g24
g25
(g26
(I0
tp4054
g28
tp4055
Rp4056
(I1
(L16L
tp4057
g35
I00
(lp4058
VBrian
p4059
aVClay
p4060
aVJan
p4061
aVHelen
p4062
aVTed
p4063
aVJake
p4064
aVPenny
p4065
aVKen
p4066
aVErin
p4067
aVShii Ann
p4068
aVRobb
p4069
aVStephanie
p4070
aVGhandia
p4071
aVJed
p4072
aVTanya
p4073
aVJohn
p4074
atp4075
bsg60
g90
(g93
S'\x01\x00\x00\x00\x00\x00\x00\x00'
p4076
tp4077
Rp4078
stp4079
Rp4080
a(lp4081
g25
(g26
(I0
tp4082
g28
tp4083
Rp4084
(I1
(L16L
L16L
tp4085
g35
I00
(lp4086
V John
p4087
aV John
p4088
aV John
p4089
aV Clay
p4090
aV John
p4091
aV \u2014
p4092
aV \u2014
p4093
aV \u2014
p4094
aV \u2014
p4095
aV \u2014
p4096
aV \u2014
p4097
aV \u2014
p4098
aV John
p4099
aV \u2014
p4100
aV John
p4101
aV Ghandia
p4102
aV Tanya
p4103
aV Tanya
p4104
aV Tanya
p4105
aV Tanya
p4106
aV Tanya
p4107
aV \u2014
p4108
aV \u2014
p4109
aV \u2014
p4110
aV \u2014
p4111
aV \u2014
p4112
aV \u2014
p4113
aV \u2014
p4114
aV Helen
p4115
aV \u2014
p4116
aV Helen
p4117
ag126
aV \u2014
p4118
aV \u2014
p4119
aV \u2014
p4120
aV \u2014
p4121
aV \u2014
p4122
aV Jed
p4123
aV Jed
p4124
aV Jed
p4125
aV Jed
p4126
aV Jed
p4127
aV Shii Ann
p4128
aV Shii Ann
p4129
aV \u2014
p4130
aV Shii Ann
p4131
ag126
ag126
aV Ghandia
p4132
aV Ghandia
p4133
aV Clay
p4134
aV Ghandia
p4135
aV Ghandia
p4136
aV \u2014
p4137
aV \u2014
p4138
aV \u2014
p4139
aV \u2014
p4140
aV \u2014
p4141
aV \u2014
p4142
aV \u2014
p4143
aV Clay
p4144
ag126
ag126
ag126
aV \u2014
p4145
aV \u2014
p4146
aV \u2014
p4147
aV \u2014
p4148
aV \u2014
p4149
aV Stephanie
p4150
aV Stephanie
p4151
aV Stephanie
p4152
aV Stephanie
p4153
aV Stephanie
p4154
aV Shii Ann
p4155
aV Shii Ann
p4156
ag126
ag126
ag126
ag126
aV \u2014
p4157
aV \u2014
p4158
aV \u2014
p4159
aV \u2014
p4160
aV \u2014
p4161
aV Robb
p4162
aV Robb
p4163
aV Robb
p4164
aV Robb
p4165
aV Robb
p4166
aV Shii Ann
p4167
ag126
ag126
ag126
ag126
ag126
aV \u2014
p4168
aV \u2014
p4169
aV \u2014
p4170
aV \u2014
p4171
aV \u2014
p4172
aV Shii Ann
p4173
aV Shii Ann
p4174
aV Shii Ann
p4175
aV Shii Ann
p4176
aV Penny
p4177
ag126
ag126
ag126
ag126
ag126
ag126
aV \u2014
p4178
aV \u2014
p4179
aV \u2014
p4180
aV \u2014
p4181
aV \u2014
p4182
aV Erin
p4183
aV Erin
p4184
aV Erin
p4185
aV Ken
p4186
ag126
ag126
ag126
ag126
ag126
ag126
ag126
aV Ken
p4187
aV Ken
p4188
aV Ken
p4189
aV Ken
p4190
aV Ken
p4191
aV Ted
p4192
aV Ted
p4193
aV Ted
p4194
ag126
ag126
ag126
ag126
ag126
ag126
ag126
ag126
aV Penny
p4195
aV Jake
p4196
aV Penny
p4197
aV Penny
p4198
aV Penny
p4199
aV Jan
p4200
aV Jake
p4201
ag126
ag126
ag126
ag126
ag126
ag126
ag126
ag126
ag126
aV Jake
p4202
aV Jake
p4203
aV Jake
p4204
aV Jake
p4205
aV Jake
p4206
aV Jan
p4207
ag126
ag126
ag126
ag126
ag126
ag126
ag126
ag126
ag126
ag126
aV Ted
p4208
aV Ted
p4209
aV Ted
p4210
aV Ted
p4211
aV Jan
p4212
ag126
ag126
ag126
ag126
ag126
ag126
ag126
ag126
ag126
ag126
ag126
aV Helen
p4213
aV Helen
p4214
aV Helen
p4215
aV Jan
p4216
ag126
ag126
ag126
ag126
ag126
ag126
ag126
ag126
ag126
ag126
ag126
ag126
aV Jan
p4217
aV \u2014
p4218
aV \u2014
p4219
ag126
ag126
ag126
ag126
ag126
ag126
ag126
ag126
ag126
ag126
ag126
ag126
ag126
aNaNag126
ag126
ag126
ag126
aV Clay
p4220
aV Clay
p4221
aV Clay
p4222
ag126
ag126
ag126
ag126
ag126
ag126
ag126
aNaNaV Brian
p4223
aV Brian
p4224
aV Brian
p4225
aV Brian
p4226
ag126
ag126
ag126
ag126
ag126
ag126
ag126
ag126
ag126
ag126
atp4227
ba(lp4228
g21
(g22
(dp4229
g24
g25
(g26
(I0
tp4230
g28
tp4231
Rp4232
(I1
(L16L
tp4233
g35
I00
(lp4234
g4034
ag4035
ag4036
ag4037
ag4038
ag4039
ag4040
ag4041
ag4042
ag4043
ag4044
ag4045
ag4046
ag4047
ag4048
ag4049
atp4235
bsg60
Nstp4236
Rp4237
a(dp4238
g335
(dp4239
g337
g4027
sg338
(lp4240
(dp4241
g341
g342
(I0
I16
I1
tp4242
Rp4243
sg345
g4084
sasstp4244
bsbssVThe_Amazon
p4245
(dp4246
g3
Vhttp://survivor.wikia.com/wiki/Survivor:_The_Amazon
p4247
sg5
g6
(g7
g8
Ntp4248
Rp4249
(dp4250
g12
g13
sg14
g15
sg16
g6
(g17
g8
Ntp4251
Rp4252
((lp4253
g21
(g22
(dp4254
g24
g25
(g26
(I0
tp4255
g28
tp4256
Rp4257
(I1
(L16L
tp4258
g35
I00
(lp4259
V Ryan
p4260
aV Janet
p4261
aV Daniel
p4262
aV Joanna
p4263
aV Jeanne
p4264
aV Shawna
p4265
aV Roger
p4266
aV Dave
p4267
aV Deena
p4268
aV Alex
p4269
aV Christy
p4270
aV Heidi
p4271
aV Butch
p4272
aV Rob
p4273
aV Matthew
p4274
aV Jenna
p4275
atp4276
bsg60
Nstp4277
Rp4278
ag21
(g22
(dp4279
g24
g25
(g26
(I0
tp4280
g28
tp4281
Rp4282
(I1
(L16L
tp4283
g35
I00
(lp4284
VJenna
p4285
aVMatthew
p4286
aVRob
p4287
aVButch
p4288
aVHeidi
p4289
aVChristy
p4290
aVAlex
p4291
aVDeena
p4292
aVDave
p4293
aVRoger
p4294
aVShawna
p4295
aVJeanne
p4296
aVJoanna
p4297
aVDaniel
p4298
aVJanet
p4299
aVRyan
p4300
atp4301
bsg60
g90
(g93
S'\x01\x00\x00\x00\x00\x00\x00\x00'
p4302
tp4303
Rp4304
stp4305
Rp4306
a(lp4307
g25
(g26
(I0
tp4308
g28
tp4309
Rp4310
(I1
(L16L
L16L
tp4311
g35
I00
(lp4312
V \u2014
p4313
aV Roger
p4314
aV Ryan
p4315
aV Ryan
p4316
aV \u2014
p4317
aV \u2014
p4318
aV Ryan
p4319
aV \u2014
p4320
aV Daniel
p4321
aV Ryan
p4322
aV \u2014
p4323
aV \u2014
p4324
aV \u2014
p4325
aV Roger
p4326
aV \u2014
p4327
aV Roger
p4328
aV Janet
p4329
aV \u2014
p4330
aV \u2014
p4331
aV \u2014
p4332
aV Janet
p4333
aV Jenna
p4334
aV \u2014
p4335
aV Janet
p4336
aV \u2014
p4337
aV \u2014
p4338
aV Janet
p4339
aV Janet
p4340
aV Christy
p4341
aV \u2014
p4342
aV Jeanne
p4343
ag126
aV \u2014
p4344
aV Daniel
p4345
aV Daniel
p4346
aV Daniel
p4347
aV \u2014
p4348
aV \u2014
p4349
aV Daniel
p4350
aV \u2014
p4351
aV Daniel
p4352
aV Daniel
p4353
aV \u2014
p4354
aV \u2014
p4355
aV \u2014
p4356
aV Roger
p4357
ag126
ag126
aV Joanna
p4358
aV \u2014
p4359
aV \u2014
p4360
aV \u2014
p4361
aV Joanna
p4362
aV Joanna
p4363
aV \u2014
p4364
aV Joanna
p4365
aV \u2014
p4366
aV \u2014
p4367
aV Christy
p4368
aV Shawna
p4369
aV Shawna
p4370
ag126
ag126
ag126
aV \u2014
p4371
aV \u2014
p4372
aV \u2014
p4373
aV Jeanne
p4374
aV Jeanne
p4375
aV Butch
p4376
aV \u2014
p4377
aV \u2014
p4378
aV Jeanne
p4379
aV Jeanne
p4380
aV \u2014
p4381
aV Butch
p4382
ag126
ag126
ag126
ag126
aV Shawna
p4383
aV Shawna
p4384
aV Shawna
p4385
aV \u2014
p4386
aV \u2014
p4387
aV \u2014
p4388
aV Matthew
p4389
aV Shawna
p4390
aV \u2014
p4391
aV \u2014
p4392
aV Matthew
p4393
ag126
ag126
ag126
ag126
ag126
aV Roger
p4394
aV Roger
p4395
aV Roger
p4396
aV Christy
p4397
aV Roger
p4398
aV Roger
p4399
aV Roger
p4400
aV Roger
p4401
aV Christy
p4402
aV Christy
p4403
ag126
ag126
ag126
ag126
ag126
ag126
aV Dave
p4404
aV Dave
p4405
aV Dave
p4406
aV Dave
p4407
aV Dave
p4408
aV Dave
p4409
aV Dave
p4410
aV Dave
p4411
aV Matthew
p4412
ag126
ag126
ag126
ag126
ag126
ag126
ag126
aV Deena
p4413
aV Deena
p4414
aV Deena
p4415
aV Deena
p4416
aV Deena
p4417
aV Alex
p4418
aV Deena
p4419
aV Alex
p4420
ag126
ag126
ag126
ag126
ag126
ag126
ag126
ag126
aV Matthew
p4421
aV Alex
p4422
aV Alex
p4423
aV Alex
p4424
aV Matthew
p4425
aV Alex
p4426
aV Matthew
p4427
ag126
ag126
ag126
ag126
ag126
ag126
ag126
ag126
ag126
aV Christy
p4428
aV Christy
p4429
aV Christy
p4430
aV Jenna
p4431
aV Christy
p4432
aV Jenna
p4433
ag126
ag126
ag126
ag126
ag126
ag126
ag126
ag126
ag126
ag126
aV Rob
p4434
aV Heidi
p4435
aV Heidi
p4436
aV Heidi
p4437
aV Rob
p4438
ag126
ag126
ag126
ag126
ag126
ag126
ag126
ag126
ag126
ag126
ag126
aV Butch
p4439
aV Butch
p4440
aV Butch
p4441
aV Rob
p4442
ag126
ag126
ag126
ag126
ag126
ag126
ag126
ag126
ag126
ag126
ag126
ag126
aV Rob
p4443
aV \u2014
p4444
aV \u2014
p4445
ag126
ag126
ag126
ag126
ag126
ag126
ag126
ag126
ag126
ag126
ag126
ag126
ag126
aNaNag126
aV Matthew
p4446
ag126
ag126
ag126
ag126
ag126
ag126
ag126
ag126
ag126
ag126
ag126
ag126
aNaNaV Jenna
p4447
ag126
aV Jenna
p4448
aV Jenna
p4449
aV Jenna
p4450
aV Jenna
p4451
aV Jenna
p4452
ag126
ag126
ag126
ag126
ag126
ag126
ag126
atp4453
ba(lp4454
g21
(g22
(dp4455
g24
g25
(g26
(I0
tp4456
g28
tp4457
Rp4458
(I1
(L16L
tp4459
g35
I00
(lp4460
g4260
ag4261
ag4262
ag4263
ag4264
ag4265
ag4266
ag4267
ag4268
ag4269
ag4270
ag4271
ag4272
ag4273
ag4274
ag4275
atp4461
bsg60
Nstp4462
Rp4463
a(dp4464
g335
(dp4465
g337
g4253
sg338
(lp4466
(dp4467
g341
g342
(I0
I16
I1
tp4468
Rp4469
sg345
g4310
sasstp4470
bsbssVCagayan
p4471
(dp4472
g3
Vhttp://survivor.wikia.com/wiki/Survivor:_Cagayan
p4473
sg5
g6
(g7
g8
Ntp4474
Rp4475
(dp4476
g12
g13
sg14
g15
sg16
g6
(g17
g8
Ntp4477
Rp4478
((lp4479
g21
(g22
(dp4480
g24
g25
(g26
(I0
tp4481
g28
tp4482
Rp4483
(I1
(L19L
tp4484
g35
I00
(lp4485
V David
p4486
aV Garrett
p4487
aV Brice
p4488
ag4488
aV J'Tia
p4489
aV Cliff
p4490
aV Lindsey
p4491
aV Alexis
p4492
aV Sarah
p4493
aV Morgan
p4494
aV LJ
p4495
aV Jeremiah
p4496
aV Jefra
p4497
aV Tasha
p4498
aV Trish
p4499
aV Spencer
p4500
aV Kass
p4501
aV Woo
p4502
aV Tony
p4503
atp4504
bsg60
Nstp4505
Rp4506
ag21
(g22
(dp4507
g24
g25
(g26
(I0
tp4508
g28
tp4509
Rp4510
(I1
(L18L
tp4511
g35
I00
(lp4512
VTony
p4513
aVWoo
p4514
aVKass
p4515
aVSpencer
p4516
aVTrish
p4517
aVTasha
p4518
aVJefra
p4519
aVJeremiah
p4520
aVLJ
p4521
aVMorgan
p4522
aVSarah
p4523
aVAlexis
p4524
aVLindsey
p4525
aVCliff
p4526
aVJ'Tia
p4527
aVBrice
p4528
aVGarrett
p4529
aVDavid
p4530
atp4531
bsg60
g90
(g93
S'\x01\x00\x00\x00\x00\x00\x00\x00'
p4532
tp4533
Rp4534
stp4535
Rp4536
a(lp4537
g25
(g26
(I0
tp4538
g28
tp4539
Rp4540
(I1
(L19L
L18L
tp4541
g35
I00
(lp4542
V \u2014
p4543
aV \u2014
p4544
aV J'Tia
p4545
aV David
p4546
aV \u2014
p4547
aV David
p4548
aV \u2014
p4549
aV \u2014
p4550
aV \u2014
p4551
aV \u2014
p4552
aV \u2014
p4553
aV \u2014
p4554
aV \u2014
p4555
aV \u2014
p4556
aV David
p4557
aV \u2014
p4558
aV David
p4559
aV J'Tia
p4560
aV \u2014
p4561
aV \u2014
p4562
aV Garrett
p4563
aV J'Tia
p4564
aV \u2014
p4565
aV Garrett
p4566
aV \u2014
p4567
aV \u2014
p4568
aV \u2014
p4569
aV \u2014
p4570
aV \u2014
p4571
aV \u2014
p4572
aV \u2014
p4573
aV \u2014
p4574
aV Garrett
p4575
aV \u2014
p4576
aV J'Tia
p4577
ag126
aV \u2014
p4578
aV \u2014
p4579
aV \u2014
p4580
aV \u2014
p4581
aV \u2014
p4582
aV \u2014
p4583
aV Brice
p4584
aV Morgan
p4585
aV Morgan
p4586
aV Alexis
p4587
aV \u2014
p4588
aV Brice
p4589
aV \u2014
p4590
aV \u2014
p4591
aV \u2014
p4592
aV Alexis
p4593
ag126
ag126
ag4578
ag4579
ag4580
ag4581
ag4582
ag4583
aV Brice
p4594
aV Brice
p4595
aV Brice
p4596
aV None
p4597
ag4588
aV None
p4598
ag4590
ag4591
ag4592
aV None
p4599
ag126
ag126
aV \u2014
p4600
aV \u2014
p4601
aV J'Tia
p4602
aV J'Tia
p4603
aV \u2014
p4604
aV J'Tia
p4605
aV \u2014
p4606
aV \u2014
p4607
aV \u2014
p4608
aV \u2014
p4609
aV \u2014
p4610
aV \u2014
p4611
aV \u2014
p4612
aV \u2014
p4613
aV Spencer
p4614
ag126
ag126
ag126
aV Cliff
p4615
aV LJ
p4616
aV \u2014
p4617
aV \u2014
p4618
aV Cliff
p4619
aV \u2014
p4620
aV Cliff
p4621
aV \u2014
p4622
aV Cliff
p4623
aV \u2014
p4624
aV \u2014
p4625
aV \u2014
p4626
aV LJ
p4627
aV LJ
p4628
ag126
ag126
ag126
ag126
aV\u2014
p4629
aV\u2014
p4630
aV \u2014
p4631
aV \u2014
p4632
aV\u2014
p4633
aV \u2014
p4634
aV\u2014
p4635
aV \u2014
p4636
aV\u2014
p4637
aV \u2014
p4638
aV \u2014
p4639
aV \u2014
p4640
aV Quit
p4641
ag126
ag126
ag126
ag126
ag126
ag4629
ag4630
aV Alexis
p4642
aV Alexis
p4643
ag4633
aV Alexis
p4644
ag4635
aV Alexis
p4645
ag4637
aV Alexis
p4646
aV Alexis
p4647
aV Jeremiah
p4648
ag126
ag126
ag126
ag126
ag126
ag126
aV Sarah
p4649
aV Sarah
p4650
aV Sarah
p4651
aV Jefra
p4652
aV Sarah
p4653
aV Jefra
p4654
aV Sarah
p4655
aV Jefra
p4656
aV Sarah
p4657
aV Jefra
p4658
aV Jefra
p4659
ag126
ag126
ag126
ag126
ag126
ag126
ag126
aV Morgan
p4660
aV Morgan
p4661
aV Morgan
p4662
aV Tony
p4663
aV Morgan
p4664
aV Tony
p4665
aV Morgan
p4666
aV Tony
p4667
aV Morgan
p4668
aV Tony
p4669
ag126
ag126
ag126
ag126
ag126
ag126
ag126
ag126
aV LJ
p4670
aV LJ
p4671
aV Jeremiah
p4672
aV LJ
p4673
aV Jeremiah
p4674
aV LJ
p4675
aV Jeremiah
p4676
aV LJ
p4677
aV Spencer
p4678
ag126
ag126
ag126
ag126
ag126
ag126
ag126
ag126
ag126
aV Jeremiah
p4679
aV Jeremiah
p4680
aV Jeremiah
p4681
aV Woo
p4682
aV Jeremiah
p4683
aV Woo
p4684
aV Jeremiah
p4685
aV Woo
p4686
ag126
ag126
ag126
ag126
ag126
ag126
ag126
ag126
ag126
ag126
aV Jefra
p4687
aV Jefra
p4688
aV Spencer
p4689
aV Jefra
p4690
aV Spencer
p4691
aV Jefra
p4692
aV Spencer
p4693
ag126
ag126
ag126
ag126
ag126
ag126
ag126
ag126
ag126
ag126
ag126
aV Tasha
p4694
aV Tasha
p4695
aV Tasha
p4696
aV Tony
p4697
aV Tasha
p4698
aV Trish
p4699
ag126
ag126
ag126
ag126
ag126
ag126
ag126
ag126
ag126
ag126
ag126
ag126
aV Trish
p4700
aV Trish
p4701
aV Trish
p4702
aV Trish
p4703
aV Kass
p4704
ag126
ag126
ag126
ag126
ag126
ag126
ag126
ag126
ag126
ag126
ag126
ag126
ag126
aV Spencer
p4705
aV Spencer
p4706
aV Spencer
p4707
aV Woo
p4708
ag126
ag126
ag126
ag126
ag126
ag126
ag126
ag126
ag126
ag126
ag126
ag126
ag126
ag126
aV \u2014
p4709
aV Kass
p4710
aV \u2014
p4711
ag126
ag126
ag126
ag126
ag126
ag126
ag126
ag126
ag126
ag126
ag126
ag126
ag126
ag126
ag126
aNaNag126
ag126
ag126
aV Woo
p4712
ag126
ag126
ag126
ag126
ag126
ag126
ag126
ag126
ag126
ag126
ag126
ag126
aNaNaV Tony
p4713
aV Tony
p4714
aV Tony
p4715
ag126
aV Tony
p4716
aV Tony
p4717
aV Tony
p4718
aV Tony
p4719
aV Tony
p4720
ag126
ag126
ag126
ag126
ag126
ag126
ag126
atp4721
ba(lp4722
g21
(g22
(dp4723
g24
g25
(g26
(I0
tp4724
g28
tp4725
Rp4726
(I1
(L19L
tp4727
g35
I00
(lp4728
g4486
ag4487
ag4488
ag4488
ag4489
ag4490
ag4491
ag4492
ag4493
ag4494
ag4495
ag4496
ag4497
ag4498
ag4499
ag4500
ag4501
ag4502
ag4503
atp4729
bsg60
Nstp4730
Rp4731
a(dp4732
g335
(dp4733
g337
g4479
sg338
(lp4734
(dp4735
g341
g342
(I0
I19
I1
tp4736
Rp4737
sg345
g4540
sasstp4738
bsbssVSouth_Pacific
p4739
(dp4740
g3
Vhttp://survivor.wikia.com/wiki/Survivor:_South_Pacific
p4741
sg5
g6
(g7
g8
Ntp4742
Rp4743
(dp4744
g12
g13
sg14
g15
sg16
g6
(g17
g8
Ntp4745
Rp4746
((lp4747
g21
(g22
(dp4748
g24
g25
(g26
(I0
tp4749
g28
tp4750
Rp4751
(I1
(L21L
tp4752
g35
I00
(lp4753
V Semhar
p4754
aV Christine
p4755
aV Mark
p4756
aV Stacey
p4757
aV Elyse
p4758
aV Mikayla
p4759
aV Ozzy
p4760
aV Keith
p4761
ag4761
aV Ozzy
p4762
aV Jim
p4763
aV Dawn
p4764
aV Whitney
p4765
aV Cochran
p4766
aV Edna
p4767
aV Brandon
p4768
aV Rick
p4769
aV Ozzy
p4770
aV Albert
p4771
aV Coach
p4772
aV Sophie
p4773
atp4774
bsg60
Nstp4775
Rp4776
ag21
(g22
(dp4777
g24
g25
(g26
(I0
tp4778
g28
tp4779
Rp4780
(I1
(L18L
tp4781
g35
I00
(lp4782
VSophie
p4783
aVCoach
p4784
aVAlbert
p4785
aVOzzy
p4786
aVRick
p4787
aVBrandon
p4788
aVEdna
p4789
aVCochran
p4790
aVWhitney
p4791
aVDawn
p4792
aVKeith
p4793
aVJim
p4794
aVChristine
p4795
aVMikayla
p4796
aVElyse
p4797
aVStacey
p4798
aVMark
p4799
aVSemhar
p4800
atp4801
bsg60
g90
(g93
S'\x01\x00\x00\x00\x00\x00\x00\x00'
p4802
tp4803
Rp4804
stp4805
Rp4806
a(lp4807
g25
(g26
(I0
tp4808
g28
tp4809
Rp4810
(I1
(L21L
L18L
tp4811
g35
I00
(lp4812
V \u2014
p4813
aV \u2014
p4814
aV \u2014
p4815
aV Semhar
p4816
aV \u2014
p4817
aV \u2014
p4818
aV \u2014
p4819
aV Semhar
p4820
aV Semhar
p4821
aV Semhar
p4822
aV Semhar
p4823
aV Semhar
p4824
aV \u2014
p4825
aV \u2014
p4826
aV Semhar
p4827
aV \u2014
p4828
aV Semhar
p4829
aV Cochran
p4830
aV Stacey
p4831
aV Christine
p4832
aV Christine
p4833
aV \u2014
p4834
aV Stacey
p4835
aV Christine
p4836
aV Stacey
p4837
aV \u2014
p4838
aV \u2014
p4839
aV \u2014
p4840
aV \u2014
p4841
aV \u2014
p4842
aV Edna
p4843
aV Christine
p4844
aV \u2014
p4845
aV Sophie
p4846
aV \u2014
p4847
aV 
p4848
aV \u2014
p4849
aV \u2014
p4850
aV \u2014
p4851
aV Mark
p4852
aV \u2014
p4853
aV \u2014
p4854
aV \u2014
p4855
aV Mark
p4856
aV Mark
p4857
aV Mark
p4858
aV Mark
p4859
aV Cochran
p4860
ag4848
aV \u2014
p4861
aV Mark
p4862
aV \u2014
p4863
aV Jim
p4864
ag4848
aV Stacey
p4865
aV Stacey
p4866
aV Stacey
p4867
aV \u2014
p4868
aV Stacey
p4869
aV Stacey
p4870
aV Stacey
p4871
aV \u2014
p4872
aV \u2014
p4873
aV \u2014
p4874
aV \u2014
p4875
aV \u2014
p4876
ag4848
aV Stacey
p4877
aV \u2014
p4878
aV Edna
p4879
ag4848
ag126
aV \u2014
p4880
aV \u2014
p4881
aV \u2014
p4882
aV Cochran
p4883
aV \u2014
p4884
aV \u2014
p4885
aV \u2014
p4886
aV Elyse
p4887
aV Dawn
p4888
aV Elyse
p4889
aV Dawn
p4890
aV Elyse
p4891
ag4848
aV \u2014
p4892
aV Cochran
p4893
ag4848
ag126
ag126
aV Edna
p4894
aV Mikayla
p4895
aV Edna
p4896
aV \u2014
p4897
aV Mikayla
p4898
aV Mikayla
p4899
aV Mikayla
p4900
aV \u2014
p4901
aV \u2014
p4902
aV \u2014
p4903
aV \u2014
p4904
aV \u2014
p4905
ag4848
aV Edna
p4906
ag4848
ag126
ag126
ag126
aV \u2014
p4907
aV \u2014
p4908
aV \u2014
p4909
aV Cochran
p4910
aV \u2014
p4911
aV \u2014
p4912
aV \u2014
p4913
aV Ozzy
p4914
aV Ozzy
p4915
aV Ozzy
p4916
aV Ozzy
p4917
aV Ozzy
p4918
ag4848
ag4848
ag126
ag126
ag126
ag126
aV Keith
p4919
aV Keith
p4920
aV Keith
p4921
aV Rick
p4922
aV Keith
p4923
aV Keith
p4924
aV Keith
p4925
aV Rick
p4926
aV Rick
p4927
aV Rick
p4928
aV Rick
p4929
aV Rick
p4930
ag4848
ag126
ag126
ag126
ag126
ag126
aV Keith
p4931
aV Keith
p4932
aV Keith
p4933
aV Rick
p4934
aVNone
p4935
aV Keith
p4936
aV Keith
p4937
aV Keith
p4938
aV Rick
p4939
aV Rick
p4940
aVNone
p4941
aV Rick
p4942
ag4848
ag126
ag126
ag126
ag126
ag126
aV Ozzy
p4943
aV Ozzy
p4944
aV Ozzy
p4945
aV Cochran
p4946
aV Ozzy
p4947
aV Ozzy
p4948
aV Ozzy
p4949
aV Ozzy
p4950
aV Ozzy
p4951
aV Ozzy
p4952
ag4848
aV Cochran
p4953
ag126
ag126
ag126
ag126
ag126
ag126
aV Jim
p4954
aV Jim
p4955
aV Jim
p4956
ag4848
aV Jim
p4957
aV Jim
p4958
aV Jim
p4959
aV Jim
p4960
aV Edna
p4961
aV Edna
p4962
ag4848
aV Edna
p4963
ag126
ag126
ag126
ag126
ag126
ag126
aV Dawn
p4964
aV Dawn
p4965
aV Dawn
p4966
ag4848
aV Dawn
p4967
aV Dawn
p4968
aV Dawn
p4969
aV Dawn
p4970
aV Edna
p4971
aV Edna
p4972
ag4848
ag4848
ag126
ag126
ag126
ag126
ag126
ag126
aV Whitney
p4973
aV Whitney
p4974
aV Whitney
p4975
ag4848
aV Whitney
p4976
aV Whitney
p4977
aV Whitney
p4978
aV Whitney
p4979
aV Cochran
p4980
ag4848
ag126
ag126
ag126
ag126
ag126
ag126
ag126
ag126
aV Cochran
p4981
aV Cochran
p4982
aV Cochran
p4983
ag4848
aV Cochran
p4984
aV Cochran
p4985
aV Rick
p4986
aV Rick
p4987
ag4848
ag4848
ag126
ag126
ag126
ag126
ag126
ag126
ag126
ag126
aV Edna
p4988
aV Edna
p4989
aV Edna
p4990
ag4848
aV Edna
p4991
aV Edna
p4992
aV Brandon
p4993
ag4848
ag126
ag126
ag126
ag126
ag126
ag126
ag126
ag126
ag126
ag126
aV Brandon
p4994
aV Brandon
p4995
aV Sophie
p4996
ag4848
aV Brandon
p4997
aV Sophie
p4998
ag4848
ag126
ag126
ag126
ag126
ag126
ag126
ag126
ag126
ag126
ag126
ag126
aV Rick
p4999
aV Rick
p5000
aV Rick
p5001
aV Sophie
p5002
aV Sophie
p5003
ag4848
ag126
ag126
ag126
ag126
ag126
ag126
ag126
ag126
ag126
ag126
ag126
ag126
aV Ozzy
p5004
aV Ozzy
p5005
aV Ozzy
p5006
aV Albert
p5007
ag126
ag126
ag126
ag126
ag126
ag126
ag126
ag126
ag126
ag126
ag126
ag126
ag126
ag126
aNaNaNag126
ag126
ag126
ag126
ag126
ag126
ag126
ag126
ag126
ag126
ag126
ag126
ag126
ag126
ag126
aNaNaNag126
aV Coach
p5008
ag126
aV Coach
p5009
aV Coach
p5010
ag126
ag126
ag126
ag126
ag126
ag126
ag126
ag126
ag126
ag126
aNaNaNaV Sophie
p5011
ag126
aV Sophie
p5012
ag126
ag126
aV Sophie
p5013
aV Sophie
p5014
aV Sophie
p5015
aV Sophie
p5016
ag126
ag126
ag126
ag126
ag126
ag126
atp5017
ba(lp5018
g21
(g22
(dp5019
g24
g25
(g26
(I0
tp5020
g28
tp5021
Rp5022
(I1
(L21L
tp5023
g35
I00
(lp5024
g4754
ag4755
ag4756
ag4757
ag4758
ag4759
ag4760
ag4761
ag4761
ag4762
ag4763
ag4764
ag4765
ag4766
ag4767
ag4768
ag4769
ag4770
ag4771
ag4772
ag4773
atp5025
bsg60
Nstp5026
Rp5027
a(dp5028
g335
(dp5029
g337
g4747
sg338
(lp5030
(dp5031
g341
g342
(I0
I21
I1
tp5032
Rp5033
sg345
g4810
sasstp5034
bsbssVOne_World
p5035
(dp5036
g3
Vhttp://survivor.wikia.com/wiki/Survivor:_One_World
p5037
sg5
g6
(g7
g8
Ntp5038
Rp5039
(dp5040
g12
g13
sg14
g15
sg16
g6
(g17
g8
Ntp5041
Rp5042
((lp5043
g21
(g22
(dp5044
g24
g25
(g26
(I0
tp5045
g28
tp5046
Rp5047
(I1
(L18L
tp5048
g35
I00
(lp5049
V Kourtney
p5050
aV Nina
p5051
aV Matt
p5052
aV Bill
p5053
aV Monica
p5054
aV Colton
p5055
aV Jonas
p5056
aV Michael
p5057
aV Jay
p5058
aV Leif
p5059
aV Troyzan
p5060
aV Kat
p5061
aV Tarzan
p5062
aV Alicia
p5063
aV Christina
p5064
aV Chelsea
p5065
aV Sabrina
p5066
aV Kim
p5067
atp5068
bsg60
Nstp5069
Rp5070
ag21
(g22
(dp5071
g24
g25
(g26
(I0
tp5072
g28
tp5073
Rp5074
(I1
(L18L
tp5075
g35
I00
(lp5076
VKim
p5077
aVSabrina
p5078
aVChelsea
p5079
aVChristina
p5080
aVAlicia
p5081
aVTarzan
p5082
aVKat
p5083
aVTroyzan
p5084
aVLeif
p5085
aVJay
p5086
aVMichael
p5087
aVJonas
p5088
aVColton
p5089
aVMonica
p5090
aVBill
p5091
aVMatt
p5092
aVNina
p5093
aVKourtney
p5094
atp5095
bsg60
g90
(g93
S'\x01\x00\x00\x00\x00\x00\x00\x00'
p5096
tp5097
Rp5098
stp5099
Rp5100
a(lp5101
g25
(g26
(I0
tp5102
g28
tp5103
Rp5104
(I1
(L18L
L18L
tp5105
g35
I00
(lp5106
V \u2014
p5107
aV \u2014
p5108
aV \u2014
p5109
aV \u2014
p5110
aV \u2014
p5111
aV \u2014
p5112
aV \u2014
p5113
aV \u2014
p5114
aV \u2014
p5115
aV \u2014
p5116
aV \u2014
p5117
aV \u2014
p5118
aV \u2014
p5119
aV \u2014
p5120
aV \u2014
p5121
aV \u2014
p5122
aV \u2014
p5123
aVEvacuated
p5124
aV Nina
p5125
aV Nina
p5126
aV Nina
p5127
aV Nina
p5128
aV Nina
p5129
aV \u2014
p5130
aV Nina
p5131
aV \u2014
p5132
aV \u2014
p5133
aV \u2014
p5134
aV \u2014
p5135
aV \u2014
p5136
aV \u2014
p5137
aV Christina
p5138
aV \u2014
p5139
aV \u2014
p5140
aV Kat
p5141
ag126
aV \u2014
p5142
aV \u2014
p5143
aV \u2014
p5144
aV \u2014
p5145
aV \u2014
p5146
aV Matt
p5147
aV \u2014
p5148
aV Matt
p5149
aV Matt
p5150
aV Matt
p5151
aV Bill
p5152
aV Matt
p5153
aV Matt
p5154
aV \u2014
p5155
aV Matt
p5156
aV Colton
p5157
ag126
ag126
aV \u2014
p5158
aV \u2014
p5159
aV \u2014
p5160
aV \u2014
p5161
aV \u2014
p5162
aV Bill
p5163
aV \u2014
p5164
aV Bill
p5165
aV Bill
p5166
aV Bill
p5167
aV Bill
p5168
aV Bill
p5169
aV Bill
p5170
aV \u2014
p5171
aV Leif
p5172
ag126
ag126
ag126
aV \u2014
p5173
aV \u2014
p5174
aV \u2014
p5175
aV Tarzan
p5176
aV Monica
p5177
aV Monica
p5178
aV \u2014
p5179
aV \u2014
p5180
aV Monica
p5181
aV \u2014
p5182
aV \u2014
p5183
aV Monica
p5184
aV Monica
p5185
aV Tarzan
p5186
ag126
ag126
ag126
ag126
aV \u2014
p5187
aV \u2014
p5188
aV \u2014
p5189
aV \u2014
p5190
aV\u2014
p5191
aV \u2014
p5192
aV \u2014
p5193
aV \u2014
p5194
aV \u2014
p5195
aV \u2014
p5196
aV \u2014
p5197
aV \u2014
p5198
aVEvacuated
p5199
ag126
ag126
ag126
ag126
ag126
aV Jonas
p5200
aV Jonas
p5201
aV Jonas
p5202
aV Jonas
p5203
aV Jonas
p5204
aV Jonas
p5205
aV Jonas
p5206
aV Jonas
p5207
aV Michael
p5208
aV Jonas
p5209
aV Jonas
p5210
aV Michael
p5211
ag126
ag126
ag126
ag126
ag126
ag126
aV Michael
p5212
aV Michael
p5213
aV Michael
p5214
aV Tarzan
p5215
aV Tarzan
p5216
aV Christina
p5217
aV Michael
p5218
aV Michael
p5219
aV Michael
p5220
aV Michael
p5221
aV Christina
p5222
ag126
ag126
ag126
ag126
ag126
ag126
ag126
aV Jay
p5223
aV Jay
p5224
aV Troyzan
p5225
aV Jay
p5226
aV Jay
p5227
aV Jay
p5228
aV Troyzan
p5229
aV Kim
p5230
aV Alicia
p5231
aV Alicia
p5232
ag126
ag126
ag126
ag126
ag126
ag126
ag126
ag126
aV Tarzan
p5233
aV Leif
p5234
aV Leif
p5235
aV Tarzan
p5236
aV Tarzan
p5237
aV Leif
p5238
aV Leif
p5239
aV Kim
p5240
aV Kim
p5241
ag126
ag126
ag126
ag126
ag126
ag126
ag126
ag126
ag126
aV Troyzan
p5242
aV Christina
p5243
aV Troyzan
p5244
aV Chelsea
p5245
aV Troyzan
p5246
aV Christina
p5247
aV Troyzan
p5248
aV Christina
p5249
ag126
ag126
ag126
ag126
ag126
ag126
ag126
ag126
ag126
ag126
aV Kat
p5250
aV Kat
p5251
aV Kat
p5252
aV Kat
p5253
aV Kat
p5254
aV Kat
p5255
aV Sabrina
p5256
ag126
ag126
ag126
ag126
ag126
ag126
ag126
ag126
ag126
ag126
ag126
aV Tarzan
p5257
aV Tarzan
p5258
aV Tarzan
p5259
aV Tarzan
p5260
aV Tarzan
p5261
aV Chelsea
p5262
ag126
ag126
ag126
ag126
ag126
ag126
ag126
ag126
ag126
ag126
ag126
ag126
aV Alicia
p5263
aV Alicia
p5264
aV Alicia
p5265
aV Chelsea
p5266
aV Chelsea
p5267
ag126
ag126
ag126
ag126
ag126
ag126
ag126
ag126
ag126
ag126
ag126
ag126
ag126
aV Christina
p5268
aV Christina
p5269
aV Christina
p5270
aV Sabrina
p5271
ag126
ag126
ag126
ag126
ag126
ag126
ag126
ag126
ag126
ag126
ag126
ag126
ag126
ag126
aNaNaNag126
ag126
ag126
ag126
ag126
ag126
ag126
ag126
ag126
ag126
ag126
ag126
ag126
ag126
ag126
aNaNaNag126
ag126
ag126
ag126
aV Sabrina
p5272
aV Sabrina
p5273
ag126
ag126
ag126
ag126
ag126
ag126
ag126
ag126
ag126
aNaNaNaV Kim
p5274
aV Kim
p5275
aV Kim
p5276
aV Kim
p5277
ag126
ag126
aV Kim
p5278
aV Kim
p5279
aV Kim
p5280
ag126
ag126
ag126
ag126
ag126
ag126
atp5281
ba(lp5282
g21
(g22
(dp5283
g24
g25
(g26
(I0
tp5284
g28
tp5285
Rp5286
(I1
(L18L
tp5287
g35
I00
(lp5288
g5050
ag5051
ag5052
ag5053
ag5054
ag5055
ag5056
ag5057
ag5058
ag5059
ag5060
ag5061
ag5062
ag5063
ag5064
ag5065
ag5066
ag5067
atp5289
bsg60
Nstp5290
Rp5291
a(dp5292
g335
(dp5293
g337
g5043
sg338
(lp5294
(dp5295
g341
g342
(I0
I18
I1
tp5296
Rp5297
sg345
g5104
sasstp5298
bsbssVPhilippines
p5299
(dp5300
g3
Vhttp://survivor.wikia.com/wiki/Survivor:_Philippines
p5301
sg5
g6
(g7
g8
Ntp5302
Rp5303
(dp5304
g12
g13
sg14
g15
sg16
g6
(g17
g8
Ntp5305
Rp5306
((lp5307
g21
(g22
(dp5308
g24
g25
(g26
(I0
tp5309
g28
tp5310
Rp5311
(I1
(L18L
tp5312
g35
I00
(lp5313
V Zane
p5314
aV Roxanne
p5315
aV Angie
p5316
aV Russell
p5317
aV Dana
p5318
aV Dawson
p5319
aV Katie
p5320
aV R.C.
p5321
aV Jeff
p5322
aV Artis
p5323
aV Pete
p5324
aV Jonathan
p5325
aV Carter
p5326
aV Abi-Maria
p5327
aV Malcolm
p5328
aV Michael
p5329
aV Lisa
p5330
aV Denise
p5331
atp5332
bsg60
Nstp5333
Rp5334
ag21
(g22
(dp5335
g24
g25
(g26
(I0
tp5336
g28
tp5337
Rp5338
(I1
(L18L
tp5339
g35
I00
(lp5340
VDenise
p5341
aVLisa
p5342
aVMichael
p5343
aVMalcolm
p5344
aVAbi-Maria
p5345
aVCarter
p5346
aVJonathan
p5347
aVPete
p5348
aVArtis
p5349
aVJeff
p5350
aVR.C.
p5351
aVKatie
p5352
aVDawson
p5353
aVDana
p5354
aVRussell
p5355
aVAngie
p5356
aVRoxanne
p5357
aVZane
p5358
atp5359
bsg60
g90
(g93
S'\x01\x00\x00\x00\x00\x00\x00\x00'
p5360
tp5361
Rp5362
stp5363
Rp5364
a(lp5365
g25
(g26
(I0
tp5366
g28
tp5367
Rp5368
(I1
(L18L
L18L
tp5369
g35
I00
(lp5370
V Zane
p5371
aV \u2014
p5372
aV \u2014
p5373
aV Zane
p5374
aV \u2014
p5375
aV \u2014
p5376
aV \u2014
p5377
aV \u2014
p5378
aV \u2014
p5379
aV \u2014
p5380
aV \u2014
p5381
aV \u2014
p5382
aV \u2014
p5383
aV \u2014
p5384
aV Zane
p5385
aV Zane
p5386
aV Zane
p5387
aV Russell
p5388
aV Roxanne
p5389
aV \u2014
p5390
aV \u2014
p5391
aV Roxanne
p5392
aV \u2014
p5393
aV \u2014
p5394
aV \u2014
p5395
aV \u2014
p5396
aV \u2014
p5397
aV \u2014
p5398
aV \u2014
p5399
aV \u2014
p5400
aV \u2014
p5401
aV \u2014
p5402
aV Roxanne
p5403
aV Roxanne
p5404
aV Angie
p5405
ag126
aV Angie
p5406
aV \u2014
p5407
aV \u2014
p5408
aV Angie
p5409
aV \u2014
p5410
aV \u2014
p5411
aV \u2014
p5412
aV \u2014
p5413
aV \u2014
p5414
aV \u2014
p5415
aV \u2014
p5416
aV \u2014
p5417
aV \u2014
p5418
aV \u2014
p5419
aV Angie
p5420
aV Russell
p5421
ag126
ag126
aV Russell
p5422
aV \u2014
p5423
aV \u2014
p5424
aV Russell
p5425
aV \u2014
p5426
aV \u2014
p5427
aV \u2014
p5428
aV \u2014
p5429
aV \u2014
p5430
aV \u2014
p5431
aV \u2014
p5432
aV \u2014
p5433
aV \u2014
p5434
aV \u2014
p5435
aV Malcolm
p5436
ag126
ag126
ag126
aV \u2014
p5437
aV \u2014
p5438
aV \u2014
p5439
aV \u2014
p5440
aV \u2014
p5441
aV \u2014
p5442
aV \u2014
p5443
aV \u2014
p5444
aV \u2014
p5445
aV \u2014
p5446
aV \u2014
p5447
aV \u2014
p5448
aV \u2014
p5449
aVQuit
p5450
ag126
ag126
ag126
ag126
aV Dawson
p5451
aV \u2014
p5452
aV \u2014
p5453
aV \u2014
p5454
aV \u2014
p5455
aV Dawson
p5456
aV Dawson
p5457
aV \u2014
p5458
aV \u2014
p5459
aV Dawson
p5460
aV \u2014
p5461
aV Dawson
p5462
aV Denise
p5463
ag126
ag126
ag126
ag126
ag126
aV Katie
p5464
aV \u2014
p5465
aV \u2014
p5466
aV \u2014
p5467
aV \u2014
p5468
aV Katie
p5469
aV Katie
p5470
aV \u2014
p5471
aV \u2014
p5472
aV Katie
p5473
aV \u2014
p5474
aV Jonathan
p5475
ag126
ag126
ag126
ag126
ag126
ag126
aV Jonathan
p5476
aV Jonathan
p5477
aV Jonathan
p5478
aV Jonathan
p5479
aV Jonathan
p5480
aV R.C.
p5481
aV Pete
p5482
aV R.C.
p5483
aV R.C.
p5484
aV R.C.
p5485
aV Pete
p5486
ag126
ag126
ag126
ag126
ag126
ag126
ag126
aV Pete
p5487
aV Jeff
p5488
aV Jeff
p5489
aV Pete
p5490
aV Jeff
p5491
aV Pete
p5492
aV Abi-Maria
p5493
aV Jeff
p5494
aV Jeff
p5495
aV Pete
p5496
ag126
ag126
ag126
ag126
ag126
ag126
ag126
ag126
aV Artis
p5497
aV Jonathan
p5498
aV Artis
p5499
aV Artis
p5500
aV Jonathan
p5501
aV Artis
p5502
aV Artis
p5503
aV Jonathan
p5504
aV Jonathan
p5505
ag126
ag126
ag126
ag126
ag126
ag126
ag126
ag126
ag126
aV Abi-Maria
p5506
aV Abi-Maria
p5507
aV Abi-Maria
p5508
aV Pete
p5509
aV Malcolm
p5510
aV Pete
p5511
aV Pete
p5512
aV Malcolm
p5513
ag126
ag126
ag126
ag126
ag126
ag126
ag126
ag126
ag126
ag126
aV Jonathan
p5514
aV Jonathan
p5515
aV Jonathan
p5516
aV Jonathan
p5517
aV Denise
p5518
aV Denise
p5519
aV Denise
p5520
ag126
ag126
ag126
ag126
ag126
ag126
ag126
ag126
ag126
ag126
ag126
aV Carter
p5521
aV Carter
p5522
aV Carter
p5523
aV Carter
p5524
aV Carter
p5525
aV Abi-Maria
p5526
ag126
ag126
ag126
ag126
ag126
ag126
ag126
ag126
ag126
ag126
ag126
ag126
aV Abi-Maria
p5527
aV Abi-Maria
p5528
aV Abi-Maria
p5529
aV Abi-Maria
p5530
aV Denise
p5531
ag126
ag126
ag126
ag126
ag126
ag126
ag126
ag126
ag126
ag126
ag126
ag126
ag126
aV Malcolm
p5532
aV Malcolm
p5533
aV Malcolm
p5534
aV Denise
p5535
ag126
ag126
ag126
ag126
ag126
ag126
ag126
ag126
ag126
ag126
ag126
ag126
ag126
ag126
aNaNaNag126
ag126
aV Michael
p5536
ag126
ag126
ag126
ag126
ag126
ag126
ag126
ag126
ag126
ag126
ag126
ag126
aNaNaNag126
ag126
ag126
ag126
ag126
ag126
ag126
aV Lisa
p5537
ag126
ag126
ag126
ag126
ag126
ag126
ag126
aNaNaNaV Denise
p5538
aV Denise
p5539
ag126
aV Denise
p5540
aV Denise
p5541
aV Denise
p5542
aV Denise
p5543
ag126
ag126
ag126
ag126
ag126
ag126
ag126
ag126
atp5544
ba(lp5545
g21
(g22
(dp5546
g24
g25
(g26
(I0
tp5547
g28
tp5548
Rp5549
(I1
(L18L
tp5550
g35
I00
(lp5551
g5314
ag5315
ag5316
ag5317
ag5318
ag5319
ag5320
ag5321
ag5322
ag5323
ag5324
ag5325
ag5326
ag5327
ag5328
ag5329
ag5330
ag5331
atp5552
bsg60
Nstp5553
Rp5554
a(dp5555
g335
(dp5556
g337
g5307
sg338
(lp5557
(dp5558
g341
g342
(I0
I18
I1
tp5559
Rp5560
sg345
g5368
sasstp5561
bsbssVCaramoan
p5562
(dp5563
g3
Vhttp://survivor.wikia.com/wiki/Survivor:_Caramoan
p5564
sg5
g6
(g7
g8
Ntp5565
Rp5566
(dp5567
g12
g13
sg14
g15
sg16
g6
(g17
g8
Ntp5568
Rp5569
((lp5570
g21
(g22
(dp5571
g24
g25
(g26
(I0
tp5572
g28
tp5573
Rp5574
(I1
(L23L
tp5575
g35
I00
(lp5576
V Francesca
p5577
aV Allie
p5578
aV Hope
p5579
ag5579
aV Shamar
p5580
aV Laura
p5581
aV Brandon
p5582
aV Matt
p5583
aV Julia
p5584
ag5584
aV Corinne
p5585
aV Michael
p5586
aV Phillip
p5587
aV Malcolm
p5588
ag5588
aV Reynold
p5589
aV Andrea
p5590
aV Brenda
p5591
aV Erik
p5592
aV Eddie
p5593
aV Sherri
p5594
aV Dawn
p5595
aV Cochran
p5596
atp5597
bsg60
Nstp5598
Rp5599
ag21
(g22
(dp5600
g24
g25
(g26
(I0
tp5601
g28
tp5602
Rp5603
(I1
(L20L
tp5604
g35
I00
(lp5605
V Cochran
p5606
aV Dawn
p5607
aV Sherri
p5608
aV Eddie
p5609
aV Erik
p5610
aV Brenda
p5611
aV Andrea
p5612
aV Reynold
p5613
aV Malcolm
p5614
aV Phillip
p5615
aV Michael
p5616
aV Corinne
p5617
aV Julia
p5618
aV Matt
p5619
aV Brandon
p5620
aV Laura
p5621
aV Shamar
p5622
aV Hope
p5623
aV Allie
p5624
aV Francesca
p5625
atp5626
bsg60
g90
(g93
S'\x01\x00\x00\x00\x00\x00\x00\x00'
p5627
tp5628
Rp5629
stp5630
Rp5631
a(lp5632
g25
(g26
(I0
tp5633
g28
tp5634
Rp5635
(I1
(L23L
L20L
tp5636
g35
I00
(lp5637
V Francesca
p5638
aV Francesca
p5639
aV \u2014
p5640
aV \u2014
p5641
aV Andrea
p5642
aV Andrea
p5643
aV Francesca
p5644
aV \u2014
p5645
aV Francesca
p5646
aV Francesca
p5647
aV \u2014
p5648
aV Francesca
p5649
aV \u2014
p5650
aV \u2014
p5651
aV Andrea
p5652
aV \u2014
p5653
aV \u2014
p5654
aV \u2014
p5655
aV \u2014
p5656
aV Andrea
p5657
aV \u2014
p5658
aV \u2014
p5659
aV Allie
p5660
aV Shamar
p5661
aV \u2014
p5662
aV \u2014
p5663
aV \u2014
p5664
aV Shamar
p5665
aV \u2014
p5666
aV \u2014
p5667
aV Allie
p5668
aV \u2014
p5669
aV Allie
p5670
aV Allie
p5671
aV \u2014
p5672
aV Allie
p5673
aV Allie
p5674
aV Shamar
p5675
aV Shamar
p5676
ag126
aV \u2014
p5677
aV \u2014
p5678
aV Hope
p5679
aV Shamar
p5680
aV \u2014
p5681
aV \u2014
p5682
aV \u2014
p5683
aV Shamar
p5684
aV \u2014
p5685
aV \u2014
p5686
aV Eddie
p5687
aV \u2014
p5688
aV Hope
p5689
aV Eddie
p5690
aV \u2014
p5691
aV Hope
p5692
aV Eddie
p5693
aV Shamar
p5694
ag126
ag126
ag5677
ag5678
aV Hope
p5695
aVNone
p5696
ag5681
ag5682
ag5683
aV Shamar
p5697
ag5685
ag5686
aV Hope
p5698
ag5688
aV Hope
p5699
aV Hope
p5700
ag5691
aV Hope
p5701
aVNone
p5702
aVNone
p5703
ag126
ag126
aV \u2014
p5704
aV \u2014
p5705
aV \u2014
p5706
aV \u2014
p5707
aV \u2014
p5708
aV \u2014
p5709
aV \u2014
p5710
aV \u2014
p5711
aV \u2014
p5712
aV \u2014
p5713
aV \u2014
p5714
aV \u2014
p5715
aV \u2014
p5716
aV \u2014
p5717
aV \u2014
p5718
aV \u2014
p5719
aVEvacuated
p5720
ag126
ag126
ag126
aV \u2014
p5721
aV \u2014
p5722
aV Laura
p5723
aV Laura
p5724
aV \u2014
p5725
aV \u2014
p5726
aV \u2014
p5727
aV Laura
p5728
aV \u2014
p5729
aV \u2014
p5730
aV Laura
p5731
aV \u2014
p5732
aV Laura
p5733
aV Laura
p5734
aV \u2014
p5735
aV Reynold
p5736
ag126
ag126
ag126
ag126
aV Brandon
p5737
aV Brandon
p5738
aV \u2014
p5739
aV \u2014
p5740
aV Brandon
p5741
aV Brandon
p5742
aV Brandon
p5743
aV \u2014
p5744
aV Brandon
p5745
aV Brandon
p5746
aV \u2014
p5747
aV Brandon
p5748
aV \u2014
p5749
aV \u2014
p5750
aV Phillip
p5751
ag126
ag126
ag126
ag126
ag126
aV Matt
p5752
aV Matt
p5753
aV \u2014
p5754
aV \u2014
p5755
aV \u2014
p5756
aV \u2014
p5757
aV \u2014
p5758
aV \u2014
p5759
aV \u2014
p5760
aV Matt
p5761
aV Julia
p5762
aV Matt
p5763
aV Dawn
p5764
aV Julia
p5765
ag126
ag126
ag126
ag126
ag126
ag126
aV Michael
p5766
aV Julia
p5767
aV \u2014
p5768
aV \u2014
p5769
aV \u2014
p5770
aV \u2014
p5771
aV \u2014
p5772
aV \u2014
p5773
aV \u2014
p5774
aV Michael
p5775
aV Julia
p5776
aV Julia
p5777
aV Michael
p5778
ag126
ag126
ag126
ag126
ag126
ag126
ag126
aV Julia
p5779
aV Julia
p5780
ag5768
ag5769
ag5770
ag5771
ag5772
ag5773
ag5774
aV Julia
p5781
aVNone
p5782
aV Julia
p5783
aVNone
p5784
ag126
ag126
ag126
ag126
ag126
ag126
ag126
aV Corinne
p5785
aV Corinne
p5786
aV Corinne
p5787
aV Sherri
p5788
aV Corinne
p5789
aV Corinne
p5790
aV Corinne
p5791
aV Sherri
p5792
aV Sherri
p5793
aV Corinne
p5794
aV Sherri
p5795
aV Sherri
p5796
ag126
ag126
ag126
ag126
ag126
ag126
ag126
ag126
aV Michael
p5797
aV Michael
p5798
aV Michael
p5799
aV Andrea
p5800
aV Michael
p5801
aV Michael
p5802
aV Michael
p5803
aV Andrea
p5804
aV Reynold
p5805
aV Michael
p5806
aV Andrea
p5807
ag126
ag126
ag126
ag126
ag126
ag126
ag126
ag126
ag126
aV Malcolm
p5808
aV Eddie
p5809
aV Eddie
p5810
aV Phillip
p5811
aV Phillip
p5812
aV Eddie
p5813
aV Eddie
p5814
aV Phillip
p5815
aV Phillip
p5816
aV Malcolm
p5817
ag126
ag126
ag126
ag126
ag126
ag126
ag126
ag126
ag126
ag126
aV Malcolm
p5818
aV Reynold
p5819
aV Reynold
p5820
aV Andrea
p5821
aV Malcolm
p5822
aV Reynold
p5823
aV Malcolm
p5824
aV Andrea
p5825
aV Andrea
p5826
ag126
ag126
ag126
ag126
ag126
ag126
ag126
ag126
ag126
ag126
ag126
aV Malcolm
p5827
aV Malcolm
p5828
aV Malcolm
p5829
aV Malcolm
p5830
aV Malcolm
p5831
aV Malcolm
p5832
aVNone
p5833
aVNone
p5834
aVNone
p5835
ag126
ag126
ag126
ag126
ag126
ag126
ag126
ag126
ag126
ag126
ag126
aV Eddie
p5836
aV Reynold
p5837
aV Reynold
p5838
aV Sherri
p5839
aV Eddie
p5840
aV Reynold
p5841
aV Reynold
p5842
aV Erik
p5843
ag126
ag126
ag126
ag126
ag126
ag126
ag126
ag126
ag126
ag126
ag126
ag126
aV Eddie
p5844
aV Eddie
p5845
aV Andrea
p5846
aV Brenda
p5847
aV Andrea
p5848
aV Andrea
p5849
aV Brenda
p5850
ag126
ag126
ag126
ag126
ag126
ag126
ag126
ag126
ag126
ag126
ag126
ag126
ag126
aV Brenda
p5851
aV Brenda
p5852
aV Brenda
p5853
aV Erik
p5854
aV Eddie
p5855
aV Eddie
p5856
ag126
ag126
ag126
ag126
ag126
ag126
ag126
ag126
ag126
ag126
ag126
ag126
ag126
ag126
aV \u2014
p5857
aV \u2014
p5858
aV \u2014
p5859
aV \u2014
p5860
aVEvacuated
p5861
ag126
ag126
ag126
ag126
ag126
ag126
ag126
ag126
ag126
ag126
ag126
ag126
ag126
ag126
ag126
aV Eddie
p5862
aV Eddie
p5863
aV Eddie
p5864
aV Dawn
p5865
ag126
ag126
ag126
ag126
ag126
ag126
ag126
ag126
ag126
ag126
ag126
ag126
ag126
ag126
ag126
ag126
aNaNaNag126
ag126
ag126
ag126
ag126
ag126
ag126
ag126
ag126
ag126
ag126
ag126
ag126
ag126
ag126
ag126
ag126
aNaNaNag126
ag126
ag126
ag126
ag126
ag126
ag126
ag126
ag126
ag126
ag126
ag126
ag126
ag126
ag126
ag126
ag126
aNaNaNaV Cochran
p5866
aV Cochran
p5867
aV Cochran
p5868
aV Cochran
p5869
aV Cochran
p5870
aV Cochran
p5871
aV Cochran
p5872
aV Cochran
p5873
ag126
ag126
ag126
ag126
ag126
ag126
ag126
ag126
ag126
atp5874
ba(lp5875
g21
(g22
(dp5876
g24
g25
(g26
(I0
tp5877
g28
tp5878
Rp5879
(I1
(L23L
tp5880
g35
I00
(lp5881
g5577
ag5578
ag5579
ag5579
ag5580
ag5581
ag5582
ag5583
ag5584
ag5584
ag5585
ag5586
ag5587
ag5588
ag5588
ag5589
ag5590
ag5591
ag5592
ag5593
ag5594
ag5595
ag5596
atp5882
bsg60
Nstp5883
Rp5884
a(dp5885
g335
(dp5886
g337
g5570
sg338
(lp5887
(dp5888
g341
g342
(I0
I23
I1
tp5889
Rp5890
sg345
g5635
sasstp5891
bsbssVGabon
p5892
(dp5893
g3
Vhttp://survivor.wikia.com/wiki/Survivor:_Gabon
p5894
sg5
g6
(g7
g8
Ntp5895
Rp5896
(dp5897
g12
g13
sg14
g15
sg16
g6
(g17
g8
Ntp5898
Rp5899
((lp5900
g21
(g22
(dp5901
g24
g25
(g26
(I0
tp5902
g28
tp5903
Rp5904
(I1
(L18L
tp5905
g35
I00
(lp5906
V Michelle
p5907
aV Gillian
p5908
aV Paloma
p5909
aV Jacquie
p5910
aV G.C.
p5911
aV Kelly
p5912
aV Ace
p5913
aV Dan
p5914
aV Marcus
p5915
aV Charlie
p5916
aV Randy
p5917
aV Corinne
p5918
aV Crystal
p5919
aV Ken
p5920
aV Matty
p5921
aV Sugar
p5922
aV Susie
p5923
aV Bob
p5924
atp5925
bsg60
Nstp5926
Rp5927
ag21
(g22
(dp5928
g24
g25
(g26
(I0
tp5929
g28
tp5930
Rp5931
(I1
(L18L
tp5932
g35
I00
(lp5933
VBob
p5934
aVSusie
p5935
aVSugar
p5936
aVMatty
p5937
aVKen
p5938
aVCrystal
p5939
aVCorinne
p5940
aVRandy
p5941
aVCharlie
p5942
aVMarcus
p5943
aVDan
p5944
aVAce
p5945
aVKelly
p5946
aVG.C.
p5947
aVJacquie
p5948
aVPaloma
p5949
aVGillian
p5950
aVMichelle
p5951
atp5952
bsg60
g90
(g93
S'\x01\x00\x00\x00\x00\x00\x00\x00'
p5953
tp5954
Rp5955
stp5956
Rp5957
a(lp5958
g25
(g26
(I0
tp5959
g28
tp5960
Rp5961
(I1
(L18L
L18L
tp5962
g35
I00
(lp5963
V \u2014
p5964
aV Michelle
p5965
aV \u2014
p5966
aV Michelle
p5967
aV Michelle
p5968
aV Michelle
p5969
aV \u2014
p5970
aV Michelle
p5971
aV \u2014
p5972
aV \u2014
p5973
aV Michelle
p5974
aV \u2014
p5975
aV \u2014
p5976
aV Michelle
p5977
aV \u2014
p5978
aV \u2014
p5979
aV Michelle
p5980
aV Gillian
p5981
aV \u2014
p5982
aV Gillian
p5983
aV \u2014
p5984
aV Gillian
p5985
aV Gillian
p5986
aV Gillian
p5987
aV \u2014
p5988
aV Gillian
p5989
aV \u2014
p5990
aV \u2014
p5991
aV Gillian
p5992
aV \u2014
p5993
aV \u2014
p5994
aV Gillian
p5995
aV \u2014
p5996
aV \u2014
p5997
aV Ken
p5998
ag126
aV Paloma
p5999
aV \u2014
p6000
aV Paloma
p6001
aV \u2014
p6002
aV \u2014
p6003
aV \u2014
p6004
aV Paloma
p6005
aV \u2014
p6006
aV Paloma
p6007
aV Paloma
p6008
aV \u2014
p6009
aV Paloma
p6010
aV Ace
p6011
aV \u2014
p6012
aV Paloma
p6013
aV Ace
p6014
ag126
ag126
aV \u2014
p6015
aV \u2014
p6016
aVExiled
p6017
aV Jacquie
p6018
aV Jacquie
p6019
aV Jacquie
p6020
aV \u2014
p6021
aV \u2014
p6022
aV \u2014
p6023
aV \u2014
p6024
aV \u2014
p6025
aV Kelly
p6026
aV Jacquie
p6027
aV Jacquie
p6028
aV Kelly
p6029
ag126
ag126
ag126
aV \u2014
p6030
aV \u2014
p6031
aV G.C.
p6032
aV G.C.
p6033
aV G.C.
p6034
aV G.C.
p6035
aV \u2014
p6036
aV \u2014
p6037
aV \u2014
p6038
aV \u2014
p6039
aV \u2014
p6040
aV G.C.
p6041
aV G.C.
p6042
aV Kelly
p6043
ag126
ag126
ag126
ag126
aV \u2014
p6044
aV \u2014
p6045
aV Kelly
p6046
aV Kelly
p6047
aV Kelly
p6048
aV Kelly
p6049
aV \u2014
p6050
aV \u2014
p6051
aV \u2014
p6052
aV \u2014
p6053
aV \u2014
p6054
aV Kelly
p6055
aV Crystal
p6056
ag126
ag126
ag126
ag126
ag126
aV \u2014
p6057
aV \u2014
p6058
aV Ace
p6059
aV Crystal
p6060
aV Ace
p6061
aV Ace
p6062
aV \u2014
p6063
aV \u2014
p6064
aV \u2014
p6065
aV \u2014
p6066
aV \u2014
p6067
aV Crystal
p6068
ag126
ag126
ag126
ag126
ag126
ag126
aV Dan
p6069
aV Dan
p6070
aV \u2014
p6071
aV \u2014
p6072
aV \u2014
p6073
aV \u2014
p6074
aV Dan
p6075
aV Susie
p6076
aV Dan
p6077
aV Susie
p6078
aV Susie
p6079
ag126
ag126
ag126
ag126
ag126
ag126
ag126
aV Ken
p6080
aV Marcus
p6081
aV \u2014
p6082
aV \u2014
p6083
aV Marcus
p6084
aV Marcus
p6085
aV \u2014
p6086
aV \u2014
p6087
aV \u2014
p6088
aV Ken
p6089
ag126
ag126
ag126
ag126
ag126
ag126
ag126
ag126
aV Crystal
p6090
aV Charlie
p6091
aV Charlie
p6092
aV Charlie
p6093
aV Charlie
p6094
aV Charlie
p6095
aV Crystal
p6096
aV Crystal
p6097
aV Crystal
p6098
ag126
ag126
ag126
ag126
ag126
ag126
ag126
ag126
ag126
aV Susie
p6099
aV Randy
p6100
aV Randy
p6101
aV Randy
p6102
aV Randy
p6103
aV Randy
p6104
aV Susie
p6105
aV Susie
p6106
ag126
ag126
ag126
ag126
ag126
ag126
ag126
ag126
ag126
ag126
aV Matty
p6107
aV Corinne
p6108
aV Corinne
p6109
aV Corinne
p6110
aV Matty
p6111
aV Corinne
p6112
aV Matty
p6113
ag126
ag126
ag126
ag126
ag126
ag126
ag126
ag126
ag126
ag126
ag126
aV Crystal
p6114
aV Crystal
p6115
aV Crystal
p6116
aV Crystal
p6117
aV Matty
p6118
aV Matty
p6119
ag126
ag126
ag126
ag126
ag126
ag126
ag126
ag126
ag126
ag126
ag126
ag126
aV Ken
p6120
aV Ken
p6121
aV Ken
p6122
aV Ken
p6123
aV Susie
p6124
ag126
ag126
ag126
ag126
ag126
ag126
ag126
ag126
ag126
ag126
ag126
ag126
ag126
aV Matty
p6125
aV Bob
p6126
aV Matty
p6127
aV Bob
p6128
ag126
ag126
ag126
ag126
ag126
ag126
ag126
ag126
ag126
ag126
ag126
ag126
ag126
ag126
aNaNaNag126
ag126
ag126
ag126
ag126
ag126
ag126
ag126
ag126
ag126
ag126
ag126
ag126
ag126
ag126
aNaNaNaV Susie
p6129
aV Susie
p6130
aV Susie
p6131
ag126
ag126
ag126
ag126
ag126
ag126
ag126
ag126
ag126
ag126
ag126
ag126
aNaNaNag126
ag126
ag126
aV Bob
p6132
aV Bob
p6133
aV Bob
p6134
aV Bob
p6135
ag126
ag126
ag126
ag126
ag126
ag126
ag126
ag126
atp6136
ba(lp6137
g21
(g22
(dp6138
g24
g25
(g26
(I0
tp6139
g28
tp6140
Rp6141
(I1
(L18L
tp6142
g35
I00
(lp6143
g5907
ag5908
ag5909
ag5910
ag5911
ag5912
ag5913
ag5914
ag5915
ag5916
ag5917
ag5918
ag5919
ag5920
ag5921
ag5922
ag5923
ag5924
atp6144
bsg60
Nstp6145
Rp6146
a(dp6147
g335
(dp6148
g337
g5900
sg338
(lp6149
(dp6150
g341
g342
(I0
I18
I1
tp6151
Rp6152
sg345
g5961
sasstp6153
bsbssVMicronesia
p6154
(dp6155
g3
Vhttp://survivor.wikia.com/wiki/Survivor:_Micronesia
p6156
sg5
g6
(g7
g8
Ntp6157
Rp6158
(dp6159
g12
g13
sg14
g15
sg16
g6
(g17
g8
Ntp6160
Rp6161
((lp6162
g21
(g22
(dp6163
g24
g25
(g26
(I0
tp6164
g28
tp6165
Rp6166
(I1
(L20L
tp6167
g35
I00
(lp6168
V Jon
p6169
aV Mary
p6170
aV Yau-Man
p6171
aV Mikey B.
p6172
aV Joel
p6173
aV Jonathan
p6174
aV Chet
p6175
aV Kathy
p6176
aV Tracy
p6177
aV Ami
p6178
aV Eliza
p6179
aV Ozzy
p6180
aV Jason
p6181
aV James
p6182
aV Alexis
p6183
aV Erik
p6184
aV Natalie
p6185
aV Cirie
p6186
aV Amanda
p6187
aV Parvati
p6188
atp6189
bsg60
Nstp6190
Rp6191
ag21
(g22
(dp6192
g24
g25
(g26
(I0
tp6193
g28
tp6194
Rp6195
(I1
(L20L
tp6196
g35
I00
(lp6197
VParvati
p6198
aVAmanda
p6199
aVCirie
p6200
aVNatalie
p6201
aVErik
p6202
aVAlexis
p6203
aVJames
p6204
aVJason
p6205
aVOzzy
p6206
aVEliza
p6207
aVAmi
p6208
aVTracy
p6209
aVKathy
p6210
aVChet
p6211
aVJonathan
p6212
aVJoel
p6213
aVMikey B.
p6214
aVYau-Man
p6215
aVMary
p6216
aVJon
p6217
atp6218
bsg60
g90
(g93
S'\x01\x00\x00\x00\x00\x00\x00\x00'
p6219
tp6220
Rp6221
stp6222
Rp6223
a(lp6224
g25
(g26
(I0
tp6225
g28
tp6226
Rp6227
(I1
(L20L
L20L
tp6228
g35
I00
(lp6229
V Jon
p6230
aV Jon
p6231
aV Jon
p6232
aV \u2014
p6233
aV \u2014
p6234
aV \u2014
p6235
aV Jon
p6236
aV \u2014
p6237
aV Jon
p6238
aV Jon
p6239
aV Jon
p6240
aV \u2014
p6241
aV \u2014
p6242
aV \u2014
p6243
aV Jon
p6244
aV \u2014
p6245
aV \u2014
p6246
aV Jon
p6247
aV\u2014
p6248
aV Ozzy
p6249
aV \u2014
p6250
aV \u2014
p6251
aV \u2014
p6252
aV Mary
p6253
aV Mary
p6254
aV Mary
p6255
aV \u2014
p6256
aV Chet
p6257
aV \u2014
p6258
aV \u2014
p6259
aV \u2014
p6260
aV Mary
p6261
aV Mary
p6262
aV Mary
p6263
aV \u2014
p6264
aV Tracy
p6265
aV Chet
p6266
aV \u2014
p6267
aV Tracy
p6268
ag126
aV Yau-Man
p6269
aV Yau-Man
p6270
aV Yau-Man
p6271
aV \u2014
p6272
aV \u2014
p6273
aV \u2014
p6274
aV Yau-Man
p6275
aV \u2014
p6276
aV Yau-Man
p6277
aV Yau-Man
p6278
aV Cirie
p6279
aV \u2014
p6280
aV \u2014
p6281
aV \u2014
p6282
aV Parvati
p6283
aV \u2014
p6284
aV \u2014
p6285
aV Parvati
p6286
ag126
ag126
aV \u2014
p6287
aV \u2014
p6288
aV \u2014
p6289
aV Mikey B.
p6290
aV Mikey B.
p6291
aV Chet
p6292
aV \u2014
p6293
aV Chet
p6294
aV \u2014
p6295
aV \u2014
p6296
aV \u2014
p6297
aV Mikey B.
p6298
aV Mikey B.
p6299
aV Mikey B.
p6300
aV \u2014
p6301
aV Mikey B.
p6302
aV Chet
p6303
ag126
ag126
ag126
aV \u2014
p6304
aV Joel
p6305
aV Joel
p6306
aV \u2014
p6307
aV Chet
p6308
aV \u2014
p6309
aV \u2014
p6310
aV \u2014
p6311
aV Joel
p6312
aV \u2014
p6313
aV Joel
p6314
aV Joel
p6315
aV \u2014
p6316
aV Joel
p6317
aV \u2014
p6318
aV Chet
p6319
ag126
ag126
ag126
ag126
aV \u2014
p6320
aV \u2014
p6321
aV \u2014
p6322
aV \u2014
p6323
aV \u2014
p6324
aV \u2014
p6325
aV \u2014
p6326
aV \u2014
p6327
aV \u2014
p6328
aV \u2014
p6329
aV \u2014
p6330
aV \u2014
p6331
aV \u2014
p6332
aV \u2014
p6333
aVEvacuated
p6334
ag126
ag126
ag126
ag126
ag126
aV \u2014
p6335
aV Chet
p6336
aV Chet
p6337
aV \u2014
p6338
aV Chet
p6339
aV \u2014
p6340
aV \u2014
p6341
aV \u2014
p6342
aV Chet
p6343
aV \u2014
p6344
aV Chet
p6345
aV Erik
p6346
aV \u2014
p6347
aV Erik
p6348
ag126
ag126
ag126
ag126
ag126
ag126
aV \u2014
p6349
aV \u2014
p6350
aV \u2014
p6351
aV \u2014
p6352
aV \u2014
p6353
aV \u2014
p6354
aV \u2014
p6355
aV \u2014
p6356
aV \u2014
p6357
aV \u2014
p6358
aV \u2014
p6359
aV \u2014
p6360
aVQuit
p6361
ag126
ag126
ag126
ag126
ag126
ag126
ag126
aV \u2014
p6362
aV Tracy
p6363
aV Tracy
p6364
aV \u2014
p6365
aV Tracy
p6366
aV \u2014
p6367
aV \u2014
p6368
aV \u2014
p6369
aV Tracy
p6370
aV \u2014
p6371
aV Tracy
p6372
aV Ozzy
p6373
ag126
ag126
ag126
ag126
ag126
ag126
ag126
ag126
aV \u2014
p6374
aV Ami
p6375
aV Ami
p6376
aV \u2014
p6377
aV Ami
p6378
aV \u2014
p6379
aV \u2014
p6380
aV \u2014
p6381
aV Ami
p6382
aV \u2014
p6383
aV Erik
p6384
ag126
ag126
ag126
ag126
ag126
ag126
ag126
ag126
ag126
aV Eliza
p6385
aV Eliza
p6386
aV Eliza
p6387
aV Eliza
p6388
aV Eliza
p6389
aV Eliza
p6390
aV Eliza
p6391
aV Ozzy
p6392
aV Eliza
p6393
aV Ozzy
p6394
ag126
ag126
ag126
ag126
ag126
ag126
ag126
ag126
ag126
ag126
aV Ozzy
p6395
aV Jason
p6396
aV Ozzy
p6397
aV Ozzy
p6398
aV Jason
p6399
aV Ozzy
p6400
aV Jason
p6401
aV Ozzy
p6402
aV Jason
p6403
ag126
ag126
ag126
ag126
ag126
ag126
ag126
ag126
ag126
ag126
ag126
aV Jason
p6404
aV Jason
p6405
aV Jason
p6406
aV James
p6407
aV Jason
p6408
aV James
p6409
aV Parvati
p6410
aV James
p6411
ag126
ag126
ag126
ag126
ag126
ag126
ag126
ag126
ag126
ag126
ag126
ag126
aV \u2014
p6412
aV \u2014
p6413
aV \u2014
p6414
aV \u2014
p6415
aV \u2014
p6416
aV \u2014
p6417
aVEvacuated
p6418
ag126
ag126
ag126
ag126
ag126
ag126
ag126
ag126
ag126
ag126
ag126
ag126
ag126
aV Alexis
p6419
aV Alexis
p6420
aV Amanda
p6421
aV Amanda
p6422
aV Amanda
p6423
aV Amanda
p6424
ag126
ag126
ag126
ag126
ag126
ag126
ag126
ag126
ag126
ag126
ag126
ag126
ag126
ag126
aV Erik
p6425
aV Erik
p6426
aV Erik
p6427
aV Erik
p6428
aV Parvati
p6429
ag126
ag126
ag126
ag126
ag126
ag126
ag126
ag126
ag126
ag126
ag126
ag126
ag126
ag126
ag126
aV Natalie
p6430
aV Natalie
p6431
aV Natalie
p6432
aV Cirie
p6433
ag126
ag126
ag126
ag126
ag126
ag126
ag126
ag126
ag126
ag126
ag126
ag126
ag126
ag126
ag126
ag126
aV \u2014
p6434
aV Cirie
p6435
aV \u2014
p6436
ag126
ag126
ag126
ag126
ag126
ag126
ag126
ag126
ag126
ag126
ag126
ag126
ag126
ag126
ag126
ag126
ag126
aNaNag126
ag126
aV Amanda
p6437
ag126
aV Amanda
p6438
ag126
aV Amanda
p6439
ag126
ag126
ag126
ag126
ag126
ag126
ag126
ag126
ag126
ag126
ag126
aNaNaV Parvati
p6440
aV Parvati
p6441
ag126
aV Parvati
p6442
ag126
aV Parvati
p6443
ag126
aV Parvati
p6444
ag126
ag126
ag126
ag126
ag126
ag126
ag126
ag126
ag126
ag126
atp6445
ba(lp6446
g21
(g22
(dp6447
g24
g25
(g26
(I0
tp6448
g28
tp6449
Rp6450
(I1
(L20L
tp6451
g35
I00
(lp6452
g6169
ag6170
ag6171
ag6172
ag6173
ag6174
ag6175
ag6176
ag6177
ag6178
ag6179
ag6180
ag6181
ag6182
ag6183
ag6184
ag6185
ag6186
ag6187
ag6188
atp6453
bsg60
Nstp6454
Rp6455
a(dp6456
g335
(dp6457
g337
g6162
sg338
(lp6458
(dp6459
g341
g342
(I0
I20
I1
tp6460
Rp6461
sg345
g6227
sasstp6462
bsbssVSamoa
p6463
(dp6464
g3
Vhttp://survivor.wikia.com/wiki/Survivor:_Samoa
p6465
sg5
g6
(g7
g8
Ntp6466
Rp6467
(dp6468
g12
g13
sg14
g15
sg16
g6
(g17
g8
Ntp6469
Rp6470
((lp6471
g21
(g22
(dp6472
g24
g25
(g26
(I0
tp6473
g28
tp6474
Rp6475
(I1
(L21L
tp6476
g35
I00
(lp6477
V Marisa
p6478
aV Mike
p6479
aV Betsy
p6480
aV Ben
p6481
aV Yasmin
p6482
aV Ashley
p6483
aV Russell S.
p6484
aV Liz
p6485
aV Erik
p6486
aV Kelly
p6487
aV Laura
p6488
ag6488
aV John
p6489
aV Dave
p6490
aV Monica
p6491
aV Shambo
p6492
aV Jaison
p6493
aV Brett
p6494
aV Mick
p6495
aV Russell H.
p6496
aV Natalie
p6497
atp6498
bsg60
Nstp6499
Rp6500
ag21
(g22
(dp6501
g24
g25
(g26
(I0
tp6502
g28
tp6503
Rp6504
(I1
(L20L
tp6505
g35
I00
(lp6506
VNatalie
p6507
aVRussell H.
p6508
aVMick
p6509
aVBrett
p6510
aVJaison
p6511
aVShambo
p6512
aVMonica
p6513
aVDave
p6514
aVJohn
p6515
aVLaura
p6516
aVKelly
p6517
aVErik
p6518
aVLiz
p6519
aVRussell S.
p6520
aVAshley
p6521
aVYasmin
p6522
aVBen
p6523
aVBetsy
p6524
aVMike
p6525
aVMarisa
p6526
atp6527
bsg60
g90
(g93
S'\x01\x00\x00\x00\x00\x00\x00\x00'
p6528
tp6529
Rp6530
stp6531
Rp6532
a(lp6533
g25
(g26
(I0
tp6534
g28
tp6535
Rp6536
(I1
(L21L
L20L
tp6537
g35
I00
(lp6538
V Marisa
p6539
aV Marisa
p6540
aV Ashley
p6541
aV \u2014
p6542
aV Marisa
p6543
aV \u2014
p6544
aV \u2014
p6545
aV \u2014
p6546
aV \u2014
p6547
aV \u2014
p6548
aV \u2014
p6549
aV \u2014
p6550
aV Marisa
p6551
aV \u2014
p6552
aV Marisa
p6553
aV \u2014
p6554
aV Marisa
p6555
aV Ashley
p6556
aV Marisa
p6557
aV Ashley
p6558
aV \u2014
p6559
aV \u2014
p6560
aV \u2014
p6561
aV \u2014
p6562
aV \u2014
p6563
aV \u2014
p6564
aV \u2014
p6565
aV \u2014
p6566
aV \u2014
p6567
aV \u2014
p6568
aV \u2014
p6569
aV \u2014
p6570
aV \u2014
p6571
aV \u2014
p6572
aV \u2014
p6573
aV \u2014
p6574
aV \u2014
p6575
aV \u2014
p6576
aVEvacuated
p6577
ag126
aV Betsy
p6578
aV Betsy
p6579
aV Betsy
p6580
aV \u2014
p6581
aV Betsy
p6582
aV \u2014
p6583
aV \u2014
p6584
aV \u2014
p6585
aV \u2014
p6586
aV \u2014
p6587
aV \u2014
p6588
aV \u2014
p6589
aV Betsy
p6590
aV \u2014
p6591
aV Betsy
p6592
aV \u2014
p6593
aV Betsy
p6594
aV Ben
p6595
ag126
ag126
aV Ben
p6596
aV Ben
p6597
aV Ben
p6598
aV \u2014
p6599
aV Ben
p6600
aV \u2014
p6601
aV \u2014
p6602
aV \u2014
p6603
aV \u2014
p6604
aV \u2014
p6605
aV \u2014
p6606
aV \u2014
p6607
aV Ben
p6608
aV \u2014
p6609
aV Ben
p6610
aV \u2014
p6611
aV Ashley
p6612
ag126
ag126
ag126
aV \u2014
p6613
aV \u2014
p6614
aV \u2014
p6615
aV Yasmin
p6616
aV \u2014
p6617
aV Monica
p6618
aV Yasmin
p6619
aV Yasmin
p6620
aV Yasmin
p6621
aV Yasmin
p6622
aV Yasmin
p6623
aV Yasmin
p6624
aV \u2014
p6625
aV Yasmin
p6626
aV \u2014
p6627
aV Monica
p6628
ag126
ag126
ag126
ag126
aV Ashley
p6629
aV Ashley
p6630
aV Ashley
p6631
aV \u2014
p6632
aV Ashley
p6633
aV \u2014
p6634
aV \u2014
p6635
aV \u2014
p6636
aV \u2014
p6637
aV \u2014
p6638
aV \u2014
p6639
aV \u2014
p6640
aV Ashley
p6641
aV \u2014
p6642
aV Liz
p6643
ag126
ag126
ag126
ag126
ag126
aV \u2014
p6644
aV \u2014
p6645
aV \u2014
p6646
aV \u2014
p6647
aV \u2014
p6648
aV \u2014
p6649
aV \u2014
p6650
aV \u2014
p6651
aV \u2014
p6652
aV \u2014
p6653
aV \u2014
p6654
aV \u2014
p6655
aV \u2014
p6656
aVEvacuated
p6657
ag126
ag126
ag126
ag126
ag126
ag126
aV Liz
p6658
aV Liz
p6659
aV Liz
p6660
aV \u2014
p6661
aV Liz
p6662
aV \u2014
p6663
aV \u2014
p6664
aV \u2014
p6665
aV \u2014
p6666
aV \u2014
p6667
aV \u2014
p6668
aV \u2014
p6669
aV Jaison
p6670
ag126
ag126
ag126
ag126
ag126
ag126
ag126
aV Erik
p6671
aV Erik
p6672
aV Erik
p6673
aV Erik
p6674
aV Erik
p6675
aV Jaison
p6676
aV Erik
p6677
aV Erik
p6678
aV Erik
p6679
aV Erik
p6680
aV Erik
p6681
aV Jaison
p6682
ag126
ag126
ag126
ag126
ag126
ag126
ag126
ag126
aV Kelly
p6683
aV Kelly
p6684
aV Kelly
p6685
aV Russell H.
p6686
aV Kelly
p6687
aV Russell H.
p6688
aV Russell H.
p6689
aV Russell H.
p6690
aV Russell H.
p6691
aV Russell H.
p6692
aV Russell H.
p6693
ag126
ag126
ag126
ag126
ag126
ag126
ag126
ag126
ag126
aV Laura
p6694
aV Laura
p6695
aV Laura
p6696
aV Natalie
p6697
aV Laura
p6698
aV Laura
p6699
aV Natalie
p6700
aV Natalie
p6701
aV Natalie
p6702
aV Natalie
p6703
ag126
ag126
ag126
ag126
ag126
ag126
ag126
ag126
ag126
ag126
aVNone
p6704
aV Laura
p6705
aV Laura
p6706
aV Natalie
p6707
aV Laura
p6708
aV Laura
p6709
aV Natalie
p6710
aV Natalie
p6711
aV Laura
p6712
aVNone
p6713
ag126
ag126
ag126
ag126
ag126
ag126
ag126
ag126
ag126
ag126
aV John
p6714
aV John
p6715
aV John
p6716
aV John
p6717
aV John
p6718
aV Dave
p6719
aV John
p6720
aV John
p6721
aV Mick
p6722
ag126
ag126
ag126
ag126
ag126
ag126
ag126
ag126
ag126
ag126
ag126
aV Dave
p6723
aV Dave
p6724
aV Dave
p6725
aV Dave
p6726
aV Dave
p6727
aV Dave
p6728
aV Dave
p6729
aV Shambo
p6730
ag126
ag126
ag126
ag126
ag126
ag126
ag126
ag126
ag126
ag126
ag126
ag126
aV Monica
p6731
aV Monica
p6732
aV Monica
p6733
aV Russell H.
p6734
aV Monica
p6735
aV Monica
p6736
aV Russell H.
p6737
ag126
ag126
ag126
ag126
ag126
ag126
ag126
ag126
ag126
ag126
ag126
ag126
ag126
aV Shambo
p6738
aV Shambo
p6739
aV Shambo
p6740
aV Shambo
p6741
aV Shambo
p6742
aV Mick
p6743
ag126
ag126
ag126
ag126
ag126
ag126
ag126
ag126
ag126
ag126
ag126
ag126
ag126
ag126
aV Jaison
p6744
aV Jaison
p6745
aV Jaison
p6746
aV Jaison
p6747
aV Mick
p6748
ag126
ag126
ag126
ag126
ag126
ag126
ag126
ag126
ag126
ag126
ag126
ag126
ag126
ag126
ag126
aV Brett
p6749
aV Brett
p6750
aV Brett
p6751
aV Mick
p6752
ag126
ag126
ag126
ag126
ag126
ag126
ag126
ag126
ag126
ag126
ag126
ag126
ag126
ag126
ag126
ag126
aNaNaNag126
ag126
ag126
ag126
ag126
ag126
ag126
ag126
ag126
ag126
ag126
ag126
ag126
ag126
ag126
ag126
ag126
aNaNaNag126
ag126
aV Russell H.
p6753
ag126
ag126
aV Russell H.
p6754
ag126
ag126
ag126
ag126
ag126
ag126
ag126
ag126
ag126
ag126
ag126
aNaNaNaV Natalie
p6755
aV Natalie
p6756
ag126
aV Natalie
p6757
aV Natalie
p6758
ag126
aV Natalie
p6759
aV Natalie
p6760
aV Natalie
p6761
ag126
ag126
ag126
ag126
ag126
ag126
ag126
ag126
atp6762
ba(lp6763
g21
(g22
(dp6764
g24
g25
(g26
(I0
tp6765
g28
tp6766
Rp6767
(I1
(L21L
tp6768
g35
I00
(lp6769
g6478
ag6479
ag6480
ag6481
ag6482
ag6483
ag6484
ag6485
ag6486
ag6487
ag6488
ag6488
ag6489
ag6490
ag6491
ag6492
ag6493
ag6494
ag6495
ag6496
ag6497
atp6770
bsg60
Nstp6771
Rp6772
a(dp6773
g335
(dp6774
g337
g6471
sg338
(lp6775
(dp6776
g341
g342
(I0
I21
I1
tp6777
Rp6778
sg345
g6536
sasstp6779
bsbssVAll-Stars
p6780
(dp6781
g3
Vhttp://survivor.wikia.com/wiki/Survivor:_All-Stars
p6782
sg5
g6
(g7
g8
Ntp6783
Rp6784
(dp6785
g12
g13
sg14
g15
sg16
g6
(g17
g8
Ntp6786
Rp6787
((lp6788
g21
(g22
(dp6789
g24
g25
(g26
(I0
tp6790
g28
tp6791
Rp6792
(I1
(L18L
tp6793
g35
I00
(lp6794
V Tina
p6795
aV Rudy
p6796
aV Jenna M.
p6797
aV Rob C.
p6798
aV Richard
p6799
aV Susan
p6800
aV Colby
p6801
aV Ethan
p6802
aV Jerri
p6803
aV Lex
p6804
aV Kathy
p6805
aV Alicia
p6806
aV Shii Ann
p6807
aV Tom
p6808
aV Rupert
p6809
aV Jenna L.
p6810
aV Rob M.
p6811
aV Amber
p6812
atp6813
bsg60
Nstp6814
Rp6815
ag21
(g22
(dp6816
g24
g25
(g26
(I0
tp6817
g28
tp6818
Rp6819
(I1
(L18L
tp6820
g35
I00
(lp6821
VAmber
p6822
aVRob M.
p6823
aVJenna L.
p6824
aVRupert
p6825
aVTom
p6826
aVShii Ann
p6827
aVAlicia
p6828
aVKathy
p6829
aVLex
p6830
aVJerri
p6831
aVEthan
p6832
aVColby
p6833
aVSusan
p6834
aVRichard
p6835
aVRob C.
p6836
aVJenna M.
p6837
aVRudy
p6838
aVTina
p6839
atp6840
bsg60
g90
(g93
S'\x01\x00\x00\x00\x00\x00\x00\x00'
p6841
tp6842
Rp6843
stp6844
Rp6845
a(lp6846
g25
(g26
(I0
tp6847
g28
tp6848
Rp6849
(I1
(L18L
L18L
tp6850
g35
I00
(lp6851
V\u2014
p6852
aV \u2014
p6853
aV Tina
p6854
aV Tina
p6855
aV \u2014
p6856
aV \u2014
p6857
aV \u2014
p6858
aV \u2014
p6859
aV \u2014
p6860
aV Tina
p6861
aV Jenna L.
p6862
aV \u2014
p6863
aV \u2014
p6864
aV \u2014
p6865
aV \u2014
p6866
aV \u2014
p6867
aV Tina
p6868
aV Jenna L.
p6869
aV\u2014
p6870
aV \u2014
p6871
aV Rudy
p6872
aV Ethan
p6873
aV \u2014
p6874
aV \u2014
p6875
aV \u2014
p6876
aV \u2014
p6877
aV \u2014
p6878
aV Rudy
p6879
aV Rudy
p6880
aV \u2014
p6881
aV \u2014
p6882
aV \u2014
p6883
aV \u2014
p6884
aV \u2014
p6885
aV Ethan
p6886
ag126
aV\u2014
p6887
aV \u2014
p6888
aV \u2014
p6889
aV \u2014
p6890
aV \u2014
p6891
aV \u2014
p6892
aV \u2014
p6893
aV \u2014
p6894
aV \u2014
p6895
aV \u2014
p6896
aV \u2014
p6897
aV \u2014
p6898
aV \u2014
p6899
aV \u2014
p6900
aV \u2014
p6901
aVQuit
p6902
ag126
ag126
aV Rob C.
p6903
aV Rob C.
p6904
aV \u2014
p6905
aV \u2014
p6906
aV Rob C.
p6907
aV \u2014
p6908
aV Rob C.
p6909
aV \u2014
p6910
aV \u2014
p6911
aV \u2014
p6912
aV \u2014
p6913
aV \u2014
p6914
aV Rob C.
p6915
aV \u2014
p6916
aV Alicia
p6917
ag126
ag126
ag126
aV \u2014
p6918
aV \u2014
p6919
aV \u2014
p6920
aV \u2014
p6921
aV \u2014
p6922
aV Richard
p6923
aV \u2014
p6924
aV Richard
p6925
aV Richard
p6926
aV Richard
p6927
aV Richard
p6928
aV Richard
p6929
aV \u2014
p6930
aV Colby
p6931
ag126
ag126
ag126
ag126
aV \u2014
p6932
aV \u2014
p6933
aV \u2014
p6934
aV \u2014
p6935
aV \u2014
p6936
aV \u2014
p6937
aV \u2014
p6938
aV \u2014
p6939
aV \u2014
p6940
aV \u2014
p6941
aV \u2014
p6942
aV \u2014
p6943
aVQuit
p6944
ag126
ag126
ag126
ag126
ag126
aV \u2014
p6945
aV \u2014
p6946
aV \u2014
p6947
aV \u2014
p6948
aV \u2014
p6949
aV Colby
p6950
aV \u2014
p6951
aVKidnapped
p6952
aV Colby
p6953
aV Colby
p6954
aV Jerri
p6955
aV Jerri
p6956
ag126
ag126
ag126
ag126
ag126
ag126
aV \u2014
p6957
aV \u2014
p6958
aV \u2014
p6959
aV \u2014
p6960
aV \u2014
p6961
aV Ethan
p6962
aV \u2014
p6963
aV Ethan
p6964
aV Ethan
p6965
aV Ethan
p6966
aV Jerri
p6967
ag126
ag126
ag126
ag126
ag126
ag126
ag126
aV Jerri
p6968
aV \u2014
p6969
aV \u2014
p6970
aV \u2014
p6971
aV \u2014
p6972
aV Jerri
p6973
aV \u2014
p6974
aV Jerri
p6975
aV Jerri
p6976
aV Amber
p6977
ag126
ag126
ag126
ag126
ag126
ag126
ag126
ag126
aV Lex
p6978
aV Lex
p6979
aV Lex
p6980
aV Lex
p6981
aV Lex
p6982
aV Lex
p6983
aV Lex
p6984
aV Amber
p6985
aV Amber
p6986
ag126
ag126
ag126
ag126
ag126
ag126
ag126
ag126
ag126
aV Kathy
p6987
aV Kathy
p6988
aV Kathy
p6989
aV Kathy
p6990
aV Kathy
p6991
aV Amber
p6992
aV Kathy
p6993
aV Amber
p6994
ag126
ag126
ag126
ag126
ag126
ag126
ag126
ag126
ag126
ag126
aV Alicia
p6995
aV Alicia
p6996
aV Alicia
p6997
aV Alicia
p6998
aV Alicia
p6999
aV Alicia
p7000
aV Rupert
p7001
ag126
ag126
ag126
ag126
ag126
ag126
ag126
ag126
ag126
ag126
ag126
aV Shii Ann
p7002
aV Shii Ann
p7003
aV Shii Ann
p7004
aV Shii Ann
p7005
aV Shii Ann
p7006
aV Amber
p7007
ag126
ag126
ag126
ag126
ag126
ag126
ag126
ag126
ag126
ag126
ag126
ag126
aV Tom
p7008
aV Tom
p7009
aV Tom
p7010
aV Tom
p7011
aV Jenna L.
p7012
ag126
ag126
ag126
ag126
ag126
ag126
ag126
ag126
ag126
ag126
ag126
ag126
ag126
aV Rupert
p7013
aV Rupert
p7014
aV Rupert
p7015
aV Rob M.
p7016
ag126
ag126
ag126
ag126
ag126
ag126
ag126
ag126
ag126
ag126
ag126
ag126
ag126
ag126
aV \u2014
p7017
aV Jenna L.
p7018
aV \u2014
p7019
ag126
ag126
ag126
ag126
ag126
ag126
ag126
ag126
ag126
ag126
ag126
ag126
ag126
ag126
ag126
aNaNaV Rob M.
p7020
aV Rob M.
p7021
ag126
ag126
ag126
aV Rob M.
p7022
ag126
ag126
ag126
ag126
ag126
ag126
ag126
ag126
ag126
ag126
aNaNag126
ag126
aV Amber
p7023
aV Amber
p7024
aV Amber
p7025
ag126
aV Amber
p7026
ag126
ag126
ag126
ag126
ag126
ag126
ag126
ag126
ag126
atp7027
ba(lp7028
g21
(g22
(dp7029
g24
g25
(g26
(I0
tp7030
g28
tp7031
Rp7032
(I1
(L18L
tp7033
g35
I00
(lp7034
g6795
ag6796
ag6797
ag6798
ag6799
ag6800
ag6801
ag6802
ag6803
ag6804
ag6805
ag6806
ag6807
ag6808
ag6809
ag6810
ag6811
ag6812
atp7035
bsg60
Nstp7036
Rp7037
a(dp7038
g335
(dp7039
g337
g6788
sg338
(lp7040
(dp7041
g341
g342
(I0
I18
I1
tp7042
Rp7043
sg345
g6849
sasstp7044
bsbssVFiji
p7045
(dp7046
g3
Vhttp://survivor.wikia.com/wiki/Survivor:_Fiji
p7047
sg5
g6
(g7
g8
Ntp7048
Rp7049
(dp7050
g12
g13
sg14
g15
sg16
g6
(g17
g8
Ntp7051
Rp7052
((lp7053
g21
(g22
(dp7054
g24
g25
(g26
(I0
tp7055
g28
tp7056
Rp7057
(I1
(L19L
tp7058
g35
I00
(lp7059
V Jessica
p7060
aV Erica
p7061
aV Sylvia
p7062
aV Gary
p7063
aV Liliana
p7064
aV Rita
p7065
aV Anthony
p7066
aV Rocky
p7067
aV Lisi
p7068
aV Michelle
p7069
aV Edgardo
p7070
aV Mookie
p7071
aV Alex
p7072
aV Stacy
p7073
aV Boo
p7074
aV Yau-Man
p7075
aV Dreamz
p7076
aV Cassandra
p7077
aV Earl
p7078
atp7079
bsg60
Nstp7080
Rp7081
ag21
(g22
(dp7082
g24
g25
(g26
(I0
tp7083
g28
tp7084
Rp7085
(I1
(L19L
tp7086
g35
I00
(lp7087
VEarl
p7088
aVCassandra
p7089
aVDreamz
p7090
aVYau-Man
p7091
aVBoo
p7092
aVStacy
p7093
aVAlex
p7094
aVMookie
p7095
aVEdgardo
p7096
aVMichelle
p7097
aVLisi
p7098
aVRocky
p7099
aVAnthony
p7100
aVRita
p7101
aVLiliana
p7102
aVGary
p7103
aVSylvia
p7104
aVErica
p7105
aVJessica
p7106
atp7107
bsg60
g90
(g93
S'\x01\x00\x00\x00\x00\x00\x00\x00'
p7108
tp7109
Rp7110
stp7111
Rp7112
a(lp7113
g25
(g26
(I0
tp7114
g28
tp7115
Rp7116
(I1
(L19L
L19L
tp7117
g35
I00
(lp7118
V Jessica
p7119
aV \u2014
p7120
aV \u2014
p7121
aV Jessica
p7122
aV \u2014
p7123
aV \u2014
p7124
aV \u2014
p7125
aV Jessica
p7126
aV \u2014
p7127
aV Jessica
p7128
aV \u2014
p7129
aV Mookie
p7130
aV Jessica
p7131
aV Jessica
p7132
aV \u2014
p7133
aV \u2014
p7134
aVExiled
p7135
aV Yau-Man
p7136
aV Rita
p7137
aVExiled
p7138
aV \u2014
p7139
aV \u2014
p7140
aV Erica
p7141
aV \u2014
p7142
aV \u2014
p7143
aV \u2014
p7144
aV Erica
p7145
aV \u2014
p7146
aV Erica
p7147
aV \u2014
p7148
aV Erica
p7149
aV Sylvia
p7150
aV Erica
p7151
aV \u2014
p7152
aV \u2014
p7153
aV Erica
p7154
aV Sylvia
p7155
ag126
aV Sylvia
p7156
aV \u2014
p7157
aV \u2014
p7158
aV Sylvia
p7159
aV \u2014
p7160
aV \u2014
p7161
aV \u2014
p7162
aV Anthony
p7163
aV \u2014
p7164
aV Sylvia
p7165
aV \u2014
p7166
aV Anthony
p7167
aV Sylvia
p7168
aV Earl
p7169
aV \u2014
p7170
aV \u2014
p7171
aV Anthony
p7172
ag126
ag126
aV \u2014
p7173
aV \u2014
p7174
aV \u2014
p7175
aV \u2014
p7176
aV \u2014
p7177
aV \u2014
p7178
aV \u2014
p7179
aV \u2014
p7180
aV \u2014
p7181
aV \u2014
p7182
aV \u2014
p7183
aV \u2014
p7184
aV \u2014
p7185
aV \u2014
p7186
aV \u2014
p7187
aVQuit
p7188
ag126
ag126
ag126
aV \u2014
p7189
aV Lisi
p7190
aV Liliana
p7191
aV \u2014
p7192
aV Liliana
p7193
aV Liliana
p7194
aV Liliana
p7195
aV \u2014
p7196
aV Liliana
p7197
aV \u2014
p7198
aV Liliana
p7199
aV \u2014
p7200
aV \u2014
p7201
aV \u2014
p7202
aV Cassandra
p7203
ag126
ag126
ag126
ag126
aV Rita
p7204
aV \u2014
p7205
aV \u2014
p7206
aV Rita
p7207
aV \u2014
p7208
aV \u2014
p7209
aV \u2014
p7210
aV Rita
p7211
aV \u2014
p7212
aV Anthony
p7213
aV \u2014
p7214
aV Rita
p7215
aV Rita
p7216
aV Anthony
p7217
ag126
ag126
ag126
ag126
ag126
aV \u2014
p7218
aV \u2014
p7219
aV Anthony
p7220
aV \u2014
p7221
aV \u2014
p7222
aV \u2014
p7223
aV Anthony
p7224
aV Anthony
p7225
aV Anthony
p7226
aV \u2014
p7227
aVExiled
p7228
aV Anthony
p7229
aV Rocky
p7230
ag126
ag126
ag126
ag126
ag126
ag126
aV \u2014
p7231
aV \u2014
p7232
aV Rocky
p7233
aV \u2014
p7234
aV \u2014
p7235
aV \u2014
p7236
aV Rocky
p7237
aV Lisi
p7238
aV Rocky
p7239
aV \u2014
p7240
aV Rocky
p7241
aV Lisi
p7242
ag126
ag126
ag126
ag126
ag126
ag126
ag126
aV \u2014
p7243
aV \u2014
p7244
aV Lisi
p7245
aV \u2014
p7246
aV \u2014
p7247
aV \u2014
p7248
aV Lisi
p7249
aV Lisi
p7250
aV Lisi
p7251
aV \u2014
p7252
aV Dreamz
p7253
ag126
ag126
ag126
ag126
ag126
ag126
ag126
ag126
aV \u2014
p7254
aV \u2014
p7255
aV Michelle
p7256
aV \u2014
p7257
aV \u2014
p7258
aV Michelle
p7259
aV Michelle
p7260
aV Stacy
p7261
aV \u2014
p7262
aV Stacy
p7263
ag126
ag126
ag126
ag126
ag126
ag126
ag126
ag126
ag126
aV Edgardo
p7264
aV Edgardo
p7265
aV Mookie
p7266
aV Edgardo
p7267
aV Edgardo
p7268
aV Edgardo
p7269
aV Cassandra
p7270
aV Cassandra
p7271
aV Cassandra
p7272
ag126
ag126
ag126
ag126
ag126
ag126
ag126
ag126
ag126
ag126
aV Alex
p7273
aV Mookie
p7274
aV Mookie
p7275
aV Alex
p7276
aV Alex
p7277
aV Mookie
p7278
aV Mookie
p7279
aV Boo
p7280
ag126
ag126
ag126
ag126
ag126
ag126
ag126
ag126
ag126
ag126
ag126
aV Alex
p7281
aV Alex
p7282
aV Alex
p7283
aV Alex
p7284
aV Alex
p7285
aV Alex
p7286
aV Yau-Man
p7287
ag126
ag126
ag126
ag126
ag126
ag126
ag126
ag126
ag126
ag126
ag126
ag126
aV Stacy
p7288
aV Yau-Man
p7289
aV Yau-Man
p7290
aV Stacy
p7291
aV Yau-Man
p7292
aV Yau-Man
p7293
ag126
ag126
ag126
ag126
ag126
ag126
ag126
ag126
ag126
ag126
ag126
ag126
ag126
aV Boo
p7294
aV Boo
p7295
aV Boo
p7296
aV Boo
p7297
aV Dreamz
p7298
ag126
ag126
ag126
ag126
ag126
ag126
ag126
ag126
ag126
ag126
ag126
ag126
ag126
ag126
aV Yau-Man
p7299
aV Yau-Man
p7300
aV Yau-Man
p7301
aV Cassandra
p7302
ag126
ag126
ag126
ag126
ag126
ag126
ag126
ag126
ag126
ag126
ag126
ag126
ag126
ag126
ag126
aNaNaNag126
ag126
ag126
ag126
ag126
ag126
ag126
ag126
ag126
ag126
ag126
ag126
ag126
ag126
ag126
ag126
aNaNaNag126
ag126
ag126
ag126
ag126
ag126
ag126
ag126
ag126
ag126
ag126
ag126
ag126
ag126
ag126
ag126
aNaNaNaV Earl
p7303
aV Earl
p7304
aV Earl
p7305
aV Earl
p7306
aV Earl
p7307
aV Earl
p7308
aV Earl
p7309
aV Earl
p7310
aV Earl
p7311
ag126
ag126
ag126
ag126
ag126
ag126
ag126
atp7312
ba(lp7313
g21
(g22
(dp7314
g24
g25
(g26
(I0
tp7315
g28
tp7316
Rp7317
(I1
(L19L
tp7318
g35
I00
(lp7319
g7060
ag7061
ag7062
ag7063
ag7064
ag7065
ag7066
ag7067
ag7068
ag7069
ag7070
ag7071
ag7072
ag7073
ag7074
ag7075
ag7076
ag7077
ag7078
atp7320
bsg60
Nstp7321
Rp7322
a(dp7323
g335
(dp7324
g337
g7053
sg338
(lp7325
(dp7326
g341
g342
(I0
I19
I1
tp7327
Rp7328
sg345
g7116
sasstp7329
bsbssVAfrica
p7330
(dp7331
g3
Vhttp://survivor.wikia.com/wiki/Survivor:_Africa
p7332
sg5
g6
(g7
g8
Ntp7333
Rp7334
(dp7335
g12
g13
sg14
g15
sg16
g6
(g17
g8
Ntp7336
Rp7337
((lp7338
g21
(g22
(dp7339
g24
g25
(g26
(I0
tp7340
g28
tp7341
Rp7342
(I1
(L18L
tp7343
g35
I00
(lp7344
V Diane
p7345
aV Jessie
p7346
aV Carl
p7347
ag7347
aV Linda
p7348
aV Silas
p7349
aV Lindsey
p7350
ag7350
aV Clarence
p7351
aV Kelly
p7352
aV Brandon
p7353
aV Frank
p7354
aV Kim P.
p7355
aV Teresa
p7356
aV Tom
p7357
aV Lex
p7358
aV Kim J.
p7359
aV Ethan
p7360
atp7361
bsg60
Nstp7362
Rp7363
ag21
(g22
(dp7364
g24
g25
(g26
(I0
tp7365
g28
tp7366
Rp7367
(I1
(L16L
tp7368
g35
I00
(lp7369
VEthan
p7370
aVKim J.
p7371
aVLex
p7372
aVTom
p7373
aVTeresa
p7374
aVKim P.
p7375
aVFrank
p7376
aVBrandon
p7377
aVKelly
p7378
aVClarence
p7379
aVLindsey
p7380
aVSilas
p7381
aVLinda
p7382
aVCarl
p7383
aVJessie
p7384
aVDiane
p7385
atp7386
bsg60
g90
(g93
S'\x01\x00\x00\x00\x00\x00\x00\x00'
p7387
tp7388
Rp7389
stp7390
Rp7391
a(lp7392
g25
(g26
(I0
tp7393
g28
tp7394
Rp7395
(I1
(L18L
L16L
tp7396
g35
I00
(lp7397
V Diane
p7398
aV Diane
p7399
aV Diane
p7400
aV Clarence
p7401
aV \u2014
p7402
aV \u2014
p7403
aV \u2014
p7404
aV \u2014
p7405
aV Diane
p7406
aV Diane
p7407
aV \u2014
p7408
aV \u2014
p7409
aV \u2014
p7410
aV \u2014
p7411
aV Diane
p7412
aV Clarence
p7413
aV Jessie
p7414
aV Jessie
p7415
aV Jessie
p7416
aV Clarence
p7417
aV \u2014
p7418
aV \u2014
p7419
aV \u2014
p7420
aV \u2014
p7421
aV Jessie
p7422
aV Jessie
p7423
aV \u2014
p7424
aV \u2014
p7425
aV \u2014
p7426
aV \u2014
p7427
aV Clarence
p7428
ag126
aV \u2014
p7429
aV \u2014
p7430
aV \u2014
p7431
aV \u2014
p7432
aV Lindsey
p7433
aV Carl
p7434
aV Lindsey
p7435
aV Carl
p7436
aV \u2014
p7437
aV \u2014
p7438
aV Carl
p7439
aV Carl
p7440
aV Lindsey
p7441
aV Lindsey
p7442
ag126
ag126
ag7429
ag7430
ag7431
ag7432
aV Lindsey
p7443
aV Carl
p7444
aV Lindsey
p7445
aV Carl
p7446
ag7437
ag7438
aVNone
p7447
aV Carl
p7448
aV Lindsey
p7449
aVNone
p7450
ag126
ag126
aV \u2014
p7451
aV \u2014
p7452
aV \u2014
p7453
aV \u2014
p7454
aV Silas
p7455
aV Linda
p7456
aV Silas
p7457
aV Linda
p7458
aV \u2014
p7459
aV \u2014
p7460
aV Linda
p7461
aV Linda
p7462
aV Silas
p7463
ag126
ag126
ag126
aV Silas
p7464
aV Silas
p7465
aV \u2014
p7466
aV \u2014
p7467
aV Silas
p7468
aV \u2014
p7469
aV Silas
p7470
aV \u2014
p7471
aV \u2014
p7472
aV Silas
p7473
aV \u2014
p7474
aV Frank
p7475
ag126
ag126
ag126
ag126
aV \u2014
p7476
aV \u2014
p7477
aV Lindsey
p7478
aV Lindsey
p7479
aV \u2014
p7480
aV Tom
p7481
aV \u2014
p7482
aV Tom
p7483
aV Lindsey
p7484
aV \u2014
p7485
aV Tom
p7486
ag126
ag126
ag126
ag126
ag126
ag7476
ag7477
aV Lindsey
p7487
aVNone
p7488
ag7480
aV Tom
p7489
ag7482
aV Tom
p7490
aV Lindsey
p7491
ag7485
aVNone
p7492
ag126
ag126
ag126
ag126
ag126
aV Clarence
p7493
aV Clarence
p7494
aV Clarence
p7495
aV Clarence
p7496
aV Lex
p7497
aV Clarence
p7498
aV Clarence
p7499
aV Clarence
p7500
aV Clarence
p7501
aV Lex
p7502
ag126
ag126
ag126
ag126
ag126
ag126
aV Kelly
p7503
aV Kelly
p7504
aV Kelly
p7505
aV Kelly
p7506
aV Lex
p7507
aV Lex
p7508
aV Lex
p7509
aV Kelly
p7510
aV Lex
p7511
ag126
ag126
ag126
ag126
ag126
ag126
ag126
aV Brandon
p7512
aV Brandon
p7513
aV Frank
p7514
aV Brandon
p7515
aV Brandon
p7516
aV Brandon
p7517
aV Brandon
p7518
aV Frank
p7519
ag126
ag126
ag126
ag126
ag126
ag126
ag126
ag126
aV Frank
p7520
aV Frank
p7521
aV Frank
p7522
aV Frank
p7523
aV Frank
p7524
aV Frank
p7525
aV Kim J.
p7526
ag126
ag126
ag126
ag126
ag126
ag126
ag126
ag126
ag126
aV Kim P.
p7527
aV Kim P.
p7528
aV Kim P.
p7529
aV Kim P.
p7530
aV Lex
p7531
aV Lex
p7532
ag126
ag126
ag126
ag126
ag126
ag126
ag126
ag126
ag126
ag126
aV Teresa
p7533
aV Teresa
p7534
aV Teresa
p7535
aV Teresa
p7536
aV Tom
p7537
ag126
ag126
ag126
ag126
ag126
ag126
ag126
ag126
ag126
ag126
ag126
aV Tom
p7538
aV Tom
p7539
aV Tom
p7540
aV Lex
p7541
ag126
ag126
ag126
ag126
ag126
ag126
ag126
ag126
ag126
ag126
ag126
ag126
aV \u2014
p7542
aV Lex
p7543
aV \u2014
p7544
ag126
ag126
ag126
ag126
ag126
ag126
ag126
ag126
ag126
ag126
ag126
ag126
ag126
aV Jury Vote
p7545
aNag126
ag126
ag126
aV Kim J.
p7546
ag126
aV Kim J.
p7547
ag126
ag126
ag126
ag126
ag126
ag126
ag126
ag126
ag7545
aNaV Ethan
p7548
aV Ethan
p7549
aV Ethan
p7550
ag126
aV Ethan
p7551
ag126
aV Ethan
p7552
ag126
ag126
ag126
ag126
ag126
ag126
ag126
atp7553
ba(lp7554
g21
(g22
(dp7555
g24
g25
(g26
(I0
tp7556
g28
tp7557
Rp7558
(I1
(L18L
tp7559
g35
I00
(lp7560
g7345
ag7346
ag7347
ag7347
ag7348
ag7349
ag7350
ag7350
ag7351
ag7352
ag7353
ag7354
ag7355
ag7356
ag7357
ag7358
ag7359
ag7360
atp7561
bsg60
Nstp7562
Rp7563
a(dp7564
g335
(dp7565
g337
g7338
sg338
(lp7566
(dp7567
g341
g342
(I0
I18
I1
tp7568
Rp7569
sg345
g7395
sasstp7570
bsbssVSan_Juan_del_Sur
p7571
(dp7572
g3
Vhttp://survivor.wikia.com/wiki/Survivor:_San_Juan_del_Sur
p7573
sg5
g6
(g7
g8
Ntp7574
Rp7575
(dp7576
g12
g13
sg14
g15
sg16
g6
(g17
g8
Ntp7577
Rp7578
((lp7579
g21
(g22
(dp7580
g24
g25
(g26
(I0
tp7581
g28
tp7582
Rp7583
(I1
(L20L
tp7584
g35
I00
(lp7585
V Nadiya
p7586
aV Val
p7587
ag7587
aV John
p7588
aV Drew
p7589
aV Kelley
p7590
aV Dale
p7591
aV Julie
p7592
aV Josh
p7593
aV Jeremy
p7594
aV Wes
p7595
aV Reed
p7596
aV Alec
p7597
aV Jon
p7598
ag7598
aV Baylor
p7599
aV Keith
p7600
aV Missy
p7601
aV Jaclyn
p7602
aV Natalie
p7603
atp7604
bsg60
Nstp7605
Rp7606
ag21
(g22
(dp7607
g24
g25
(g26
(I0
tp7608
g28
tp7609
Rp7610
(I1
(L18L
tp7611
g35
I00
(lp7612
VNatalie
p7613
aVJaclyn
p7614
aVMissy
p7615
aVKeith
p7616
aVBaylor
p7617
aVJon
p7618
aVAlec
p7619
aVReed
p7620
aVWes
p7621
aVJeremy
p7622
aVJosh
p7623
aVJulie
p7624
aVDale
p7625
aVKelley
p7626
aVDrew
p7627
aVJohn
p7628
aVVal
p7629
aVNadiya
p7630
atp7631
bsg60
g90
(g93
S'\x01\x00\x00\x00\x00\x00\x00\x00'
p7632
tp7633
Rp7634
stp7635
Rp7636
a(lp7637
g25
(g26
(I0
tp7638
g28
tp7639
Rp7640
(I1
(L20L
L18L
tp7641
g35
I00
(lp7642
V \u2014
p7643
aV Dale
p7644
aV \u2014
p7645
aV \u2014
p7646
aV Nadiya
p7647
aV \u2014
p7648
aV Nadiya
p7649
aV \u2014
p7650
aV Nadiya
p7651
aV \u2014
p7652
aV Baylor
p7653
aV \u2014
p7654
aV Nadiya
p7655
aV \u2014
p7656
aV \u2014
p7657
aV Nadiya
p7658
aV Dale
p7659
aV Dale
p7660
aV \u2014
p7661
aV Baylor
p7662
aV \u2014
p7663
aV \u2014
p7664
aV Val
p7665
aV \u2014
p7666
aV Baylor
p7667
aV \u2014
p7668
aV Val
p7669
aV \u2014
p7670
aV Val
p7671
aV \u2014
p7672
aV Val
p7673
aV \u2014
p7674
aV \u2014
p7675
aV Baylor
p7676
aV Baylor
p7677
ag126
ag7661
aV Baylor
p7678
ag7663
ag7664
aV None
p7679
ag7666
aV Val
p7680
ag7668
aV Val
p7681
ag7670
aV Val
p7682
ag7672
aV Val
p7683
ag7674
ag7675
aV Val
p7684
aV None
p7685
ag126
aV \u2014
p7686
aV John
p7687
aV \u2014
p7688
aV \u2014
p7689
aV John
p7690
aV \u2014
p7691
aV John
p7692
aV \u2014
p7693
aV John
p7694
aV \u2014
p7695
aV John
p7696
aV \u2014
p7697
aV Baylor
p7698
aV \u2014
p7699
aV \u2014
p7700
aV Baylor
p7701
ag126
ag126
aV Drew
p7702
aV \u2014
p7703
aV Drew
p7704
aV Julie
p7705
aV \u2014
p7706
aV Keith
p7707
aV \u2014
p7708
aV Julie
p7709
aV \u2014
p7710
aV Drew
p7711
aV \u2014
p7712
aV Drew
p7713
aV \u2014
p7714
aV Drew
p7715
aV Kelley
p7716
ag126
ag126
ag126
aV \u2014
p7717
aV Kelley
p7718
aV Kelley
p7719
aV Dale
p7720
aV Kelley
p7721
aV Dale
p7722
aV \u2014
p7723
aV \u2014
p7724
aV \u2014
p7725
aV \u2014
p7726
aV \u2014
p7727
aV \u2014
p7728
aV Baylor
p7729
aV Baylor
p7730
ag126
ag126
ag126
ag126
aV \u2014
p7731
aV Dale
p7732
aV Keith
p7733
aV Dale
p7734
aV Keith
p7735
aV Dale
p7736
aV \u2014
p7737
aV \u2014
p7738
aV \u2014
p7739
aV \u2014
p7740
aV \u2014
p7741
aV \u2014
p7742
aV Missy
p7743
ag126
ag126
ag126
ag126
ag126
aV \u2014
p7744
aV \u2014
p7745
aV \u2014
p7746
aV \u2014
p7747
aV \u2014
p7748
aV \u2014
p7749
aV \u2014
p7750
aV \u2014
p7751
aV \u2014
p7752
aV \u2014
p7753
aV \u2014
p7754
aV Quit
p7755
ag126
ag126
ag126
ag126
ag126
ag126
aV Josh
p7756
aV Josh
p7757
aV Josh
p7758
aV Baylor
p7759
aV Josh
p7760
aV Josh
p7761
aV Baylor
p7762
aV Baylor
p7763
aV Baylor
p7764
aV Josh
p7765
aV Baylor
p7766
ag126
ag126
ag126
ag126
ag126
ag126
ag126
aV Keith
p7767
aV Jeremy
p7768
aV Jeremy
p7769
aV Reed
p7770
aV Jeremy
p7771
aV Jeremy
p7772
aV Reed
p7773
aV Jeremy
p7774
aV Reed
p7775
aV Keith
p7776
ag126
ag126
ag126
ag126
ag126
ag126
ag126
ag126
aV Keith
p7777
aV Wes
p7778
aV Keith
p7779
aV Jon
p7780
aV Keith
p7781
aV Wes
p7782
aV Jon
p7783
aV Jon
p7784
aV Jon
p7785
ag126
ag126
ag126
ag126
ag126
ag126
ag126
ag126
ag126
aV Reed
p7786
aV Reed
p7787
aV Reed
p7788
aV Reed
p7789
aV Reed
p7790
aV Reed
p7791
aV Reed
p7792
aV Missy
p7793
ag126
ag126
ag126
ag126
ag126
ag126
ag126
ag126
ag126
ag126
aV Alec
p7794
aV Keith
p7795
aV Alec
p7796
aV Alec
p7797
aV Alec
p7798
aV Keith
p7799
aV Keith
p7800
ag126
ag126
ag126
ag126
ag126
ag126
ag126
ag126
ag126
ag126
ag126
aV Jon
p7801
aV Keith
p7802
aV Jaclyn
p7803
aV Jon
p7804
aV Jaclyn
p7805
aV Keith
p7806
ag126
ag126
ag126
ag126
ag126
ag126
ag126
ag126
ag126
ag126
ag126
ag126
aV Jon
p7807
aV None
p7808
aV Jaclyn
p7809
aV None
p7810
aV Jon
p7811
aV None
p7812
ag126
ag126
ag126
ag126
ag126
ag126
ag126
ag126
ag126
ag126
ag126
ag126
aV Baylor
p7813
aV Baylor
p7814
aV Jaclyn
p7815
aV Jaclyn
p7816
aV Jaclyn
p7817
ag126
ag126
ag126
ag126
ag126
ag126
ag126
ag126
ag126
ag126
ag126
ag126
ag126
aV Keith
p7818
aV Keith
p7819
aV Keith
p7820
aV Missy
p7821
ag126
ag126
ag126
ag126
ag126
ag126
ag126
ag126
ag126
ag126
ag126
ag126
ag126
ag126
aVJury Vote
p7822
aNaNag126
aV Missy
p7823
ag126
ag126
ag126
ag126
ag126
ag126
ag126
ag126
ag126
ag126
ag126
ag126
ag126
ag7822
aNaNag126
ag126
aV Jaclyn
p7824
ag126
aV Jaclyn
p7825
ag126
ag126
ag126
ag126
ag126
ag126
ag126
ag126
ag126
ag126
ag7822
aNaNaV Natalie
p7826
ag126
ag126
aV Natalie
p7827
ag126
aV Natalie
p7828
aV Natalie
p7829
aV Natalie
p7830
ag126
ag126
ag126
ag126
ag126
ag126
ag126
atp7831
ba(lp7832
g21
(g22
(dp7833
g24
g25
(g26
(I0
tp7834
g28
tp7835
Rp7836
(I1
(L20L
tp7837
g35
I00
(lp7838
g7586
ag7587
ag7587
ag7588
ag7589
ag7590
ag7591
ag7592
ag7593
ag7594
ag7595
ag7596
ag7597
ag7598
ag7598
ag7599
ag7600
ag7601
ag7602
ag7603
atp7839
bsg60
Nstp7840
Rp7841
a(dp7842
g335
(dp7843
g337
g7579
sg338
(lp7844
(dp7845
g341
g342
(I0
I20
I1
tp7846
Rp7847
sg345
g7640
sasstp7848
bsbssVCook_Islands
p7849
(dp7850
g3
Vhttp://survivor.wikia.com/wiki/Survivor:_Cook_Islands
p7851
sg5
g6
(g7
g8
Ntp7852
Rp7853
(dp7854
g12
g13
sg14
g15
sg16
g6
(g17
g8
Ntp7855
Rp7856
((lp7857
g21
(g22
(dp7858
g24
g25
(g26
(I0
tp7859
g28
tp7860
Rp7861
(I1
(L20L
tp7862
g35
I00
(lp7863
V Sekou
p7864
aV Billy
p7865
aV Cecilia
p7866
aV J.P.
p7867
aV Stephannie
p7868
aV Cao Boi
p7869
aV Cristina
p7870
aV Jessica
p7871
aV Brad
p7872
aV Rebecca
p7873
aV Jenny
p7874
aV Nate
p7875
aV Candice
p7876
aV Jonathan
p7877
aV Parvati
p7878
aV Adam
p7879
aV Sundra
p7880
aV Becky
p7881
aV Ozzy
p7882
aV Yul
p7883
atp7884
bsg60
Nstp7885
Rp7886
ag21
(g22
(dp7887
g24
g25
(g26
(I0
tp7888
g28
tp7889
Rp7890
(I1
(L20L
tp7891
g35
I00
(lp7892
VYul
p7893
aVOzzy
p7894
aVBecky
p7895
aVSundra
p7896
aVAdam
p7897
aVParvati
p7898
aVJonathan
p7899
aVCandice
p7900
aVNate
p7901
aVJenny
p7902
aVRebecca
p7903
aVBrad
p7904
aVJessica
p7905
aVCristina
p7906
aVCao Boi
p7907
aVStephannie
p7908
aVJ.P.
p7909
aVCecilia
p7910
aVBilly
p7911
aVSekou
p7912
atp7913
bsg60
g90
(g93
S'\x01\x00\x00\x00\x00\x00\x00\x00'
p7914
tp7915
Rp7916
stp7917
Rp7918
a(lp7919
g25
(g26
(I0
tp7920
g28
tp7921
Rp7922
(I1
(L20L
L20L
tp7923
g35
I00
(lp7924
V \u2014
p7925
aV \u2014
p7926
aV \u2014
p7927
aV Sekou
p7928
aV \u2014
p7929
aV \u2014
p7930
aV \u2014
p7931
aV \u2014
p7932
aV Sundra
p7933
aV \u2014
p7934
aV Sekou
p7935
aV \u2014
p7936
aV \u2014
p7937
aV \u2014
p7938
aV \u2014
p7939
aV Sekou
p7940
aV \u2014
p7941
aV \u2014
p7942
aV \u2014
p7943
aV Sundra
p7944
aV \u2014
p7945
aV Billy
p7946
aV \u2014
p7947
aV \u2014
p7948
aV \u2014
p7949
aV \u2014
p7950
aV \u2014
p7951
aV \u2014
p7952
aV \u2014
p7953
aV \u2014
p7954
aV \u2014
p7955
aV \u2014
p7956
aV \u2014
p7957
aV Billy
p7958
aV \u2014
p7959
aV \u2014
p7960
aV Billy
p7961
aV Billy
p7962
aV Ozzy
p7963
ag126
aV Cecilia
p7964
aV Becky
p7965
aV Cecilia
p7966
aV Becky
p7967
aV \u2014
p7968
aV \u2014
p7969
aV Cecilia
p7970
aVExiled
p7971
aV \u2014
p7972
aV \u2014
p7973
aV \u2014
p7974
aV \u2014
p7975
aV Cecilia
p7976
aV \u2014
p7977
aV Cecilia
p7978
aV \u2014
p7979
aV \u2014
p7980
aV Becky
p7981
ag126
ag126
aV \u2014
p7982
aV \u2014
p7983
aV \u2014
p7984
aV \u2014
p7985
aV J.P.
p7986
aV J.P.
p7987
aV \u2014
p7988
aV \u2014
p7989
aV Stephannie
p7990
aV J.P.
p7991
aV J.P.
p7992
aV J.P.
p7993
aV \u2014
p7994
aV J.P.
p7995
aV \u2014
p7996
aV J.P.
p7997
aV Stephannie
p7998
ag126
ag126
ag126
aV \u2014
p7999
aV \u2014
p8000
aV \u2014
p8001
aV \u2014
p8002
aV Stephannie
p8003
aV Stephannie
p8004
aV \u2014
p8005
aV \u2014
p8006
aV Stephannie
p8007
aV Stephannie
p8008
aV Stephannie
p8009
aV Stephannie
p8010
aV \u2014
p8011
aV Stephannie
p8012
aV \u2014
p8013
aV Cristina
p8014
ag126
ag126
ag126
ag126
aV Cao Boi
p8015
aV Cao Boi
p8016
aV Cao Boi
p8017
aV Cao Boi
p8018
aV \u2014
p8019
aV \u2014
p8020
aV Cao Boi
p8021
aV Cao Boi
p8022
aV \u2014
p8023
aV \u2014
p8024
aV \u2014
p8025
aV \u2014
p8026
aV Jonathan
p8027
aV \u2014
p8028
aV Candice
p8029
ag126
ag126
ag126
ag126
ag126
aV \u2014
p8030
aV \u2014
p8031
aV \u2014
p8032
aV \u2014
p8033
aV Cristina
p8034
aV Cristina
p8035
aV \u2014
p8036
aV \u2014
p8037
aVKidnapped
p8038
aV Cristina
p8039
aV Cristina
p8040
aV Jenny
p8041
aV \u2014
p8042
aV Jenny
p8043
ag126
ag126
ag126
ag126
ag126
ag126
aV Jessica
p8044
aV Jessica
p8045
aV Jessica
p8046
aV Jessica
p8047
aV \u2014
p8048
aV \u2014
p8049
aV Jessica
p8050
aV Jessica
p8051
aV \u2014
p8052
aV \u2014
p8053
aV \u2014
p8054
aV \u2014
p8055
aV Jonathan
p8056
ag126
ag126
ag126
ag126
ag126
ag126
ag126
aV \u2014
p8057
aV \u2014
p8058
aV \u2014
p8059
aV \u2014
p8060
aV Brad
p8061
aV Brad
p8062
aV Brad
p8063
aV Brad
p8064
aV Brad
p8065
aV Brad
p8066
aV Brad
p8067
aV Jonathan
p8068
ag126
ag126
ag126
ag126
ag126
ag126
ag126
ag126
aV \u2014
p8069
aV \u2014
p8070
aV \u2014
p8071
aV \u2014
p8072
aV Rebecca
p8073
aV Rebecca
p8074
aV Rebecca
p8075
aV Rebecca
p8076
aV Rebecca
p8077
aV Rebecca
p8078
aV Jonathan
p8079
ag126
ag126
ag126
ag126
ag126
ag126
ag126
ag126
ag126
aV \u2014
p8080
aV \u2014
p8081
aV \u2014
p8082
aV \u2014
p8083
aV Jenny
p8084
aV Jenny
p8085
aV Jenny
p8086
aV Jenny
p8087
aV Jonathan
p8088
aV Jonathan
p8089
ag126
ag126
ag126
ag126
ag126
ag126
ag126
ag126
ag126
ag126
aV Nate
p8090
aV Nate
p8091
aV Nate
p8092
aV Nate
p8093
aV Yul
p8094
aV Yul
p8095
aV Nate
p8096
aV Yul
p8097
aV Yul
p8098
ag126
ag126
ag126
ag126
ag126
ag126
ag126
ag126
ag126
ag126
ag126
aV Candice
p8099
aV Candice
p8100
aV Candice
p8101
aV Candice
p8102
aV Jonathan
p8103
aV Jonathan
p8104
aV Candice
p8105
aV Jonathan
p8106
ag126
ag126
ag126
ag126
ag126
ag126
ag126
ag126
ag126
ag126
ag126
ag126
aV Jonathan
p8107
aV Jonathan
p8108
aV Jonathan
p8109
aV Jonathan
p8110
aV Jonathan
p8111
aV Jonathan
p8112
aV Adam
p8113
ag126
ag126
ag126
ag126
ag126
ag126
ag126
ag126
ag126
ag126
ag126
ag126
ag126
aV Parvati
p8114
aV Parvati
p8115
aV Parvati
p8116
aV Parvati
p8117
aV Sundra
p8118
aV Sundra
p8119
ag126
ag126
ag126
ag126
ag126
ag126
ag126
ag126
ag126
ag126
ag126
ag126
ag126
ag126
aV Adam
p8120
aV Adam
p8121
aV Adam
p8122
aV Adam
p8123
aV Yul
p8124
ag126
ag126
ag126
ag126
ag126
ag126
ag126
ag126
ag126
ag126
ag126
ag126
ag126
ag126
ag126
aV Sundra
p8125
aV Becky
p8126
aV Sundra
p8127
aV Becky
p8128
ag126
ag126
ag126
ag126
ag126
ag126
ag126
ag126
ag126
ag126
ag126
ag126
ag126
ag126
ag126
ag126
aNaNaNag126
ag126
ag126
ag126
ag126
ag126
ag126
ag126
ag126
ag126
ag126
ag126
ag126
ag126
ag126
ag126
ag126
aNaNaNag126
ag126
aV Ozzy
p8129
ag126
ag126
aV Ozzy
p8130
aV Ozzy
p8131
aV Ozzy
p8132
ag126
ag126
ag126
ag126
ag126
ag126
ag126
ag126
ag126
aNaNaNaV Yul
p8133
aV Yul
p8134
ag126
aV Yul
p8135
aV Yul
p8136
ag126
ag126
ag126
aV Yul
p8137
ag126
ag126
ag126
ag126
ag126
ag126
ag126
ag126
atp8138
ba(lp8139
g21
(g22
(dp8140
g24
g25
(g26
(I0
tp8141
g28
tp8142
Rp8143
(I1
(L20L
tp8144
g35
I00
(lp8145
g7864
ag7865
ag7866
ag7867
ag7868
ag7869
ag7870
ag7871
ag7872
ag7873
ag7874
ag7875
ag7876
ag7877
ag7878
ag7879
ag7880
ag7881
ag7882
ag7883
atp8146
bsg60
Nstp8147
Rp8148
a(dp8149
g335
(dp8150
g337
g7857
sg338
(lp8151
(dp8152
g341
g342
(I0
I20
I1
tp8153
Rp8154
sg345
g7922
sasstp8155
bsbssVRedemption_Island
p8156
(dp8157
g3
Vhttp://survivor.wikia.com/wiki/Survivor:_Redemption_Island
p8158
sg5
g6
(g7
g8
Ntp8159
Rp8160
(dp8161
g12
g13
sg14
g15
sg16
g6
(g17
g8
Ntp8162
Rp8163
((lp8164
g21
(g22
(dp8165
g24
g25
(g26
(I0
tp8166
g28
tp8167
Rp8168
(I1
(L21L
tp8169
g35
I00
(lp8170
V Francesca
p8171
aV Matthew
p8172
aV Russell
p8173
ag8173
aV Kristina
p8174
aV Krista
p8175
aV Stephanie
p8176
aV Sarita
p8177
aV Matthew
p8178
aV Mike
p8179
aV David
p8180
aV Julie
p8181
aV Ralph
p8182
aV Steve
p8183
aV Andrea
p8184
aV Grant
p8185
aV Andrea
p8186
aV Ashley
p8187
aV Natalie
p8188
aV Phillip
p8189
aV Rob
p8190
atp8191
bsg60
Nstp8192
Rp8193
ag21
(g22
(dp8194
g24
g25
(g26
(I0
tp8195
g28
tp8196
Rp8197
(I1
(L18L
tp8198
g35
I00
(lp8199
VRob
p8200
aVPhillip
p8201
aVNatalie
p8202
aVAshley
p8203
aVAndrea
p8204
aVMike
p8205
aVMatthew
p8206
aVGrant
p8207
aV Ralph
p8208
aVSteve
p8209
aVJulie
p8210
aVDavid
p8211
aVSarita
p8212
aVStephanie
p8213
aVKrista
p8214
aVKristina
p8215
aVRussell
p8216
aVFrancesca
p8217
atp8218
bsg60
g90
(g93
S'\x01\x00\x00\x00\x00\x00\x00\x00'
p8219
tp8220
Rp8221
stp8222
Rp8223
a(lp8224
g25
(g26
(I0
tp8225
g28
tp8226
Rp8227
(I1
(L21L
L18L
tp8228
g35
I00
(lp8229
V Francesca
p8230
aV Francesca
p8231
aV Kristina
p8232
aV Kristina
p8233
aV Kristina
p8234
aV \u2014
p8235
aV Francesca
p8236
aV Francesca
p8237
aV \u2014
p8238
aV \u2014
p8239
aV \u2014
p8240
aV \u2014
p8241
aV \u2014
p8242
aV \u2014
p8243
aV \u2014
p8244
aV Phillip
p8245
aV \u2014
p8246
aV Phillip
p8247
aV Matthew
p8248
aV Kristina
p8249
aV Matthew
p8250
aV Matthew
p8251
aV Kristina
p8252
aV \u2014
p8253
aV Phillip
p8254
aV Matthew
p8255
aV \u2014
p8256
aV \u2014
p8257
aV \u2014
p8258
aV \u2014
p8259
aV \u2014
p8260
aV \u2014
p8261
aV \u2014
p8262
aV Phillip
p8263
aV \u2014
p8264
ag4848
aV \u2014
p8265
aV \u2014
p8266
aV \u2014
p8267
aV \u2014
p8268
aV \u2014
p8269
aV Russell
p8270
ag4848
aV \u2014
p8271
aV Russell
p8272
aV Stephanie
p8273
aV Stephanie
p8274
aV Russell
p8275
aV Stephanie
p8276
aV Ralph
p8277
aV Ralph
p8278
aV \u2014
p8279
aV Ralph
p8280
ag4848
ag8265
ag8266
ag8267
ag8268
ag8269
aV Russell
p8281
ag4848
ag8271
aVNone
p8282
aV Russell
p8283
aV Russell
p8284
aV Russell
p8285
aV Russell
p8286
aVNone
p8287
aV Ralph
p8288
ag8279
aVNone
p8289
ag4848
aV Phillip
p8290
aV Kristina
p8291
aV Kristina
p8292
aV Kristina
p8293
aV Kristina
p8294
aV \u2014
p8295
ag4848
aV Phillip
p8296
aV \u2014
p8297
aV \u2014
p8298
aV \u2014
p8299
aV \u2014
p8300
aV \u2014
p8301
aV \u2014
p8302
aV\u2014
p8303
aV Phillip
p8304
ag4848
ag126
aV \u2014
p8305
aV \u2014
p8306
aV \u2014
p8307
aV \u2014
p8308
aV \u2014
p8309
aV Krista
p8310
ag4848
aV \u2014
p8311
aV Krista
p8312
aV Krista
p8313
aV Krista
p8314
aV Krista
p8315
aV Krista
p8316
aV Steve
p8317
aV Steve
p8318
ag4848
ag126
ag126
aV \u2014
p8319
aV \u2014
p8320
aV \u2014
p8321
aV \u2014
p8322
aV \u2014
p8323
aV Stephanie
p8324
ag4848
aV \u2014
p8325
aV Stephanie
p8326
aV Stephanie
p8327
aV Stephanie
p8328
aV Sarita
p8329
aV Stephanie
p8330
aV Sarita
p8331
ag4848
ag126
ag126
ag126
aV \u2014
p8332
aV \u2014
p8333
aV \u2014
p8334
aV \u2014
p8335
aV \u2014
p8336
aV Sarita
p8337
ag4848
aV \u2014
p8338
aV David
p8339
aV Sarita
p8340
aV Sarita
p8341
aV Sarita
p8342
aV David
p8343
ag4848
ag126
ag126
ag126
ag126
aV Matthew
p8344
aV Matthew
p8345
aV Matthew
p8346
aV Matthew
p8347
aV Matthew
p8348
aV Grant
p8349
aV Steve
p8350
aV Matthew
p8351
aV Grant
p8352
aV Grant
p8353
aV Grant
p8354
aV Grant
p8355
ag4848
ag126
ag126
ag126
ag126
ag126
aV Mike
p8356
aV Mike
p8357
aV Mike
p8358
aV Mike
p8359
aV Mike
p8360
aV Phillip
p8361
ag4848
aV Mike
p8362
aV Phillip
p8363
aV Phillip
p8364
aV Phillip
p8365
aV Phillip
p8366
ag126
ag126
ag126
ag126
ag126
ag126
aV David
p8367
aV David
p8368
aV David
p8369
aV David
p8370
aV David
p8371
ag4848
ag4848
aV David
p8372
aV Rob
p8373
aV Rob
p8374
aV Rob
p8375
aV Rob
p8376
ag126
ag126
ag126
ag126
ag126
ag126
aV Julie
p8377
aV Julie
p8378
aV Julie
p8379
aV Julie
p8380
aV Julie
p8381
ag4848
ag4848
aV Julie
p8382
aV Phillip
p8383
aV Phillip
p8384
aV Phillip
p8385
ag4848
ag126
ag126
ag126
ag126
ag126
ag126
aV Ralph
p8386
aV Ralph
p8387
aV Ralph
p8388
aV Ralph
p8389
aV Ralph
p8390
ag4848
ag4848
aV Ralph
p8391
aV Rob
p8392
aV Rob
p8393
ag4848
ag126
ag126
ag126
ag126
ag126
ag126
ag126
aV Steve
p8394
aV Steve
p8395
aV Steve
p8396
aV Steve
p8397
aV Steve
p8398
ag4848
ag4848
aV Steve
p8399
ag4848
aV Grant
p8400
ag126
ag126
ag126
ag126
ag126
ag126
ag126
ag126
aV Andrea
p8401
aV Andrea
p8402
aV Andrea
p8403
aV Andrea
p8404
aV Phillip
p8405
ag4848
ag4848
aV Andrea
p8406
ag4848
ag4848
ag126
ag126
ag126
ag126
ag126
ag126
ag126
ag126
aV Grant
p8407
aV Grant
p8408
aV Grant
p8409
aV Grant
p8410
ag4848
ag4848
ag4848
aV Natalie
p8411
ag4848
ag126
ag126
ag126
ag126
ag126
ag126
ag126
ag126
ag126
aV Andrea
p8412
aV Andrea
p8413
aV Andrea
p8414
aV Andrea
p8415
aV Rob
p8416
ag4848
ag4848
ag4848
ag126
ag126
ag126
ag126
ag126
ag126
ag126
ag126
ag126
ag126
aV Ashley
p8417
aV Ashley
p8418
aV Ashley
p8419
aV Phillip
p8420
ag126
ag126
ag126
ag126
ag126
ag126
ag126
ag126
ag126
ag126
ag126
ag126
ag126
ag126
aNaNaNag126
ag126
ag126
ag126
ag126
ag126
ag126
ag126
ag126
ag126
ag126
ag126
ag126
ag126
ag126
aNaNaNag126
ag126
ag126
ag126
ag126
aV Phillip
p8421
ag126
ag126
ag126
ag126
ag126
ag126
ag126
ag126
ag126
aNaNaNaV Rob
p8422
aV Rob
p8423
aV Rob
p8424
aV Rob
p8425
aV Rob
p8426
ag126
aV Rob
p8427
aV Rob
p8428
aV Rob
p8429
ag126
ag126
ag126
ag126
ag126
ag126
atp8430
ba(lp8431
g21
(g22
(dp8432
g24
g25
(g26
(I0
tp8433
g28
tp8434
Rp8435
(I1
(L21L
tp8436
g35
I00
(lp8437
g8171
ag8172
ag8173
ag8173
ag8174
ag8175
ag8176
ag8177
ag8178
ag8179
ag8180
ag8181
ag8182
ag8183
ag8184
ag8185
ag8186
ag8187
ag8188
ag8189
ag8190
atp8438
bsg60
Nstp8439
Rp8440
a(dp8441
g335
(dp8442
g337
g8164
sg338
(lp8443
(dp8444
g341
g342
(I0
I21
I1
tp8445
Rp8446
sg345
g8227
sasstp8447
bsbssVNicaragua
p8448
(dp8449
g3
Vhttp://survivor.wikia.com/wiki/Survivor:_Nicaragua
p8450
sg5
g6
(g7
g8
Ntp8451
Rp8452
(dp8453
g12
g13
sg14
g15
sg16
g6
(g17
g8
Ntp8454
Rp8455
((lp8456
g21
(g22
(dp8457
g24
g25
(g26
(I0
tp8458
g28
tp8459
Rp8460
(I1
(L21L
tp8461
g35
I00
(lp8462
V Wendy
p8463
aV Shannon
p8464
aV Jimmy J.
p8465
aV Jimmy T.
p8466
aV Tyrone
p8467
aV Kelly B.
p8468
ag8468
aV Yve
p8469
aV Jill
p8470
aV Alina
p8471
aV Marty
p8472
aV Brenda
p8473
aV NaOnka
p8474
aV Kelly S.
p8475
aV Benry
p8476
aV Jane
p8477
aV Dan
p8478
aV Holly
p8479
aV Sash
p8480
aV Chase
p8481
aV Fabio
p8482
atp8483
bsg60
Nstp8484
Rp8485
ag21
(g22
(dp8486
g24
g25
(g26
(I0
tp8487
g28
tp8488
Rp8489
(I1
(L20L
tp8490
g35
I00
(lp8491
VFabio
p8492
aVChase
p8493
aVSash
p8494
aVHolly
p8495
aVDan
p8496
aVJane
p8497
aVBenry
p8498
aVKelly S.
p8499
aVNaOnka
p8500
aVBrenda
p8501
aVMarty
p8502
aVAlina
p8503
aVJill
p8504
aVYve
p8505
aVKelly B.
p8506
aVTyrone
p8507
aVJimmy T.
p8508
aVJimmy J.
p8509
aVShannon
p8510
aVWendy
p8511
atp8512
bsg60
g90
(g93
S'\x01\x00\x00\x00\x00\x00\x00\x00'
p8513
tp8514
Rp8515
stp8516
Rp8517
a(lp8518
g25
(g26
(I0
tp8519
g28
tp8520
Rp8521
(I1
(L21L
L20L
tp8522
g35
I00
(lp8523
V \u2014
p8524
aV \u2014
p8525
aV \u2014
p8526
aV Wendy
p8527
aV Wendy
p8528
aV Wendy
p8529
aV \u2014
p8530
aV \u2014
p8531
aV \u2014
p8532
aV \u2014
p8533
aV Wendy
p8534
aV \u2014
p8535
aV Wendy
p8536
aV Wendy
p8537
aV \u2014
p8538
aV Wendy
p8539
aV Wendy
p8540
aV Wendy
p8541
aV \u2014
p8542
aV Yve
p8543
aV Brenda
p8544
aV Shannon
p8545
aV Shannon
p8546
aV \u2014
p8547
aV \u2014
p8548
aV \u2014
p8549
aV Shannon
p8550
aV Shannon
p8551
aV Shannon
p8552
aV Shannon
p8553
aV \u2014
p8554
aV Brenda
p8555
aV \u2014
p8556
aV \u2014
p8557
aV Shannon
p8558
aV \u2014
p8559
aV \u2014
p8560
aV \u2014
p8561
aV Brenda
p8562
ag126
aV \u2014
p8563
aV \u2014
p8564
aV \u2014
p8565
aV Jimmy J.
p8566
aV Jimmy J.
p8567
aV Jimmy J.
p8568
aV \u2014
p8569
aV \u2014
p8570
aV \u2014
p8571
aV \u2014
p8572
aV Jimmy J.
p8573
aV \u2014
p8574
aV Jimmy J.
p8575
aV Jimmy J.
p8576
aV \u2014
p8577
aV Jimmy J.
p8578
aV Jimmy J.
p8579
aV Dan
p8580
ag126
ag126
aV \u2014
p8581
aV \u2014
p8582
aV \u2014
p8583
aV Dan
p8584
aV Jimmy T.
p8585
aV Dan
p8586
aV \u2014
p8587
aV \u2014
p8588
aV \u2014
p8589
aV \u2014
p8590
aV Jimmy T.
p8591
aV \u2014
p8592
aV Jimmy T.
p8593
aV Jimmy T.
p8594
aV \u2014
p8595
aV Jimmy T.
p8596
aV Dan
p8597
ag126
ag126
ag126
aV \u2014
p8598
aV Tyrone
p8599
ag8583
aV Tyrone
p8600
aV Tyrone
p8601
aV \u2014
p8602
aV Tyrone
p8603
aV \u2014
p8604
aV Tyrone
p8605
aV \u2014
p8606
aV \u2014
p8607
aV Tyrone
p8608
aV \u2014
p8609
aV NaOnka
p8610
aV \u2014
p8611
aV NaOnka
p8612
ag126
ag126
ag126
ag126
aV Kelly B.
p8613
aV \u2014
p8614
aV Marty
p8615
aV \u2014
p8616
aV \u2014
p8617
aV Marty
p8618
aV \u2014
p8619
aV Kelly B.
p8620
aV \u2014
p8621
aV Kelly B.
p8622
aV Brenda
p8623
aV \u2014
p8624
aV Brenda
p8625
aV \u2014
p8626
aV Marty
p8627
ag126
ag126
ag126
ag126
ag126
aV Kelly B.
p8628
ag8614
aV Kelly B.
p8629
ag8616
ag8617
aV Marty
p8630
ag8619
aV Kelly B.
p8631
ag8621
aV Kelly B.
p8632
aVNone
p8633
ag8624
aV Kelly B.
p8634
ag8626
aVNone
p8635
ag126
ag126
ag126
ag126
ag126
aV \u2014
p8636
aV Yve
p8637
aV \u2014
p8638
aV Yve
p8639
aV Yve
p8640
aV \u2014
p8641
aV Yve
p8642
aV \u2014
p8643
aV Yve
p8644
aV \u2014
p8645
aV \u2014
p8646
aV Yve
p8647
aV \u2014
p8648
aV Dan
p8649
ag126
ag126
ag126
ag126
ag126
ag126
aV Marty
p8650
aV \u2014
p8651
aV Jill
p8652
aV \u2014
p8653
aV \u2014
p8654
aV Marty
p8655
aV \u2014
p8656
aV Jill
p8657
aV \u2014
p8658
aV Jill
p8659
aV Jane
p8660
aV \u2014
p8661
aV Jane
p8662
ag126
ag126
ag126
ag126
ag126
ag126
ag126
aV Alina
p8663
aV Alina
p8664
aV Alina
p8665
aV Alina
p8666
aV Alina
p8667
aV Marty
p8668
aV Alina
p8669
aV Alina
p8670
aV Alina
p8671
aV Alina
p8672
aV Alina
p8673
aV Marty
p8674
ag126
ag126
ag126
ag126
ag126
ag126
ag126
ag126
aV Jane
p8675
aV Marty
p8676
aV Marty
p8677
aV Marty
p8678
aV Jane
p8679
aV Marty
p8680
aV Jane
p8681
aV Marty
p8682
aV Marty
p8683
aV Marty
p8684
aV Jane
p8685
ag126
ag126
ag126
ag126
ag126
ag126
ag126
ag126
ag126
aV Brenda
p8686
aV Brenda
p8687
aV Brenda
p8688
aV Brenda
p8689
aV Brenda
p8690
aV Brenda
p8691
aV Brenda
p8692
aV Benry
p8693
aV Brenda
p8694
aV NaOnka
p8695
ag126
ag126
ag126
ag126
ag126
ag126
ag126
ag126
ag126
ag126
aV \u2014
p8696
aV \u2014
p8697
aV \u2014
p8698
aV \u2014
p8699
aV \u2014
p8700
aV \u2014
p8701
aV \u2014
p8702
aVQuit
p8703
aVQuit
p8704
ag126
ag126
ag126
ag126
ag126
ag126
ag126
ag126
ag126
ag126
ag126
ag8696
ag8697
ag8698
ag8699
ag8700
ag8701
ag8702
ag8703
ag8704
ag126
ag126
ag126
ag126
ag126
ag126
ag126
ag126
ag126
ag126
ag126
aV Holly
p8705
aV Benry
p8706
aV Benry
p8707
aV Benry
p8708
aV Fabio
p8709
aV Benry
p8710
aV Fabio
p8711
ag126
ag126
ag126
ag126
ag126
ag126
ag126
ag126
ag126
ag126
ag126
ag126
ag126
aV Jane
p8712
aV Jane
p8713
aV Jane
p8714
aV Jane
p8715
aV Jane
p8716
aV Sash
p8717
ag126
ag126
ag126
ag126
ag126
ag126
ag126
ag126
ag126
ag126
ag126
ag126
ag126
ag126
aV Dan
p8718
aV Dan
p8719
aV Dan
p8720
aV Dan
p8721
aV Chase
p8722
ag126
ag126
ag126
ag126
ag126
ag126
ag126
ag126
ag126
ag126
ag126
ag126
ag126
ag126
ag126
aV Holly
p8723
aV Holly
p8724
aV Holly
p8725
aV Sash
p8726
ag126
ag126
ag126
ag126
ag126
ag126
ag126
ag126
ag126
ag126
ag126
ag126
ag126
ag126
ag126
ag126
aNaNaNag126
ag126
ag126
ag126
ag126
ag126
ag126
ag126
ag126
ag126
ag126
ag126
ag126
ag126
ag126
ag126
ag126
aNaNaNaV Chase
p8727
ag126
aV Chase
p8728
ag126
ag126
ag126
aV Chase
p8729
ag126
aV Chase
p8730
ag126
ag126
ag126
ag126
ag126
ag126
ag126
ag126
aNaNaNag126
aV Fabio
p8731
ag126
aV Fabio
p8732
aV Fabio
p8733
aV Fabio
p8734
ag126
aV Fabio
p8735
ag126
ag126
ag126
ag126
ag126
ag126
ag126
ag126
ag126
atp8736
ba(lp8737
g21
(g22
(dp8738
g24
g25
(g26
(I0
tp8739
g28
tp8740
Rp8741
(I1
(L21L
tp8742
g35
I00
(lp8743
g8463
ag8464
ag8465
ag8466
ag8467
ag8468
ag8468
ag8469
ag8470
ag8471
ag8472
ag8473
ag8474
ag8475
ag8476
ag8477
ag8478
ag8479
ag8480
ag8481
ag8482
atp8744
bsg60
Nstp8745
Rp8746
a(dp8747
g335
(dp8748
g337
g8456
sg338
(lp8749
(dp8750
g341
g342
(I0
I21
I1
tp8751
Rp8752
sg345
g8521
sasstp8753
bsbss.