(dp0
VPalau
p1
(dp2
S'url'
p3
Vhttp://survivor.wikia.com/wiki/Survivor:_Palau
p4
sS'votes'
p5
ccopy_reg
_reconstructor
p6
(cpandas.core.frame
DataFrame
p7
c__builtin__
object
p8
Ntp9
Rp10
(dp11
S'_metadata'
p12
(lp13
sS'_typ'
p14
S'dataframe'
p15
sS'_data'
p16
g6
(cpandas.core.internals
BlockManager
p17
g8
Ntp18
Rp19
((lp20
cpandas.core.index
_new_Index
p21
(cpandas.core.index
Index
p22
(dp23
S'data'
p24
cnumpy.core.multiarray
_reconstruct
p25
(cnumpy
ndarray
p26
(I0
tp27
S'b'
p28
tp29
Rp30
(I1
(L23L
tp31
cnumpy
dtype
p32
(S'O8'
p33
I0
I1
tp34
Rp35
(I3
S'|'
p36
NNNI-1
I-1
I63
tp37
bI00
(lp38
VJonathan
p39
aVWanda
p40
aVJolanda
p41
aVAshlee
p42
aVJeff
p43
aVKim
p44
aVWillard
p45
aVAngie
p46
aVAngie
p47
aVJames
p48
aVJames
p49
aVIbrehem
p50
aVBobby Jon
p51
aVCoby
p52
aVJanu
p53
aVStephenie
p54
aVGregg
p55
aVCaryn
p56
aVJenn
p57
aVJenn
p58
aVIan
p59
aVKatie
p60
aVTom
p61
atp62
bsS'name'
p63
Nstp64
Rp65
ag21
(g22
(dp66
g24
g25
(g26
(I0
tp67
g28
tp68
Rp69
(I1
(L20L
tp70
g35
I00
(lp71
VTom
p72
aVKatie
p73
aVIan
p74
aVJenn
p75
aVCaryn
p76
aVGregg
p77
aVStephenie
p78
aVJanu
p79
aVCoby
p80
aVBobby Jon
p81
aVIbrehem
p82
aVJames
p83
aVAngie
p84
aVWillard
p85
aVKim
p86
aVJeff
p87
aVAshlee
p88
aVJolanda
p89
aVWanda
p90
aVJonathan
p91
atp92
bsg63
cnumpy.core.multiarray
scalar
p93
(g32
(S'i8'
p94
I0
I1
tp95
Rp96
(I3
S'<'
p97
NNNI-1
I-1
I0
tp98
bS'\x01\x00\x00\x00\x00\x00\x00\x00'
p99
tp100
Rp101
stp102
Rp103
a(lp104
g25
(g26
(I0
tp105
g28
tp106
Rp107
(I1
(L23L
L20L
tp108
g35
I00
(lp109
V \u2014
p110
aV \u2014
p111
aV \u2014
p112
aV\u2014
p113
aV \u2014
p114
aV\u2014
p115
aV \u2014
p116
aV \u2014
p117
aV \u2014
p118
aV \u2014
p119
aV \u2014
p120
aV \u2014
p121
aV \u2014
p122
aV\u2014
p123
aV \u2014
p124
aV \u2014
p125
aV \u2014
p126
aV \u2014
p127
aVEliminated
p128
aV
p129
ag110
ag111
ag112
ag113
ag114
ag115
ag116
ag117
ag118
ag119
ag120
ag121
ag122
ag123
ag124
ag125
ag126
ag127
ag128
ag129
aV \u2014
p130
aV \u2014
p131
aV \u2014
p132
aV \u2014
p133
aV \u2014
p134
aV \u2014
p135
aV Jolanda
p136
aV \u2014
p137
aV \u2014
p138
aV Angie
p139
aV Angie
p140
aV Jolanda
p141
aV Jolanda
p142
aV \u2014
p143
aV Jolanda
p144
aV Jolanda
p145
aV Jolanda
p146
aV Angie
p147
ag129
ag129
aV \u2014
p148
aV \u2014
p149
aV \u2014
p150
aV \u2014
p151
aV \u2014
p152
aV \u2014
p153
aV Ashlee
p154
aV \u2014
p155
aV \u2014
p156
aV Ashlee
p157
aV Kim
p158
aV Ashlee
p159
aV Ashlee
p160
aV \u2014
p161
aV Ashlee
p162
aV Ashlee
p163
aV Jeff
p164
ag129
ag129
ag129
aV \u2014
p165
aV \u2014
p166
aV \u2014
p167
aV \u2014
p168
aV \u2014
p169
aV \u2014
p170
aV Jeff
p171
aV \u2014
p172
aV \u2014
p173
aV Kim
p174
aV Jeff
p175
aV Kim
p176
aV Jeff
p177
aV \u2014
p178
aV Jeff
p179
aV James
p180
ag129
ag129
ag129
ag129
aV \u2014
p181
aV \u2014
p182
aV \u2014
p183
aV \u2014
p184
aV \u2014
p185
aV \u2014
p186
aV Kim
p187
aV \u2014
p188
aV \u2014
p189
aV Kim
p190
aV Kim
p191
aV Kim
p192
aV Kim
p193
aV \u2014
p194
aV James
p195
ag129
ag129
ag129
ag129
ag129
aV Willard
p196
aV Willard
p197
aV Willard
p198
aV Willard
p199
aV Willard
p200
aV Willard
p201
aV \u2014
p202
aV Willard
p203
aV Willard
p204
aV \u2014
p205
aV \u2014
p206
aV \u2014
p207
aV \u2014
p208
aV Katie
p209
ag129
ag129
ag129
ag129
ag129
ag129
aV \u2014
p210
aV \u2014
p211
aV \u2014
p212
aV \u2014
p213
aV\u2014
p214
aV \u2014
p215
aV Bobby Jon
p216
aV \u2014
p217
aV \u2014
p218
aV Angie
p219
aV James
p220
aV Angie
p221
aV Bobby Jon
p222
ag129
ag129
ag129
ag129
ag129
ag129
ag129
ag210
ag211
ag212
ag213
ag214
ag215
aV Angie
p223
ag217
ag218
aVNone
p224
aV Angie
p225
aV Angie
p226
aVNone 
p227
ag129
ag129
ag129
ag129
ag129
ag129
ag129
aV \u2014
p228
aV \u2014
p229
aV \u2014
p230
aV \u2014
p231
aV \u2014
p232
aV \u2014
p233
aV Ibrehem
p234
aV \u2014
p235
aV \u2014
p236
aV James
p237
aV James
p238
aV Ibrehem
p239
ag129
ag129
ag129
ag129
ag129
ag129
ag129
ag129
aV \u2014
p240
aV \u2014
p241
aV \u2014
p242
aV \u2014
p243
aV \u2014
p244
aV \u2014
p245
aV James
p246
aV \u2014
p247
aV \u2014
p248
aV James
p249
aVNone
p250
aVNone
p251
ag129
ag129
ag129
ag129
ag129
ag129
ag129
ag129
aV \u2014
p252
aV \u2014
p253
aV \u2014
p254
aV \u2014
p255
aV \u2014
p256
aV \u2014
p257
aV Ibrehem
p258
aV \u2014
p259
aV \u2014
p260
aV Ibrehem
p261
aV Stephenie
p262
ag129
ag129
ag129
ag129
ag129
ag129
ag129
ag129
ag129
aV \u2014
p263
aV \u2014
p264
aV \u2014
p265
aV \u2014
p266
aV \u2014
p267
aV \u2014
p268
aV \u2014
p269
aV \u2014
p270
aV \u2014
p271
aVEliminated
p272
ag129
ag129
ag129
ag129
ag129
ag129
ag129
ag129
ag129
ag129
aV Coby
p273
aV Coby
p274
aV Coby
p275
aV Coby
p276
aV Coby
p277
aV Coby
p278
aV Coby
p279
aV Stephenie
p280
aV Janu
p281
ag129
ag129
ag129
ag129
ag129
ag129
ag129
ag129
ag129
ag129
ag129
aV \u2014
p282
aV \u2014
p283
aV \u2014
p284
aV \u2014
p285
aV \u2014
p286
aV \u2014
p287
aV \u2014
p288
aVQuit
p289
ag129
ag129
ag129
ag129
ag129
ag129
ag129
ag129
ag129
ag129
ag129
ag129
aV Stephenie
p290
aV Stephenie
p291
aV Stephenie
p292
aV Stephenie
p293
aV Stephenie
p294
aV Stephenie
p295
aV Caryn
p296
ag129
ag129
ag129
ag129
ag129
ag129
ag129
ag129
ag129
ag129
ag129
ag129
ag129
aV Gregg
p297
aV Gregg
p298
aV Gregg
p299
aV Caryn
p300
aV Gregg
p301
aV Caryn
p302
ag129
ag129
ag129
ag129
ag129
ag129
ag129
ag129
ag129
ag129
ag129
ag129
ag129
ag129
aV Caryn
p303
aV Caryn
p304
aV Caryn
p305
aV Caryn
p306
aV Ian
p307
ag129
ag129
ag129
ag129
ag129
ag129
ag129
ag129
ag129
ag129
ag129
ag129
ag129
ag129
ag129
aV Ian
p308
aV Jenn
p309
aV Jenn
p310
aV Ian
p311
ag129
ag129
ag129
ag129
ag129
ag129
ag129
ag129
ag129
ag129
ag129
ag129
ag129
ag129
ag129
ag129
aV Ian
p312
aV Jenn
p313
aVNone
p314
aVNone
p315
ag129
ag129
ag129
ag129
ag129
ag129
ag129
ag129
ag129
ag129
ag129
ag129
ag129
ag129
ag129
ag129
aV Ian
p316
aV \u2014
p317
aV \u2014
p318
ag129
ag129
ag129
ag129
ag129
ag129
ag129
ag129
ag129
ag129
ag129
ag129
ag129
ag129
ag129
ag129
ag129
aS'Jury Vote'
p319
ag319
ag129
ag129
ag129
ag129
ag129
ag129
aV Katie
p320
ag129
ag129
ag129
ag129
ag129
ag129
ag129
ag129
ag129
ag129
aNag319
ag319
aV Tom
p321
aV Tom
p322
aV Tom
p323
aV Tom
p324
aV Tom
p325
aV Tom
p326
ag129
ag129
ag129
ag129
ag129
ag129
ag129
ag129
ag129
ag129
ag129
aNatp327
ba(lp328
g21
(g22
(dp329
g24
g25
(g26
(I0
tp330
g28
tp331
Rp332
(I1
(L23L
tp333
g35
I00
(lp334
g39
ag40
ag41
ag42
ag43
ag44
ag45
ag46
ag47
ag48
ag49
ag50
ag51
ag52
ag53
ag54
ag55
ag56
ag57
ag58
ag59
ag60
ag61
atp335
bsg63
Nstp336
Rp337
a(dp338
S'0.14.1'
p339
(dp340
S'axes'
p341
g20
sS'blocks'
p342
(lp343
(dp344
S'mgr_locs'
p345
c__builtin__
slice
p346
(I0
I23
I1
tp347
Rp348
sS'values'
p349
g107
sasstp350
bsbsS'num'
p351
I10
ssVTocantins
p352
(dp353
g3
Vhttp://survivor.wikia.com/wiki/Survivor:_Tocantins
p354
sg5
g6
(g7
g8
Ntp355
Rp356
(dp357
g12
g13
sg14
g15
sg16
g6
(g17
g8
Ntp358
Rp359
((lp360
g21
(g22
(dp361
g24
g25
(g26
(I0
tp362
g28
tp363
Rp364
(I1
(L16L
tp365
g35
I00
(lp366
VCarolina
p367
aVCandace
p368
aVJerry
p369
aVSandy
p370
aVSpencer
p371
aVSydney
p372
aVJoe
p373
aVBrendan
p374
aVTyson
p375
aVSierra
p376
aVDebbie
p377
aVCoach
p378
aVTaj
p379
aVErinn
p380
aVStephen
p381
aVJ.T.
p382
atp383
bsg63
Nstp384
Rp385
ag21
(g22
(dp386
g24
g25
(g26
(I0
tp387
g28
tp388
Rp389
(I1
(L16L
tp390
g35
I00
(lp391
VJ.T.
p392
aVStephen
p393
aVErinn
p394
aVTaj
p395
aVCoach
p396
aVDebbie
p397
aVSierra
p398
aVTyson
p399
aVBrendan
p400
aVJoe
p401
aVSydney
p402
aVSpencer
p403
aVSandy
p404
aVJerry
p405
aVCandace
p406
aVCarolina
p407
atp408
bsg63
g93
(g96
S'\x01\x00\x00\x00\x00\x00\x00\x00'
p409
tp410
Rp411
stp412
Rp413
a(lp414
g25
(g26
(I0
tp415
g28
tp416
Rp417
(I1
(L16L
L16L
tp418
g35
I00
(lp419
V Carolina
p420
aV Carolina
p421
aV \u2014
p422
aV Carolina
p423
aV \u2014
p424
aV \u2014
p425
aV \u2014
p426
aV \u2014
p427
aV \u2014
p428
aV Carolina
p429
aV Carolina
p430
aV Carolina
p431
aV Carolina
p432
aV \u2014
p433
aV \u2014
p434
aV Sandy
p435
aV \u2014
p436
aV \u2014
p437
aV Candace
p438
aV \u2014
p439
aV Candace
p440
aV Candace
p441
aV Candace
p442
aV Candace
p443
aV Candace
p444
aV \u2014
p445
aV \u2014
p446
aV \u2014
p447
aV \u2014
p448
aV Candace
p449
aV Sierra
p450
ag129
aV \u2014
p451
aV \u2014
p452
aV Jerry
p453
aV \u2014
p454
aV Jerry
p455
aV Jerry
p456
aV Jerry
p457
aV Jerry
p458
aV Jerry
p459
aV \u2014
p460
aV \u2014
p461
aV \u2014
p462
aV \u2014
p463
aV Erinn
p464
ag129
ag129
aV Sandy
p465
aV Sandy
p466
aV \u2014
p467
aV Joe
p468
aV \u2014
p469
aV \u2014
p470
aV \u2014
p471
aV \u2014
p472
aV \u2014
p473
aV Sandy
p474
aV Sandy
p475
aV Sandy
p476
aV Sydney
p477
ag129
ag129
ag129
aV Spencer
p478
aV Spencer
p479
aV \u2014
p480
aV Spencer
p481
aV \u2014
p482
aV \u2014
p483
aV \u2014
p484
aV \u2014
p485
aV \u2014
p486
aV Spencer
p487
aV Spencer
p488
aV Taj
p489
ag129
ag129
ag129
ag129
aV Sydney
p490
aV Sydney
p491
aV \u2014
p492
aV Sydney
p493
aV \u2014
p494
aV \u2014
p495
aV \u2014
p496
aV \u2014
p497
aV \u2014
p498
aV Taj
p499
aV Taj
p500
ag129
ag129
ag129
ag129
ag129
aV \u2014
p501
aV \u2014
p502
aV \u2014
p503
aV \u2014
p504
aV \u2014
p505
aV \u2014
p506
aV \u2014
p507
aV \u2014
p508
aV \u2014
p509
aVEvacuated
p510
ag129
ag129
ag129
ag129
ag129
ag129
aV Sierra
p511
aV Brendan
p512
aV Sierra
p513
aV Brendan
p514
aV Brendan
p515
aV Brendan
p516
aV Coach
p517
aV Sierra
p518
aV Coach
p519
ag129
ag129
ag129
ag129
ag129
ag129
ag129
aV Tyson
p520
aV Tyson
p521
aV Tyson
p522
aV Tyson
p523
aV Sierra
p524
aV Sierra
p525
aV Tyson
p526
aV Sierra
p527
ag129
ag129
ag129
ag129
ag129
ag129
ag129
ag129
aV Sierra
p528
aV Sierra
p529
aV Stephen
p530
aV Debbie
p531
aV Sierra
p532
aV Sierra
p533
aV Debbie
p534
ag129
ag129
ag129
ag129
ag129
ag129
ag129
ag129
ag129
aV Debbie
p535
aV Debbie
p536
aV Debbie
p537
aV Debbie
p538
aV Taj
p539
aV Coach
p540
ag129
ag129
ag129
ag129
ag129
ag129
ag129
ag129
ag129
ag129
aV Erinn
p541
aV Coach
p542
aV Coach
p543
aV Coach
p544
aV Erinn
p545
ag129
ag129
ag129
ag129
ag129
ag129
ag129
ag129
ag129
ag129
ag129
aV Taj
p546
aV Taj
p547
aV Taj
p548
aV Erinn
p549
ag129
ag129
ag129
ag129
ag129
ag129
ag129
ag129
ag129
ag129
ag129
ag129
aV Erinn
p550
aV \u2014
p551
aV \u2014
p552
ag129
ag129
ag129
ag129
ag129
ag129
ag129
ag129
ag129
ag129
ag129
ag129
ag129
ag319
ag319
ag129
ag129
ag129
ag129
ag129
ag129
ag129
ag129
ag129
ag129
ag129
ag129
ag129
ag129
ag319
ag319
aV J.T.
p553
aV J.T.
p554
aV J.T.
p555
aV J.T.
p556
aV J.T.
p557
aV J.T.
p558
aV J.T.
p559
ag129
ag129
ag129
ag129
ag129
ag129
ag129
atp560
ba(lp561
g21
(g22
(dp562
g24
g25
(g26
(I0
tp563
g28
tp564
Rp565
(I1
(L16L
tp566
g35
I00
(lp567
g367
ag368
ag369
ag370
ag371
ag372
ag373
ag374
ag375
ag376
ag377
ag378
ag379
ag380
ag381
ag382
atp568
bsg63
Nstp569
Rp570
a(dp571
g339
(dp572
g341
g360
sg342
(lp573
(dp574
g345
g346
(I0
I16
I1
tp575
Rp576
sg349
g417
sasstp577
bsbsg351
I18
ssVBorneo
p578
(dp579
g3
Vhttp://survivor.wikia.com/wiki/Survivor:_Borneo
p580
sg5
g6
(g7
g8
Ntp581
Rp582
(dp583
g12
g13
sg14
g15
sg16
g6
(g17
g8
Ntp584
Rp585
((lp586
g21
(g22
(dp587
g24
g25
(g26
(I0
tp588
g28
tp589
Rp590
(I1
(L17L
tp591
g35
I00
(lp592
VSonja
p593
aVB.B.
p594
aVStacey
p595
aVRamona
p596
aVDirk
p597
aVJoel
p598
aVGretchen
p599
aVGreg
p600
aVJenna
p601
aVGervase
p602
aVColleen
p603
aVSean
p604
aVSusan
p605
aVSusan
p606
aVRudy
p607
aVKelly
p608
aVRichard
p609
atp610
bsg63
Nstp611
Rp612
ag21
(g22
(dp613
g24
g25
(g26
(I0
tp614
g28
tp615
Rp616
(I1
(L16L
tp617
g35
I00
(lp618
VRichard
p619
aVKelly
p620
aVRudy
p621
aVSusan
p622
aVSean
p623
aVColleen
p624
aVGervase
p625
aVJenna
p626
aVGreg
p627
aVGretchen
p628
aVJoel
p629
aVDirk
p630
aVRamona
p631
aVStacey
p632
aVB.B.
p633
aVSonja
p634
atp635
bsg63
g93
(g96
S'\x01\x00\x00\x00\x00\x00\x00\x00'
p636
tp637
Rp638
stp639
Rp640
a(lp641
g25
(g26
(I0
tp642
g28
tp643
Rp644
(I1
(L17L
L16L
tp645
g35
I00
(lp646
V Stacey
p647
aV Rudy
p648
aV Sonja
p649
aV Sonja
p650
aV Sonja
p651
aV \u2014
p652
aV \u2014
p653
aV \u2014
p654
aV \u2014
p655
aV \u2014
p656
aV \u2014
p657
aV Sonja
p658
aV \u2014
p659
aV Rudy
p660
aV \u2014
p661
aV Rudy
p662
aV \u2014
p663
aV \u2014
p664
aV \u2014
p665
aV \u2014
p666
aV \u2014
p667
aV B.B.
p668
aV B.B.
p669
aV B.B.
p670
aV Ramona
p671
aV B.B.
p672
aV B.B.
p673
aV \u2014
p674
aV B.B.
p675
aV \u2014
p676
aV Ramona
p677
ag129
aV Stacey
p678
aV Rudy
p679
aV Stacey
p680
aV Stacey
p681
aV Stacey
p682
aV \u2014
p683
aV \u2014
p684
aV \u2014
p685
aV \u2014
p686
aV \u2014
p687
aV \u2014
p688
aV Stacey
p689
aV \u2014
p690
aV Rudy
p691
ag129
ag129
aV \u2014
p692
aV \u2014
p693
aV \u2014
p694
aV \u2014
p695
aV \u2014
p696
aV Ramona
p697
aV Colleen
p698
aV Ramona
p699
aV Jenna
p700
aV Ramona
p701
aV Ramona
p702
aV \u2014
p703
aV Colleen
p704
ag129
ag129
ag129
aV Dirk
p705
aV Dirk
p706
aV Dirk
p707
aV Dirk
p708
aV Rudy
p709
aV \u2014
p710
aV \u2014
p711
aV \u2014
p712
aV \u2014
p713
aV \u2014
p714
aV \u2014
p715
aV Susan
p716
ag129
ag129
ag129
ag129
aV \u2014
p717
aV \u2014
p718
aV \u2014
p719
aV \u2014
p720
aV \u2014
p721
aV Joel
p722
aV Jenna
p723
aV Joel
p724
aV Joel
p725
aV Joel
p726
aV Jenna
p727
ag129
ag129
ag129
ag129
ag129
aV Gretchen
p728
aV Gretchen
p729
aV Gretchen
p730
aV Gretchen
p731
aV Colleen
p732
aV Richard
p733
aV Susan
p734
aV Gervase
p735
aV Jenna
p736
aV Rudy
p737
ag129
ag129
ag129
ag129
ag129
ag129
aV Greg
p738
aV Greg
p739
aV Greg
p740
aV Greg
p741
aV Greg
p742
aV Jenna
p743
aV Jenna
p744
aV Greg
p745
aV Jenna
p746
ag129
ag129
ag129
ag129
ag129
ag129
ag129
aV Jenna
p747
aV Sean
p748
aV Jenna
p749
aV Jenna
p750
aV Jenna
p751
aV Richard
p752
aV Richard
p753
aV Richard
p754
ag129
ag129
ag129
ag129
ag129
ag129
ag129
ag129
aV Gervase
p755
aV Gervase
p756
aV Gervase
p757
aV Gervase
p758
aV Gervase
p759
aV Sean
p760
aV Sean
p761
ag129
ag129
ag129
ag129
ag129
ag129
ag129
ag129
ag129
aV Colleen
p762
aV Sean
p763
aV Colleen
p764
aV Colleen
p765
aV Colleen
p766
aV Sean
p767
ag129
ag129
ag129
ag129
ag129
ag129
ag129
ag129
ag129
ag129
aV Sean
p768
aV Sean
p769
aV Sean
p770
aV Sean
p771
aV Susan
p772
ag129
ag129
ag129
ag129
ag129
ag129
ag129
ag129
ag129
ag129
ag129
aV Susan
p773
aV Richard
p774
aV Susan
p775
aV Richard
p776
ag129
ag129
ag129
ag129
ag129
ag129
ag129
ag129
ag129
ag129
ag129
ag129
aVNone
p777
aV Susan
p778
aV Susan
p779
aVNone 
p780
ag129
ag129
ag129
ag129
ag129
ag129
ag129
ag129
ag129
ag129
ag129
ag129
aV \u2014
p781
aV Rudy
p782
aV \u2014
p783
ag129
ag129
ag129
ag129
ag129
ag129
ag129
ag129
ag129
ag129
ag129
ag129
ag129
ag319
ag319
ag129
ag129
ag129
aV Kelly
p784
aV Kelly
p785
aV Kelly
p786
ag129
ag129
ag129
ag129
ag129
ag129
ag129
ag129
ag319
ag319
aV Richard
p787
aV Richard
p788
aV Richard
p789
ag129
ag129
ag129
aV Richard
p790
ag129
ag129
ag129
ag129
ag129
ag129
ag129
atp791
ba(lp792
g21
(g22
(dp793
g24
g25
(g26
(I0
tp794
g28
tp795
Rp796
(I1
(L17L
tp797
g35
I00
(lp798
g593
ag594
ag595
ag596
ag597
ag598
ag599
ag600
ag601
ag602
ag603
ag604
ag605
ag606
ag607
ag608
ag609
atp799
bsg63
Nstp800
Rp801
a(dp802
g339
(dp803
g341
g586
sg342
(lp804
(dp805
g345
g346
(I0
I17
I1
tp806
Rp807
sg349
g644
sasstp808
bsbsg351
I1
ssVPanama
p809
(dp810
g3
Vhttp://survivor.wikia.com/wiki/Survivor:_Panama
p811
sg5
g6
(g7
g8
Ntp812
Rp813
(dp814
g12
g13
sg14
g15
sg16
g6
(g17
g8
Ntp815
Rp816
((lp817
g21
(g22
(dp818
g24
g25
(g26
(I0
tp819
g28
tp820
Rp821
(I1
(L16L
tp822
g35
I00
(lp823
VTina
p824
aVMelinda
p825
aVMisty
p826
aVRuth-Marie
p827
aVBobby
p828
aVDan
p829
aVNick
p830
aVAustin
p831
aVSally
p832
aVBruce
p833
aVCourtney
p834
aVShane
p835
aVCirie
p836
aVTerry
p837
aVDanielle
p838
aVAras
p839
atp840
bsg63
Nstp841
Rp842
ag21
(g22
(dp843
g24
g25
(g26
(I0
tp844
g28
tp845
Rp846
(I1
(L16L
tp847
g35
I00
(lp848
VAras
p849
aVDanielle
p850
aVTerry
p851
aVCirie
p852
aVShane
p853
aVCourtney
p854
aVBruce
p855
aVSally
p856
aVAustin
p857
aVNick
p858
aVDan
p859
aVBobby
p860
aVRuth-Marie
p861
aVMisty
p862
aVMelinda
p863
aVTina
p864
atp865
bsg63
g93
(g96
S'\x01\x00\x00\x00\x00\x00\x00\x00'
p866
tp867
Rp868
stp869
Rp870
a(lp871
g25
(g26
(I0
tp872
g28
tp873
Rp874
(I1
(L16L
L16L
tp875
g35
I00
(lp876
V \u2014
p877
aV \u2014
p878
aV \u2014
p879
aV Tina
p880
aV \u2014
p881
aV \u2014
p882
aV \u2014
p883
aV \u2014
p884
aV \u2014
p885
aV \u2014
p886
aV \u2014
p887
aV \u2014
p888
aV Tina
p889
aV \u2014
p890
aV Tina
p891
aV Cirie
p892
aV Melinda
p893
aV Melinda
p894
aV \u2014
p895
aV Shane
p896
aV Melinda
p897
aV Melinda
p898
aVExiled 
p899
aV \u2014
p900
aV \u2014
p901
aV \u2014
p902
aV \u2014
p903
aV Melinda
p904
aV \u2014
p905
aV \u2014
p906
aV Shane
p907
ag129
aV \u2014
p908
aV \u2014
p909
aV Misty
p910
aV \u2014
p911
aV \u2014
p912
aV \u2014
p913
aV \u2014
p914
aV Ruth-Marie
p915
aV Misty
p916
aV Misty
p917
aV Misty
p918
aV \u2014
p919
aV Misty
p920
aV Ruth-Marie
p921
ag129
ag129
aV \u2014
p922
aV \u2014
p923
aV Ruth-Marie
p924
aV \u2014
p925
aV \u2014
p926
aV \u2014
p927
aV \u2014
p928
aV Ruth-Marie
p929
aV Ruth-Marie
p930
aV Ruth-Marie
p931
aV Sally
p932
aV \u2014
p933
aV Sally
p934
ag129
ag129
ag129
aV Bruce
p935
aV Bobby
p936
aV \u2014
p937
aV Bobby
p938
aV Aras
p939
aV Bobby
p940
aV Courtney
p941
aV \u2014
p942
aV \u2014
p943
aV \u2014
p944
aV \u2014
p945
aV Bruce
p946
ag129
ag129
ag129
ag129
aV \u2014
p947
aV \u2014
p948
aV Dan
p949
aV \u2014
p950
aV \u2014
p951
aV \u2014
p952
aV \u2014
p953
aVExiled 
p954
aV Dan
p955
aV Dan
p956
aV Austin
p957
ag129
ag129
ag129
ag129
ag129
aV Nick
p958
aV Nick
p959
aV Shane
p960
aV Nick
p961
aV Nick
p962
aV Nick
p963
aV Nick
p964
aV Shane
p965
aV Shane
p966
aV Shane
p967
ag129
ag129
ag129
ag129
ag129
ag129
aV Austin
p968
aV Austin
p969
aV Aras
p970
aV Austin
p971
aV Austin
p972
aV Austin
p973
aV Austin
p974
aV Aras
p975
aV Aras
p976
ag129
ag129
ag129
ag129
ag129
ag129
ag129
aV Sally
p977
aV Sally
p978
aV Aras
p979
aV Sally
p980
aV Sally
p981
aV Sally
p982
aV Sally
p983
aV Aras
p984
ag129
ag129
ag129
ag129
ag129
ag129
ag129
ag129
aV \u2014
p985
aV \u2014
p986
aV \u2014
p987
aV \u2014
p988
aV \u2014
p989
aV \u2014
p990
aVEvacuated
p991
ag129
ag129
ag129
ag129
ag129
ag129
ag129
ag129
ag129
aV Courtney
p992
aV Courtney
p993
aV Aras
p994
aV Courtney
p995
aV Danielle
p996
aV Aras
p997
ag129
ag129
ag129
ag129
ag129
ag129
ag129
ag129
ag129
ag129
aV Shane
p998
aV Shane
p999
aV Aras
p1000
aV Shane
p1001
aV Danielle
p1002
ag129
ag129
ag129
ag129
ag129
ag129
ag129
ag129
ag129
ag129
ag129
aV Danielle
p1003
aV Cirie
p1004
aV Cirie
p1005
aV Danielle
p1006
ag129
ag129
ag129
ag129
ag129
ag129
ag129
ag129
ag129
ag129
ag129
ag129
aV \u2014
p1007
aV Terry
p1008
aV \u2014
p1009
ag129
ag129
ag129
ag129
ag129
ag129
ag129
ag129
ag129
ag129
ag129
ag129
ag129
ag319
ag319
ag129
ag129
aV Danielle
p1010
ag129
aV Danielle
p1011
ag129
ag129
ag129
ag129
ag129
ag129
ag129
ag129
ag129
ag319
ag319
aV Aras
p1012
aV Aras
p1013
ag129
aV Aras
p1014
ag129
aV Aras
p1015
aV Aras
p1016
ag129
ag129
ag129
ag129
ag129
ag129
ag129
atp1017
ba(lp1018
g21
(g22
(dp1019
g24
g25
(g26
(I0
tp1020
g28
tp1021
Rp1022
(I1
(L16L
tp1023
g35
I00
(lp1024
g824
ag825
ag826
ag827
ag828
ag829
ag830
ag831
ag832
ag833
ag834
ag835
ag836
ag837
ag838
ag839
atp1025
bsg63
Nstp1026
Rp1027
a(dp1028
g339
(dp1029
g341
g817
sg342
(lp1030
(dp1031
g345
g346
(I0
I16
I1
tp1032
Rp1033
sg349
g874
sasstp1034
bsbsg351
I12
ssVCambodia
p1035
(dp1036
g3
Vhttp://survivor.wikia.com/wiki/Survivor:_Cambodia
p1037
sg5
g6
(g7
g8
Ntp1038
Rp1039
(dp1040
g12
g13
sg14
g15
sg16
g6
(g17
g8
Ntp1041
Rp1042
((lp1043
g21
(g22
(dp1044
g24
g25
(g26
(I0
tp1045
g28
tp1046
Rp1047
(I1
(L16L
tp1048
g35
I00
(lp1049
VVytas
p1050
aVShirin
p1051
aVPeih-Gee
p1052
aVJeff
p1053
aVMonica
p1054
aVTerry
p1055
aVWoo
p1056
aVKass
p1057
aVAndrew
p1058
aVKelly
p1059
aVCiera
p1060
aVStephen
p1061
aVStephen
p1062
aVJoe
p1063
aVAbi-Maria
p1064
aVTBA
p1065
atp1066
bsg63
Nstp1067
Rp1068
ag21
(g22
(dp1069
g24
g25
(g26
(I0
tp1070
g28
tp1071
Rp1072
(I1
(L20L
tp1073
g35
I00
(lp1074
VJeremy
p1075
aVKeith
p1076
aVKelley
p1077
aVKimmi
p1078
aVSpencer
p1079
aVTasha
p1080
aVAbi-Maria
p1081
aVJoe
p1082
aVStephen
p1083
aVCiera
p1084
aVKelly
p1085
aVAndrew
p1086
aVKass
p1087
aVWoo
p1088
aVTerry
p1089
aVMonica
p1090
aVJeff
p1091
aVPeih-Gee
p1092
aVShirin
p1093
aVVytas
p1094
atp1095
bsg63
g93
(g96
S'\x01\x00\x00\x00\x00\x00\x00\x00'
p1096
tp1097
Rp1098
stp1099
Rp1100
a(lp1101
g25
(g26
(I0
tp1102
g28
tp1103
Rp1104
(I1
(L16L
L20L
tp1105
g35
I00
(lp1106
V \u2014
p1107
aV \u2014
p1108
aV Vytas
p1109
aV \u2014
p1110
aV Vytas
p1111
aV \u2014
p1112
aV Vytas
p1113
aV \u2014
p1114
aV \u2014
p1115
aV \u2014
p1116
aV Abi-Maria
p1117
aV \u2014
p1118
aV \u2014
p1119
aV Abi-Maria
p1120
aV Abi-Maria
p1121
aV \u2014
p1122
aV Vytas
p1123
aV Vytas
p1124
aV Vytas
p1125
aV Abi-Maria
p1126
aV \u2014
p1127
aV \u2014
p1128
aV Spencer
p1129
aV \u2014
p1130
aV Shirin
p1131
aV \u2014
p1132
aV Spencer
p1133
aV \u2014
p1134
aV \u2014
p1135
aV \u2014
p1136
aV Shirin
p1137
aV \u2014
p1138
aV \u2014
p1139
aV Shirin
p1140
aV Spencer
p1141
aV \u2014
p1142
aV Shirin
p1143
aV Shirin
p1144
aV Spencer
p1145
ag129
aV \u2014
p1146
aV \u2014
p1147
aV \u2014
p1148
aV \u2014
p1149
aV \u2014
p1150
aV Peih-Gee
p1151
aV Peih-Gee
p1152
aV \u2014
p1153
aV \u2014
p1154
aV \u2014
p1155
aV \u2014
p1156
aV Peih-Gee
p1157
aV \u2014
p1158
aV Abi-Maria
p1159
aV \u2014
p1160
aV \u2014
p1161
aV Peih-Gee
p1162
aV Abi-Maria
p1163
ag129
ag129
aV \u2014
p1164
aV \u2014
p1165
aV \u2014
p1166
aV \u2014
p1167
aV \u2014
p1168
aV Jeff
p1169
aV Jeff
p1170
aV \u2014
p1171
aV \u2014
p1172
aV \u2014
p1173
aV \u2014
p1174
aV Jeff
p1175
aV \u2014
p1176
aV Jeff
p1177
aV \u2014
p1178
aV \u2014
p1179
aV Woo
p1180
ag129
ag129
ag129
aV Monica
p1181
aV \u2014
p1182
aV \u2014
p1183
aV Monica
p1184
aV Kelly
p1185
aV \u2014
p1186
aV \u2014
p1187
aV \u2014
p1188
aV Monica
p1189
aV \u2014
p1190
aV Spencer
p1191
aV \u2014
p1192
aV \u2014
p1193
aV \u2014
p1194
aV \u2014
p1195
aV Kelly
p1196
ag129
ag129
ag129
ag129
aV \u2014
p1197
aV \u2014
p1198
aV \u2014
p1199
aV \u2014
p1200
aV \u2014
p1201
aV \u2014
p1202
aV \u2014
p1203
aV \u2014
p1204
aV \u2014
p1205
aV \u2014
p1206
aV \u2014
p1207
aV \u2014
p1208
aV \u2014
p1209
aV \u2014
p1210
aV Evacuated
p1211
ag129
ag129
ag129
ag129
ag129
aV \u2014
p1212
aV \u2014
p1213
aV \u2014
p1214
aV \u2014
p1215
aV Woo
p1216
aV \u2014
p1217
aV Woo
p1218
aV \u2014
p1219
aV \u2014
p1220
aV Woo
p1221
aV Spencer
p1222
aV Spencer
p1223
aV Woo
p1224
aV Spencer
p1225
ag129
ag129
ag129
ag129
ag129
ag129
aV Ciera
p1226
aV Kass
p1227
aV Kass
p1228
aV Kass
p1229
aV Ciera
p1230
aV Kass
p1231
aV Tasha
p1232
aV Ciera
p1233
aV Kass
p1234
aV Andrew
p1235
aV Ciera
p1236
aV Kass
p1237
aV Tasha
p1238
ag129
ag129
ag129
ag129
ag129
ag129
ag129
aV Kelley
p1239
aV Kelley
p1240
aV Andrew
p1241
aV Kelley
p1242
aV Kelley
p1243
aV Kelley
p1244
aV Andrew
p1245
aV Kelley
p1246
aV Kelley
p1247
aV Andrew
p1248
aV Kelley
p1249
aV Kelley
p1250
ag129
ag129
ag129
ag129
ag129
ag129
ag129
ag129
aV Kelly
p1251
aV Kelley
p1252
aV Kelly
p1253
aV Ciera
p1254
aV Kelly
p1255
aV Ciera
p1256
aV Kelly
p1257
aV Kelley
p1258
aV Kelly
p1259
aV Kelly
p1260
aV Ciera
p1261
ag129
ag129
ag129
ag129
ag129
ag129
ag129
ag129
ag129
aV Ciera
p1262
aV Stephen
p1263
aV Kimmi
p1264
aV Ciera
p1265
aV Stephen
p1266
aV Stephen
p1267
aV Stephen
p1268
aV Stephen
p1269
aV Ciera
p1270
aV Kimmi
p1271
ag129
ag129
ag129
ag129
ag129
ag129
ag129
ag129
ag129
ag129
aV Joe
p1272
aV Stephen
p1273
aV Stephen
p1274
aV Abi-Maria
p1275
aV Stephen
p1276
aV Abi-Maria
p1277
aV Stephen
p1278
aV None
p1279
aV Abi-Maria
p1280
ag129
ag129
ag129
ag129
ag129
ag129
ag129
ag129
ag129
ag129
ag129
ag1272
ag1273
ag1274
ag1275
ag1276
ag1277
ag1278
ag1279
aV Joe
p1281
ag129
ag129
ag129
ag129
ag129
ag129
ag129
ag129
ag129
ag129
ag129
aV Joe
p1282
aV Tasha
p1283
aV Joe
p1284
aV Joe
p1285
aV Joe
p1286
aV Joe
p1287
aV Joe
p1288
aV Abi-Maria
p1289
ag129
ag129
ag129
ag129
ag129
ag129
ag129
ag129
ag129
ag129
ag129
ag129
aV Abi-Maria
p1290
aV Tasha
p1291
aV Tasha
p1292
aV Abi-Maria
p1293
aV Abi-Maria
p1294
aV Abi-Maria
p1295
aV Keith
p1296
ag129
ag129
ag129
ag129
ag129
ag129
ag129
ag129
ag129
ag129
ag129
ag129
ag129
aV TBA
p1297
aV TBA
p1298
aV TBA
p1299
aV TBA
p1300
aV TBA
p1301
aV TBA
p1302
ag129
ag129
ag129
ag129
ag129
ag129
ag129
ag129
ag129
ag129
ag129
ag129
ag129
ag129
atp1303
ba(lp1304
g21
(g22
(dp1305
g24
g25
(g26
(I0
tp1306
g28
tp1307
Rp1308
(I1
(L16L
tp1309
g35
I00
(lp1310
g1050
ag1051
ag1052
ag1053
ag1054
ag1055
ag1056
ag1057
ag1058
ag1059
ag1060
ag1061
ag1062
ag1063
ag1064
ag1065
atp1311
bsg63
Nstp1312
Rp1313
a(dp1314
g339
(dp1315
g341
g1043
sg342
(lp1316
(dp1317
g345
g346
(I0
I16
I1
tp1318
Rp1319
sg349
g1104
sasstp1320
bsbsg351
I31
ssVBlood_vs._Water
p1321
(dp1322
g3
Vhttp://survivor.wikia.com/wiki/Survivor:_Blood_vs._Water
p1323
sg5
g6
(g7
g8
Ntp1324
Rp1325
(dp1326
g12
g13
sg14
g15
sg16
g6
(g17
g8
Ntp1327
Rp1328
((lp1329
g21
(g22
(dp1330
g24
g25
(g26
(I0
tp1331
g28
tp1332
Rp1333
(I1
(L25L
tp1334
g35
I00
(lp1335
VLaura B.
p1336
aVCandice
p1337
aVRupert
p1338
aVMarissa
p1339
aVRachel
p1340
aVColton
p1341
aVJohn
p1342
aVBrad
p1343
aVBrad
p1344
aVLaura M.
p1345
aVKat
p1346
aVLaura B.
p1347
aVAras
p1348
aVVytas
p1349
aVTina
p1350
aVLaura M.
p1351
aVCaleb
p1352
aVKatie
p1353
aVKatie
p1354
aVHayden
p1355
aVCiera
p1356
aVTina
p1357
aVGervase
p1358
aVMonica
p1359
aVTyson
p1360
atp1361
bsg63
Nstp1362
Rp1363
ag21
(g22
(dp1364
g24
g25
(g26
(I0
tp1365
g28
tp1366
Rp1367
(I1
(L20L
tp1368
g35
I00
(lp1369
VTyson
p1370
aVMonica
p1371
aVGervase
p1372
aVTina
p1373
aVCiera
p1374
aVLaura M.
p1375
aVHayden
p1376
aVKatie
p1377
aVCaleb
p1378
aVVytas
p1379
aVAras
p1380
aVLaura B.
p1381
aVJohn
p1382
aVKat
p1383
aVBrad
p1384
aVCandice
p1385
aVMarissa
p1386
aVRachel
p1387
aVColton
p1388
aVRupert
p1389
atp1390
bsg63
g93
(g96
S'\x01\x00\x00\x00\x00\x00\x00\x00'
p1391
tp1392
Rp1393
stp1394
Rp1395
a(lp1396
g25
(g26
(I0
tp1397
g28
tp1398
Rp1399
(I1
(L25L
L20L
tp1400
g35
I00
(lp1401
V\u2014
p1402
aV\u2014
p1403
aV\u2014
p1404
aV\u2014
p1405
aV Laura B.
p1406
aV\u2014
p1407
aV Laura B.
p1408
aV Marissa
p1409
aV Laura B.
p1410
aV Laura B.
p1411
aV\u2014
p1412
aV Marissa
p1413
aV Laura B.
p1414
aV\u2014
p1415
aV Laura B.
p1416
aV\u2014
p1417
aV Brad
p1418
aV Katie
p1419
aV\u2014
p1420
aV\u2014
p1421
aV Laura M.
p1422
aV Candice
p1423
aV Candice
p1424
aV Candice
p1425
aV\u2014
p1426
aV Candice
p1427
aV\u2014
p1428
aV\u2014
p1429
aV\u2014
p1430
aV\u2014
p1431
aV Gervase
p1432
ag129
aV\u2014
p1433
aV Candice
p1434
aV\u2014
p1435
aV Laura M.
p1436
aV\u2014
p1437
aV\u2014
p1438
aV Candice
p1439
aV Laura M.
p1440
aV\u2014
p1441
aV\u2014
p1442
aV\u2014
p1443
aV\u2014
p1444
ag1426
aV\u2014
p1445
ag1428
ag1429
ag1430
ag1431
aV\u2014
p1446
aV Switched
p1447
ag1433
aV\u2014
p1448
ag1435
ag129
ag1437
ag1438
aV\u2014
p1449
aVSwitched
p1450
ag1441
ag1442
ag1443
ag1444
aV Marissa
p1451
ag1445
aV Marissa
p1452
aV Marissa
p1453
aV Marissa
p1454
aV Marissa
p1455
ag1446
aV\u2014
p1456
aV Marissa
p1457
ag1448
aV Marissa
p1458
ag129
aV Katie
p1459
aV Marissa
p1460
ag1449
ag129
aV\u2014
p1461
aV\u2014
p1462
aV\u2014
p1463
aV\u2014
p1464
aV John
p1465
aV\u2014
p1466
aV Rachel
p1467
aV John
p1468
aV Rachel
p1469
aV Rachel
p1470
aV\u2014
p1471
aV\u2014
p1472
aV Rachel
p1473
aV\u2014
p1474
aV Rachel
p1475
ag129
ag129
aV Ciera
p1476
aV\u2014
p1477
ag129
aV\u2014
p1478
aV\u2014
p1479
aV\u2014
p1480
aV\u2014
p1481
aV\u2014
p1482
aV\u2014
p1483
aV\u2014
p1484
aV\u2014
p1485
aV\u2014
p1486
aV\u2014
p1487
aV\u2014
p1488
aV\u2014
p1489
aV\u2014
p1490
aV\u2014
p1491
aV\u2014
p1492
ag129
ag129
ag129
aVQuit
p1493
ag129
ag1478
ag1479
ag1480
ag1481
aV John
p1494
ag1483
aV John
p1495
aV John
p1496
aV John
p1497
aV John
p1498
ag1488
ag1489
aV Ciera
p1499
ag1491
aV John
p1500
ag129
ag129
ag129
ag129
ag129
aV\u2014
p1501
aV\u2014
p1502
aV\u2014
p1503
aV\u2014
p1504
aV Brad
p1505
aV\u2014
p1506
aV Ciera
p1507
aV Brad
p1508
aV Brad
p1509
aV Ciera
p1510
aV\u2014
p1511
aV\u2014
p1512
ag129
aV\u2014
p1513
aV Ciera
p1514
ag129
ag129
ag129
ag129
ag129
ag1501
ag1502
ag1503
ag1504
aVNone
p1515
ag1506
aV Ciera
p1516
aV Brad
p1517
aV Brad
p1518
aV Brad
p1519
ag1511
ag1512
ag129
ag1513
aVNone
p1520
ag129
ag129
ag129
ag129
ag129
aV Laura M.
p1521
aV Laura M.
p1522
aV Laura M.
p1523
aV Laura M.
p1524
aV\u2014
p1525
aV Laura B.
p1526
aV\u2014
p1527
aV\u2014
p1528
aV\u2014
p1529
aV\u2014
p1530
aV Laura M.
p1531
aV Laura M.
p1532
ag129
aV Laura M.
p1533
ag129
ag129
ag129
ag129
ag129
ag129
aV\u2014
p1534
aV Kat
p1535
aV\u2014
p1536
aV Kat
p1537
aV\u2014
p1538
ag129
aV\u2014
p1539
aV Kat
p1540
aV\u2014
p1541
aV Kat
p1542
aV\u2014
p1543
aV Kat
p1544
ag129
aV Vytas
p1545
ag129
ag129
ag129
ag129
ag129
ag129
aV\u2014
p1546
aV Laura B.
p1547
aV\u2014
p1548
aV Laura B.
p1549
aV\u2014
p1550
ag129
aV\u2014
p1551
aV Laura B.
p1552
aV\u2014
p1553
aV Laura B.
p1554
aV\u2014
p1555
aV Vytas
p1556
ag129
ag129
ag129
ag129
ag129
ag129
ag129
ag129
aV Aras
p1557
aV Aras
p1558
aV Aras
p1559
aV Ciera
p1560
aV Aras
p1561
aV Aras
p1562
aV Aras
p1563
aV Ciera
p1564
aV Aras
p1565
aV Laura M.
p1566
aV Laura M.
p1567
ag129
ag129
ag129
ag129
ag129
ag129
ag129
ag129
ag129
aV Vytas
p1568
aV Vytas
p1569
aV Vytas
p1570
aV Vytas
p1571
aV Katie
p1572
aV Vytas
p1573
aV Vytas
p1574
aV Vytas
p1575
aV Vytas
p1576
aV Tyson
p1577
ag129
ag129
ag129
ag129
ag129
ag129
ag129
ag129
ag129
ag129
aV Tina
p1578
aV Tina
p1579
aV Tina
p1580
aV Tyson
p1581
aV Tina
p1582
aV Tina
p1583
aV Tina
p1584
aV Monica
p1585
aV Tina
p1586
ag129
ag129
ag129
ag129
ag129
ag129
ag129
ag129
ag129
ag129
ag129
aV Laura M.
p1587
aV Laura M.
p1588
aV Laura M.
p1589
ag129
aV Laura M.
p1590
aV Katie
p1591
aV Laura M.
p1592
aV Laura M.
p1593
aV Laura M.
p1594
ag129
ag129
ag129
ag129
ag129
ag129
ag129
ag129
ag129
ag129
ag129
aV Caleb
p1595
aV Caleb
p1596
aV Caleb
p1597
ag129
aV Caleb
p1598
ag129
aV Ciera
p1599
aV Ciera
p1600
aV Ciera
p1601
ag129
ag129
ag129
ag129
ag129
ag129
ag129
ag129
ag129
ag129
ag129
aV Hayden
p1602
aV Hayden
p1603
aV Hayden
p1604
ag129
aV Monica
p1605
ag129
aV Monica
p1606
aV Monica
p1607
ag129
ag129
ag129
ag129
ag129
ag129
ag129
ag129
ag129
ag129
ag129
ag129
aV Hayden
p1608
aVNone
p1609
aV Hayden
p1610
ag129
aV Monica
p1611
ag129
aVNone
p1612
aV Monica
p1613
ag129
ag129
ag129
ag129
ag129
ag129
ag129
ag129
ag129
ag129
ag129
ag129
aV Hayden
p1614
aV Hayden
p1615
aV Hayden
p1616
ag129
aV Gervase
p1617
ag129
aV Gervase
p1618
ag129
ag129
ag129
ag129
ag129
ag129
ag129
ag129
ag129
ag129
ag129
ag129
ag129
aV Ciera
p1619
aV Ciera
p1620
aV Ciera
p1621
aV Gervase
p1622
aV Gervase
p1623
ag129
ag129
ag129
ag129
ag129
ag129
ag129
ag129
ag129
ag129
ag129
ag129
ag129
ag129
ag129
aV Tina
p1624
aV Tina
p1625
aV Tina
p1626
aV Gervase
p1627
ag129
ag129
ag129
ag129
ag129
ag129
ag129
ag129
ag129
ag129
ag129
ag129
ag129
ag129
ag129
ag129
ag319
ag319
ag319
ag129
ag129
ag129
ag129
ag129
ag129
ag129
ag129
ag129
ag129
ag129
ag129
ag129
ag129
ag129
ag129
ag129
ag319
ag319
ag319
ag129
ag129
ag129
ag129
ag129
ag129
aV Monica
p1628
ag129
ag129
ag129
ag129
ag129
ag129
ag129
ag129
ag129
ag129
ag319
ag319
ag319
aV Tyson
p1629
aV Tyson
p1630
aV Tyson
p1631
aV Tyson
p1632
aV Tyson
p1633
aV Tyson
p1634
ag129
aV Tyson
p1635
ag129
ag129
ag129
ag129
ag129
ag129
ag129
ag129
ag129
atp1636
ba(lp1637
g21
(g22
(dp1638
g24
g25
(g26
(I0
tp1639
g28
tp1640
Rp1641
(I1
(L25L
tp1642
g35
I00
(lp1643
g1336
ag1337
ag1338
ag1339
ag1340
ag1341
ag1342
ag1343
ag1344
ag1345
ag1346
ag1347
ag1348
ag1349
ag1350
ag1351
ag1352
ag1353
ag1354
ag1355
ag1356
ag1357
ag1358
ag1359
ag1360
atp1644
bsg63
Nstp1645
Rp1646
a(dp1647
g339
(dp1648
g341
g1329
sg342
(lp1649
(dp1650
g345
g346
(I0
I25
I1
tp1651
Rp1652
sg349
g1399
sasstp1653
bsbsg351
I27
ssVMarquesas
p1654
(dp1655
g3
Vhttp://survivor.wikia.com/wiki/Survivor:_Marquesas
p1656
sg5
g6
(g7
g8
Ntp1657
Rp1658
(dp1659
g12
g13
sg14
g15
sg16
g6
(g17
g8
Ntp1660
Rp1661
((lp1662
g21
(g22
(dp1663
g24
g25
(g26
(I0
tp1664
g28
tp1665
Rp1666
(I1
(L17L
tp1667
g35
I00
(lp1668
VPeter
p1669
aVPatricia
p1670
aVHunter
p1671
aVSarah
p1672
aVGabriel
p1673
aVGina
p1674
aVRob
p1675
aVJohn
p1676
aVZoe
p1677
aVTammy
p1678
aVRobert
p1679
aVSean
p1680
aVPaschal
p1681
aVPaschal
p1682
aVKathy
p1683
aVNeleh
p1684
aVVecepia
p1685
atp1686
bsg63
Nstp1687
Rp1688
ag21
(g22
(dp1689
g24
g25
(g26
(I0
tp1690
g28
tp1691
Rp1692
(I1
(L16L
tp1693
g35
I00
(lp1694
VVecepia
p1695
aVNeleh
p1696
aVKathy
p1697
aVPaschal
p1698
aVSean
p1699
aVRobert
p1700
aVTammy
p1701
aVZoe
p1702
aVJohn
p1703
aVRob
p1704
aVGina
p1705
aVGabriel
p1706
aVSarah
p1707
aVHunter
p1708
aVPatricia
p1709
aVPeter
p1710
atp1711
bsg63
g93
(g96
S'\x01\x00\x00\x00\x00\x00\x00\x00'
p1712
tp1713
Rp1714
stp1715
Rp1716
a(lp1717
g25
(g26
(I0
tp1718
g28
tp1719
Rp1720
(I1
(L17L
L16L
tp1721
g35
I00
(lp1722
V Sarah
p1723
aV \u2014
p1724
aV \u2014
p1725
aV \u2014
p1726
aV Sarah
p1727
aV \u2014
p1728
aV \u2014
p1729
aV \u2014
p1730
aV \u2014
p1731
aV Peter
p1732
aV Peter
p1733
aV \u2014
p1734
aV Peter
p1735
aV Peter
p1736
aV Peter
p1737
aV Patricia
p1738
aV Patricia
p1739
aV \u2014
p1740
aV \u2014
p1741
aV \u2014
p1742
aV Patricia
p1743
aV \u2014
p1744
aV \u2014
p1745
aV \u2014
p1746
aV \u2014
p1747
aV Patricia
p1748
aV Sarah
p1749
aV \u2014
p1750
aV Patricia
p1751
aV Sarah
p1752
aV Sarah
p1753
ag129
aV Hunter
p1754
aV \u2014
p1755
aV \u2014
p1756
aV \u2014
p1757
aV Hunter
p1758
aV \u2014
p1759
aV \u2014
p1760
aV \u2014
p1761
aV \u2014
p1762
aV Hunter
p1763
aV Sarah
p1764
aV \u2014
p1765
aV Hunter
p1766
aV Sarah
p1767
ag129
ag129
aV \u2014
p1768
aV Sarah
p1769
aV Sarah
p1770
aV Sarah
p1771
aV \u2014
p1772
aV \u2014
p1773
aV \u2014
p1774
aV \u2014
p1775
aV \u2014
p1776
aV \u2014
p1777
aV Sarah
p1778
aV \u2014
p1779
aV Kathy
p1780
ag129
ag129
ag129
aV Gabriel
p1781
aV \u2014
p1782
aV \u2014
p1783
aV \u2014
p1784
aV Gabriel
p1785
aV Gabriel
p1786
aV Gabriel
p1787
aV Gabriel
p1788
aV Gabriel
p1789
aV Gabriel
p1790
aV \u2014
p1791
aV Rob
p1792
ag129
ag129
ag129
ag129
aV \u2014
p1793
aV Gina
p1794
aV Gina
p1795
aV Gina
p1796
aV \u2014
p1797
aV \u2014
p1798
aV \u2014
p1799
aV \u2014
p1800
aV \u2014
p1801
aV \u2014
p1802
aV Kathy
p1803
ag129
ag129
ag129
ag129
ag129
aV Rob
p1804
aV Rob
p1805
aV Zoe
p1806
aV Rob
p1807
aV John
p1808
aV Rob
p1809
aV Rob
p1810
aV Rob
p1811
aV Rob
p1812
aV John
p1813
ag129
ag129
ag129
ag129
ag129
ag129
aV John
p1814
aV John
p1815
aV John
p1816
aV John
p1817
aV John
p1818
aV Sean
p1819
aV Sean
p1820
aV John
p1821
aV Sean
p1822
ag129
ag129
ag129
ag129
ag129
ag129
ag129
aV Zoe
p1823
aV Zoe
p1824
aV Zoe
p1825
aV Zoe
p1826
aV Zoe
p1827
aV Zoe
p1828
aV Zoe
p1829
aV Robert
p1830
ag129
ag129
ag129
ag129
ag129
ag129
ag129
ag129
aV Tammy
p1831
aV Tammy
p1832
aV Tammy
p1833
aV Tammy
p1834
aV Tammy
p1835
aV Vecepia
p1836
aV Vecepia
p1837
ag129
ag129
ag129
ag129
ag129
ag129
ag129
ag129
ag129
aV Robert
p1838
aV Robert
p1839
aV Robert
p1840
aV Robert
p1841
aV Robert
p1842
aV Sean
p1843
ag129
ag129
ag129
ag129
ag129
ag129
ag129
ag129
ag129
ag129
aV Neleh
p1844
aV Sean
p1845
aV Sean
p1846
aV Sean
p1847
aV Neleh
p1848
ag129
ag129
ag129
ag129
ag129
ag129
ag129
ag129
ag129
ag129
ag129
aV Neleh
p1849
aV Kathy
p1850
aV Neleh
p1851
aV Kathy
p1852
ag129
ag129
ag129
ag129
ag129
ag129
ag129
ag129
ag129
ag129
ag129
ag129
aV \u2014
p1853
aV \u2014
p1854
aV \u2014
p1855
aVEliminated
p1856
ag129
ag129
ag129
ag129
ag129
ag129
ag129
ag129
ag129
ag129
ag129
ag129
aV \u2014
p1857
aV Kathy
p1858
aV \u2014
p1859
ag129
ag129
ag129
ag129
ag129
ag129
ag129
ag129
ag129
ag129
ag129
ag129
ag129
ag319
ag319
aV Neleh
p1860
aV Neleh
p1861
ag129
ag129
ag129
aV Neleh
p1862
ag129
ag129
ag129
ag129
ag129
ag129
ag129
ag129
ag319
ag319
ag129
ag129
aV Vecepia
p1863
aV Vecepia
p1864
aV Vecepia
p1865
ag129
aV Vecepia
p1866
ag129
ag129
ag129
ag129
ag129
ag129
ag129
atp1867
ba(lp1868
g21
(g22
(dp1869
g24
g25
(g26
(I0
tp1870
g28
tp1871
Rp1872
(I1
(L17L
tp1873
g35
I00
(lp1874
g1669
ag1670
ag1671
ag1672
ag1673
ag1674
ag1675
ag1676
ag1677
ag1678
ag1679
ag1680
ag1681
ag1682
ag1683
ag1684
ag1685
atp1875
bsg63
Nstp1876
Rp1877
a(dp1878
g339
(dp1879
g341
g1662
sg342
(lp1880
(dp1881
g345
g346
(I0
I17
I1
tp1882
Rp1883
sg349
g1720
sasstp1884
bsbsg351
I4
ssVPearl_Islands
p1885
(dp1886
g3
Vhttp://survivor.wikia.com/wiki/Survivor:_Pearl_Islands
p1887
sg5
g6
(g7
g8
Ntp1888
Rp1889
(dp1890
g12
g13
sg14
g15
sg16
g6
(g17
g8
Ntp1891
Rp1892
((lp1893
g21
(g22
(dp1894
g24
g25
(g26
(I0
tp1895
g28
tp1896
Rp1897
(I1
(L20L
tp1898
g35
I00
(lp1899
VNicole
p1900
aVRyan S.
p1901
aVLillian
p1902
aVBurton
p1903
aVMichelle
p1904
aVTrish
p1905
aVShawn
p1906
aVOsten
p1907
aVBurton
p1908
aVLillian
p1909
aVAndrew
p1910
aVRyan O.
p1911
aVRupert
p1912
aVTijuana
p1913
aVChrista
p1914
aVBurton
p1915
aVDarrah
p1916
aVJon
p1917
aVLillian
p1918
aVSandra
p1919
atp1920
bsg63
Nstp1921
Rp1922
ag21
(g22
(dp1923
g24
g25
(g26
(I0
tp1924
g28
tp1925
Rp1926
(I1
(L16L
tp1927
g35
I00
(lp1928
VSandra
p1929
aVLillian
p1930
aVJon
p1931
aVDarrah
p1932
aVBurton
p1933
aVChrista
p1934
aVTijuana
p1935
aVRupert
p1936
aVRyan O.
p1937
aVAndrew
p1938
aVOsten
p1939
aVShawn
p1940
aVTrish
p1941
aVMichelle
p1942
aVRyan S.
p1943
aVNicole
p1944
atp1945
bsg63
g93
(g96
S'\x01\x00\x00\x00\x00\x00\x00\x00'
p1946
tp1947
Rp1948
stp1949
Rp1950
a(lp1951
g25
(g26
(I0
tp1952
g28
tp1953
Rp1954
(I1
(L20L
L16L
tp1955
g35
I00
(lp1956
V \u2014
p1957
aV Nicole
p1958
aV \u2014
p1959
aV Nicole
p1960
aV \u2014
p1961
aV \u2014
p1962
aV Nicole
p1963
aV \u2014
p1964
aV Nicole
p1965
aV Nicole
p1966
aV Nicole
p1967
aV \u2014
p1968
aV \u2014
p1969
aV \u2014
p1970
aV Nicole
p1971
aV Ryan S.
p1972
aV \u2014
p1973
aV Osten
p1974
aV \u2014
p1975
aV Ryan S.
p1976
aV \u2014
p1977
aV \u2014
p1978
aV Ryan S.
p1979
aV \u2014
p1980
aV Ryan S.
p1981
aV Ryan S.
p1982
aV Ryan S.
p1983
aV \u2014
p1984
aV \u2014
p1985
aV \u2014
p1986
aV Osten
p1987
ag129
aV \u2014
p1988
aV Darrah
p1989
aV \u2014
p1990
aV Lillian
p1991
aV \u2014
p1992
aV \u2014
p1993
aV Lillian
p1994
aV \u2014
p1995
aV Lillian
p1996
aV Lillian
p1997
aV Lillian
p1998
aV \u2014
p1999
aV \u2014
p2000
aV \u2014
p2001
ag129
ag129
aV Burton
p2002
ag129
aV Burton
p2003
aV \u2014
p2004
aV Christa
p2005
aV Burton
p2006
aV \u2014
p2007
aVKidnapped 
p2008
aV \u2014
p2009
aV \u2014
p2010
aV \u2014
p2011
aV Burton
p2012
aV Burton
p2013
aV Christa
p2014
ag129
ag129
aV Michelle
p2015
ag129
aV Michelle
p2016
aV \u2014
p2017
ag129
aV Michelle
p2018
aV \u2014
p2019
aV Michelle
p2020
aV \u2014
p2021
aV \u2014
p2022
aV \u2014
p2023
aV Michelle
p2024
aV Michelle
p2025
aV Shawn
p2026
ag129
ag129
aV Trish
p2027
ag129
aV Rupert
p2028
aV \u2014
p2029
ag129
aV Trish
p2030
aV \u2014
p2031
aV Trish
p2032
aV \u2014
p2033
aV \u2014
p2034
aV \u2014
p2035
aV Trish
p2036
aV Rupert
p2037
ag129
ag129
ag129
aV Shawn
p2038
ag129
aV Shawn
p2039
aV \u2014
p2040
ag129
aV Shawn
p2041
aV \u2014
p2042
aV Shawn
p2043
aV \u2014
p2044
aV \u2014
p2045
aV \u2014
p2046
aV Jon
p2047
ag129
ag129
ag129
ag129
aV \u2014
p2048
ag129
aV \u2014
p2049
aV \u2014
p2050
ag129
aV \u2014
p2051
aV \u2014
p2052
aV \u2014
p2053
aV \u2014
p2054
aV \u2014
p2055
aVQuit
p2056
ag129
ag129
ag129
ag129
ag129
aV \u2014
p2057
aV Ryan S.
p2058
aV \u2014
p2059
aV \u2014
p2060
aV Michelle
p2061
aV \u2014
p2062
aV \u2014
p2063
aV \u2014
p2064
aV \u2014
p2065
aV \u2014
p2066
ag129
ag129
aV Burton
p2067
aV Burton
p2068
aV Burton
p2069
aV Lillian
p2070
ag2057
aV Trish
p2071
ag2059
ag2060
aV Nicole
p2072
ag2062
ag2063
ag2064
ag2065
ag2066
ag129
ag129
aV Lillian
p2073
aV Nicole
p2074
aV Lillian
p2075
aV Ryan S.
p2076
aV Andrew
p2077
aV Andrew
p2078
aV Andrew
p2079
aV Jon
p2080
aV Andrew
p2081
aV Andrew
p2082
aV Jon
p2083
aV Andrew
p2084
aV Jon
p2085
aV Jon
p2086
ag129
ag129
ag129
ag129
ag129
ag129
aV Ryan O.
p2087
aV Ryan O.
p2088
aV Ryan O.
p2089
aV Ryan O.
p2090
aV Ryan O.
p2091
aV Ryan O.
p2092
aV Ryan O.
p2093
aV Ryan O.
p2094
aV Christa
p2095
ag129
ag129
ag129
ag129
ag129
ag129
ag129
aV Jon
p2096
aV Rupert
p2097
aV Rupert
p2098
aV Rupert
p2099
aV Rupert
p2100
aV Darrah
p2101
aV Rupert
p2102
aV Darrah
p2103
ag129
ag129
ag129
ag129
ag129
ag129
ag129
ag129
aV Tijuana
p2104
aV Tijuana
p2105
aV Tijuana
p2106
aV Burton
p2107
aV Tijuana
p2108
aV Tijuana
p2109
aV Burton
p2110
ag129
ag129
ag129
ag129
ag129
ag129
ag129
ag129
ag129
aV Lillian
p2111
aV Christa
p2112
aV Christa
p2113
aV Christa
p2114
aV Christa
p2115
aV Lillian
p2116
ag129
ag129
ag129
ag129
ag129
ag129
ag129
ag129
ag129
ag129
aV Burton
p2117
aV Burton
p2118
aV Lillian
p2119
aV Burton
p2120
aV Lillian
p2121
ag129
ag129
ag129
ag129
ag129
ag129
ag129
ag129
ag129
ag129
ag129
aV Darrah
p2122
aV Darrah
p2123
aV Darrah
p2124
aV Lillian
p2125
ag129
ag129
ag129
ag129
ag129
ag129
ag129
ag129
ag129
ag129
ag129
ag129
aV \u2014
p2126
aV Jon
p2127
aV \u2014
p2128
ag129
ag129
ag129
ag129
ag129
ag129
ag129
ag129
ag129
ag129
ag129
ag129
ag129
ag319
ag319
ag129
ag129
ag129
ag129
aV Lillian
p2129
ag129
ag129
ag129
ag129
ag129
ag129
ag129
ag129
ag129
ag319
ag319
aV Sandra
p2130
aV Sandra
p2131
aV Sandra
p2132
aV Sandra
p2133
ag129
aV Sandra
p2134
aV Sandra
p2135
ag129
ag129
ag129
ag129
ag129
ag129
ag129
atp2136
ba(lp2137
g21
(g22
(dp2138
g24
g25
(g26
(I0
tp2139
g28
tp2140
Rp2141
(I1
(L20L
tp2142
g35
I00
(lp2143
g1900
ag1901
ag1902
ag1903
ag1904
ag1905
ag1906
ag1907
ag1908
ag1909
ag1910
ag1911
ag1912
ag1913
ag1914
ag1915
ag1916
ag1917
ag1918
ag1919
atp2144
bsg63
Nstp2145
Rp2146
a(dp2147
g339
(dp2148
g341
g1893
sg342
(lp2149
(dp2150
g345
g346
(I0
I20
I1
tp2151
Rp2152
sg349
g1954
sasstp2153
bsbsg351
I7
ssVVanuatu
p2154
(dp2155
g3
Vhttp://survivor.wikia.com/wiki/Survivor:_Vanuatu
p2156
sg5
g6
(g7
g8
Ntp2157
Rp2158
(dp2159
g12
g13
sg14
g15
sg16
g6
(g17
g8
Ntp2160
Rp2161
((lp2162
g21
(g22
(dp2163
g24
g25
(g26
(I0
tp2164
g28
tp2165
Rp2166
(I1
(L18L
tp2167
g35
I00
(lp2168
VBrook
p2169
aVDolly
p2170
aVJohn P.
p2171
aVMia
p2172
aVBrady
p2173
aVTravis
p2174
aVLisa
p2175
aVJohn K.
p2176
aVRory
p2177
aVLea
p2178
aVChad
p2179
aVLeann
p2180
aVAmi
p2181
aVJulie
p2182
aVEliza
p2183
aVScout
p2184
aVTwila
p2185
aVChris
p2186
atp2187
bsg63
Nstp2188
Rp2189
ag21
(g22
(dp2190
g24
g25
(g26
(I0
tp2191
g28
tp2192
Rp2193
(I1
(L18L
tp2194
g35
I00
(lp2195
VChris
p2196
aVTwila
p2197
aVScout
p2198
aVEliza
p2199
aVJulie
p2200
aVAmi
p2201
aVLeann
p2202
aVChad
p2203
aVLea
p2204
aVRory
p2205
aVJohn K.
p2206
aVLisa
p2207
aVTravis
p2208
aVBrady
p2209
aVMia
p2210
aVJohn P.
p2211
aVDolly
p2212
aVBrook
p2213
atp2214
bsg63
g93
(g96
S'\x01\x00\x00\x00\x00\x00\x00\x00'
p2215
tp2216
Rp2217
stp2218
Rp2219
a(lp2220
g25
(g26
(I0
tp2221
g28
tp2222
Rp2223
(I1
(L18L
L18L
tp2224
g35
I00
(lp2225
V Brook
p2226
aV \u2014
p2227
aV \u2014
p2228
aV \u2014
p2229
aV \u2014
p2230
aV \u2014
p2231
aV \u2014
p2232
aV Brook
p2233
aV Brook
p2234
aV Brook
p2235
aV Chris
p2236
aV \u2014
p2237
aV Brook
p2238
aV Rory
p2239
aV \u2014
p2240
aV Chris
p2241
aV \u2014
p2242
aV Chris
p2243
aV \u2014
p2244
aV Dolly
p2245
aV Dolly
p2246
aV Dolly
p2247
aV Leann
p2248
aV Dolly
p2249
aV Dolly
p2250
aV \u2014
p2251
aV \u2014
p2252
aV \u2014
p2253
aV \u2014
p2254
aV Leann
p2255
aV \u2014
p2256
aV \u2014
p2257
aV Leann
p2258
aV \u2014
p2259
aV Leann
p2260
ag129
aV John P.
p2261
aV \u2014
p2262
aV \u2014
p2263
aV \u2014
p2264
aV \u2014
p2265
aV \u2014
p2266
aV \u2014
p2267
aV John P.
p2268
aV John P.
p2269
aV John P.
p2270
aV Rory
p2271
aV \u2014
p2272
aV John P.
p2273
aV Rory
p2274
aV \u2014
p2275
aV Rory
p2276
ag129
ag129
aV \u2014
p2277
aV Mia
p2278
aV Mia
p2279
aV Twila
p2280
aV Twila
p2281
aV Mia
p2282
aV Mia
p2283
aV \u2014
p2284
aV \u2014
p2285
aV \u2014
p2286
aV \u2014
p2287
aV Mia
p2288
aV \u2014
p2289
aV \u2014
p2290
aV Twila
p2291
ag129
ag129
ag129
aV Brady
p2292
aV \u2014
p2293
aV \u2014
p2294
aV \u2014
p2295
aV \u2014
p2296
aV \u2014
p2297
aV \u2014
p2298
aV Brady
p2299
aV Brady
p2300
aV Brady
p2301
aV Brady
p2302
aV \u2014
p2303
aV Brady
p2304
aV Rory
p2305
ag129
ag129
ag129
ag129
aV \u2014
p2306
aV \u2014
p2307
aV Travis
p2308
aV Travis
p2309
aV \u2014
p2310
aV Travis
p2311
aV Travis
p2312
aV \u2014
p2313
aV \u2014
p2314
aV Travis
p2315
aV \u2014
p2316
aV Travis
p2317
aV Rory
p2318
ag129
ag129
ag129
ag129
ag129
aV \u2014
p2319
aV \u2014
p2320
aV Rory
p2321
aV Lisa
p2322
aV \u2014
p2323
aV Lisa
p2324
aV Lisa
p2325
aV \u2014
p2326
aV \u2014
p2327
aV Lisa
p2328
aV \u2014
p2329
aV Rory
p2330
ag129
ag129
ag129
ag129
ag129
ag129
aV John K.
p2331
aV John K.
p2332
aV \u2014
p2333
aV \u2014
p2334
aV John K.
p2335
aV \u2014
p2336
aV \u2014
p2337
aV John K.
p2338
aV John K.
p2339
aV \u2014
p2340
aV Chad
p2341
ag129
ag129
ag129
ag129
ag129
ag129
ag129
aV Ami
p2342
aV Rory
p2343
aV Rory
p2344
aV Rory
p2345
aV Rory
p2346
aV Rory
p2347
aV Rory
p2348
aV Ami
p2349
aV Ami
p2350
aV Ami
p2351
ag129
ag129
ag129
ag129
ag129
ag129
ag129
ag129
aV Lea
p2352
aV Lea
p2353
aV Lea
p2354
aV Lea
p2355
aV Lea
p2356
aV Lea
p2357
aV Lea
p2358
aV Julie
p2359
aV Eliza
p2360
ag129
ag129
ag129
ag129
ag129
ag129
ag129
ag129
ag129
aV Eliza
p2361
aV Chad
p2362
aV Chad
p2363
aV Chad
p2364
aV Chad
p2365
aV Chad
p2366
aV Chad
p2367
aV Eliza
p2368
ag129
ag129
ag129
ag129
ag129
ag129
ag129
ag129
ag129
ag129
aV Leann
p2369
aV Leann
p2370
aV Leann
p2371
aV Leann
p2372
aV Eliza
p2373
aV Eliza
p2374
aV Eliza
p2375
ag129
ag129
ag129
ag129
ag129
ag129
ag129
ag129
ag129
ag129
ag129
aV Ami
p2376
aV Ami
p2377
aV Ami
p2378
aV Ami
p2379
aV Scout
p2380
aV Scout
p2381
ag129
ag129
ag129
ag129
ag129
ag129
ag129
ag129
ag129
ag129
ag129
ag129
aV Julie
p2382
aV Julie
p2383
aV Julie
p2384
aV Twila
p2385
aV Twila
p2386
ag129
ag129
ag129
ag129
ag129
ag129
ag129
ag129
ag129
ag129
ag129
ag129
ag129
aV Eliza
p2387
aV Eliza
p2388
aV Eliza
p2389
aV Twila
p2390
ag129
ag129
ag129
ag129
ag129
ag129
ag129
ag129
ag129
ag129
ag129
ag129
ag129
ag129
aV Scout
p2391
aV \u2014
p2392
aV \u2014
p2393
ag129
ag129
ag129
ag129
ag129
ag129
ag129
ag129
ag129
ag129
ag129
ag129
ag129
ag129
ag129
ag319
ag319
aV Twila
p2394
ag129
ag129
aV Twila
p2395
ag129
ag129
ag129
ag129
ag129
ag129
ag129
ag129
ag129
ag129
ag129
ag129
ag319
ag319
ag129
aV Chris
p2396
aV Chris
p2397
ag129
aV Chris
p2398
aV Chris
p2399
aV Chris
p2400
ag129
ag129
ag129
ag129
ag129
ag129
ag129
ag129
ag129
atp2401
ba(lp2402
g21
(g22
(dp2403
g24
g25
(g26
(I0
tp2404
g28
tp2405
Rp2406
(I1
(L18L
tp2407
g35
I00
(lp2408
g2169
ag2170
ag2171
ag2172
ag2173
ag2174
ag2175
ag2176
ag2177
ag2178
ag2179
ag2180
ag2181
ag2182
ag2183
ag2184
ag2185
ag2186
atp2409
bsg63
Nstp2410
Rp2411
a(dp2412
g339
(dp2413
g341
g2162
sg342
(lp2414
(dp2415
g345
g346
(I0
I18
I1
tp2416
Rp2417
sg349
g2223
sasstp2418
bsbsg351
I9
ssVThe_Australian_Outback
p2419
(dp2420
g3
Vhttp://survivor.wikia.com/wiki/Survivor:_The_Australian_Outback
p2421
sg5
g6
(g7
g8
Ntp2422
Rp2423
(dp2424
g12
g13
sg14
g15
sg16
g6
(g17
g8
Ntp2425
Rp2426
((lp2427
g21
(g22
(dp2428
g24
g25
(g26
(I0
tp2429
g28
tp2430
Rp2431
(I1
(L18L
tp2432
g35
I00
(lp2433
VDebb
p2434
aVKel
p2435
aVMaralyn
p2436
aVMitchell
p2437
aVMitchell
p2438
aVKimmi
p2439
aVMichael
p2440
aVJeff
p2441
aVJeff
p2442
aVAlicia
p2443
aVJerri
p2444
aVNick
p2445
aVAmber
p2446
aVRodger
p2447
aVElisabeth
p2448
aVKeith
p2449
aVColby
p2450
aVTina
p2451
atp2452
bsg63
Nstp2453
Rp2454
ag21
(g22
(dp2455
g24
g25
(g26
(I0
tp2456
g28
tp2457
Rp2458
(I1
(L16L
tp2459
g35
I00
(lp2460
VTina
p2461
aVColby
p2462
aVKeith
p2463
aVElisabeth
p2464
aVRodger
p2465
aVAmber
p2466
aVNick
p2467
aVJerri
p2468
aVAlicia
p2469
aVJeff
p2470
aVMichael
p2471
aVKimmi
p2472
aVMitchell
p2473
aVMaralyn
p2474
aVKel
p2475
aVDebb
p2476
atp2477
bsg63
g93
(g96
S'\x01\x00\x00\x00\x00\x00\x00\x00'
p2478
tp2479
Rp2480
stp2481
Rp2482
a(lp2483
g25
(g26
(I0
tp2484
g28
tp2485
Rp2486
(I1
(L18L
L16L
tp2487
g35
I00
(lp2488
V \u2014
p2489
aV \u2014
p2490
aV \u2014
p2491
aV Debb
p2492
aV Debb
p2493
aV \u2014
p2494
aV Debb
p2495
aV \u2014
p2496
aV Debb
p2497
aV Debb
p2498
aV Debb
p2499
aV Debb
p2500
aV \u2014
p2501
aV \u2014
p2502
aV \u2014
p2503
aV Jeff
p2504
aV Kel
p2505
aV Kel
p2506
aV Kel
p2507
aV \u2014
p2508
aV \u2014
p2509
aV Kel
p2510
aV \u2014
p2511
aV Kel
p2512
aV \u2014
p2513
aV \u2014
p2514
aV \u2014
p2515
aV \u2014
p2516
aV Kel
p2517
aV Kel
p2518
aV Jerri
p2519
ag129
aV Maralyn
p2520
aV Maralyn
p2521
aV Mitchell
p2522
aV \u2014
p2523
aV \u2014
p2524
aV Maralyn
p2525
aV \u2014
p2526
aV Maralyn
p2527
aV \u2014
p2528
aV \u2014
p2529
aV \u2014
p2530
aV \u2014
p2531
aV Maralyn
p2532
aV Jerri
p2533
ag129
ag129
aV Mitchell
p2534
aV Mitchell
p2535
aV Mitchell
p2536
aV \u2014
p2537
aV \u2014
p2538
aV Keith
p2539
aV \u2014
p2540
aV Keith
p2541
aV \u2014
p2542
aV \u2014
p2543
aV \u2014
p2544
aV \u2014
p2545
aV Keith
p2546
ag129
ag129
ag129
aV Mitchell
p2547
aV Mitchell
p2548
aVNone
p2549
ag2537
ag2538
aV Keith
p2550
ag2540
aV Keith
p2551
ag2542
ag2543
ag2544
ag2545
aVNone
p2552
ag129
ag129
ag129
aV \u2014
p2553
aV \u2014
p2554
aV \u2014
p2555
aV Kimmi
p2556
aV Kimmi
p2557
aV \u2014
p2558
aV Kimmi
p2559
aV \u2014
p2560
aV Kimmi
p2561
aV Kimmi
p2562
aV Kimmi
p2563
aV Jeff
p2564
ag129
ag129
ag129
ag129
aV \u2014
p2565
aV \u2014
p2566
aV \u2014
p2567
aV \u2014
p2568
aV \u2014
p2569
aV \u2014
p2570
aV \u2014
p2571
aV \u2014
p2572
aV \u2014
p2573
aV \u2014
p2574
aVEvacuated
p2575
ag129
ag129
ag129
ag129
ag129
aV Jeff
p2576
aV Jeff
p2577
aV Jeff
p2578
aV Colby
p2579
aV Colby
p2580
aV Jeff
p2581
aV Colby
p2582
aV Jeff
p2583
aV Colby
p2584
aV Colby
p2585
ag129
ag129
ag129
ag129
ag129
ag129
aV Jeff
p2586
aVNone
p2587
aV Jeff
p2588
aV Colby
p2589
aV Colby
p2590
aV Jeff
p2591
aV Colby
p2592
aV Jeff
p2593
aV Colby
p2594
aVNone
p2595
ag129
ag129
ag129
ag129
ag129
ag129
aV Alicia
p2596
aV Alicia
p2597
aV Alicia
p2598
aV Jerri
p2599
aV Jerri
p2600
aV Alicia
p2601
aV Jerri
p2602
aV Alicia
p2603
aV Jerri
p2604
ag129
ag129
ag129
ag129
ag129
ag129
ag129
aV Jerri
p2605
aV Jerri
p2606
aV Jerri
p2607
aV Jerri
p2608
aV Jerri
p2609
aV Elisabeth
p2610
aV Jerri
p2611
aV Elisabeth
p2612
ag129
ag129
ag129
ag129
ag129
ag129
ag129
ag129
aV Nick
p2613
aV Nick
p2614
aV Nick
p2615
aV Amber
p2616
aV Amber
p2617
aV Nick
p2618
aV Keith
p2619
ag129
ag129
ag129
ag129
ag129
ag129
ag129
ag129
ag129
aV Amber
p2620
aV Rodger
p2621
aV Amber
p2622
aV Amber
p2623
aV Amber
p2624
aV Rodger
p2625
ag129
ag129
ag129
ag129
ag129
ag129
ag129
ag129
ag129
ag129
aV Rodger
p2626
aV Rodger
p2627
aV Rodger
p2628
aV Keith
p2629
aV Keith
p2630
ag129
ag129
ag129
ag129
ag129
ag129
ag129
ag129
ag129
ag129
ag129
aV Elisabeth
p2631
aV Elisabeth
p2632
aV Elisabeth
p2633
aV Keith
p2634
ag129
ag129
ag129
ag129
ag129
ag129
ag129
ag129
ag129
ag129
ag129
ag129
aV \u2014
p2635
aV Keith
p2636
aV \u2014
p2637
ag129
ag129
ag129
ag129
ag129
ag129
ag129
ag129
ag129
ag129
ag129
ag129
ag129
ag319
ag319
ag129
ag129
aV Colby
p2638
aV Colby
p2639
aV Colby
p2640
ag129
ag129
ag129
ag129
ag129
ag129
ag129
ag129
ag129
ag319
ag319
aV Tina
p2641
aV Tina
p2642
ag129
ag129
ag129
aV Tina
p2643
aV Tina
p2644
ag129
ag129
ag129
ag129
ag129
ag129
ag129
atp2645
ba(lp2646
g21
(g22
(dp2647
g24
g25
(g26
(I0
tp2648
g28
tp2649
Rp2650
(I1
(L18L
tp2651
g35
I00
(lp2652
g2434
ag2435
ag2436
ag2437
ag2438
ag2439
ag2440
ag2441
ag2442
ag2443
ag2444
ag2445
ag2446
ag2447
ag2448
ag2449
ag2450
ag2451
atp2653
bsg63
Nstp2654
Rp2655
a(dp2656
g339
(dp2657
g341
g2427
sg342
(lp2658
(dp2659
g345
g346
(I0
I18
I1
tp2660
Rp2661
sg349
g2486
sasstp2662
bsbsg351
I2
ssVHeroes_vs_Villains
p2663
(dp2664
g3
Vhttp://survivor.wikia.com/wiki/Survivor:_Heroes_vs_Villains
p2665
sg5
g6
(g7
g8
Ntp2666
Rp2667
(dp2668
g12
g13
sg14
g15
sg16
g6
(g17
g8
Ntp2669
Rp2670
((lp2671
g21
(g22
(dp2672
g24
g25
(g26
(I0
tp2673
g28
tp2674
Rp2675
(I1
(L20L
tp2676
g35
I00
(lp2677
VSugar
p2678
aVStephenie
p2679
aVRandy
p2680
aVCirie
p2681
aVTom
p2682
aVTyson
p2683
aVJames
p2684
aVRob
p2685
aVCoach
p2686
aVCourtney
p2687
aVJ.T.
p2688
aVAmanda
p2689
aVCandice
p2690
aVDanielle
p2691
aVRupert
p2692
aVColby
p2693
aVJerri
p2694
aVRussell
p2695
aVParvati
p2696
aVSandra
p2697
atp2698
bsg63
Nstp2699
Rp2700
ag21
(g22
(dp2701
g24
g25
(g26
(I0
tp2702
g28
tp2703
Rp2704
(I1
(L20L
tp2705
g35
I00
(lp2706
VSandra
p2707
aVParvati
p2708
aVRussell
p2709
aVJerri
p2710
aVColby
p2711
aVRupert
p2712
aVDanielle
p2713
aVCandice
p2714
aVAmanda
p2715
aVJ.T.
p2716
aVCourtney
p2717
aVCoach
p2718
aVRob
p2719
aVJames
p2720
aVTyson
p2721
aVTom
p2722
aVCirie
p2723
aVRandy
p2724
aVStephenie
p2725
aVSugar
p2726
atp2727
bsg63
g93
(g96
S'\x01\x00\x00\x00\x00\x00\x00\x00'
p2728
tp2729
Rp2730
stp2731
Rp2732
a(lp2733
g25
(g26
(I0
tp2734
g28
tp2735
Rp2736
(I1
(L20L
L20L
tp2737
g35
I00
(lp2738
V \u2014
p2739
aV \u2014
p2740
aV \u2014
p2741
aV \u2014
p2742
aV Sugar
p2743
aV Sugar
p2744
aV \u2014
p2745
aV Sugar
p2746
aV Sugar
p2747
aV Sugar
p2748
aV \u2014
p2749
aV \u2014
p2750
aV \u2014
p2751
aV Sugar
p2752
aV \u2014
p2753
aV Sugar
p2754
aV Sugar
p2755
aV \u2014
p2756
aV Sugar
p2757
aV Amanda
p2758
aV \u2014
p2759
aV \u2014
p2760
aV \u2014
p2761
aV \u2014
p2762
aV Amanda
p2763
aV Stephenie
p2764
aV \u2014
p2765
aV Stephenie
p2766
aV Stephenie
p2767
aV Stephenie
p2768
aV \u2014
p2769
aV \u2014
p2770
aV \u2014
p2771
aV Stephenie
p2772
aV \u2014
p2773
aV Amanda
p2774
aV Stephenie
p2775
aV \u2014
p2776
aV Amanda
p2777
ag129
aV Randy
p2778
aV Randy
p2779
aV Randy
p2780
aV Randy
p2781
aV \u2014
p2782
aV \u2014
p2783
aV Randy
p2784
aV \u2014
p2785
aV \u2014
p2786
aV \u2014
p2787
aV Randy
p2788
aV Randy
p2789
aV Randy
p2790
aV \u2014
p2791
aV Randy
p2792
aV \u2014
p2793
aV \u2014
p2794
aV Rob
p2795
ag129
ag129
aV \u2014
p2796
aV \u2014
p2797
aV \u2014
p2798
aV \u2014
p2799
aV Cirie
p2800
aV Colby
p2801
aV \u2014
p2802
aV Tom
p2803
aV Tom
p2804
aV Cirie
p2805
aV \u2014
p2806
aV \u2014
p2807
aV \u2014
p2808
aV Colby
p2809
aV \u2014
p2810
aV Cirie
p2811
aV Tom
p2812
ag129
ag129
ag129
aV \u2014
p2813
aV \u2014
p2814
aV \u2014
p2815
aV \u2014
p2816
aV James
p2817
aV Tom
p2818
aV \u2014
p2819
aV Tom
p2820
aV Tom
p2821
aV Tom
p2822
aV \u2014
p2823
aV \u2014
p2824
aV \u2014
p2825
aV Tom
p2826
aV \u2014
p2827
aV James
p2828
ag129
ag129
ag129
ag129
aV Russell
p2829
aV Tyson
p2830
aV Tyson
p2831
aV Parvati
p2832
aV \u2014
p2833
aV \u2014
p2834
aV Tyson
p2835
aV \u2014
p2836
aV \u2014
p2837
aV \u2014
p2838
aV Parvati
p2839
aV Parvati
p2840
aV Russell
p2841
aV \u2014
p2842
aV Parvati
p2843
ag129
ag129
ag129
ag129
ag129
aV \u2014
p2844
aV \u2014
p2845
aV \u2014
p2846
aV \u2014
p2847
aV James
p2848
aV James
p2849
aV \u2014
p2850
aV James
p2851
aV James
p2852
aV James
p2853
aV \u2014
p2854
aV \u2014
p2855
aV \u2014
p2856
aV Colby
p2857
ag129
ag129
ag129
ag129
ag129
ag129
aV Russell
p2858
aV Rob
p2859
aV Rob
p2860
aV Rob
p2861
aV \u2014
p2862
aV \u2014
p2863
aV Rob
p2864
aV \u2014
p2865
aV \u2014
p2866
aV \u2014
p2867
aV Russell
p2868
aV Courtney
p2869
aV Russell
p2870
ag129
ag129
ag129
ag129
ag129
ag129
ag129
aV Coach
p2871
aV Coach
p2872
aV Courtney
p2873
aV Courtney
p2874
aV \u2014
p2875
aV \u2014
p2876
aV Coach
p2877
aV \u2014
p2878
aV \u2014
p2879
aV \u2014
p2880
aV Coach
p2881
aV Courtney
p2882
ag129
ag129
ag129
ag129
ag129
ag129
ag129
ag129
aV Courtney
p2883
aV Courtney
p2884
aV Courtney
p2885
aV Courtney
p2886
aV \u2014
p2887
aV \u2014
p2888
aV Courtney
p2889
aV \u2014
p2890
aV \u2014
p2891
aV \u2014
p2892
aV Jerri
p2893
ag129
ag129
ag129
ag129
ag129
ag129
ag129
ag129
ag129
aV J.T.
p2894
aV J.T.
p2895
aV J.T.
p2896
aV J.T.
p2897
aV Jerri
p2898
aV Jerri
p2899
aV J.T.
p2900
aV Jerri
p2901
aV Jerri
p2902
aV Jerri
p2903
ag129
ag129
ag129
ag129
ag129
ag129
ag129
ag129
ag129
ag129
aV Amanda
p2904
aV Amanda
p2905
aV Amanda
p2906
aV Amanda
p2907
aV Parvati
p2908
aV Parvati
p2909
aV Amanda
p2910
aV Amanda
p2911
aV Parvati
p2912
ag129
ag129
ag129
ag129
ag129
ag129
ag129
ag129
ag129
ag129
ag129
aV Candice
p2913
aV Rupert
p2914
aV Candice
p2915
aV Candice
p2916
aV Candice
p2917
aV Candice
p2918
aV Rupert
p2919
aV Rupert
p2920
ag129
ag129
ag129
ag129
ag129
ag129
ag129
ag129
ag129
ag129
ag129
ag129
aV Rupert
p2921
aV Rupert
p2922
aV Danielle
p2923
aV Danielle
p2924
aV Danielle
p2925
aV Danielle
p2926
aV Rupert
p2927
ag129
ag129
ag129
ag129
ag129
ag129
ag129
ag129
ag129
ag129
ag129
ag129
ag129
aV Rupert
p2928
aV Rupert
p2929
aV Rupert
p2930
aV Rupert
p2931
aV Sandra
p2932
aV Sandra
p2933
ag129
ag129
ag129
ag129
ag129
ag129
ag129
ag129
ag129
ag129
ag129
ag129
ag129
ag129
aV Colby
p2934
aV Colby
p2935
aV Colby
p2936
aV Colby
p2937
aV Sandra
p2938
ag129
ag129
ag129
ag129
ag129
ag129
ag129
ag129
ag129
ag129
ag129
ag129
ag129
ag129
ag129
aV Jerri
p2939
aV Jerri
p2940
aV Jerri
p2941
aV Parvati
p2942
ag129
ag129
ag129
ag129
ag129
ag129
ag129
ag129
ag129
ag129
ag129
ag129
ag129
ag129
ag129
ag129
ag319
ag319
ag319
ag129
ag129
ag129
ag129
ag129
ag129
ag129
ag129
ag129
ag129
ag129
ag129
ag129
ag129
ag129
ag129
ag129
ag319
ag319
ag319
aV Parvati
p2943
ag129
ag129
aV Parvati
p2944
ag129
ag129
ag129
ag129
aV Parvati
p2945
ag129
ag129
ag129
ag129
ag129
ag129
ag129
ag129
ag319
ag319
ag319
ag129
aV Sandra
p2946
aV Sandra
p2947
ag129
aV Sandra
p2948
aV Sandra
p2949
aV Sandra
p2950
aV Sandra
p2951
ag129
ag129
ag129
ag129
ag129
ag129
ag129
ag129
ag129
atp2952
ba(lp2953
g21
(g22
(dp2954
g24
g25
(g26
(I0
tp2955
g28
tp2956
Rp2957
(I1
(L20L
tp2958
g35
I00
(lp2959
g2678
ag2679
ag2680
ag2681
ag2682
ag2683
ag2684
ag2685
ag2686
ag2687
ag2688
ag2689
ag2690
ag2691
ag2692
ag2693
ag2694
ag2695
ag2696
ag2697
atp2960
bsg63
Nstp2961
Rp2962
a(dp2963
g339
(dp2964
g341
g2671
sg342
(lp2965
(dp2966
g345
g346
(I0
I20
I1
tp2967
Rp2968
sg349
g2736
sasstp2969
bsbsg351
I20
ssVGuatemala
p2970
(dp2971
g3
Vhttp://survivor.wikia.com/wiki/Survivor:_Guatemala
p2972
sg5
g6
(g7
g8
Ntp2973
Rp2974
(dp2975
g12
g13
sg14
g15
sg16
g6
(g17
g8
Ntp2976
Rp2977
((lp2978
g21
(g22
(dp2979
g24
g25
(g26
(I0
tp2980
g28
tp2981
Rp2982
(I1
(L18L
tp2983
g35
I00
(lp2984
VJim
p2985
aVMorgan
p2986
aVBrianna
p2987
aVBrooke
p2988
aVBlake
p2989
aVMargaret
p2990
aVBrian
p2991
aVAmy
p2992
aVBrandon
p2993
aVBobby Jon
p2994
aVJamie
p2995
aVGary
p2996
aVJudd
p2997
aVCindy
p2998
aVLydia
p2999
aVRafe
p3000
aVStephenie
p3001
aVDanni
p3002
atp3003
bsg63
Nstp3004
Rp3005
ag21
(g22
(dp3006
g24
g25
(g26
(I0
tp3007
g28
tp3008
Rp3009
(I1
(L18L
tp3010
g35
I00
(lp3011
VDanni
p3012
aVStephenie
p3013
aVRafe
p3014
aVLydia
p3015
aVCindy
p3016
aVJudd
p3017
aVGary
p3018
aVJamie
p3019
aVBobby Jon
p3020
aVBrandon
p3021
aVAmy
p3022
aVBrian
p3023
aVMargaret
p3024
aVBlake
p3025
aVBrooke
p3026
aVBrianna
p3027
aVMorgan
p3028
aVJim
p3029
atp3030
bsg63
g93
(g96
S'\x01\x00\x00\x00\x00\x00\x00\x00'
p3031
tp3032
Rp3033
stp3034
Rp3035
a(lp3036
g25
(g26
(I0
tp3037
g28
tp3038
Rp3039
(I1
(L18L
L18L
tp3040
g35
I00
(lp3041
V Jim
p3042
aV \u2014
p3043
aV \u2014
p3044
aV \u2014
p3045
aV Jim
p3046
aV Jim
p3047
aV \u2014
p3048
aV \u2014
p3049
aV Jim
p3050
aV Jim
p3051
aV \u2014
p3052
aV \u2014
p3053
aV Jim
p3054
aV Jim
p3055
aV Jim
p3056
aV \u2014
p3057
aV \u2014
p3058
aV Margaret
p3059
aV \u2014
p3060
aV Morgan
p3061
aV Morgan
p3062
aV Morgan
p3063
aV \u2014
p3064
aV \u2014
p3065
aV Morgan
p3066
aV Morgan
p3067
aV \u2014
p3068
aV \u2014
p3069
aV Morgan
p3070
aV Morgan
p3071
aV \u2014
p3072
aV \u2014
p3073
aV \u2014
p3074
aV Morgan
p3075
aV Lydia
p3076
ag129
aV \u2014
p3077
aV Brianna
p3078
aV Brianna
p3079
aV Brianna
p3080
aV \u2014
p3081
aV \u2014
p3082
aV Brianna
p3083
aV Brianna
p3084
aV \u2014
p3085
aV \u2014
p3086
aV Brianna
p3087
aV Brianna
p3088
aV \u2014
p3089
aV \u2014
p3090
aV \u2014
p3091
aV Lydia
p3092
ag129
ag129
aV \u2014
p3093
aV Brooke
p3094
aV Brooke
p3095
aV Brooke
p3096
aV Lydia
p3097
aV Brooke
p3098
aV \u2014
p3099
aV Brooke
p3100
aV \u2014
p3101
aV \u2014
p3102
aV \u2014
p3103
aV \u2014
p3104
aV Lydia
p3105
aV \u2014
p3106
aV Lydia
p3107
ag129
ag129
ag129
aV Blake
p3108
aV \u2014
p3109
aV \u2014
p3110
aV \u2014
p3111
aV \u2014
p3112
aV \u2014
p3113
aV Blake
p3114
aV \u2014
p3115
aV Blake
p3116
aV Brian
p3117
aV Blake
p3118
aV Blake
p3119
aV \u2014
p3120
aV Brian
p3121
ag129
ag129
ag129
ag129
aV \u2014
p3122
aV Margaret
p3123
aV Margaret
p3124
aV Margaret
p3125
aV Margaret
p3126
aV Margaret
p3127
aV \u2014
p3128
aV Margaret
p3129
aV \u2014
p3130
aV \u2014
p3131
aV \u2014
p3132
aV \u2014
p3133
aV Judd
p3134
ag129
ag129
ag129
ag129
ag129
aV Brian
p3135
aV \u2014
p3136
aV \u2014
p3137
aV \u2014
p3138
aV \u2014
p3139
aV \u2014
p3140
aV Brian
p3141
aV \u2014
p3142
aV Brian
p3143
aV Brian
p3144
aV Brian
p3145
aV Bobby Jon
p3146
ag129
ag129
ag129
ag129
ag129
ag129
aV Amy
p3147
aV \u2014
p3148
aV \u2014
p3149
aV \u2014
p3150
aV \u2014
p3151
aV \u2014
p3152
aV Amy
p3153
aV \u2014
p3154
aV Amy
p3155
aV Amy
p3156
aV Bobby Jon
p3157
ag129
ag129
ag129
ag129
ag129
ag129
ag129
aV Jamie
p3158
aV Brandon
p3159
aV Brandon
p3160
aV Brandon
p3161
aV Brandon
p3162
aV Brandon
p3163
aV Jamie
p3164
aV Brandon
p3165
aV Jamie
p3166
aV Jamie
p3167
ag129
ag129
ag129
ag129
ag129
ag129
ag129
ag129
aV Stephenie
p3168
aV Bobby Jon
p3169
aV Bobby Jon
p3170
aV Bobby Jon
p3171
aV Bobby Jon
p3172
aV Bobby Jon
p3173
aV Cindy
p3174
aV Bobby Jon
p3175
aV Stephenie
p3176
ag129
ag129
ag129
ag129
ag129
ag129
ag129
ag129
ag129
aV Jamie
p3177
aV Jamie
p3178
aV Jamie
p3179
aV Jamie
p3180
aV Jamie
p3181
aV Gary
p3182
aV Jamie
p3183
aV Gary
p3184
ag129
ag129
ag129
ag129
ag129
ag129
ag129
ag129
ag129
ag129
aV Gary
p3185
aV Gary
p3186
aV Gary
p3187
aV Gary
p3188
aV Gary
p3189
aV Gary
p3190
aV Cindy
p3191
ag129
ag129
ag129
ag129
ag129
ag129
ag129
ag129
ag129
ag129
ag129
aV Judd
p3192
aV Judd
p3193
aV Judd
p3194
aV Judd
p3195
aV Lydia
p3196
aV Lydia
p3197
ag129
ag129
ag129
ag129
ag129
ag129
ag129
ag129
ag129
ag129
ag129
ag129
aV Cindy
p3198
aV Cindy
p3199
aV Cindy
p3200
aV Cindy
p3201
aV Rafe
p3202
ag129
ag129
ag129
ag129
ag129
ag129
ag129
ag129
ag129
ag129
ag129
ag129
ag129
aV Lydia
p3203
aV Lydia
p3204
aV Lydia
p3205
aV Danni
p3206
ag129
ag129
ag129
ag129
ag129
ag129
ag129
ag129
ag129
ag129
ag129
ag129
ag129
ag129
aV Rafe
p3207
aV \u2014
p3208
aV  \u2014
p3209
ag129
ag129
ag129
ag129
ag129
ag129
ag129
ag129
ag129
ag129
ag129
ag129
ag129
ag129
ag129
ag319
ag319
aV Stephenie
p3210
ag129
ag129
ag129
ag129
ag129
ag129
ag129
ag129
ag129
ag129
ag129
ag129
ag129
ag129
ag129
ag319
ag319
ag129
aV Danni
p3211
aV Danni
p3212
aV Danni
p3213
aV Danni
p3214
aV Danni
p3215
aV Danni
p3216
ag129
ag129
ag129
ag129
ag129
ag129
ag129
ag129
ag129
atp3217
ba(lp3218
g21
(g22
(dp3219
g24
g25
(g26
(I0
tp3220
g28
tp3221
Rp3222
(I1
(L18L
tp3223
g35
I00
(lp3224
g2985
ag2986
ag2987
ag2988
ag2989
ag2990
ag2991
ag2992
ag2993
ag2994
ag2995
ag2996
ag2997
ag2998
ag2999
ag3000
ag3001
ag3002
atp3225
bsg63
Nstp3226
Rp3227
a(dp3228
g339
(dp3229
g341
g2978
sg342
(lp3230
(dp3231
g345
g346
(I0
I18
I1
tp3232
Rp3233
sg349
g3039
sasstp3234
bsbsg351
I11
ssVChina
p3235
(dp3236
g3
Vhttp://survivor.wikia.com/wiki/Survivor:_China
p3237
sg5
g6
(g7
g8
Ntp3238
Rp3239
(dp3240
g12
g13
sg14
g15
sg16
g6
(g17
g8
Ntp3241
Rp3242
((lp3243
g21
(g22
(dp3244
g24
g25
(g26
(I0
tp3245
g28
tp3246
Rp3247
(I1
(L16L
tp3248
g35
I00
(lp3249
VChicken
p3250
aVAshley
p3251
aVLeslie
p3252
aVDave
p3253
aVAaron
p3254
aVSherea
p3255
aVJaime
p3256
aVJean-Robert
p3257
aVFrosti
p3258
aVJames
p3259
aVErik
p3260
aVPeih-Gee
p3261
aVDenise
p3262
aVAmanda
p3263
aVCourtney
p3264
aVTodd
p3265
atp3266
bsg63
Nstp3267
Rp3268
ag21
(g22
(dp3269
g24
g25
(g26
(I0
tp3270
g28
tp3271
Rp3272
(I1
(L16L
tp3273
g35
I00
(lp3274
VTodd
p3275
aVCourtney
p3276
aVAmanda
p3277
aVDenise
p3278
aVPeih-Gee
p3279
aVErik
p3280
aVJames
p3281
aVFrosti
p3282
aVJean-Robert
p3283
aVJaime
p3284
aVSherea
p3285
aVAaron
p3286
aVDave
p3287
aVLeslie
p3288
aVAshley
p3289
aVChicken
p3290
atp3291
bsg63
g93
(g96
S'\x01\x00\x00\x00\x00\x00\x00\x00'
p3292
tp3293
Rp3294
stp3295
Rp3296
a(lp3297
g25
(g26
(I0
tp3298
g28
tp3299
Rp3300
(I1
(L16L
L16L
tp3301
g35
I00
(lp3302
V \u2014
p3303
aV \u2014
p3304
aV \u2014
p3305
aV \u2014
p3306
aV Chicken
p3307
aV Chicken
p3308
aV \u2014
p3309
aV Chicken
p3310
aV \u2014
p3311
aV Chicken
p3312
aV Chicken
p3313
aV \u2014
p3314
aV Ashley
p3315
aV \u2014
p3316
aV Peih-Gee
p3317
aV Ashley
p3318
aV \u2014
p3319
aV \u2014
p3320
aV \u2014
p3321
aV \u2014
p3322
aV Ashley
p3323
aV Ashley
p3324
aV \u2014
p3325
aV Ashley
p3326
aV \u2014
p3327
aV Ashley
p3328
aV Ashley
p3329
aV \u2014
p3330
aV Ashley
p3331
aV \u2014
p3332
aV Dave
p3333
ag129
aV Leslie
p3334
aV Jean-Robert
p3335
aV Leslie
p3336
aV Leslie
p3337
aV \u2014
p3338
aV \u2014
p3339
aV Leslie
p3340
aV \u2014
p3341
aV Leslie
p3342
aV \u2014
p3343
aV \u2014
p3344
aV Leslie
p3345
aV \u2014
p3346
aV Jean-Robert
p3347
ag129
ag129
aV \u2014
p3348
aV \u2014
p3349
aV \u2014
p3350
aV \u2014
p3351
aV Dave
p3352
aV Dave
p3353
aV \u2014
p3354
aV Dave
p3355
aV \u2014
p3356
aV Dave
p3357
aV Dave
p3358
aV \u2014
p3359
aV Sherea
p3360
ag129
ag129
ag129
aV \u2014
p3361
aV \u2014
p3362
aV \u2014
p3363
aV \u2014
p3364
aV Aaron
p3365
aV Aaron
p3366
aV Peih-Gee
p3367
aV \u2014
p3368
aV \u2014
p3369
aV Aaron
p3370
aV \u2014
p3371
aV James
p3372
ag129
ag129
ag129
ag129
aV Sherea
p3373
aV Jean-Robert
p3374
aV Sherea
p3375
aV Sherea
p3376
aV \u2014
p3377
aV \u2014
p3378
aV \u2014
p3379
aV Sherea
p3380
aV Sherea
p3381
aV \u2014
p3382
aV Jean-Robert
p3383
ag129
ag129
ag129
ag129
ag129
aV Jaime
p3384
aV Jaime
p3385
aV Jaime
p3386
aV Jaime
p3387
aV Jean-Robert
p3388
aV Jean-Robert
p3389
aV Jaime
p3390
aV Jaime
p3391
aV Jaime
p3392
aV Jean-Robert
p3393
ag129
ag129
ag129
ag129
ag129
ag129
aV Jean-Robert
p3394
aV Jean-Robert
p3395
aV Jean-Robert
p3396
aV Peih-Gee
p3397
aV James
p3398
aV James
p3399
aV Jean-Robert
p3400
aV Jean-Robert
p3401
aV James
p3402
ag129
ag129
ag129
ag129
ag129
ag129
ag129
aV Frosti
p3403
aV Frosti
p3404
aV Frosti
p3405
aV Frosti
p3406
aV Frosti
p3407
aV Frosti
p3408
aV Frosti
p3409
aV Erik
p3410
ag129
ag129
ag129
ag129
ag129
ag129
ag129
ag129
aV James
p3411
aV James
p3412
aV James
p3413
aV James
p3414
aV Todd
p3415
aV James
p3416
aV Peih-Gee
p3417
ag129
ag129
ag129
ag129
ag129
ag129
ag129
ag129
ag129
aV Erik
p3418
aV Erik
p3419
aV Erik
p3420
aV Erik
p3421
aV Todd
p3422
aV Todd
p3423
ag129
ag129
ag129
ag129
ag129
ag129
ag129
ag129
ag129
ag129
aV Peih-Gee
p3424
aV Peih-Gee
p3425
aV Peih-Gee
p3426
aV Peih-Gee
p3427
aV Todd
p3428
ag129
ag129
ag129
ag129
ag129
ag129
ag129
ag129
ag129
ag129
ag129
aV Denise
p3429
aV Denise
p3430
aV Denise
p3431
aV Todd
p3432
ag129
ag129
ag129
ag129
ag129
ag129
ag129
ag129
ag129
ag129
ag129
ag129
ag319
ag319
ag319
ag129
ag129
aV Amanda
p3433
ag129
ag129
ag129
ag129
ag129
ag129
ag129
ag129
ag129
ag129
ag319
ag319
ag319
aV Courtney
p3434
ag129
ag129
aV Courtney
p3435
ag129
ag129
ag129
ag129
ag129
ag129
ag129
ag129
ag129
ag319
ag319
ag319
ag129
aV Todd
p3436
ag129
ag129
aV Todd
p3437
aV Todd
p3438
aV Todd
p3439
ag129
ag129
ag129
ag129
ag129
ag129
atp3440
ba(lp3441
g21
(g22
(dp3442
g24
g25
(g26
(I0
tp3443
g28
tp3444
Rp3445
(I1
(L16L
tp3446
g35
I00
(lp3447
g3250
ag3251
ag3252
ag3253
ag3254
ag3255
ag3256
ag3257
ag3258
ag3259
ag3260
ag3261
ag3262
ag3263
ag3264
ag3265
atp3448
bsg63
Nstp3449
Rp3450
a(dp3451
g339
(dp3452
g341
g3243
sg342
(lp3453
(dp3454
g345
g346
(I0
I16
I1
tp3455
Rp3456
sg349
g3300
sasstp3457
bsbsg351
I15
ssVWorlds_Apart
p3458
(dp3459
g3
Vhttp://survivor.wikia.com/wiki/Survivor:_Worlds_Apart
p3460
sg5
g6
(g7
g8
Ntp3461
Rp3462
(dp3463
g12
g13
sg14
g15
sg16
g6
(g17
g8
Ntp3464
Rp3465
((lp3466
g21
(g22
(dp3467
g24
g25
(g26
(I0
tp3468
g28
tp3469
Rp3470
(I1
(L20L
tp3471
g35
I00
(lp3472
VSo
p3473
aVVince
p3474
aVNina
p3475
aVLindsey
p3476
aVLindsey
p3477
aVMax
p3478
aVJoaquin
p3479
aVKelly
p3480
aVHali
p3481
aVJoe
p3482
aVJenn
p3483
aVShirin
p3484
aVTyler
p3485
aVDan
p3486
aVDan
p3487
aVSierra
p3488
aVRodney
p3489
aVWill
p3490
aVCarolyn
p3491
aVMike
p3492
atp3493
bsg63
Nstp3494
Rp3495
ag21
(g22
(dp3496
g24
g25
(g26
(I0
tp3497
g28
tp3498
Rp3499
(I1
(L18L
tp3500
g35
I00
(lp3501
VMike
p3502
aVCarolyn
p3503
aVWill
p3504
aVRodney
p3505
aVSierra
p3506
aVDan
p3507
aVTyler
p3508
aVShirin
p3509
aVJenn
p3510
aVJoe
p3511
aVHali
p3512
aVKelly
p3513
aVJoaquin
p3514
aVMax
p3515
aVLindsey
p3516
aVNina
p3517
aVVince
p3518
aVSo
p3519
atp3520
bsg63
g93
(g96
S'\x01\x00\x00\x00\x00\x00\x00\x00'
p3521
tp3522
Rp3523
stp3524
Rp3525
a(lp3526
g25
(g26
(I0
tp3527
g28
tp3528
Rp3529
(I1
(L20L
L18L
tp3530
g35
I00
(lp3531
V \u2014
p3532
aV So
p3533
aV \u2014
p3534
aV \u2014
p3535
aV \u2014
p3536
aV \u2014
p3537
aV So
p3538
aV So
p3539
aV \u2014
p3540
aV \u2014
p3541
aV \u2014
p3542
aV \u2014
p3543
aV Carolyn
p3544
aV So
p3545
aV \u2014
p3546
aV \u2014
p3547
aV \u2014
p3548
aV Carolyn
p3549
aV \u2014
p3550
aV \u2014
p3551
aV Vince
p3552
aV \u2014
p3553
aV \u2014
p3554
aV \u2014
p3555
aV \u2014
p3556
aV \u2014
p3557
aV Vince
p3558
aV Nina
p3559
aV Vince
p3560
aV \u2014
p3561
aV \u2014
p3562
aV \u2014
p3563
aV \u2014
p3564
aV Jenn
p3565
aV Jenn
p3566
ag129
aV \u2014
p3567
aV \u2014
p3568
aV Nina
p3569
aV \u2014
p3570
aV \u2014
p3571
aV \u2014
p3572
aV \u2014
p3573
aV \u2014
p3574
aV Nina
p3575
aV Nina
p3576
aV Will
p3577
aV \u2014
p3578
aV \u2014
p3579
aV \u2014
p3580
aV \u2014
p3581
aV Will
p3582
ag129
ag129
aV Lindsey
p3583
aV\u2014
p3584
aV\u2014
p3585
aV Sierra
p3586
aV Rodney
p3587
aV Lindsey
p3588
aV\u2014
p3589
aV\u2014
p3590
aV\u2014
p3591
aV\u2014
p3592
aV\u2014
p3593
aV Sierra
p3594
aV\u2014
p3595
aV\u2014
p3596
aV Rodney
p3597
ag129
ag129
ag129
aV Lindsey
p3598
ag3584
ag3585
aV None
p3599
aV None
p3600
aV Lindsey
p3601
ag3589
ag3590
ag3591
ag3592
ag3593
aV Lindsey
p3602
ag3595
ag3596
aV None
p3603
ag129
ag129
ag129
aV \u2014
p3604
aV Max
p3605
aV Max
p3606
aV \u2014
p3607
aV \u2014
p3608
aV \u2014
p3609
aV \u2014
p3610
aV Will
p3611
aV Max
p3612
aV \u2014
p3613
aV Max
p3614
aV Max
p3615
aV \u2014
p3616
aV Will
p3617
ag129
ag129
ag129
ag129
aV Joaquin
p3618
aV \u2014
p3619
aV \u2014
p3620
aV Joe
p3621
aV Joaquin
p3622
aV Joaquin
p3623
aV Joe
p3624
aV \u2014
p3625
aV \u2014
p3626
aV Joaquin
p3627
aV \u2014
p3628
aV \u2014
p3629
aV Joe
p3630
ag129
ag129
ag129
ag129
ag129
aV Jenn
p3631
aV Jenn
p3632
aV Hali
p3633
aV Jenn
p3634
aV Jenn
p3635
aV Jenn
p3636
aV Jenn
p3637
aV Kelly
p3638
aV Kelly
p3639
aV Kelly
p3640
aV Kelly
p3641
aV Jenn
p3642
ag129
ag129
ag129
ag129
ag129
ag129
aV Hali
p3643
aV Hali
p3644
aV Hali
p3645
aV Hali
p3646
aV Hali
p3647
aV Hali
p3648
aV Hali
p3649
aV Dan
p3650
aV Dan
p3651
aV Dan
p3652
aV Dan
p3653
ag129
ag129
ag129
ag129
ag129
ag129
ag129
aV Joe
p3654
aV Jenn
p3655
aV Jenn
p3656
aV Joe
p3657
aV Joe
p3658
aV Joe
p3659
aV Jenn
p3660
aV Joe
p3661
aV Dan
p3662
aV Jenn
p3663
ag129
ag129
ag129
ag129
ag129
ag129
ag129
ag129
aV Jenn
p3664
aV Jenn
p3665
aV Jenn
p3666
aV Shirin
p3667
aV Shirin
p3668
aV Shirin
p3669
aV Jenn
p3670
aV Jenn
p3671
aV Carolyn
p3672
ag129
ag129
ag129
ag129
ag129
ag129
ag129
ag129
ag129
aV Tyler
p3673
aV Shirin
p3674
aV Dan
p3675
aV Shirin
p3676
aV Shirin
p3677
aV Shirin
p3678
aV Dan
p3679
aV Tyler
p3680
ag129
ag129
ag129
ag129
ag129
ag129
ag129
ag129
ag129
ag129
aV Tyler
p3681
aV Tyler
p3682
aV Mike
p3683
aV Mike
p3684
aV Tyler
p3685
aV Mike
p3686
aV Mike
p3687
ag129
ag129
ag129
ag129
ag129
ag129
ag129
ag129
ag129
ag129
ag129
aV Dan
p3688
aV Dan
p3689
aV Carolyn
p3690
aV Carolyn
p3691
aV Carolyn
p3692
aV Carolyn
p3693
ag129
ag129
ag129
ag129
ag129
ag129
ag129
ag129
ag129
ag129
ag129
ag129
ag3688
ag3689
ag3690
ag3691
ag3692
aV Carolyn
p3694
ag129
ag129
ag129
ag129
ag129
ag129
ag129
ag129
ag129
ag129
ag129
ag129
aV Sierra
p3695
aV Sierra
p3696
aV Sierra
p3697
aV Sierra
p3698
aV Rodney
p3699
ag129
ag129
ag129
ag129
ag129
ag129
ag129
ag129
ag129
ag129
ag129
ag129
ag129
aV Rodney
p3700
aV Rodney
p3701
aV Carolyn
p3702
aV Carolyn
p3703
ag129
ag129
ag129
ag129
ag129
ag129
ag129
ag129
ag129
ag129
ag129
ag129
ag129
ag129
ag319
ag319
ag319
aV Will
p3704
ag129
ag129
ag129
ag129
ag129
ag129
ag129
ag129
ag129
ag129
ag129
ag129
ag129
ag129
ag319
ag319
ag319
ag129
aV Carolyn
p3705
ag129
ag129
ag129
ag129
ag129
ag129
ag129
ag129
ag129
ag129
ag129
ag129
ag129
ag319
ag319
ag319
ag129
ag129
aV Mike
p3706
aV Mike
p3707
aV Mike
p3708
aV Mike
p3709
aV Mike
p3710
aV Mike
p3711
ag129
ag129
ag129
ag129
ag129
ag129
ag129
atp3712
ba(lp3713
g21
(g22
(dp3714
g24
g25
(g26
(I0
tp3715
g28
tp3716
Rp3717
(I1
(L20L
tp3718
g35
I00
(lp3719
g3473
ag3474
ag3475
ag3476
ag3477
ag3478
ag3479
ag3480
ag3481
ag3482
ag3483
ag3484
ag3485
ag3486
ag3487
ag3488
ag3489
ag3490
ag3491
ag3492
atp3720
bsg63
Nstp3721
Rp3722
a(dp3723
g339
(dp3724
g341
g3466
sg342
(lp3725
(dp3726
g345
g346
(I0
I20
I1
tp3727
Rp3728
sg349
g3529
sasstp3729
bsbsg351
I30
ssVThailand
p3730
(dp3731
g3
Vhttp://survivor.wikia.com/wiki/Survivor:_Thailand
p3732
sg5
g6
(g7
g8
Ntp3733
Rp3734
(dp3735
g12
g13
sg14
g15
sg16
g6
(g17
g8
Ntp3736
Rp3737
((lp3738
g21
(g22
(dp3739
g24
g25
(g26
(I0
tp3740
g28
tp3741
Rp3742
(I1
(L16L
tp3743
g35
I00
(lp3744
VJohn
p3745
aVTanya
p3746
aVJed
p3747
aVGhandia
p3748
aVStephanie
p3749
aVRobb
p3750
aVShii Ann
p3751
aVErin
p3752
aVKen
p3753
aVPenny
p3754
aVJake
p3755
aVTed
p3756
aVHelen
p3757
aVJan
p3758
aVClay
p3759
aVBrian
p3760
atp3761
bsg63
Nstp3762
Rp3763
ag21
(g22
(dp3764
g24
g25
(g26
(I0
tp3765
g28
tp3766
Rp3767
(I1
(L16L
tp3768
g35
I00
(lp3769
VBrian
p3770
aVClay
p3771
aVJan
p3772
aVHelen
p3773
aVTed
p3774
aVJake
p3775
aVPenny
p3776
aVKen
p3777
aVErin
p3778
aVShii Ann
p3779
aVRobb
p3780
aVStephanie
p3781
aVGhandia
p3782
aVJed
p3783
aVTanya
p3784
aVJohn
p3785
atp3786
bsg63
g93
(g96
S'\x01\x00\x00\x00\x00\x00\x00\x00'
p3787
tp3788
Rp3789
stp3790
Rp3791
a(lp3792
g25
(g26
(I0
tp3793
g28
tp3794
Rp3795
(I1
(L16L
L16L
tp3796
g35
I00
(lp3797
V John
p3798
aV John
p3799
aV John
p3800
aV Clay
p3801
aV John
p3802
aV \u2014
p3803
aV \u2014
p3804
aV \u2014
p3805
aV \u2014
p3806
aV \u2014
p3807
aV \u2014
p3808
aV \u2014
p3809
aV John
p3810
aV \u2014
p3811
aV John
p3812
aV Ghandia
p3813
aV Tanya
p3814
aV Tanya
p3815
aV Tanya
p3816
aV Tanya
p3817
aV Tanya
p3818
aV \u2014
p3819
aV \u2014
p3820
aV \u2014
p3821
aV \u2014
p3822
aV \u2014
p3823
aV \u2014
p3824
aV \u2014
p3825
aV Helen
p3826
aV \u2014
p3827
aV Helen
p3828
ag129
aV \u2014
p3829
aV \u2014
p3830
aV \u2014
p3831
aV \u2014
p3832
aV \u2014
p3833
aV Jed
p3834
aV Jed
p3835
aV Jed
p3836
aV Jed
p3837
aV Jed
p3838
aV Shii Ann
p3839
aV Shii Ann
p3840
aV \u2014
p3841
aV Shii Ann
p3842
ag129
ag129
aV Ghandia
p3843
aV Ghandia
p3844
aV Clay
p3845
aV Ghandia
p3846
aV Ghandia
p3847
aV \u2014
p3848
aV \u2014
p3849
aV \u2014
p3850
aV \u2014
p3851
aV \u2014
p3852
aV \u2014
p3853
aV \u2014
p3854
aV Clay
p3855
ag129
ag129
ag129
aV \u2014
p3856
aV \u2014
p3857
aV \u2014
p3858
aV \u2014
p3859
aV \u2014
p3860
aV Stephanie
p3861
aV Stephanie
p3862
aV Stephanie
p3863
aV Stephanie
p3864
aV Stephanie
p3865
aV Shii Ann
p3866
aV Shii Ann
p3867
ag129
ag129
ag129
ag129
aV \u2014
p3868
aV \u2014
p3869
aV \u2014
p3870
aV \u2014
p3871
aV \u2014
p3872
aV Robb
p3873
aV Robb
p3874
aV Robb
p3875
aV Robb
p3876
aV Robb
p3877
aV Shii Ann
p3878
ag129
ag129
ag129
ag129
ag129
aV \u2014
p3879
aV \u2014
p3880
aV \u2014
p3881
aV \u2014
p3882
aV \u2014
p3883
aV Shii Ann
p3884
aV Shii Ann
p3885
aV Shii Ann
p3886
aV Shii Ann
p3887
aV Penny
p3888
ag129
ag129
ag129
ag129
ag129
ag129
aV \u2014
p3889
aV \u2014
p3890
aV \u2014
p3891
aV \u2014
p3892
aV \u2014
p3893
aV Erin
p3894
aV Erin
p3895
aV Erin
p3896
aV Ken
p3897
ag129
ag129
ag129
ag129
ag129
ag129
ag129
aV Ken
p3898
aV Ken
p3899
aV Ken
p3900
aV Ken
p3901
aV Ken
p3902
aV Ted
p3903
aV Ted
p3904
aV Ted
p3905
ag129
ag129
ag129
ag129
ag129
ag129
ag129
ag129
aV Penny
p3906
aV Jake
p3907
aV Penny
p3908
aV Penny
p3909
aV Penny
p3910
aV Jan
p3911
aV Jake
p3912
ag129
ag129
ag129
ag129
ag129
ag129
ag129
ag129
ag129
aV Jake
p3913
aV Jake
p3914
aV Jake
p3915
aV Jake
p3916
aV Jake
p3917
aV Jan
p3918
ag129
ag129
ag129
ag129
ag129
ag129
ag129
ag129
ag129
ag129
aV Ted
p3919
aV Ted
p3920
aV Ted
p3921
aV Ted
p3922
aV Jan
p3923
ag129
ag129
ag129
ag129
ag129
ag129
ag129
ag129
ag129
ag129
ag129
aV Helen
p3924
aV Helen
p3925
aV Helen
p3926
aV Jan
p3927
ag129
ag129
ag129
ag129
ag129
ag129
ag129
ag129
ag129
ag129
ag129
ag129
aV Jan
p3928
aV \u2014
p3929
aV \u2014
p3930
ag129
ag129
ag129
ag129
ag129
ag129
ag129
ag129
ag129
ag129
ag129
ag129
ag129
ag319
ag319
ag129
ag129
ag129
ag129
aV Clay
p3931
aV Clay
p3932
aV Clay
p3933
ag129
ag129
ag129
ag129
ag129
ag129
ag129
ag319
ag319
aV Brian
p3934
aV Brian
p3935
aV Brian
p3936
aV Brian
p3937
ag129
ag129
ag129
ag129
ag129
ag129
ag129
ag129
ag129
ag129
atp3938
ba(lp3939
g21
(g22
(dp3940
g24
g25
(g26
(I0
tp3941
g28
tp3942
Rp3943
(I1
(L16L
tp3944
g35
I00
(lp3945
g3745
ag3746
ag3747
ag3748
ag3749
ag3750
ag3751
ag3752
ag3753
ag3754
ag3755
ag3756
ag3757
ag3758
ag3759
ag3760
atp3946
bsg63
Nstp3947
Rp3948
a(dp3949
g339
(dp3950
g341
g3738
sg342
(lp3951
(dp3952
g345
g346
(I0
I16
I1
tp3953
Rp3954
sg349
g3795
sasstp3955
bsbsg351
I5
ssVThe_Amazon
p3956
(dp3957
g3
Vhttp://survivor.wikia.com/wiki/Survivor:_The_Amazon
p3958
sg5
g6
(g7
g8
Ntp3959
Rp3960
(dp3961
g12
g13
sg14
g15
sg16
g6
(g17
g8
Ntp3962
Rp3963
((lp3964
g21
(g22
(dp3965
g24
g25
(g26
(I0
tp3966
g28
tp3967
Rp3968
(I1
(L16L
tp3969
g35
I00
(lp3970
VRyan
p3971
aVJanet
p3972
aVDaniel
p3973
aVJoanna
p3974
aVJeanne
p3975
aVShawna
p3976
aVRoger
p3977
aVDave
p3978
aVDeena
p3979
aVAlex
p3980
aVChristy
p3981
aVHeidi
p3982
aVButch
p3983
aVRob
p3984
aVMatthew
p3985
aVJenna
p3986
atp3987
bsg63
Nstp3988
Rp3989
ag21
(g22
(dp3990
g24
g25
(g26
(I0
tp3991
g28
tp3992
Rp3993
(I1
(L16L
tp3994
g35
I00
(lp3995
VJenna
p3996
aVMatthew
p3997
aVRob
p3998
aVButch
p3999
aVHeidi
p4000
aVChristy
p4001
aVAlex
p4002
aVDeena
p4003
aVDave
p4004
aVRoger
p4005
aVShawna
p4006
aVJeanne
p4007
aVJoanna
p4008
aVDaniel
p4009
aVJanet
p4010
aVRyan
p4011
atp4012
bsg63
g93
(g96
S'\x01\x00\x00\x00\x00\x00\x00\x00'
p4013
tp4014
Rp4015
stp4016
Rp4017
a(lp4018
g25
(g26
(I0
tp4019
g28
tp4020
Rp4021
(I1
(L16L
L16L
tp4022
g35
I00
(lp4023
V \u2014
p4024
aV Roger
p4025
aV Ryan
p4026
aV Ryan
p4027
aV \u2014
p4028
aV \u2014
p4029
aV Ryan
p4030
aV \u2014
p4031
aV Daniel
p4032
aV Ryan
p4033
aV \u2014
p4034
aV \u2014
p4035
aV \u2014
p4036
aV Roger
p4037
aV \u2014
p4038
aV Roger
p4039
aV Janet
p4040
aV \u2014
p4041
aV \u2014
p4042
aV \u2014
p4043
aV Janet
p4044
aV Jenna
p4045
aV \u2014
p4046
aV Janet
p4047
aV \u2014
p4048
aV \u2014
p4049
aV Janet
p4050
aV Janet
p4051
aV Christy
p4052
aV \u2014
p4053
aV Jeanne
p4054
ag129
aV \u2014
p4055
aV Daniel
p4056
aV Daniel
p4057
aV Daniel
p4058
aV \u2014
p4059
aV \u2014
p4060
aV Daniel
p4061
aV \u2014
p4062
aV Daniel
p4063
aV Daniel
p4064
aV \u2014
p4065
aV \u2014
p4066
aV \u2014
p4067
aV Roger
p4068
ag129
ag129
aV Joanna
p4069
aV \u2014
p4070
aV \u2014
p4071
aV \u2014
p4072
aV Joanna
p4073
aV Joanna
p4074
aV \u2014
p4075
aV Joanna
p4076
aV \u2014
p4077
aV \u2014
p4078
aV Christy
p4079
aV Shawna
p4080
aV Shawna
p4081
ag129
ag129
ag129
aV \u2014
p4082
aV \u2014
p4083
aV \u2014
p4084
aV Jeanne
p4085
aV Jeanne
p4086
aV Butch
p4087
aV \u2014
p4088
aV \u2014
p4089
aV Jeanne
p4090
aV Jeanne
p4091
aV \u2014
p4092
aV Butch
p4093
ag129
ag129
ag129
ag129
aV Shawna
p4094
aV Shawna
p4095
aV Shawna
p4096
aV \u2014
p4097
aV \u2014
p4098
aV \u2014
p4099
aV Matthew
p4100
aV Shawna
p4101
aV \u2014
p4102
aV \u2014
p4103
aV Matthew
p4104
ag129
ag129
ag129
ag129
ag129
aV Roger
p4105
aV Roger
p4106
aV Roger
p4107
aV Christy
p4108
aV Roger
p4109
aV Roger
p4110
aV Roger
p4111
aV Roger
p4112
aV Christy
p4113
aV Christy
p4114
ag129
ag129
ag129
ag129
ag129
ag129
aV Dave
p4115
aV Dave
p4116
aV Dave
p4117
aV Dave
p4118
aV Dave
p4119
aV Dave
p4120
aV Dave
p4121
aV Dave
p4122
aV Matthew
p4123
ag129
ag129
ag129
ag129
ag129
ag129
ag129
aV Deena
p4124
aV Deena
p4125
aV Deena
p4126
aV Deena
p4127
aV Deena
p4128
aV Alex
p4129
aV Deena
p4130
aV Alex
p4131
ag129
ag129
ag129
ag129
ag129
ag129
ag129
ag129
aV Matthew
p4132
aV Alex
p4133
aV Alex
p4134
aV Alex
p4135
aV Matthew
p4136
aV Alex
p4137
aV Matthew
p4138
ag129
ag129
ag129
ag129
ag129
ag129
ag129
ag129
ag129
aV Christy
p4139
aV Christy
p4140
aV Christy
p4141
aV Jenna
p4142
aV Christy
p4143
aV Jenna
p4144
ag129
ag129
ag129
ag129
ag129
ag129
ag129
ag129
ag129
ag129
aV Rob
p4145
aV Heidi
p4146
aV Heidi
p4147
aV Heidi
p4148
aV Rob
p4149
ag129
ag129
ag129
ag129
ag129
ag129
ag129
ag129
ag129
ag129
ag129
aV Butch
p4150
aV Butch
p4151
aV Butch
p4152
aV Rob
p4153
ag129
ag129
ag129
ag129
ag129
ag129
ag129
ag129
ag129
ag129
ag129
ag129
aV Rob
p4154
aV \u2014
p4155
aV \u2014
p4156
ag129
ag129
ag129
ag129
ag129
ag129
ag129
ag129
ag129
ag129
ag129
ag129
ag129
ag319
ag319
ag129
aV Matthew
p4157
ag129
ag129
ag129
ag129
ag129
ag129
ag129
ag129
ag129
ag129
ag129
ag129
ag319
ag319
aV Jenna
p4158
ag129
aV Jenna
p4159
aV Jenna
p4160
aV Jenna
p4161
aV Jenna
p4162
aV Jenna
p4163
ag129
ag129
ag129
ag129
ag129
ag129
ag129
atp4164
ba(lp4165
g21
(g22
(dp4166
g24
g25
(g26
(I0
tp4167
g28
tp4168
Rp4169
(I1
(L16L
tp4170
g35
I00
(lp4171
g3971
ag3972
ag3973
ag3974
ag3975
ag3976
ag3977
ag3978
ag3979
ag3980
ag3981
ag3982
ag3983
ag3984
ag3985
ag3986
atp4172
bsg63
Nstp4173
Rp4174
a(dp4175
g339
(dp4176
g341
g3964
sg342
(lp4177
(dp4178
g345
g346
(I0
I16
I1
tp4179
Rp4180
sg349
g4021
sasstp4181
bsbsg351
I6
ssVCagayan
p4182
(dp4183
g3
Vhttp://survivor.wikia.com/wiki/Survivor:_Cagayan
p4184
sg5
g6
(g7
g8
Ntp4185
Rp4186
(dp4187
g12
g13
sg14
g15
sg16
g6
(g17
g8
Ntp4188
Rp4189
((lp4190
g21
(g22
(dp4191
g24
g25
(g26
(I0
tp4192
g28
tp4193
Rp4194
(I1
(L19L
tp4195
g35
I00
(lp4196
VDavid
p4197
aVGarrett
p4198
aVBrice
p4199
aVBrice
p4200
aVJ'Tia
p4201
aVCliff
p4202
aVLindsey
p4203
aVAlexis
p4204
aVSarah
p4205
aVMorgan
p4206
aVLJ
p4207
aVJeremiah
p4208
aVJefra
p4209
aVTasha
p4210
aVTrish
p4211
aVSpencer
p4212
aVKass
p4213
aVWoo
p4214
aVTony
p4215
atp4216
bsg63
Nstp4217
Rp4218
ag21
(g22
(dp4219
g24
g25
(g26
(I0
tp4220
g28
tp4221
Rp4222
(I1
(L18L
tp4223
g35
I00
(lp4224
VTony
p4225
aVWoo
p4226
aVKass
p4227
aVSpencer
p4228
aVTrish
p4229
aVTasha
p4230
aVJefra
p4231
aVJeremiah
p4232
aVLJ
p4233
aVMorgan
p4234
aVSarah
p4235
aVAlexis
p4236
aVLindsey
p4237
aVCliff
p4238
aVJ'Tia
p4239
aVBrice
p4240
aVGarrett
p4241
aVDavid
p4242
atp4243
bsg63
g93
(g96
S'\x01\x00\x00\x00\x00\x00\x00\x00'
p4244
tp4245
Rp4246
stp4247
Rp4248
a(lp4249
g25
(g26
(I0
tp4250
g28
tp4251
Rp4252
(I1
(L19L
L18L
tp4253
g35
I00
(lp4254
V \u2014
p4255
aV \u2014
p4256
aV J'Tia
p4257
aV David
p4258
aV \u2014
p4259
aV David
p4260
aV \u2014
p4261
aV \u2014
p4262
aV \u2014
p4263
aV \u2014
p4264
aV \u2014
p4265
aV \u2014
p4266
aV \u2014
p4267
aV \u2014
p4268
aV David
p4269
aV \u2014
p4270
aV David
p4271
aV J'Tia
p4272
aV \u2014
p4273
aV \u2014
p4274
aV Garrett
p4275
aV J'Tia
p4276
aV \u2014
p4277
aV Garrett
p4278
aV \u2014
p4279
aV \u2014
p4280
aV \u2014
p4281
aV \u2014
p4282
aV \u2014
p4283
aV \u2014
p4284
aV \u2014
p4285
aV \u2014
p4286
aV Garrett
p4287
aV \u2014
p4288
aV J'Tia
p4289
ag129
aV \u2014
p4290
aV \u2014
p4291
aV \u2014
p4292
aV \u2014
p4293
aV \u2014
p4294
aV \u2014
p4295
aV Brice
p4296
aV Morgan
p4297
aV Morgan
p4298
aV Alexis
p4299
aV \u2014
p4300
aV Brice
p4301
aV \u2014
p4302
aV \u2014
p4303
aV \u2014
p4304
aV Alexis
p4305
ag129
ag129
ag4290
ag4291
ag4292
ag4293
ag4294
ag4295
aV Brice
p4306
aV Brice
p4307
aV Brice
p4308
aV None
p4309
ag4300
aV None
p4310
ag4302
ag4303
ag4304
aV None
p4311
ag129
ag129
aV \u2014
p4312
aV \u2014
p4313
aV J'Tia
p4314
aV J'Tia
p4315
aV \u2014
p4316
aV J'Tia
p4317
aV \u2014
p4318
aV \u2014
p4319
aV \u2014
p4320
aV \u2014
p4321
aV \u2014
p4322
aV \u2014
p4323
aV \u2014
p4324
aV \u2014
p4325
aV Spencer
p4326
ag129
ag129
ag129
aV Cliff
p4327
aV LJ
p4328
aV \u2014
p4329
aV \u2014
p4330
aV Cliff
p4331
aV \u2014
p4332
aV Cliff
p4333
aV \u2014
p4334
aV Cliff
p4335
aV \u2014
p4336
aV \u2014
p4337
aV \u2014
p4338
aV LJ
p4339
aV LJ
p4340
ag129
ag129
ag129
ag129
aV\u2014
p4341
aV\u2014
p4342
aV \u2014
p4343
aV \u2014
p4344
aV\u2014
p4345
aV \u2014
p4346
aV\u2014
p4347
aV \u2014
p4348
aV\u2014
p4349
aV \u2014
p4350
aV \u2014
p4351
aV \u2014
p4352
aV Quit
p4353
ag129
ag129
ag129
ag129
ag129
ag4341
ag4342
aV Alexis
p4354
aV Alexis
p4355
ag4345
aV Alexis
p4356
ag4347
aV Alexis
p4357
ag4349
aV Alexis
p4358
aV Alexis
p4359
aV Jeremiah
p4360
ag129
ag129
ag129
ag129
ag129
ag129
aV Sarah
p4361
aV Sarah
p4362
aV Sarah
p4363
aV Jefra
p4364
aV Sarah
p4365
aV Jefra
p4366
aV Sarah
p4367
aV Jefra
p4368
aV Sarah
p4369
aV Jefra
p4370
aV Jefra
p4371
ag129
ag129
ag129
ag129
ag129
ag129
ag129
aV Morgan
p4372
aV Morgan
p4373
aV Morgan
p4374
aV Tony
p4375
aV Morgan
p4376
aV Tony
p4377
aV Morgan
p4378
aV Tony
p4379
aV Morgan
p4380
aV Tony
p4381
ag129
ag129
ag129
ag129
ag129
ag129
ag129
ag129
aV LJ
p4382
aV LJ
p4383
aV Jeremiah
p4384
aV LJ
p4385
aV Jeremiah
p4386
aV LJ
p4387
aV Jeremiah
p4388
aV LJ
p4389
aV Spencer
p4390
ag129
ag129
ag129
ag129
ag129
ag129
ag129
ag129
ag129
aV Jeremiah
p4391
aV Jeremiah
p4392
aV Jeremiah
p4393
aV Woo
p4394
aV Jeremiah
p4395
aV Woo
p4396
aV Jeremiah
p4397
aV Woo
p4398
ag129
ag129
ag129
ag129
ag129
ag129
ag129
ag129
ag129
ag129
aV Jefra
p4399
aV Jefra
p4400
aV Spencer
p4401
aV Jefra
p4402
aV Spencer
p4403
aV Jefra
p4404
aV Spencer
p4405
ag129
ag129
ag129
ag129
ag129
ag129
ag129
ag129
ag129
ag129
ag129
aV Tasha
p4406
aV Tasha
p4407
aV Tasha
p4408
aV Tony
p4409
aV Tasha
p4410
aV Trish
p4411
ag129
ag129
ag129
ag129
ag129
ag129
ag129
ag129
ag129
ag129
ag129
ag129
aV Trish
p4412
aV Trish
p4413
aV Trish
p4414
aV Trish
p4415
aV Kass
p4416
ag129
ag129
ag129
ag129
ag129
ag129
ag129
ag129
ag129
ag129
ag129
ag129
ag129
aV Spencer
p4417
aV Spencer
p4418
aV Spencer
p4419
aV Woo
p4420
ag129
ag129
ag129
ag129
ag129
ag129
ag129
ag129
ag129
ag129
ag129
ag129
ag129
ag129
aV \u2014
p4421
aV Kass
p4422
aV \u2014
p4423
ag129
ag129
ag129
ag129
ag129
ag129
ag129
ag129
ag129
ag129
ag129
ag129
ag129
ag129
ag129
ag319
ag319
ag129
ag129
ag129
aV Woo
p4424
ag129
ag129
ag129
ag129
ag129
ag129
ag129
ag129
ag129
ag129
ag129
ag129
ag319
ag319
aV Tony
p4425
aV Tony
p4426
aV Tony
p4427
ag129
aV Tony
p4428
aV Tony
p4429
aV Tony
p4430
aV Tony
p4431
aV Tony
p4432
ag129
ag129
ag129
ag129
ag129
ag129
ag129
atp4433
ba(lp4434
g21
(g22
(dp4435
g24
g25
(g26
(I0
tp4436
g28
tp4437
Rp4438
(I1
(L19L
tp4439
g35
I00
(lp4440
g4197
ag4198
ag4199
ag4200
ag4201
ag4202
ag4203
ag4204
ag4205
ag4206
ag4207
ag4208
ag4209
ag4210
ag4211
ag4212
ag4213
ag4214
ag4215
atp4441
bsg63
Nstp4442
Rp4443
a(dp4444
g339
(dp4445
g341
g4190
sg342
(lp4446
(dp4447
g345
g346
(I0
I19
I1
tp4448
Rp4449
sg349
g4252
sasstp4450
bsbsg351
I28
ssVSouth_Pacific
p4451
(dp4452
g3
Vhttp://survivor.wikia.com/wiki/Survivor:_South_Pacific
p4453
sg5
g6
(g7
g8
Ntp4454
Rp4455
(dp4456
g12
g13
sg14
g15
sg16
g6
(g17
g8
Ntp4457
Rp4458
((lp4459
g21
(g22
(dp4460
g24
g25
(g26
(I0
tp4461
g28
tp4462
Rp4463
(I1
(L21L
tp4464
g35
I00
(lp4465
VSemhar
p4466
aVChristine
p4467
aVMark
p4468
aVStacey
p4469
aVElyse
p4470
aVMikayla
p4471
aVOzzy
p4472
aVKeith
p4473
aVKeith
p4474
aVOzzy
p4475
aVJim
p4476
aVDawn
p4477
aVWhitney
p4478
aVCochran
p4479
aVEdna
p4480
aVBrandon
p4481
aVRick
p4482
aVOzzy
p4483
aVAlbert
p4484
aVCoach
p4485
aVSophie
p4486
atp4487
bsg63
Nstp4488
Rp4489
ag21
(g22
(dp4490
g24
g25
(g26
(I0
tp4491
g28
tp4492
Rp4493
(I1
(L18L
tp4494
g35
I00
(lp4495
VSophie
p4496
aVCoach
p4497
aVAlbert
p4498
aVOzzy
p4499
aVRick
p4500
aVBrandon
p4501
aVEdna
p4502
aVCochran
p4503
aVWhitney
p4504
aVDawn
p4505
aVKeith
p4506
aVJim
p4507
aVChristine
p4508
aVMikayla
p4509
aVElyse
p4510
aVStacey
p4511
aVMark
p4512
aVSemhar
p4513
atp4514
bsg63
g93
(g96
S'\x01\x00\x00\x00\x00\x00\x00\x00'
p4515
tp4516
Rp4517
stp4518
Rp4519
a(lp4520
g25
(g26
(I0
tp4521
g28
tp4522
Rp4523
(I1
(L21L
L18L
tp4524
g35
I00
(lp4525
V \u2014
p4526
aV \u2014
p4527
aV \u2014
p4528
aV Semhar
p4529
aV \u2014
p4530
aV \u2014
p4531
aV \u2014
p4532
aV Semhar
p4533
aV Semhar
p4534
aV Semhar
p4535
aV Semhar
p4536
aV Semhar
p4537
aV \u2014
p4538
aV \u2014
p4539
aV Semhar
p4540
aV \u2014
p4541
aV Semhar
p4542
aV Cochran
p4543
aV Stacey
p4544
aV Christine
p4545
aV Christine
p4546
aV \u2014
p4547
aV Stacey
p4548
aV Christine
p4549
aV Stacey
p4550
aV \u2014
p4551
aV \u2014
p4552
aV \u2014
p4553
aV \u2014
p4554
aV \u2014
p4555
aV Edna
p4556
aV Christine
p4557
aV \u2014
p4558
aV Sophie
p4559
aV \u2014
p4560
aV 
p4561
aV \u2014
p4562
aV \u2014
p4563
aV \u2014
p4564
aV Mark
p4565
aV \u2014
p4566
aV \u2014
p4567
aV \u2014
p4568
aV Mark
p4569
aV Mark
p4570
aV Mark
p4571
aV Mark
p4572
aV Cochran
p4573
ag4561
aV \u2014
p4574
aV Mark
p4575
aV \u2014
p4576
aV Jim
p4577
ag4561
aV Stacey
p4578
aV Stacey
p4579
aV Stacey
p4580
aV \u2014
p4581
aV Stacey
p4582
aV Stacey
p4583
aV Stacey
p4584
aV \u2014
p4585
aV \u2014
p4586
aV \u2014
p4587
aV \u2014
p4588
aV \u2014
p4589
ag4561
aV Stacey
p4590
aV \u2014
p4591
aV Edna
p4592
ag4561
ag129
aV \u2014
p4593
aV \u2014
p4594
aV \u2014
p4595
aV Cochran
p4596
aV \u2014
p4597
aV \u2014
p4598
aV \u2014
p4599
aV Elyse
p4600
aV Dawn
p4601
aV Elyse
p4602
aV Dawn
p4603
aV Elyse
p4604
ag4561
aV \u2014
p4605
aV Cochran
p4606
ag4561
ag129
ag129
aV Edna
p4607
aV Mikayla
p4608
aV Edna
p4609
aV \u2014
p4610
aV Mikayla
p4611
aV Mikayla
p4612
aV Mikayla
p4613
aV \u2014
p4614
aV \u2014
p4615
aV \u2014
p4616
aV \u2014
p4617
aV \u2014
p4618
ag4561
aV Edna
p4619
ag4561
ag129
ag129
ag129
aV \u2014
p4620
aV \u2014
p4621
aV \u2014
p4622
aV Cochran
p4623
aV \u2014
p4624
aV \u2014
p4625
aV \u2014
p4626
aV Ozzy
p4627
aV Ozzy
p4628
aV Ozzy
p4629
aV Ozzy
p4630
aV Ozzy
p4631
ag4561
ag4561
ag129
ag129
ag129
ag129
aV Keith
p4632
aV Keith
p4633
aV Keith
p4634
aV Rick
p4635
aV Keith
p4636
aV Keith
p4637
aV Keith
p4638
aV Rick
p4639
aV Rick
p4640
aV Rick
p4641
aV Rick
p4642
aV Rick
p4643
ag4561
ag129
ag129
ag129
ag129
ag129
aV Keith
p4644
aV Keith
p4645
aV Keith
p4646
aV Rick
p4647
aVNone
p4648
aV Keith
p4649
aV Keith
p4650
aV Keith
p4651
aV Rick
p4652
aV Rick
p4653
aVNone
p4654
aV Rick
p4655
ag4561
ag129
ag129
ag129
ag129
ag129
aV Ozzy
p4656
aV Ozzy
p4657
aV Ozzy
p4658
aV Cochran
p4659
aV Ozzy
p4660
aV Ozzy
p4661
aV Ozzy
p4662
aV Ozzy
p4663
aV Ozzy
p4664
aV Ozzy
p4665
ag4561
aV Cochran
p4666
ag129
ag129
ag129
ag129
ag129
ag129
aV Jim
p4667
aV Jim
p4668
aV Jim
p4669
ag4561
aV Jim
p4670
aV Jim
p4671
aV Jim
p4672
aV Jim
p4673
aV Edna
p4674
aV Edna
p4675
ag4561
aV Edna
p4676
ag129
ag129
ag129
ag129
ag129
ag129
aV Dawn
p4677
aV Dawn
p4678
aV Dawn
p4679
ag4561
aV Dawn
p4680
aV Dawn
p4681
aV Dawn
p4682
aV Dawn
p4683
aV Edna
p4684
aV Edna
p4685
ag4561
ag4561
ag129
ag129
ag129
ag129
ag129
ag129
aV Whitney
p4686
aV Whitney
p4687
aV Whitney
p4688
ag4561
aV Whitney
p4689
aV Whitney
p4690
aV Whitney
p4691
aV Whitney
p4692
aV Cochran
p4693
ag4561
ag129
ag129
ag129
ag129
ag129
ag129
ag129
ag129
aV Cochran
p4694
aV Cochran
p4695
aV Cochran
p4696
ag4561
aV Cochran
p4697
aV Cochran
p4698
aV Rick
p4699
aV Rick
p4700
ag4561
ag4561
ag129
ag129
ag129
ag129
ag129
ag129
ag129
ag129
aV Edna
p4701
aV Edna
p4702
aV Edna
p4703
ag4561
aV Edna
p4704
aV Edna
p4705
aV Brandon
p4706
ag4561
ag129
ag129
ag129
ag129
ag129
ag129
ag129
ag129
ag129
ag129
aV Brandon
p4707
aV Brandon
p4708
aV Sophie
p4709
ag4561
aV Brandon
p4710
aV Sophie
p4711
ag4561
ag129
ag129
ag129
ag129
ag129
ag129
ag129
ag129
ag129
ag129
ag129
aV Rick
p4712
aV Rick
p4713
aV Rick
p4714
aV Sophie
p4715
aV Sophie
p4716
ag4561
ag129
ag129
ag129
ag129
ag129
ag129
ag129
ag129
ag129
ag129
ag129
ag129
aV Ozzy
p4717
aV Ozzy
p4718
aV Ozzy
p4719
aV Albert
p4720
ag129
ag129
ag129
ag129
ag129
ag129
ag129
ag129
ag129
ag129
ag129
ag129
ag129
ag129
ag319
ag319
ag319
ag129
ag129
ag129
ag129
ag129
ag129
ag129
ag129
ag129
ag129
ag129
ag129
ag129
ag129
ag129
ag319
ag319
ag319
ag129
aV Coach
p4721
ag129
aV Coach
p4722
aV Coach
p4723
ag129
ag129
ag129
ag129
ag129
ag129
ag129
ag129
ag129
ag129
ag319
ag319
ag319
aV Sophie
p4724
ag129
aV Sophie
p4725
ag129
ag129
aV Sophie
p4726
aV Sophie
p4727
aV Sophie
p4728
aV Sophie
p4729
ag129
ag129
ag129
ag129
ag129
ag129
atp4730
ba(lp4731
g21
(g22
(dp4732
g24
g25
(g26
(I0
tp4733
g28
tp4734
Rp4735
(I1
(L21L
tp4736
g35
I00
(lp4737
g4466
ag4467
ag4468
ag4469
ag4470
ag4471
ag4472
ag4473
ag4474
ag4475
ag4476
ag4477
ag4478
ag4479
ag4480
ag4481
ag4482
ag4483
ag4484
ag4485
ag4486
atp4738
bsg63
Nstp4739
Rp4740
a(dp4741
g339
(dp4742
g341
g4459
sg342
(lp4743
(dp4744
g345
g346
(I0
I21
I1
tp4745
Rp4746
sg349
g4523
sasstp4747
bsbsg351
I23
ssVOne_World
p4748
(dp4749
g3
Vhttp://survivor.wikia.com/wiki/Survivor:_One_World
p4750
sg5
g6
(g7
g8
Ntp4751
Rp4752
(dp4753
g12
g13
sg14
g15
sg16
g6
(g17
g8
Ntp4754
Rp4755
((lp4756
g21
(g22
(dp4757
g24
g25
(g26
(I0
tp4758
g28
tp4759
Rp4760
(I1
(L18L
tp4761
g35
I00
(lp4762
VKourtney
p4763
aVNina
p4764
aVMatt
p4765
aVBill
p4766
aVMonica
p4767
aVColton
p4768
aVJonas
p4769
aVMichael
p4770
aVJay
p4771
aVLeif
p4772
aVTroyzan
p4773
aVKat
p4774
aVTarzan
p4775
aVAlicia
p4776
aVChristina
p4777
aVChelsea
p4778
aVSabrina
p4779
aVKim
p4780
atp4781
bsg63
Nstp4782
Rp4783
ag21
(g22
(dp4784
g24
g25
(g26
(I0
tp4785
g28
tp4786
Rp4787
(I1
(L18L
tp4788
g35
I00
(lp4789
VKim
p4790
aVSabrina
p4791
aVChelsea
p4792
aVChristina
p4793
aVAlicia
p4794
aVTarzan
p4795
aVKat
p4796
aVTroyzan
p4797
aVLeif
p4798
aVJay
p4799
aVMichael
p4800
aVJonas
p4801
aVColton
p4802
aVMonica
p4803
aVBill
p4804
aVMatt
p4805
aVNina
p4806
aVKourtney
p4807
atp4808
bsg63
g93
(g96
S'\x01\x00\x00\x00\x00\x00\x00\x00'
p4809
tp4810
Rp4811
stp4812
Rp4813
a(lp4814
g25
(g26
(I0
tp4815
g28
tp4816
Rp4817
(I1
(L18L
L18L
tp4818
g35
I00
(lp4819
V \u2014
p4820
aV \u2014
p4821
aV \u2014
p4822
aV \u2014
p4823
aV \u2014
p4824
aV \u2014
p4825
aV \u2014
p4826
aV \u2014
p4827
aV \u2014
p4828
aV \u2014
p4829
aV \u2014
p4830
aV \u2014
p4831
aV \u2014
p4832
aV \u2014
p4833
aV \u2014
p4834
aV \u2014
p4835
aV \u2014
p4836
aVEvacuated
p4837
aV Nina
p4838
aV Nina
p4839
aV Nina
p4840
aV Nina
p4841
aV Nina
p4842
aV \u2014
p4843
aV Nina
p4844
aV \u2014
p4845
aV \u2014
p4846
aV \u2014
p4847
aV \u2014
p4848
aV \u2014
p4849
aV \u2014
p4850
aV Christina
p4851
aV \u2014
p4852
aV \u2014
p4853
aV Kat
p4854
ag129
aV \u2014
p4855
aV \u2014
p4856
aV \u2014
p4857
aV \u2014
p4858
aV \u2014
p4859
aV Matt
p4860
aV \u2014
p4861
aV Matt
p4862
aV Matt
p4863
aV Matt
p4864
aV Bill
p4865
aV Matt
p4866
aV Matt
p4867
aV \u2014
p4868
aV Matt
p4869
aV Colton
p4870
ag129
ag129
aV \u2014
p4871
aV \u2014
p4872
aV \u2014
p4873
aV \u2014
p4874
aV \u2014
p4875
aV Bill
p4876
aV \u2014
p4877
aV Bill
p4878
aV Bill
p4879
aV Bill
p4880
aV Bill
p4881
aV Bill
p4882
aV Bill
p4883
aV \u2014
p4884
aV Leif
p4885
ag129
ag129
ag129
aV \u2014
p4886
aV \u2014
p4887
aV \u2014
p4888
aV Tarzan
p4889
aV Monica
p4890
aV Monica
p4891
aV \u2014
p4892
aV \u2014
p4893
aV Monica
p4894
aV \u2014
p4895
aV \u2014
p4896
aV Monica
p4897
aV Monica
p4898
aV Tarzan
p4899
ag129
ag129
ag129
ag129
aV \u2014
p4900
aV \u2014
p4901
aV \u2014
p4902
aV \u2014
p4903
aV\u2014
p4904
aV \u2014
p4905
aV \u2014
p4906
aV \u2014
p4907
aV \u2014
p4908
aV \u2014
p4909
aV \u2014
p4910
aV \u2014
p4911
aVEvacuated
p4912
ag129
ag129
ag129
ag129
ag129
aV Jonas
p4913
aV Jonas
p4914
aV Jonas
p4915
aV Jonas
p4916
aV Jonas
p4917
aV Jonas
p4918
aV Jonas
p4919
aV Jonas
p4920
aV Michael
p4921
aV Jonas
p4922
aV Jonas
p4923
aV Michael
p4924
ag129
ag129
ag129
ag129
ag129
ag129
aV Michael
p4925
aV Michael
p4926
aV Michael
p4927
aV Tarzan
p4928
aV Tarzan
p4929
aV Christina
p4930
aV Michael
p4931
aV Michael
p4932
aV Michael
p4933
aV Michael
p4934
aV Christina
p4935
ag129
ag129
ag129
ag129
ag129
ag129
ag129
aV Jay
p4936
aV Jay
p4937
aV Troyzan
p4938
aV Jay
p4939
aV Jay
p4940
aV Jay
p4941
aV Troyzan
p4942
aV Kim
p4943
aV Alicia
p4944
aV Alicia
p4945
ag129
ag129
ag129
ag129
ag129
ag129
ag129
ag129
aV Tarzan
p4946
aV Leif
p4947
aV Leif
p4948
aV Tarzan
p4949
aV Tarzan
p4950
aV Leif
p4951
aV Leif
p4952
aV Kim
p4953
aV Kim
p4954
ag129
ag129
ag129
ag129
ag129
ag129
ag129
ag129
ag129
aV Troyzan
p4955
aV Christina
p4956
aV Troyzan
p4957
aV Chelsea
p4958
aV Troyzan
p4959
aV Christina
p4960
aV Troyzan
p4961
aV Christina
p4962
ag129
ag129
ag129
ag129
ag129
ag129
ag129
ag129
ag129
ag129
aV Kat
p4963
aV Kat
p4964
aV Kat
p4965
aV Kat
p4966
aV Kat
p4967
aV Kat
p4968
aV Sabrina
p4969
ag129
ag129
ag129
ag129
ag129
ag129
ag129
ag129
ag129
ag129
ag129
aV Tarzan
p4970
aV Tarzan
p4971
aV Tarzan
p4972
aV Tarzan
p4973
aV Tarzan
p4974
aV Chelsea
p4975
ag129
ag129
ag129
ag129
ag129
ag129
ag129
ag129
ag129
ag129
ag129
ag129
aV Alicia
p4976
aV Alicia
p4977
aV Alicia
p4978
aV Chelsea
p4979
aV Chelsea
p4980
ag129
ag129
ag129
ag129
ag129
ag129
ag129
ag129
ag129
ag129
ag129
ag129
ag129
aV Christina
p4981
aV Christina
p4982
aV Christina
p4983
aV Sabrina
p4984
ag129
ag129
ag129
ag129
ag129
ag129
ag129
ag129
ag129
ag129
ag129
ag129
ag129
ag129
ag319
ag319
ag319
ag129
ag129
ag129
ag129
ag129
ag129
ag129
ag129
ag129
ag129
ag129
ag129
ag129
ag129
ag129
ag319
ag319
ag319
ag129
ag129
ag129
ag129
aV Sabrina
p4985
aV Sabrina
p4986
ag129
ag129
ag129
ag129
ag129
ag129
ag129
ag129
ag129
ag319
ag319
ag319
aV Kim
p4987
aV Kim
p4988
aV Kim
p4989
aV Kim
p4990
ag129
ag129
aV Kim
p4991
aV Kim
p4992
aV Kim
p4993
ag129
ag129
ag129
ag129
ag129
ag129
atp4994
ba(lp4995
g21
(g22
(dp4996
g24
g25
(g26
(I0
tp4997
g28
tp4998
Rp4999
(I1
(L18L
tp5000
g35
I00
(lp5001
g4763
ag4764
ag4765
ag4766
ag4767
ag4768
ag4769
ag4770
ag4771
ag4772
ag4773
ag4774
ag4775
ag4776
ag4777
ag4778
ag4779
ag4780
atp5002
bsg63
Nstp5003
Rp5004
a(dp5005
g339
(dp5006
g341
g4756
sg342
(lp5007
(dp5008
g345
g346
(I0
I18
I1
tp5009
Rp5010
sg349
g4817
sasstp5011
bsbsg351
I24
ssVPhilippines
p5012
(dp5013
g3
Vhttp://survivor.wikia.com/wiki/Survivor:_Philippines
p5014
sg5
g6
(g7
g8
Ntp5015
Rp5016
(dp5017
g12
g13
sg14
g15
sg16
g6
(g17
g8
Ntp5018
Rp5019
((lp5020
g21
(g22
(dp5021
g24
g25
(g26
(I0
tp5022
g28
tp5023
Rp5024
(I1
(L18L
tp5025
g35
I00
(lp5026
VZane
p5027
aVRoxanne
p5028
aVAngie
p5029
aVRussell
p5030
aVDana
p5031
aVDawson
p5032
aVKatie
p5033
aVR.C.
p5034
aVJeff
p5035
aVArtis
p5036
aVPete
p5037
aVJonathan
p5038
aVCarter
p5039
aVAbi-Maria
p5040
aVMalcolm
p5041
aVMichael
p5042
aVLisa
p5043
aVDenise
p5044
atp5045
bsg63
Nstp5046
Rp5047
ag21
(g22
(dp5048
g24
g25
(g26
(I0
tp5049
g28
tp5050
Rp5051
(I1
(L18L
tp5052
g35
I00
(lp5053
VDenise
p5054
aVLisa
p5055
aVMichael
p5056
aVMalcolm
p5057
aVAbi-Maria
p5058
aVCarter
p5059
aVJonathan
p5060
aVPete
p5061
aVArtis
p5062
aVJeff
p5063
aVR.C.
p5064
aVKatie
p5065
aVDawson
p5066
aVDana
p5067
aVRussell
p5068
aVAngie
p5069
aVRoxanne
p5070
aVZane
p5071
atp5072
bsg63
g93
(g96
S'\x01\x00\x00\x00\x00\x00\x00\x00'
p5073
tp5074
Rp5075
stp5076
Rp5077
a(lp5078
g25
(g26
(I0
tp5079
g28
tp5080
Rp5081
(I1
(L18L
L18L
tp5082
g35
I00
(lp5083
V Zane
p5084
aV \u2014
p5085
aV \u2014
p5086
aV Zane
p5087
aV \u2014
p5088
aV \u2014
p5089
aV \u2014
p5090
aV \u2014
p5091
aV \u2014
p5092
aV \u2014
p5093
aV \u2014
p5094
aV \u2014
p5095
aV \u2014
p5096
aV \u2014
p5097
aV Zane
p5098
aV Zane
p5099
aV Zane
p5100
aV Russell
p5101
aV Roxanne
p5102
aV \u2014
p5103
aV \u2014
p5104
aV Roxanne
p5105
aV \u2014
p5106
aV \u2014
p5107
aV \u2014
p5108
aV \u2014
p5109
aV \u2014
p5110
aV \u2014
p5111
aV \u2014
p5112
aV \u2014
p5113
aV \u2014
p5114
aV \u2014
p5115
aV Roxanne
p5116
aV Roxanne
p5117
aV Angie
p5118
ag129
aV Angie
p5119
aV \u2014
p5120
aV \u2014
p5121
aV Angie
p5122
aV \u2014
p5123
aV \u2014
p5124
aV \u2014
p5125
aV \u2014
p5126
aV \u2014
p5127
aV \u2014
p5128
aV \u2014
p5129
aV \u2014
p5130
aV \u2014
p5131
aV \u2014
p5132
aV Angie
p5133
aV Russell
p5134
ag129
ag129
aV Russell
p5135
aV \u2014
p5136
aV \u2014
p5137
aV Russell
p5138
aV \u2014
p5139
aV \u2014
p5140
aV \u2014
p5141
aV \u2014
p5142
aV \u2014
p5143
aV \u2014
p5144
aV \u2014
p5145
aV \u2014
p5146
aV \u2014
p5147
aV \u2014
p5148
aV Malcolm
p5149
ag129
ag129
ag129
aV \u2014
p5150
aV \u2014
p5151
aV \u2014
p5152
aV \u2014
p5153
aV \u2014
p5154
aV \u2014
p5155
aV \u2014
p5156
aV \u2014
p5157
aV \u2014
p5158
aV \u2014
p5159
aV \u2014
p5160
aV \u2014
p5161
aV \u2014
p5162
aVQuit
p5163
ag129
ag129
ag129
ag129
aV Dawson
p5164
aV \u2014
p5165
aV \u2014
p5166
aV \u2014
p5167
aV \u2014
p5168
aV Dawson
p5169
aV Dawson
p5170
aV \u2014
p5171
aV \u2014
p5172
aV Dawson
p5173
aV \u2014
p5174
aV Dawson
p5175
aV Denise
p5176
ag129
ag129
ag129
ag129
ag129
aV Katie
p5177
aV \u2014
p5178
aV \u2014
p5179
aV \u2014
p5180
aV \u2014
p5181
aV Katie
p5182
aV Katie
p5183
aV \u2014
p5184
aV \u2014
p5185
aV Katie
p5186
aV \u2014
p5187
aV Jonathan
p5188
ag129
ag129
ag129
ag129
ag129
ag129
aV Jonathan
p5189
aV Jonathan
p5190
aV Jonathan
p5191
aV Jonathan
p5192
aV Jonathan
p5193
aV R.C.
p5194
aV Pete
p5195
aV R.C.
p5196
aV R.C.
p5197
aV R.C.
p5198
aV Pete
p5199
ag129
ag129
ag129
ag129
ag129
ag129
ag129
aV Pete
p5200
aV Jeff
p5201
aV Jeff
p5202
aV Pete
p5203
aV Jeff
p5204
aV Pete
p5205
aV Abi-Maria
p5206
aV Jeff
p5207
aV Jeff
p5208
aV Pete
p5209
ag129
ag129
ag129
ag129
ag129
ag129
ag129
ag129
aV Artis
p5210
aV Jonathan
p5211
aV Artis
p5212
aV Artis
p5213
aV Jonathan
p5214
aV Artis
p5215
aV Artis
p5216
aV Jonathan
p5217
aV Jonathan
p5218
ag129
ag129
ag129
ag129
ag129
ag129
ag129
ag129
ag129
aV Abi-Maria
p5219
aV Abi-Maria
p5220
aV Abi-Maria
p5221
aV Pete
p5222
aV Malcolm
p5223
aV Pete
p5224
aV Pete
p5225
aV Malcolm
p5226
ag129
ag129
ag129
ag129
ag129
ag129
ag129
ag129
ag129
ag129
aV Jonathan
p5227
aV Jonathan
p5228
aV Jonathan
p5229
aV Jonathan
p5230
aV Denise
p5231
aV Denise
p5232
aV Denise
p5233
ag129
ag129
ag129
ag129
ag129
ag129
ag129
ag129
ag129
ag129
ag129
aV Carter
p5234
aV Carter
p5235
aV Carter
p5236
aV Carter
p5237
aV Carter
p5238
aV Abi-Maria
p5239
ag129
ag129
ag129
ag129
ag129
ag129
ag129
ag129
ag129
ag129
ag129
ag129
aV Abi-Maria
p5240
aV Abi-Maria
p5241
aV Abi-Maria
p5242
aV Abi-Maria
p5243
aV Denise
p5244
ag129
ag129
ag129
ag129
ag129
ag129
ag129
ag129
ag129
ag129
ag129
ag129
ag129
aV Malcolm
p5245
aV Malcolm
p5246
aV Malcolm
p5247
aV Denise
p5248
ag129
ag129
ag129
ag129
ag129
ag129
ag129
ag129
ag129
ag129
ag129
ag129
ag129
ag129
ag319
ag319
ag319
ag129
ag129
aV Michael
p5249
ag129
ag129
ag129
ag129
ag129
ag129
ag129
ag129
ag129
ag129
ag129
ag129
ag319
ag319
ag319
ag129
ag129
ag129
ag129
ag129
ag129
ag129
aV Lisa
p5250
ag129
ag129
ag129
ag129
ag129
ag129
ag129
ag319
ag319
ag319
aV Denise
p5251
aV Denise
p5252
ag129
aV Denise
p5253
aV Denise
p5254
aV Denise
p5255
aV Denise
p5256
ag129
ag129
ag129
ag129
ag129
ag129
ag129
ag129
atp5257
ba(lp5258
g21
(g22
(dp5259
g24
g25
(g26
(I0
tp5260
g28
tp5261
Rp5262
(I1
(L18L
tp5263
g35
I00
(lp5264
g5027
ag5028
ag5029
ag5030
ag5031
ag5032
ag5033
ag5034
ag5035
ag5036
ag5037
ag5038
ag5039
ag5040
ag5041
ag5042
ag5043
ag5044
atp5265
bsg63
Nstp5266
Rp5267
a(dp5268
g339
(dp5269
g341
g5020
sg342
(lp5270
(dp5271
g345
g346
(I0
I18
I1
tp5272
Rp5273
sg349
g5081
sasstp5274
bsbsg351
I25
ssVCaramoan
p5275
(dp5276
g3
Vhttp://survivor.wikia.com/wiki/Survivor:_Caramoan
p5277
sg5
g6
(g7
g8
Ntp5278
Rp5279
(dp5280
g12
g13
sg14
g15
sg16
g6
(g17
g8
Ntp5281
Rp5282
((lp5283
g21
(g22
(dp5284
g24
g25
(g26
(I0
tp5285
g28
tp5286
Rp5287
(I1
(L23L
tp5288
g35
I00
(lp5289
VFrancesca
p5290
aVAllie
p5291
aVHope
p5292
aVHope
p5293
aVShamar
p5294
aVLaura
p5295
aVBrandon
p5296
aVMatt
p5297
aVJulia
p5298
aVJulia
p5299
aVCorinne
p5300
aVMichael
p5301
aVPhillip
p5302
aVMalcolm
p5303
aVMalcolm
p5304
aVReynold
p5305
aVAndrea
p5306
aVBrenda
p5307
aVErik
p5308
aVEddie
p5309
aVSherri
p5310
aVDawn
p5311
aVCochran
p5312
atp5313
bsg63
Nstp5314
Rp5315
ag21
(g22
(dp5316
g24
g25
(g26
(I0
tp5317
g28
tp5318
Rp5319
(I1
(L20L
tp5320
g35
I00
(lp5321
V Cochran
p5322
aV Dawn
p5323
aV Sherri
p5324
aV Eddie
p5325
aV Erik
p5326
aV Brenda
p5327
aV Andrea
p5328
aV Reynold
p5329
aV Malcolm
p5330
aV Phillip
p5331
aV Michael
p5332
aV Corinne
p5333
aV Julia
p5334
aV Matt
p5335
aV Brandon
p5336
aV Laura
p5337
aV Shamar
p5338
aV Hope
p5339
aV Allie
p5340
aV Francesca
p5341
atp5342
bsg63
g93
(g96
S'\x01\x00\x00\x00\x00\x00\x00\x00'
p5343
tp5344
Rp5345
stp5346
Rp5347
a(lp5348
g25
(g26
(I0
tp5349
g28
tp5350
Rp5351
(I1
(L23L
L20L
tp5352
g35
I00
(lp5353
V Francesca
p5354
aV Francesca
p5355
aV \u2014
p5356
aV \u2014
p5357
aV Andrea
p5358
aV Andrea
p5359
aV Francesca
p5360
aV \u2014
p5361
aV Francesca
p5362
aV Francesca
p5363
aV \u2014
p5364
aV Francesca
p5365
aV \u2014
p5366
aV \u2014
p5367
aV Andrea
p5368
aV \u2014
p5369
aV \u2014
p5370
aV \u2014
p5371
aV \u2014
p5372
aV Andrea
p5373
aV \u2014
p5374
aV \u2014
p5375
aV Allie
p5376
aV Shamar
p5377
aV \u2014
p5378
aV \u2014
p5379
aV \u2014
p5380
aV Shamar
p5381
aV \u2014
p5382
aV \u2014
p5383
aV Allie
p5384
aV \u2014
p5385
aV Allie
p5386
aV Allie
p5387
aV \u2014
p5388
aV Allie
p5389
aV Allie
p5390
aV Shamar
p5391
aV Shamar
p5392
ag129
aV \u2014
p5393
aV \u2014
p5394
aV Hope
p5395
aV Shamar
p5396
aV \u2014
p5397
aV \u2014
p5398
aV \u2014
p5399
aV Shamar
p5400
aV \u2014
p5401
aV \u2014
p5402
aV Eddie
p5403
aV \u2014
p5404
aV Hope
p5405
aV Eddie
p5406
aV \u2014
p5407
aV Hope
p5408
aV Eddie
p5409
aV Shamar
p5410
ag129
ag129
ag5393
ag5394
aV Hope
p5411
aVNone
p5412
ag5397
ag5398
ag5399
aV Shamar
p5413
ag5401
ag5402
aV Hope
p5414
ag5404
aV Hope
p5415
aV Hope
p5416
ag5407
aV Hope
p5417
aVNone
p5418
aVNone
p5419
ag129
ag129
aV \u2014
p5420
aV \u2014
p5421
aV \u2014
p5422
aV \u2014
p5423
aV \u2014
p5424
aV \u2014
p5425
aV \u2014
p5426
aV \u2014
p5427
aV \u2014
p5428
aV \u2014
p5429
aV \u2014
p5430
aV \u2014
p5431
aV \u2014
p5432
aV \u2014
p5433
aV \u2014
p5434
aV \u2014
p5435
aVEvacuated
p5436
ag129
ag129
ag129
aV \u2014
p5437
aV \u2014
p5438
aV Laura
p5439
aV Laura
p5440
aV \u2014
p5441
aV \u2014
p5442
aV \u2014
p5443
aV Laura
p5444
aV \u2014
p5445
aV \u2014
p5446
aV Laura
p5447
aV \u2014
p5448
aV Laura
p5449
aV Laura
p5450
aV \u2014
p5451
aV Reynold
p5452
ag129
ag129
ag129
ag129
aV Brandon
p5453
aV Brandon
p5454
aV \u2014
p5455
aV \u2014
p5456
aV Brandon
p5457
aV Brandon
p5458
aV Brandon
p5459
aV \u2014
p5460
aV Brandon
p5461
aV Brandon
p5462
aV \u2014
p5463
aV Brandon
p5464
aV \u2014
p5465
aV \u2014
p5466
aV Phillip
p5467
ag129
ag129
ag129
ag129
ag129
aV Matt
p5468
aV Matt
p5469
aV \u2014
p5470
aV \u2014
p5471
aV \u2014
p5472
aV \u2014
p5473
aV \u2014
p5474
aV \u2014
p5475
aV \u2014
p5476
aV Matt
p5477
aV Julia
p5478
aV Matt
p5479
aV Dawn
p5480
aV Julia
p5481
ag129
ag129
ag129
ag129
ag129
ag129
aV Michael
p5482
aV Julia
p5483
aV \u2014
p5484
aV \u2014
p5485
aV \u2014
p5486
aV \u2014
p5487
aV \u2014
p5488
aV \u2014
p5489
aV \u2014
p5490
aV Michael
p5491
aV Julia
p5492
aV Julia
p5493
aV Michael
p5494
ag129
ag129
ag129
ag129
ag129
ag129
ag129
aV Julia
p5495
aV Julia
p5496
ag5484
ag5485
ag5486
ag5487
ag5488
ag5489
ag5490
aV Julia
p5497
aVNone
p5498
aV Julia
p5499
aVNone
p5500
ag129
ag129
ag129
ag129
ag129
ag129
ag129
aV Corinne
p5501
aV Corinne
p5502
aV Corinne
p5503
aV Sherri
p5504
aV Corinne
p5505
aV Corinne
p5506
aV Corinne
p5507
aV Sherri
p5508
aV Sherri
p5509
aV Corinne
p5510
aV Sherri
p5511
aV Sherri
p5512
ag129
ag129
ag129
ag129
ag129
ag129
ag129
ag129
aV Michael
p5513
aV Michael
p5514
aV Michael
p5515
aV Andrea
p5516
aV Michael
p5517
aV Michael
p5518
aV Michael
p5519
aV Andrea
p5520
aV Reynold
p5521
aV Michael
p5522
aV Andrea
p5523
ag129
ag129
ag129
ag129
ag129
ag129
ag129
ag129
ag129
aV Malcolm
p5524
aV Eddie
p5525
aV Eddie
p5526
aV Phillip
p5527
aV Phillip
p5528
aV Eddie
p5529
aV Eddie
p5530
aV Phillip
p5531
aV Phillip
p5532
aV Malcolm
p5533
ag129
ag129
ag129
ag129
ag129
ag129
ag129
ag129
ag129
ag129
aV Malcolm
p5534
aV Reynold
p5535
aV Reynold
p5536
aV Andrea
p5537
aV Malcolm
p5538
aV Reynold
p5539
aV Malcolm
p5540
aV Andrea
p5541
aV Andrea
p5542
ag129
ag129
ag129
ag129
ag129
ag129
ag129
ag129
ag129
ag129
ag129
aV Malcolm
p5543
aV Malcolm
p5544
aV Malcolm
p5545
aV Malcolm
p5546
aV Malcolm
p5547
aV Malcolm
p5548
aVNone
p5549
aVNone
p5550
aVNone
p5551
ag129
ag129
ag129
ag129
ag129
ag129
ag129
ag129
ag129
ag129
ag129
aV Eddie
p5552
aV Reynold
p5553
aV Reynold
p5554
aV Sherri
p5555
aV Eddie
p5556
aV Reynold
p5557
aV Reynold
p5558
aV Erik
p5559
ag129
ag129
ag129
ag129
ag129
ag129
ag129
ag129
ag129
ag129
ag129
ag129
aV Eddie
p5560
aV Eddie
p5561
aV Andrea
p5562
aV Brenda
p5563
aV Andrea
p5564
aV Andrea
p5565
aV Brenda
p5566
ag129
ag129
ag129
ag129
ag129
ag129
ag129
ag129
ag129
ag129
ag129
ag129
ag129
aV Brenda
p5567
aV Brenda
p5568
aV Brenda
p5569
aV Erik
p5570
aV Eddie
p5571
aV Eddie
p5572
ag129
ag129
ag129
ag129
ag129
ag129
ag129
ag129
ag129
ag129
ag129
ag129
ag129
ag129
aV \u2014
p5573
aV \u2014
p5574
aV \u2014
p5575
aV \u2014
p5576
aVEvacuated
p5577
ag129
ag129
ag129
ag129
ag129
ag129
ag129
ag129
ag129
ag129
ag129
ag129
ag129
ag129
ag129
aV Eddie
p5578
aV Eddie
p5579
aV Eddie
p5580
aV Dawn
p5581
ag129
ag129
ag129
ag129
ag129
ag129
ag129
ag129
ag129
ag129
ag129
ag129
ag129
ag129
ag129
ag129
ag319
ag319
ag319
ag129
ag129
ag129
ag129
ag129
ag129
ag129
ag129
ag129
ag129
ag129
ag129
ag129
ag129
ag129
ag129
ag129
ag319
ag319
ag319
ag129
ag129
ag129
ag129
ag129
ag129
ag129
ag129
ag129
ag129
ag129
ag129
ag129
ag129
ag129
ag129
ag129
ag319
ag319
ag319
aV Cochran
p5582
aV Cochran
p5583
aV Cochran
p5584
aV Cochran
p5585
aV Cochran
p5586
aV Cochran
p5587
aV Cochran
p5588
aV Cochran
p5589
ag129
ag129
ag129
ag129
ag129
ag129
ag129
ag129
ag129
atp5590
ba(lp5591
g21
(g22
(dp5592
g24
g25
(g26
(I0
tp5593
g28
tp5594
Rp5595
(I1
(L23L
tp5596
g35
I00
(lp5597
g5290
ag5291
ag5292
ag5293
ag5294
ag5295
ag5296
ag5297
ag5298
ag5299
ag5300
ag5301
ag5302
ag5303
ag5304
ag5305
ag5306
ag5307
ag5308
ag5309
ag5310
ag5311
ag5312
atp5598
bsg63
Nstp5599
Rp5600
a(dp5601
g339
(dp5602
g341
g5283
sg342
(lp5603
(dp5604
g345
g346
(I0
I23
I1
tp5605
Rp5606
sg349
g5351
sasstp5607
bsbsg351
I26
ssVGabon
p5608
(dp5609
g3
Vhttp://survivor.wikia.com/wiki/Survivor:_Gabon
p5610
sg5
g6
(g7
g8
Ntp5611
Rp5612
(dp5613
g12
g13
sg14
g15
sg16
g6
(g17
g8
Ntp5614
Rp5615
((lp5616
g21
(g22
(dp5617
g24
g25
(g26
(I0
tp5618
g28
tp5619
Rp5620
(I1
(L18L
tp5621
g35
I00
(lp5622
VMichelle
p5623
aVGillian
p5624
aVPaloma
p5625
aVJacquie
p5626
aVG.C.
p5627
aVKelly
p5628
aVAce
p5629
aVDan
p5630
aVMarcus
p5631
aVCharlie
p5632
aVRandy
p5633
aVCorinne
p5634
aVCrystal
p5635
aVKen
p5636
aVMatty
p5637
aVSugar
p5638
aVSusie
p5639
aVBob
p5640
atp5641
bsg63
Nstp5642
Rp5643
ag21
(g22
(dp5644
g24
g25
(g26
(I0
tp5645
g28
tp5646
Rp5647
(I1
(L18L
tp5648
g35
I00
(lp5649
VBob
p5650
aVSusie
p5651
aVSugar
p5652
aVMatty
p5653
aVKen
p5654
aVCrystal
p5655
aVCorinne
p5656
aVRandy
p5657
aVCharlie
p5658
aVMarcus
p5659
aVDan
p5660
aVAce
p5661
aVKelly
p5662
aVG.C.
p5663
aVJacquie
p5664
aVPaloma
p5665
aVGillian
p5666
aVMichelle
p5667
atp5668
bsg63
g93
(g96
S'\x01\x00\x00\x00\x00\x00\x00\x00'
p5669
tp5670
Rp5671
stp5672
Rp5673
a(lp5674
g25
(g26
(I0
tp5675
g28
tp5676
Rp5677
(I1
(L18L
L18L
tp5678
g35
I00
(lp5679
V \u2014
p5680
aV Michelle
p5681
aV \u2014
p5682
aV Michelle
p5683
aV Michelle
p5684
aV Michelle
p5685
aV \u2014
p5686
aV Michelle
p5687
aV \u2014
p5688
aV \u2014
p5689
aV Michelle
p5690
aV \u2014
p5691
aV \u2014
p5692
aV Michelle
p5693
aV \u2014
p5694
aV \u2014
p5695
aV Michelle
p5696
aV Gillian
p5697
aV \u2014
p5698
aV Gillian
p5699
aV \u2014
p5700
aV Gillian
p5701
aV Gillian
p5702
aV Gillian
p5703
aV \u2014
p5704
aV Gillian
p5705
aV \u2014
p5706
aV \u2014
p5707
aV Gillian
p5708
aV \u2014
p5709
aV \u2014
p5710
aV Gillian
p5711
aV \u2014
p5712
aV \u2014
p5713
aV Ken
p5714
ag129
aV Paloma
p5715
aV \u2014
p5716
aV Paloma
p5717
aV \u2014
p5718
aV \u2014
p5719
aV \u2014
p5720
aV Paloma
p5721
aV \u2014
p5722
aV Paloma
p5723
aV Paloma
p5724
aV \u2014
p5725
aV Paloma
p5726
aV Ace
p5727
aV \u2014
p5728
aV Paloma
p5729
aV Ace
p5730
ag129
ag129
aV \u2014
p5731
aV \u2014
p5732
aVExiled
p5733
aV Jacquie
p5734
aV Jacquie
p5735
aV Jacquie
p5736
aV \u2014
p5737
aV \u2014
p5738
aV \u2014
p5739
aV \u2014
p5740
aV \u2014
p5741
aV Kelly
p5742
aV Jacquie
p5743
aV Jacquie
p5744
aV Kelly
p5745
ag129
ag129
ag129
aV \u2014
p5746
aV \u2014
p5747
aV G.C.
p5748
aV G.C.
p5749
aV G.C.
p5750
aV G.C.
p5751
aV \u2014
p5752
aV \u2014
p5753
aV \u2014
p5754
aV \u2014
p5755
aV \u2014
p5756
aV G.C.
p5757
aV G.C.
p5758
aV Kelly
p5759
ag129
ag129
ag129
ag129
aV \u2014
p5760
aV \u2014
p5761
aV Kelly
p5762
aV Kelly
p5763
aV Kelly
p5764
aV Kelly
p5765
aV \u2014
p5766
aV \u2014
p5767
aV \u2014
p5768
aV \u2014
p5769
aV \u2014
p5770
aV Kelly
p5771
aV Crystal
p5772
ag129
ag129
ag129
ag129
ag129
aV \u2014
p5773
aV \u2014
p5774
aV Ace
p5775
aV Crystal
p5776
aV Ace
p5777
aV Ace
p5778
aV \u2014
p5779
aV \u2014
p5780
aV \u2014
p5781
aV \u2014
p5782
aV \u2014
p5783
aV Crystal
p5784
ag129
ag129
ag129
ag129
ag129
ag129
aV Dan
p5785
aV Dan
p5786
aV \u2014
p5787
aV \u2014
p5788
aV \u2014
p5789
aV \u2014
p5790
aV Dan
p5791
aV Susie
p5792
aV Dan
p5793
aV Susie
p5794
aV Susie
p5795
ag129
ag129
ag129
ag129
ag129
ag129
ag129
aV Ken
p5796
aV Marcus
p5797
aV \u2014
p5798
aV \u2014
p5799
aV Marcus
p5800
aV Marcus
p5801
aV \u2014
p5802
aV \u2014
p5803
aV \u2014
p5804
aV Ken
p5805
ag129
ag129
ag129
ag129
ag129
ag129
ag129
ag129
aV Crystal
p5806
aV Charlie
p5807
aV Charlie
p5808
aV Charlie
p5809
aV Charlie
p5810
aV Charlie
p5811
aV Crystal
p5812
aV Crystal
p5813
aV Crystal
p5814
ag129
ag129
ag129
ag129
ag129
ag129
ag129
ag129
ag129
aV Susie
p5815
aV Randy
p5816
aV Randy
p5817
aV Randy
p5818
aV Randy
p5819
aV Randy
p5820
aV Susie
p5821
aV Susie
p5822
ag129
ag129
ag129
ag129
ag129
ag129
ag129
ag129
ag129
ag129
aV Matty
p5823
aV Corinne
p5824
aV Corinne
p5825
aV Corinne
p5826
aV Matty
p5827
aV Corinne
p5828
aV Matty
p5829
ag129
ag129
ag129
ag129
ag129
ag129
ag129
ag129
ag129
ag129
ag129
aV Crystal
p5830
aV Crystal
p5831
aV Crystal
p5832
aV Crystal
p5833
aV Matty
p5834
aV Matty
p5835
ag129
ag129
ag129
ag129
ag129
ag129
ag129
ag129
ag129
ag129
ag129
ag129
aV Ken
p5836
aV Ken
p5837
aV Ken
p5838
aV Ken
p5839
aV Susie
p5840
ag129
ag129
ag129
ag129
ag129
ag129
ag129
ag129
ag129
ag129
ag129
ag129
ag129
aV Matty
p5841
aV Bob
p5842
aV Matty
p5843
aV Bob
p5844
ag129
ag129
ag129
ag129
ag129
ag129
ag129
ag129
ag129
ag129
ag129
ag129
ag129
ag129
ag319
ag319
ag319
ag129
ag129
ag129
ag129
ag129
ag129
ag129
ag129
ag129
ag129
ag129
ag129
ag129
ag129
ag129
ag319
ag319
ag319
aV Susie
p5845
aV Susie
p5846
aV Susie
p5847
ag129
ag129
ag129
ag129
ag129
ag129
ag129
ag129
ag129
ag129
ag129
ag129
ag319
ag319
ag319
ag129
ag129
ag129
aV Bob
p5848
aV Bob
p5849
aV Bob
p5850
aV Bob
p5851
ag129
ag129
ag129
ag129
ag129
ag129
ag129
ag129
atp5852
ba(lp5853
g21
(g22
(dp5854
g24
g25
(g26
(I0
tp5855
g28
tp5856
Rp5857
(I1
(L18L
tp5858
g35
I00
(lp5859
g5623
ag5624
ag5625
ag5626
ag5627
ag5628
ag5629
ag5630
ag5631
ag5632
ag5633
ag5634
ag5635
ag5636
ag5637
ag5638
ag5639
ag5640
atp5860
bsg63
Nstp5861
Rp5862
a(dp5863
g339
(dp5864
g341
g5616
sg342
(lp5865
(dp5866
g345
g346
(I0
I18
I1
tp5867
Rp5868
sg349
g5677
sasstp5869
bsbsg351
I17
ssVMicronesia
p5870
(dp5871
g3
Vhttp://survivor.wikia.com/wiki/Survivor:_Micronesia
p5872
sg5
g6
(g7
g8
Ntp5873
Rp5874
(dp5875
g12
g13
sg14
g15
sg16
g6
(g17
g8
Ntp5876
Rp5877
((lp5878
g21
(g22
(dp5879
g24
g25
(g26
(I0
tp5880
g28
tp5881
Rp5882
(I1
(L20L
tp5883
g35
I00
(lp5884
VJon
p5885
aVMary
p5886
aVYau-Man
p5887
aVMikey B.
p5888
aVJoel
p5889
aVJonathan
p5890
aVChet
p5891
aVKathy
p5892
aVTracy
p5893
aVAmi
p5894
aVEliza
p5895
aVOzzy
p5896
aVJason
p5897
aVJames
p5898
aVAlexis
p5899
aVErik
p5900
aVNatalie
p5901
aVCirie
p5902
aVAmanda
p5903
aVParvati
p5904
atp5905
bsg63
Nstp5906
Rp5907
ag21
(g22
(dp5908
g24
g25
(g26
(I0
tp5909
g28
tp5910
Rp5911
(I1
(L20L
tp5912
g35
I00
(lp5913
VParvati
p5914
aVAmanda
p5915
aVCirie
p5916
aVNatalie
p5917
aVErik
p5918
aVAlexis
p5919
aVJames
p5920
aVJason
p5921
aVOzzy
p5922
aVEliza
p5923
aVAmi
p5924
aVTracy
p5925
aVKathy
p5926
aVChet
p5927
aVJonathan
p5928
aVJoel
p5929
aVMikey B.
p5930
aVYau-Man
p5931
aVMary
p5932
aVJon
p5933
atp5934
bsg63
g93
(g96
S'\x01\x00\x00\x00\x00\x00\x00\x00'
p5935
tp5936
Rp5937
stp5938
Rp5939
a(lp5940
g25
(g26
(I0
tp5941
g28
tp5942
Rp5943
(I1
(L20L
L20L
tp5944
g35
I00
(lp5945
V Jon
p5946
aV Jon
p5947
aV Jon
p5948
aV \u2014
p5949
aV \u2014
p5950
aV \u2014
p5951
aV Jon
p5952
aV \u2014
p5953
aV Jon
p5954
aV Jon
p5955
aV Jon
p5956
aV \u2014
p5957
aV \u2014
p5958
aV \u2014
p5959
aV Jon
p5960
aV \u2014
p5961
aV \u2014
p5962
aV Jon
p5963
aV\u2014
p5964
aV Ozzy
p5965
aV \u2014
p5966
aV \u2014
p5967
aV \u2014
p5968
aV Mary
p5969
aV Mary
p5970
aV Mary
p5971
aV \u2014
p5972
aV Chet
p5973
aV \u2014
p5974
aV \u2014
p5975
aV \u2014
p5976
aV Mary
p5977
aV Mary
p5978
aV Mary
p5979
aV \u2014
p5980
aV Tracy
p5981
aV Chet
p5982
aV \u2014
p5983
aV Tracy
p5984
ag129
aV Yau-Man
p5985
aV Yau-Man
p5986
aV Yau-Man
p5987
aV \u2014
p5988
aV \u2014
p5989
aV \u2014
p5990
aV Yau-Man
p5991
aV \u2014
p5992
aV Yau-Man
p5993
aV Yau-Man
p5994
aV Cirie
p5995
aV \u2014
p5996
aV \u2014
p5997
aV \u2014
p5998
aV Parvati
p5999
aV \u2014
p6000
aV \u2014
p6001
aV Parvati
p6002
ag129
ag129
aV \u2014
p6003
aV \u2014
p6004
aV \u2014
p6005
aV Mikey B.
p6006
aV Mikey B.
p6007
aV Chet
p6008
aV \u2014
p6009
aV Chet
p6010
aV \u2014
p6011
aV \u2014
p6012
aV \u2014
p6013
aV Mikey B.
p6014
aV Mikey B.
p6015
aV Mikey B.
p6016
aV \u2014
p6017
aV Mikey B.
p6018
aV Chet
p6019
ag129
ag129
ag129
aV \u2014
p6020
aV Joel
p6021
aV Joel
p6022
aV \u2014
p6023
aV Chet
p6024
aV \u2014
p6025
aV \u2014
p6026
aV \u2014
p6027
aV Joel
p6028
aV \u2014
p6029
aV Joel
p6030
aV Joel
p6031
aV \u2014
p6032
aV Joel
p6033
aV \u2014
p6034
aV Chet
p6035
ag129
ag129
ag129
ag129
aV \u2014
p6036
aV \u2014
p6037
aV \u2014
p6038
aV \u2014
p6039
aV \u2014
p6040
aV \u2014
p6041
aV \u2014
p6042
aV \u2014
p6043
aV \u2014
p6044
aV \u2014
p6045
aV \u2014
p6046
aV \u2014
p6047
aV \u2014
p6048
aV \u2014
p6049
aVEvacuated
p6050
ag129
ag129
ag129
ag129
ag129
aV \u2014
p6051
aV Chet
p6052
aV Chet
p6053
aV \u2014
p6054
aV Chet
p6055
aV \u2014
p6056
aV \u2014
p6057
aV \u2014
p6058
aV Chet
p6059
aV \u2014
p6060
aV Chet
p6061
aV Erik
p6062
aV \u2014
p6063
aV Erik
p6064
ag129
ag129
ag129
ag129
ag129
ag129
aV \u2014
p6065
aV \u2014
p6066
aV \u2014
p6067
aV \u2014
p6068
aV \u2014
p6069
aV \u2014
p6070
aV \u2014
p6071
aV \u2014
p6072
aV \u2014
p6073
aV \u2014
p6074
aV \u2014
p6075
aV \u2014
p6076
aVQuit
p6077
ag129
ag129
ag129
ag129
ag129
ag129
ag129
aV \u2014
p6078
aV Tracy
p6079
aV Tracy
p6080
aV \u2014
p6081
aV Tracy
p6082
aV \u2014
p6083
aV \u2014
p6084
aV \u2014
p6085
aV Tracy
p6086
aV \u2014
p6087
aV Tracy
p6088
aV Ozzy
p6089
ag129
ag129
ag129
ag129
ag129
ag129
ag129
ag129
aV \u2014
p6090
aV Ami
p6091
aV Ami
p6092
aV \u2014
p6093
aV Ami
p6094
aV \u2014
p6095
aV \u2014
p6096
aV \u2014
p6097
aV Ami
p6098
aV \u2014
p6099
aV Erik
p6100
ag129
ag129
ag129
ag129
ag129
ag129
ag129
ag129
ag129
aV Eliza
p6101
aV Eliza
p6102
aV Eliza
p6103
aV Eliza
p6104
aV Eliza
p6105
aV Eliza
p6106
aV Eliza
p6107
aV Ozzy
p6108
aV Eliza
p6109
aV Ozzy
p6110
ag129
ag129
ag129
ag129
ag129
ag129
ag129
ag129
ag129
ag129
aV Ozzy
p6111
aV Jason
p6112
aV Ozzy
p6113
aV Ozzy
p6114
aV Jason
p6115
aV Ozzy
p6116
aV Jason
p6117
aV Ozzy
p6118
aV Jason
p6119
ag129
ag129
ag129
ag129
ag129
ag129
ag129
ag129
ag129
ag129
ag129
aV Jason
p6120
aV Jason
p6121
aV Jason
p6122
aV James
p6123
aV Jason
p6124
aV James
p6125
aV Parvati
p6126
aV James
p6127
ag129
ag129
ag129
ag129
ag129
ag129
ag129
ag129
ag129
ag129
ag129
ag129
aV \u2014
p6128
aV \u2014
p6129
aV \u2014
p6130
aV \u2014
p6131
aV \u2014
p6132
aV \u2014
p6133
aVEvacuated
p6134
ag129
ag129
ag129
ag129
ag129
ag129
ag129
ag129
ag129
ag129
ag129
ag129
ag129
aV Alexis
p6135
aV Alexis
p6136
aV Amanda
p6137
aV Amanda
p6138
aV Amanda
p6139
aV Amanda
p6140
ag129
ag129
ag129
ag129
ag129
ag129
ag129
ag129
ag129
ag129
ag129
ag129
ag129
ag129
aV Erik
p6141
aV Erik
p6142
aV Erik
p6143
aV Erik
p6144
aV Parvati
p6145
ag129
ag129
ag129
ag129
ag129
ag129
ag129
ag129
ag129
ag129
ag129
ag129
ag129
ag129
ag129
aV Natalie
p6146
aV Natalie
p6147
aV Natalie
p6148
aV Cirie
p6149
ag129
ag129
ag129
ag129
ag129
ag129
ag129
ag129
ag129
ag129
ag129
ag129
ag129
ag129
ag129
ag129
aV \u2014
p6150
aV Cirie
p6151
aV \u2014
p6152
ag129
ag129
ag129
ag129
ag129
ag129
ag129
ag129
ag129
ag129
ag129
ag129
ag129
ag129
ag129
ag129
ag129
ag319
ag319
ag129
ag129
aV Amanda
p6153
ag129
aV Amanda
p6154
ag129
aV Amanda
p6155
ag129
ag129
ag129
ag129
ag129
ag129
ag129
ag129
ag129
ag129
ag129
ag319
ag319
aV Parvati
p6156
aV Parvati
p6157
ag129
aV Parvati
p6158
ag129
aV Parvati
p6159
ag129
aV Parvati
p6160
ag129
ag129
ag129
ag129
ag129
ag129
ag129
ag129
ag129
ag129
atp6161
ba(lp6162
g21
(g22
(dp6163
g24
g25
(g26
(I0
tp6164
g28
tp6165
Rp6166
(I1
(L20L
tp6167
g35
I00
(lp6168
g5885
ag5886
ag5887
ag5888
ag5889
ag5890
ag5891
ag5892
ag5893
ag5894
ag5895
ag5896
ag5897
ag5898
ag5899
ag5900
ag5901
ag5902
ag5903
ag5904
atp6169
bsg63
Nstp6170
Rp6171
a(dp6172
g339
(dp6173
g341
g5878
sg342
(lp6174
(dp6175
g345
g346
(I0
I20
I1
tp6176
Rp6177
sg349
g5943
sasstp6178
bsbsg351
I16
ssVSamoa
p6179
(dp6180
g3
Vhttp://survivor.wikia.com/wiki/Survivor:_Samoa
p6181
sg5
g6
(g7
g8
Ntp6182
Rp6183
(dp6184
g12
g13
sg14
g15
sg16
g6
(g17
g8
Ntp6185
Rp6186
((lp6187
g21
(g22
(dp6188
g24
g25
(g26
(I0
tp6189
g28
tp6190
Rp6191
(I1
(L21L
tp6192
g35
I00
(lp6193
VMarisa
p6194
aVMike
p6195
aVBetsy
p6196
aVBen
p6197
aVYasmin
p6198
aVAshley
p6199
aVRussell S.
p6200
aVLiz
p6201
aVErik
p6202
aVKelly
p6203
aVLaura
p6204
aVLaura
p6205
aVJohn
p6206
aVDave
p6207
aVMonica
p6208
aVShambo
p6209
aVJaison
p6210
aVBrett
p6211
aVMick
p6212
aVRussell H.
p6213
aVNatalie
p6214
atp6215
bsg63
Nstp6216
Rp6217
ag21
(g22
(dp6218
g24
g25
(g26
(I0
tp6219
g28
tp6220
Rp6221
(I1
(L20L
tp6222
g35
I00
(lp6223
VNatalie
p6224
aVRussell H.
p6225
aVMick
p6226
aVBrett
p6227
aVJaison
p6228
aVShambo
p6229
aVMonica
p6230
aVDave
p6231
aVJohn
p6232
aVLaura
p6233
aVKelly
p6234
aVErik
p6235
aVLiz
p6236
aVRussell S.
p6237
aVAshley
p6238
aVYasmin
p6239
aVBen
p6240
aVBetsy
p6241
aVMike
p6242
aVMarisa
p6243
atp6244
bsg63
g93
(g96
S'\x01\x00\x00\x00\x00\x00\x00\x00'
p6245
tp6246
Rp6247
stp6248
Rp6249
a(lp6250
g25
(g26
(I0
tp6251
g28
tp6252
Rp6253
(I1
(L21L
L20L
tp6254
g35
I00
(lp6255
V Marisa
p6256
aV Marisa
p6257
aV Ashley
p6258
aV \u2014
p6259
aV Marisa
p6260
aV \u2014
p6261
aV \u2014
p6262
aV \u2014
p6263
aV \u2014
p6264
aV \u2014
p6265
aV \u2014
p6266
aV \u2014
p6267
aV Marisa
p6268
aV \u2014
p6269
aV Marisa
p6270
aV \u2014
p6271
aV Marisa
p6272
aV Ashley
p6273
aV Marisa
p6274
aV Ashley
p6275
aV \u2014
p6276
aV \u2014
p6277
aV \u2014
p6278
aV \u2014
p6279
aV \u2014
p6280
aV \u2014
p6281
aV \u2014
p6282
aV \u2014
p6283
aV \u2014
p6284
aV \u2014
p6285
aV \u2014
p6286
aV \u2014
p6287
aV \u2014
p6288
aV \u2014
p6289
aV \u2014
p6290
aV \u2014
p6291
aV \u2014
p6292
aV \u2014
p6293
aVEvacuated
p6294
ag129
aV Betsy
p6295
aV Betsy
p6296
aV Betsy
p6297
aV \u2014
p6298
aV Betsy
p6299
aV \u2014
p6300
aV \u2014
p6301
aV \u2014
p6302
aV \u2014
p6303
aV \u2014
p6304
aV \u2014
p6305
aV \u2014
p6306
aV Betsy
p6307
aV \u2014
p6308
aV Betsy
p6309
aV \u2014
p6310
aV Betsy
p6311
aV Ben
p6312
ag129
ag129
aV Ben
p6313
aV Ben
p6314
aV Ben
p6315
aV \u2014
p6316
aV Ben
p6317
aV \u2014
p6318
aV \u2014
p6319
aV \u2014
p6320
aV \u2014
p6321
aV \u2014
p6322
aV \u2014
p6323
aV \u2014
p6324
aV Ben
p6325
aV \u2014
p6326
aV Ben
p6327
aV \u2014
p6328
aV Ashley
p6329
ag129
ag129
ag129
aV \u2014
p6330
aV \u2014
p6331
aV \u2014
p6332
aV Yasmin
p6333
aV \u2014
p6334
aV Monica
p6335
aV Yasmin
p6336
aV Yasmin
p6337
aV Yasmin
p6338
aV Yasmin
p6339
aV Yasmin
p6340
aV Yasmin
p6341
aV \u2014
p6342
aV Yasmin
p6343
aV \u2014
p6344
aV Monica
p6345
ag129
ag129
ag129
ag129
aV Ashley
p6346
aV Ashley
p6347
aV Ashley
p6348
aV \u2014
p6349
aV Ashley
p6350
aV \u2014
p6351
aV \u2014
p6352
aV \u2014
p6353
aV \u2014
p6354
aV \u2014
p6355
aV \u2014
p6356
aV \u2014
p6357
aV Ashley
p6358
aV \u2014
p6359
aV Liz
p6360
ag129
ag129
ag129
ag129
ag129
aV \u2014
p6361
aV \u2014
p6362
aV \u2014
p6363
aV \u2014
p6364
aV \u2014
p6365
aV \u2014
p6366
aV \u2014
p6367
aV \u2014
p6368
aV \u2014
p6369
aV \u2014
p6370
aV \u2014
p6371
aV \u2014
p6372
aV \u2014
p6373
aVEvacuated
p6374
ag129
ag129
ag129
ag129
ag129
ag129
aV Liz
p6375
aV Liz
p6376
aV Liz
p6377
aV \u2014
p6378
aV Liz
p6379
aV \u2014
p6380
aV \u2014
p6381
aV \u2014
p6382
aV \u2014
p6383
aV \u2014
p6384
aV \u2014
p6385
aV \u2014
p6386
aV Jaison
p6387
ag129
ag129
ag129
ag129
ag129
ag129
ag129
aV Erik
p6388
aV Erik
p6389
aV Erik
p6390
aV Erik
p6391
aV Erik
p6392
aV Jaison
p6393
aV Erik
p6394
aV Erik
p6395
aV Erik
p6396
aV Erik
p6397
aV Erik
p6398
aV Jaison
p6399
ag129
ag129
ag129
ag129
ag129
ag129
ag129
ag129
aV Kelly
p6400
aV Kelly
p6401
aV Kelly
p6402
aV Russell H.
p6403
aV Kelly
p6404
aV Russell H.
p6405
aV Russell H.
p6406
aV Russell H.
p6407
aV Russell H.
p6408
aV Russell H.
p6409
aV Russell H.
p6410
ag129
ag129
ag129
ag129
ag129
ag129
ag129
ag129
ag129
aV Laura
p6411
aV Laura
p6412
aV Laura
p6413
aV Natalie
p6414
aV Laura
p6415
aV Laura
p6416
aV Natalie
p6417
aV Natalie
p6418
aV Natalie
p6419
aV Natalie
p6420
ag129
ag129
ag129
ag129
ag129
ag129
ag129
ag129
ag129
ag129
aVNone
p6421
aV Laura
p6422
aV Laura
p6423
aV Natalie
p6424
aV Laura
p6425
aV Laura
p6426
aV Natalie
p6427
aV Natalie
p6428
aV Laura
p6429
aVNone
p6430
ag129
ag129
ag129
ag129
ag129
ag129
ag129
ag129
ag129
ag129
aV John
p6431
aV John
p6432
aV John
p6433
aV John
p6434
aV John
p6435
aV Dave
p6436
aV John
p6437
aV John
p6438
aV Mick
p6439
ag129
ag129
ag129
ag129
ag129
ag129
ag129
ag129
ag129
ag129
ag129
aV Dave
p6440
aV Dave
p6441
aV Dave
p6442
aV Dave
p6443
aV Dave
p6444
aV Dave
p6445
aV Dave
p6446
aV Shambo
p6447
ag129
ag129
ag129
ag129
ag129
ag129
ag129
ag129
ag129
ag129
ag129
ag129
aV Monica
p6448
aV Monica
p6449
aV Monica
p6450
aV Russell H.
p6451
aV Monica
p6452
aV Monica
p6453
aV Russell H.
p6454
ag129
ag129
ag129
ag129
ag129
ag129
ag129
ag129
ag129
ag129
ag129
ag129
ag129
aV Shambo
p6455
aV Shambo
p6456
aV Shambo
p6457
aV Shambo
p6458
aV Shambo
p6459
aV Mick
p6460
ag129
ag129
ag129
ag129
ag129
ag129
ag129
ag129
ag129
ag129
ag129
ag129
ag129
ag129
aV Jaison
p6461
aV Jaison
p6462
aV Jaison
p6463
aV Jaison
p6464
aV Mick
p6465
ag129
ag129
ag129
ag129
ag129
ag129
ag129
ag129
ag129
ag129
ag129
ag129
ag129
ag129
ag129
aV Brett
p6466
aV Brett
p6467
aV Brett
p6468
aV Mick
p6469
ag129
ag129
ag129
ag129
ag129
ag129
ag129
ag129
ag129
ag129
ag129
ag129
ag129
ag129
ag129
ag129
ag319
ag319
ag319
ag129
ag129
ag129
ag129
ag129
ag129
ag129
ag129
ag129
ag129
ag129
ag129
ag129
ag129
ag129
ag129
ag129
ag319
ag319
ag319
ag129
ag129
aV Russell H.
p6470
ag129
ag129
aV Russell H.
p6471
ag129
ag129
ag129
ag129
ag129
ag129
ag129
ag129
ag129
ag129
ag129
ag319
ag319
ag319
aV Natalie
p6472
aV Natalie
p6473
ag129
aV Natalie
p6474
aV Natalie
p6475
ag129
aV Natalie
p6476
aV Natalie
p6477
aV Natalie
p6478
ag129
ag129
ag129
ag129
ag129
ag129
ag129
ag129
atp6479
ba(lp6480
g21
(g22
(dp6481
g24
g25
(g26
(I0
tp6482
g28
tp6483
Rp6484
(I1
(L21L
tp6485
g35
I00
(lp6486
g6194
ag6195
ag6196
ag6197
ag6198
ag6199
ag6200
ag6201
ag6202
ag6203
ag6204
ag6205
ag6206
ag6207
ag6208
ag6209
ag6210
ag6211
ag6212
ag6213
ag6214
atp6487
bsg63
Nstp6488
Rp6489
a(dp6490
g339
(dp6491
g341
g6187
sg342
(lp6492
(dp6493
g345
g346
(I0
I21
I1
tp6494
Rp6495
sg349
g6253
sasstp6496
bsbsg351
I19
ssVAll-Stars
p6497
(dp6498
g3
Vhttp://survivor.wikia.com/wiki/Survivor:_All-Stars
p6499
sg5
g6
(g7
g8
Ntp6500
Rp6501
(dp6502
g12
g13
sg14
g15
sg16
g6
(g17
g8
Ntp6503
Rp6504
((lp6505
g21
(g22
(dp6506
g24
g25
(g26
(I0
tp6507
g28
tp6508
Rp6509
(I1
(L18L
tp6510
g35
I00
(lp6511
VTina
p6512
aVRudy
p6513
aVJenna M.
p6514
aVRob C.
p6515
aVRichard
p6516
aVSusan
p6517
aVColby
p6518
aVEthan
p6519
aVJerri
p6520
aVLex
p6521
aVKathy
p6522
aVAlicia
p6523
aVShii Ann
p6524
aVTom
p6525
aVRupert
p6526
aVJenna L.
p6527
aVRob M.
p6528
aVAmber
p6529
atp6530
bsg63
Nstp6531
Rp6532
ag21
(g22
(dp6533
g24
g25
(g26
(I0
tp6534
g28
tp6535
Rp6536
(I1
(L18L
tp6537
g35
I00
(lp6538
VAmber
p6539
aVRob M.
p6540
aVJenna L.
p6541
aVRupert
p6542
aVTom
p6543
aVShii Ann
p6544
aVAlicia
p6545
aVKathy
p6546
aVLex
p6547
aVJerri
p6548
aVEthan
p6549
aVColby
p6550
aVSusan
p6551
aVRichard
p6552
aVRob C.
p6553
aVJenna M.
p6554
aVRudy
p6555
aVTina
p6556
atp6557
bsg63
g93
(g96
S'\x01\x00\x00\x00\x00\x00\x00\x00'
p6558
tp6559
Rp6560
stp6561
Rp6562
a(lp6563
g25
(g26
(I0
tp6564
g28
tp6565
Rp6566
(I1
(L18L
L18L
tp6567
g35
I00
(lp6568
V\u2014
p6569
aV \u2014
p6570
aV Tina
p6571
aV Tina
p6572
aV \u2014
p6573
aV \u2014
p6574
aV \u2014
p6575
aV \u2014
p6576
aV \u2014
p6577
aV Tina
p6578
aV Jenna L.
p6579
aV \u2014
p6580
aV \u2014
p6581
aV \u2014
p6582
aV \u2014
p6583
aV \u2014
p6584
aV Tina
p6585
aV Jenna L.
p6586
aV\u2014
p6587
aV \u2014
p6588
aV Rudy
p6589
aV Ethan
p6590
aV \u2014
p6591
aV \u2014
p6592
aV \u2014
p6593
aV \u2014
p6594
aV \u2014
p6595
aV Rudy
p6596
aV Rudy
p6597
aV \u2014
p6598
aV \u2014
p6599
aV \u2014
p6600
aV \u2014
p6601
aV \u2014
p6602
aV Ethan
p6603
ag129
aV\u2014
p6604
aV \u2014
p6605
aV \u2014
p6606
aV \u2014
p6607
aV \u2014
p6608
aV \u2014
p6609
aV \u2014
p6610
aV \u2014
p6611
aV \u2014
p6612
aV \u2014
p6613
aV \u2014
p6614
aV \u2014
p6615
aV \u2014
p6616
aV \u2014
p6617
aV \u2014
p6618
aVQuit
p6619
ag129
ag129
aV Rob C.
p6620
aV Rob C.
p6621
aV \u2014
p6622
aV \u2014
p6623
aV Rob C.
p6624
aV \u2014
p6625
aV Rob C.
p6626
aV \u2014
p6627
aV \u2014
p6628
aV \u2014
p6629
aV \u2014
p6630
aV \u2014
p6631
aV Rob C.
p6632
aV \u2014
p6633
aV Alicia
p6634
ag129
ag129
ag129
aV \u2014
p6635
aV \u2014
p6636
aV \u2014
p6637
aV \u2014
p6638
aV \u2014
p6639
aV Richard
p6640
aV \u2014
p6641
aV Richard
p6642
aV Richard
p6643
aV Richard
p6644
aV Richard
p6645
aV Richard
p6646
aV \u2014
p6647
aV Colby
p6648
ag129
ag129
ag129
ag129
aV \u2014
p6649
aV \u2014
p6650
aV \u2014
p6651
aV \u2014
p6652
aV \u2014
p6653
aV \u2014
p6654
aV \u2014
p6655
aV \u2014
p6656
aV \u2014
p6657
aV \u2014
p6658
aV \u2014
p6659
aV \u2014
p6660
aVQuit
p6661
ag129
ag129
ag129
ag129
ag129
aV \u2014
p6662
aV \u2014
p6663
aV \u2014
p6664
aV \u2014
p6665
aV \u2014
p6666
aV Colby
p6667
aV \u2014
p6668
aVKidnapped
p6669
aV Colby
p6670
aV Colby
p6671
aV Jerri
p6672
aV Jerri
p6673
ag129
ag129
ag129
ag129
ag129
ag129
aV \u2014
p6674
aV \u2014
p6675
aV \u2014
p6676
aV \u2014
p6677
aV \u2014
p6678
aV Ethan
p6679
aV \u2014
p6680
aV Ethan
p6681
aV Ethan
p6682
aV Ethan
p6683
aV Jerri
p6684
ag129
ag129
ag129
ag129
ag129
ag129
ag129
aV Jerri
p6685
aV \u2014
p6686
aV \u2014
p6687
aV \u2014
p6688
aV \u2014
p6689
aV Jerri
p6690
aV \u2014
p6691
aV Jerri
p6692
aV Jerri
p6693
aV Amber
p6694
ag129
ag129
ag129
ag129
ag129
ag129
ag129
ag129
aV Lex
p6695
aV Lex
p6696
aV Lex
p6697
aV Lex
p6698
aV Lex
p6699
aV Lex
p6700
aV Lex
p6701
aV Amber
p6702
aV Amber
p6703
ag129
ag129
ag129
ag129
ag129
ag129
ag129
ag129
ag129
aV Kathy
p6704
aV Kathy
p6705
aV Kathy
p6706
aV Kathy
p6707
aV Kathy
p6708
aV Amber
p6709
aV Kathy
p6710
aV Amber
p6711
ag129
ag129
ag129
ag129
ag129
ag129
ag129
ag129
ag129
ag129
aV Alicia
p6712
aV Alicia
p6713
aV Alicia
p6714
aV Alicia
p6715
aV Alicia
p6716
aV Alicia
p6717
aV Rupert
p6718
ag129
ag129
ag129
ag129
ag129
ag129
ag129
ag129
ag129
ag129
ag129
aV Shii Ann
p6719
aV Shii Ann
p6720
aV Shii Ann
p6721
aV Shii Ann
p6722
aV Shii Ann
p6723
aV Amber
p6724
ag129
ag129
ag129
ag129
ag129
ag129
ag129
ag129
ag129
ag129
ag129
ag129
aV Tom
p6725
aV Tom
p6726
aV Tom
p6727
aV Tom
p6728
aV Jenna L.
p6729
ag129
ag129
ag129
ag129
ag129
ag129
ag129
ag129
ag129
ag129
ag129
ag129
ag129
aV Rupert
p6730
aV Rupert
p6731
aV Rupert
p6732
aV Rob M.
p6733
ag129
ag129
ag129
ag129
ag129
ag129
ag129
ag129
ag129
ag129
ag129
ag129
ag129
ag129
aV \u2014
p6734
aV Jenna L.
p6735
aV \u2014
p6736
ag129
ag129
ag129
ag129
ag129
ag129
ag129
ag129
ag129
ag129
ag129
ag129
ag129
ag129
ag129
ag319
ag319
aV Rob M.
p6737
aV Rob M.
p6738
ag129
ag129
ag129
aV Rob M.
p6739
ag129
ag129
ag129
ag129
ag129
ag129
ag129
ag129
ag129
ag129
ag319
ag319
ag129
ag129
aV Amber
p6740
aV Amber
p6741
aV Amber
p6742
ag129
aV Amber
p6743
ag129
ag129
ag129
ag129
ag129
ag129
ag129
ag129
ag129
atp6744
ba(lp6745
g21
(g22
(dp6746
g24
g25
(g26
(I0
tp6747
g28
tp6748
Rp6749
(I1
(L18L
tp6750
g35
I00
(lp6751
g6512
ag6513
ag6514
ag6515
ag6516
ag6517
ag6518
ag6519
ag6520
ag6521
ag6522
ag6523
ag6524
ag6525
ag6526
ag6527
ag6528
ag6529
atp6752
bsg63
Nstp6753
Rp6754
a(dp6755
g339
(dp6756
g341
g6505
sg342
(lp6757
(dp6758
g345
g346
(I0
I18
I1
tp6759
Rp6760
sg349
g6566
sasstp6761
bsbsg351
I8
ssVFiji
p6762
(dp6763
g3
Vhttp://survivor.wikia.com/wiki/Survivor:_Fiji
p6764
sg5
g6
(g7
g8
Ntp6765
Rp6766
(dp6767
g12
g13
sg14
g15
sg16
g6
(g17
g8
Ntp6768
Rp6769
((lp6770
g21
(g22
(dp6771
g24
g25
(g26
(I0
tp6772
g28
tp6773
Rp6774
(I1
(L19L
tp6775
g35
I00
(lp6776
VJessica
p6777
aVErica
p6778
aVSylvia
p6779
aVGary
p6780
aVLiliana
p6781
aVRita
p6782
aVAnthony
p6783
aVRocky
p6784
aVLisi
p6785
aVMichelle
p6786
aVEdgardo
p6787
aVMookie
p6788
aVAlex
p6789
aVStacy
p6790
aVBoo
p6791
aVYau-Man
p6792
aVDreamz
p6793
aVCassandra
p6794
aVEarl
p6795
atp6796
bsg63
Nstp6797
Rp6798
ag21
(g22
(dp6799
g24
g25
(g26
(I0
tp6800
g28
tp6801
Rp6802
(I1
(L19L
tp6803
g35
I00
(lp6804
VEarl
p6805
aVCassandra
p6806
aVDreamz
p6807
aVYau-Man
p6808
aVBoo
p6809
aVStacy
p6810
aVAlex
p6811
aVMookie
p6812
aVEdgardo
p6813
aVMichelle
p6814
aVLisi
p6815
aVRocky
p6816
aVAnthony
p6817
aVRita
p6818
aVLiliana
p6819
aVGary
p6820
aVSylvia
p6821
aVErica
p6822
aVJessica
p6823
atp6824
bsg63
g93
(g96
S'\x01\x00\x00\x00\x00\x00\x00\x00'
p6825
tp6826
Rp6827
stp6828
Rp6829
a(lp6830
g25
(g26
(I0
tp6831
g28
tp6832
Rp6833
(I1
(L19L
L19L
tp6834
g35
I00
(lp6835
V Jessica
p6836
aV \u2014
p6837
aV \u2014
p6838
aV Jessica
p6839
aV \u2014
p6840
aV \u2014
p6841
aV \u2014
p6842
aV Jessica
p6843
aV \u2014
p6844
aV Jessica
p6845
aV \u2014
p6846
aV Mookie
p6847
aV Jessica
p6848
aV Jessica
p6849
aV \u2014
p6850
aV \u2014
p6851
aVExiled
p6852
aV Yau-Man
p6853
aV Rita
p6854
aVExiled
p6855
aV \u2014
p6856
aV \u2014
p6857
aV Erica
p6858
aV \u2014
p6859
aV \u2014
p6860
aV \u2014
p6861
aV Erica
p6862
aV \u2014
p6863
aV Erica
p6864
aV \u2014
p6865
aV Erica
p6866
aV Sylvia
p6867
aV Erica
p6868
aV \u2014
p6869
aV \u2014
p6870
aV Erica
p6871
aV Sylvia
p6872
ag129
aV Sylvia
p6873
aV \u2014
p6874
aV \u2014
p6875
aV Sylvia
p6876
aV \u2014
p6877
aV \u2014
p6878
aV \u2014
p6879
aV Anthony
p6880
aV \u2014
p6881
aV Sylvia
p6882
aV \u2014
p6883
aV Anthony
p6884
aV Sylvia
p6885
aV Earl
p6886
aV \u2014
p6887
aV \u2014
p6888
aV Anthony
p6889
ag129
ag129
aV \u2014
p6890
aV \u2014
p6891
aV \u2014
p6892
aV \u2014
p6893
aV \u2014
p6894
aV \u2014
p6895
aV \u2014
p6896
aV \u2014
p6897
aV \u2014
p6898
aV \u2014
p6899
aV \u2014
p6900
aV \u2014
p6901
aV \u2014
p6902
aV \u2014
p6903
aV \u2014
p6904
aVQuit
p6905
ag129
ag129
ag129
aV \u2014
p6906
aV Lisi
p6907
aV Liliana
p6908
aV \u2014
p6909
aV Liliana
p6910
aV Liliana
p6911
aV Liliana
p6912
aV \u2014
p6913
aV Liliana
p6914
aV \u2014
p6915
aV Liliana
p6916
aV \u2014
p6917
aV \u2014
p6918
aV \u2014
p6919
aV Cassandra
p6920
ag129
ag129
ag129
ag129
aV Rita
p6921
aV \u2014
p6922
aV \u2014
p6923
aV Rita
p6924
aV \u2014
p6925
aV \u2014
p6926
aV \u2014
p6927
aV Rita
p6928
aV \u2014
p6929
aV Anthony
p6930
aV \u2014
p6931
aV Rita
p6932
aV Rita
p6933
aV Anthony
p6934
ag129
ag129
ag129
ag129
ag129
aV \u2014
p6935
aV \u2014
p6936
aV Anthony
p6937
aV \u2014
p6938
aV \u2014
p6939
aV \u2014
p6940
aV Anthony
p6941
aV Anthony
p6942
aV Anthony
p6943
aV \u2014
p6944
aVExiled
p6945
aV Anthony
p6946
aV Rocky
p6947
ag129
ag129
ag129
ag129
ag129
ag129
aV \u2014
p6948
aV \u2014
p6949
aV Rocky
p6950
aV \u2014
p6951
aV \u2014
p6952
aV \u2014
p6953
aV Rocky
p6954
aV Lisi
p6955
aV Rocky
p6956
aV \u2014
p6957
aV Rocky
p6958
aV Lisi
p6959
ag129
ag129
ag129
ag129
ag129
ag129
ag129
aV \u2014
p6960
aV \u2014
p6961
aV Lisi
p6962
aV \u2014
p6963
aV \u2014
p6964
aV \u2014
p6965
aV Lisi
p6966
aV Lisi
p6967
aV Lisi
p6968
aV \u2014
p6969
aV Dreamz
p6970
ag129
ag129
ag129
ag129
ag129
ag129
ag129
ag129
aV \u2014
p6971
aV \u2014
p6972
aV Michelle
p6973
aV \u2014
p6974
aV \u2014
p6975
aV Michelle
p6976
aV Michelle
p6977
aV Stacy
p6978
aV \u2014
p6979
aV Stacy
p6980
ag129
ag129
ag129
ag129
ag129
ag129
ag129
ag129
ag129
aV Edgardo
p6981
aV Edgardo
p6982
aV Mookie
p6983
aV Edgardo
p6984
aV Edgardo
p6985
aV Edgardo
p6986
aV Cassandra
p6987
aV Cassandra
p6988
aV Cassandra
p6989
ag129
ag129
ag129
ag129
ag129
ag129
ag129
ag129
ag129
ag129
aV Alex
p6990
aV Mookie
p6991
aV Mookie
p6992
aV Alex
p6993
aV Alex
p6994
aV Mookie
p6995
aV Mookie
p6996
aV Boo
p6997
ag129
ag129
ag129
ag129
ag129
ag129
ag129
ag129
ag129
ag129
ag129
aV Alex
p6998
aV Alex
p6999
aV Alex
p7000
aV Alex
p7001
aV Alex
p7002
aV Alex
p7003
aV Yau-Man
p7004
ag129
ag129
ag129
ag129
ag129
ag129
ag129
ag129
ag129
ag129
ag129
ag129
aV Stacy
p7005
aV Yau-Man
p7006
aV Yau-Man
p7007
aV Stacy
p7008
aV Yau-Man
p7009
aV Yau-Man
p7010
ag129
ag129
ag129
ag129
ag129
ag129
ag129
ag129
ag129
ag129
ag129
ag129
ag129
aV Boo
p7011
aV Boo
p7012
aV Boo
p7013
aV Boo
p7014
aV Dreamz
p7015
ag129
ag129
ag129
ag129
ag129
ag129
ag129
ag129
ag129
ag129
ag129
ag129
ag129
ag129
aV Yau-Man
p7016
aV Yau-Man
p7017
aV Yau-Man
p7018
aV Cassandra
p7019
ag129
ag129
ag129
ag129
ag129
ag129
ag129
ag129
ag129
ag129
ag129
ag129
ag129
ag129
ag129
ag319
ag319
ag319
ag129
ag129
ag129
ag129
ag129
ag129
ag129
ag129
ag129
ag129
ag129
ag129
ag129
ag129
ag129
ag129
ag319
ag319
ag319
ag129
ag129
ag129
ag129
ag129
ag129
ag129
ag129
ag129
ag129
ag129
ag129
ag129
ag129
ag129
ag129
ag319
ag319
ag319
aV Earl
p7020
aV Earl
p7021
aV Earl
p7022
aV Earl
p7023
aV Earl
p7024
aV Earl
p7025
aV Earl
p7026
aV Earl
p7027
aV Earl
p7028
ag129
ag129
ag129
ag129
ag129
ag129
ag129
atp7029
ba(lp7030
g21
(g22
(dp7031
g24
g25
(g26
(I0
tp7032
g28
tp7033
Rp7034
(I1
(L19L
tp7035
g35
I00
(lp7036
g6777
ag6778
ag6779
ag6780
ag6781
ag6782
ag6783
ag6784
ag6785
ag6786
ag6787
ag6788
ag6789
ag6790
ag6791
ag6792
ag6793
ag6794
ag6795
atp7037
bsg63
Nstp7038
Rp7039
a(dp7040
g339
(dp7041
g341
g6770
sg342
(lp7042
(dp7043
g345
g346
(I0
I19
I1
tp7044
Rp7045
sg349
g6833
sasstp7046
bsbsg351
I14
ssVAfrica
p7047
(dp7048
g3
Vhttp://survivor.wikia.com/wiki/Survivor:_Africa
p7049
sg5
g6
(g7
g8
Ntp7050
Rp7051
(dp7052
g12
g13
sg14
g15
sg16
g6
(g17
g8
Ntp7053
Rp7054
((lp7055
g21
(g22
(dp7056
g24
g25
(g26
(I0
tp7057
g28
tp7058
Rp7059
(I1
(L18L
tp7060
g35
I00
(lp7061
VDiane
p7062
aVJessie
p7063
aVCarl
p7064
aVCarl
p7065
aVLinda
p7066
aVSilas
p7067
aVLindsey
p7068
aVLindsey
p7069
aVClarence
p7070
aVKelly
p7071
aVBrandon
p7072
aVFrank
p7073
aVKim P.
p7074
aVTeresa
p7075
aVTom
p7076
aVLex
p7077
aVKim J.
p7078
aVEthan
p7079
atp7080
bsg63
Nstp7081
Rp7082
ag21
(g22
(dp7083
g24
g25
(g26
(I0
tp7084
g28
tp7085
Rp7086
(I1
(L16L
tp7087
g35
I00
(lp7088
VEthan
p7089
aVKim J.
p7090
aVLex
p7091
aVTom
p7092
aVTeresa
p7093
aVKim P.
p7094
aVFrank
p7095
aVBrandon
p7096
aVKelly
p7097
aVClarence
p7098
aVLindsey
p7099
aVSilas
p7100
aVLinda
p7101
aVCarl
p7102
aVJessie
p7103
aVDiane
p7104
atp7105
bsg63
g93
(g96
S'\x01\x00\x00\x00\x00\x00\x00\x00'
p7106
tp7107
Rp7108
stp7109
Rp7110
a(lp7111
g25
(g26
(I0
tp7112
g28
tp7113
Rp7114
(I1
(L18L
L16L
tp7115
g35
I00
(lp7116
V Diane
p7117
aV Diane
p7118
aV Diane
p7119
aV Clarence
p7120
aV \u2014
p7121
aV \u2014
p7122
aV \u2014
p7123
aV \u2014
p7124
aV Diane
p7125
aV Diane
p7126
aV \u2014
p7127
aV \u2014
p7128
aV \u2014
p7129
aV \u2014
p7130
aV Diane
p7131
aV Clarence
p7132
aV Jessie
p7133
aV Jessie
p7134
aV Jessie
p7135
aV Clarence
p7136
aV \u2014
p7137
aV \u2014
p7138
aV \u2014
p7139
aV \u2014
p7140
aV Jessie
p7141
aV Jessie
p7142
aV \u2014
p7143
aV \u2014
p7144
aV \u2014
p7145
aV \u2014
p7146
aV Clarence
p7147
ag129
aV \u2014
p7148
aV \u2014
p7149
aV \u2014
p7150
aV \u2014
p7151
aV Lindsey
p7152
aV Carl
p7153
aV Lindsey
p7154
aV Carl
p7155
aV \u2014
p7156
aV \u2014
p7157
aV Carl
p7158
aV Carl
p7159
aV Lindsey
p7160
aV Lindsey
p7161
ag129
ag129
ag7148
ag7149
ag7150
ag7151
aV Lindsey
p7162
aV Carl
p7163
aV Lindsey
p7164
aV Carl
p7165
ag7156
ag7157
aVNone
p7166
aV Carl
p7167
aV Lindsey
p7168
aVNone
p7169
ag129
ag129
aV \u2014
p7170
aV \u2014
p7171
aV \u2014
p7172
aV \u2014
p7173
aV Silas
p7174
aV Linda
p7175
aV Silas
p7176
aV Linda
p7177
aV \u2014
p7178
aV \u2014
p7179
aV Linda
p7180
aV Linda
p7181
aV Silas
p7182
ag129
ag129
ag129
aV Silas
p7183
aV Silas
p7184
aV \u2014
p7185
aV \u2014
p7186
aV Silas
p7187
aV \u2014
p7188
aV Silas
p7189
aV \u2014
p7190
aV \u2014
p7191
aV Silas
p7192
aV \u2014
p7193
aV Frank
p7194
ag129
ag129
ag129
ag129
aV \u2014
p7195
aV \u2014
p7196
aV Lindsey
p7197
aV Lindsey
p7198
aV \u2014
p7199
aV Tom
p7200
aV \u2014
p7201
aV Tom
p7202
aV Lindsey
p7203
aV \u2014
p7204
aV Tom
p7205
ag129
ag129
ag129
ag129
ag129
ag7195
ag7196
aV Lindsey
p7206
aVNone
p7207
ag7199
aV Tom
p7208
ag7201
aV Tom
p7209
aV Lindsey
p7210
ag7204
aVNone
p7211
ag129
ag129
ag129
ag129
ag129
aV Clarence
p7212
aV Clarence
p7213
aV Clarence
p7214
aV Clarence
p7215
aV Lex
p7216
aV Clarence
p7217
aV Clarence
p7218
aV Clarence
p7219
aV Clarence
p7220
aV Lex
p7221
ag129
ag129
ag129
ag129
ag129
ag129
aV Kelly
p7222
aV Kelly
p7223
aV Kelly
p7224
aV Kelly
p7225
aV Lex
p7226
aV Lex
p7227
aV Lex
p7228
aV Kelly
p7229
aV Lex
p7230
ag129
ag129
ag129
ag129
ag129
ag129
ag129
aV Brandon
p7231
aV Brandon
p7232
aV Frank
p7233
aV Brandon
p7234
aV Brandon
p7235
aV Brandon
p7236
aV Brandon
p7237
aV Frank
p7238
ag129
ag129
ag129
ag129
ag129
ag129
ag129
ag129
aV Frank
p7239
aV Frank
p7240
aV Frank
p7241
aV Frank
p7242
aV Frank
p7243
aV Frank
p7244
aV Kim J.
p7245
ag129
ag129
ag129
ag129
ag129
ag129
ag129
ag129
ag129
aV Kim P.
p7246
aV Kim P.
p7247
aV Kim P.
p7248
aV Kim P.
p7249
aV Lex
p7250
aV Lex
p7251
ag129
ag129
ag129
ag129
ag129
ag129
ag129
ag129
ag129
ag129
aV Teresa
p7252
aV Teresa
p7253
aV Teresa
p7254
aV Teresa
p7255
aV Tom
p7256
ag129
ag129
ag129
ag129
ag129
ag129
ag129
ag129
ag129
ag129
ag129
aV Tom
p7257
aV Tom
p7258
aV Tom
p7259
aV Lex
p7260
ag129
ag129
ag129
ag129
ag129
ag129
ag129
ag129
ag129
ag129
ag129
ag129
aV \u2014
p7261
aV Lex
p7262
aV \u2014
p7263
ag129
ag129
ag129
ag129
ag129
ag129
ag129
ag129
ag129
ag129
ag129
ag129
ag129
ag319
ag319
ag129
ag129
ag129
aV Kim J.
p7264
ag129
aV Kim J.
p7265
ag129
ag129
ag129
ag129
ag129
ag129
ag129
ag129
ag319
ag319
aV Ethan
p7266
aV Ethan
p7267
aV Ethan
p7268
ag129
aV Ethan
p7269
ag129
aV Ethan
p7270
ag129
ag129
ag129
ag129
ag129
ag129
ag129
atp7271
ba(lp7272
g21
(g22
(dp7273
g24
g25
(g26
(I0
tp7274
g28
tp7275
Rp7276
(I1
(L18L
tp7277
g35
I00
(lp7278
g7062
ag7063
ag7064
ag7065
ag7066
ag7067
ag7068
ag7069
ag7070
ag7071
ag7072
ag7073
ag7074
ag7075
ag7076
ag7077
ag7078
ag7079
atp7279
bsg63
Nstp7280
Rp7281
a(dp7282
g339
(dp7283
g341
g7055
sg342
(lp7284
(dp7285
g345
g346
(I0
I18
I1
tp7286
Rp7287
sg349
g7114
sasstp7288
bsbsg351
I3
ssVSan_Juan_del_Sur
p7289
(dp7290
g3
Vhttp://survivor.wikia.com/wiki/Survivor:_San_Juan_del_Sur
p7291
sg5
g6
(g7
g8
Ntp7292
Rp7293
(dp7294
g12
g13
sg14
g15
sg16
g6
(g17
g8
Ntp7295
Rp7296
((lp7297
g21
(g22
(dp7298
g24
g25
(g26
(I0
tp7299
g28
tp7300
Rp7301
(I1
(L20L
tp7302
g35
I00
(lp7303
VNadiya
p7304
aVVal
p7305
aVVal
p7306
aVJohn
p7307
aVDrew
p7308
aVKelley
p7309
aVDale
p7310
aVJulie
p7311
aVJosh
p7312
aVJeremy
p7313
aVWes
p7314
aVReed
p7315
aVAlec
p7316
aVJon
p7317
aVJon
p7318
aVBaylor
p7319
aVKeith
p7320
aVMissy
p7321
aVJaclyn
p7322
aVNatalie
p7323
atp7324
bsg63
Nstp7325
Rp7326
ag21
(g22
(dp7327
g24
g25
(g26
(I0
tp7328
g28
tp7329
Rp7330
(I1
(L18L
tp7331
g35
I00
(lp7332
VNatalie
p7333
aVJaclyn
p7334
aVMissy
p7335
aVKeith
p7336
aVBaylor
p7337
aVJon
p7338
aVAlec
p7339
aVReed
p7340
aVWes
p7341
aVJeremy
p7342
aVJosh
p7343
aVJulie
p7344
aVDale
p7345
aVKelley
p7346
aVDrew
p7347
aVJohn
p7348
aVVal
p7349
aVNadiya
p7350
atp7351
bsg63
g93
(g96
S'\x01\x00\x00\x00\x00\x00\x00\x00'
p7352
tp7353
Rp7354
stp7355
Rp7356
a(lp7357
g25
(g26
(I0
tp7358
g28
tp7359
Rp7360
(I1
(L20L
L18L
tp7361
g35
I00
(lp7362
V \u2014
p7363
aV Dale
p7364
aV \u2014
p7365
aV \u2014
p7366
aV Nadiya
p7367
aV \u2014
p7368
aV Nadiya
p7369
aV \u2014
p7370
aV Nadiya
p7371
aV \u2014
p7372
aV Baylor
p7373
aV \u2014
p7374
aV Nadiya
p7375
aV \u2014
p7376
aV \u2014
p7377
aV Nadiya
p7378
aV Dale
p7379
aV Dale
p7380
aV \u2014
p7381
aV Baylor
p7382
aV \u2014
p7383
aV \u2014
p7384
aV Val
p7385
aV \u2014
p7386
aV Baylor
p7387
aV \u2014
p7388
aV Val
p7389
aV \u2014
p7390
aV Val
p7391
aV \u2014
p7392
aV Val
p7393
aV \u2014
p7394
aV \u2014
p7395
aV Baylor
p7396
aV Baylor
p7397
ag129
ag7381
aV Baylor
p7398
ag7383
ag7384
aV None
p7399
ag7386
aV Val
p7400
ag7388
aV Val
p7401
ag7390
aV Val
p7402
ag7392
aV Val
p7403
ag7394
ag7395
aV Val
p7404
aV None
p7405
ag129
aV \u2014
p7406
aV John
p7407
aV \u2014
p7408
aV \u2014
p7409
aV John
p7410
aV \u2014
p7411
aV John
p7412
aV \u2014
p7413
aV John
p7414
aV \u2014
p7415
aV John
p7416
aV \u2014
p7417
aV Baylor
p7418
aV \u2014
p7419
aV \u2014
p7420
aV Baylor
p7421
ag129
ag129
aV Drew
p7422
aV \u2014
p7423
aV Drew
p7424
aV Julie
p7425
aV \u2014
p7426
aV Keith
p7427
aV \u2014
p7428
aV Julie
p7429
aV \u2014
p7430
aV Drew
p7431
aV \u2014
p7432
aV Drew
p7433
aV \u2014
p7434
aV Drew
p7435
aV Kelley
p7436
ag129
ag129
ag129
aV \u2014
p7437
aV Kelley
p7438
aV Kelley
p7439
aV Dale
p7440
aV Kelley
p7441
aV Dale
p7442
aV \u2014
p7443
aV \u2014
p7444
aV \u2014
p7445
aV \u2014
p7446
aV \u2014
p7447
aV \u2014
p7448
aV Baylor
p7449
aV Baylor
p7450
ag129
ag129
ag129
ag129
aV \u2014
p7451
aV Dale
p7452
aV Keith
p7453
aV Dale
p7454
aV Keith
p7455
aV Dale
p7456
aV \u2014
p7457
aV \u2014
p7458
aV \u2014
p7459
aV \u2014
p7460
aV \u2014
p7461
aV \u2014
p7462
aV Missy
p7463
ag129
ag129
ag129
ag129
ag129
aV \u2014
p7464
aV \u2014
p7465
aV \u2014
p7466
aV \u2014
p7467
aV \u2014
p7468
aV \u2014
p7469
aV \u2014
p7470
aV \u2014
p7471
aV \u2014
p7472
aV \u2014
p7473
aV \u2014
p7474
aV Quit
p7475
ag129
ag129
ag129
ag129
ag129
ag129
aV Josh
p7476
aV Josh
p7477
aV Josh
p7478
aV Baylor
p7479
aV Josh
p7480
aV Josh
p7481
aV Baylor
p7482
aV Baylor
p7483
aV Baylor
p7484
aV Josh
p7485
aV Baylor
p7486
ag129
ag129
ag129
ag129
ag129
ag129
ag129
aV Keith
p7487
aV Jeremy
p7488
aV Jeremy
p7489
aV Reed
p7490
aV Jeremy
p7491
aV Jeremy
p7492
aV Reed
p7493
aV Jeremy
p7494
aV Reed
p7495
aV Keith
p7496
ag129
ag129
ag129
ag129
ag129
ag129
ag129
ag129
aV Keith
p7497
aV Wes
p7498
aV Keith
p7499
aV Jon
p7500
aV Keith
p7501
aV Wes
p7502
aV Jon
p7503
aV Jon
p7504
aV Jon
p7505
ag129
ag129
ag129
ag129
ag129
ag129
ag129
ag129
ag129
aV Reed
p7506
aV Reed
p7507
aV Reed
p7508
aV Reed
p7509
aV Reed
p7510
aV Reed
p7511
aV Reed
p7512
aV Missy
p7513
ag129
ag129
ag129
ag129
ag129
ag129
ag129
ag129
ag129
ag129
aV Alec
p7514
aV Keith
p7515
aV Alec
p7516
aV Alec
p7517
aV Alec
p7518
aV Keith
p7519
aV Keith
p7520
ag129
ag129
ag129
ag129
ag129
ag129
ag129
ag129
ag129
ag129
ag129
aV Jon
p7521
aV Keith
p7522
aV Jaclyn
p7523
aV Jon
p7524
aV Jaclyn
p7525
aV Keith
p7526
ag129
ag129
ag129
ag129
ag129
ag129
ag129
ag129
ag129
ag129
ag129
ag129
aV Jon
p7527
aV None
p7528
aV Jaclyn
p7529
aV None
p7530
aV Jon
p7531
aV None
p7532
ag129
ag129
ag129
ag129
ag129
ag129
ag129
ag129
ag129
ag129
ag129
ag129
aV Baylor
p7533
aV Baylor
p7534
aV Jaclyn
p7535
aV Jaclyn
p7536
aV Jaclyn
p7537
ag129
ag129
ag129
ag129
ag129
ag129
ag129
ag129
ag129
ag129
ag129
ag129
ag129
aV Keith
p7538
aV Keith
p7539
aV Keith
p7540
aV Missy
p7541
ag129
ag129
ag129
ag129
ag129
ag129
ag129
ag129
ag129
ag129
ag129
ag129
ag129
ag129
ag319
ag319
ag319
ag129
aV Missy
p7542
ag129
ag129
ag129
ag129
ag129
ag129
ag129
ag129
ag129
ag129
ag129
ag129
ag129
ag319
ag319
ag319
ag129
ag129
aV Jaclyn
p7543
ag129
aV Jaclyn
p7544
ag129
ag129
ag129
ag129
ag129
ag129
ag129
ag129
ag129
ag129
ag319
ag319
ag319
aV Natalie
p7545
ag129
ag129
aV Natalie
p7546
ag129
aV Natalie
p7547
aV Natalie
p7548
aV Natalie
p7549
ag129
ag129
ag129
ag129
ag129
ag129
ag129
atp7550
ba(lp7551
g21
(g22
(dp7552
g24
g25
(g26
(I0
tp7553
g28
tp7554
Rp7555
(I1
(L20L
tp7556
g35
I00
(lp7557
g7304
ag7305
ag7306
ag7307
ag7308
ag7309
ag7310
ag7311
ag7312
ag7313
ag7314
ag7315
ag7316
ag7317
ag7318
ag7319
ag7320
ag7321
ag7322
ag7323
atp7558
bsg63
Nstp7559
Rp7560
a(dp7561
g339
(dp7562
g341
g7297
sg342
(lp7563
(dp7564
g345
g346
(I0
I20
I1
tp7565
Rp7566
sg349
g7360
sasstp7567
bsbsg351
I29
ssVCook_Islands
p7568
(dp7569
g3
Vhttp://survivor.wikia.com/wiki/Survivor:_Cook_Islands
p7570
sg5
g6
(g7
g8
Ntp7571
Rp7572
(dp7573
g12
g13
sg14
g15
sg16
g6
(g17
g8
Ntp7574
Rp7575
((lp7576
g21
(g22
(dp7577
g24
g25
(g26
(I0
tp7578
g28
tp7579
Rp7580
(I1
(L20L
tp7581
g35
I00
(lp7582
VSekou
p7583
aVBilly
p7584
aVCecilia
p7585
aVJ.P.
p7586
aVStephannie
p7587
aVCao Boi
p7588
aVCristina
p7589
aVJessica
p7590
aVBrad
p7591
aVRebecca
p7592
aVJenny
p7593
aVNate
p7594
aVCandice
p7595
aVJonathan
p7596
aVParvati
p7597
aVAdam
p7598
aVSundra
p7599
aVBecky
p7600
aVOzzy
p7601
aVYul
p7602
atp7603
bsg63
Nstp7604
Rp7605
ag21
(g22
(dp7606
g24
g25
(g26
(I0
tp7607
g28
tp7608
Rp7609
(I1
(L20L
tp7610
g35
I00
(lp7611
VYul
p7612
aVOzzy
p7613
aVBecky
p7614
aVSundra
p7615
aVAdam
p7616
aVParvati
p7617
aVJonathan
p7618
aVCandice
p7619
aVNate
p7620
aVJenny
p7621
aVRebecca
p7622
aVBrad
p7623
aVJessica
p7624
aVCristina
p7625
aVCao Boi
p7626
aVStephannie
p7627
aVJ.P.
p7628
aVCecilia
p7629
aVBilly
p7630
aVSekou
p7631
atp7632
bsg63
g93
(g96
S'\x01\x00\x00\x00\x00\x00\x00\x00'
p7633
tp7634
Rp7635
stp7636
Rp7637
a(lp7638
g25
(g26
(I0
tp7639
g28
tp7640
Rp7641
(I1
(L20L
L20L
tp7642
g35
I00
(lp7643
V \u2014
p7644
aV \u2014
p7645
aV \u2014
p7646
aV Sekou
p7647
aV \u2014
p7648
aV \u2014
p7649
aV \u2014
p7650
aV \u2014
p7651
aV Sundra
p7652
aV \u2014
p7653
aV Sekou
p7654
aV \u2014
p7655
aV \u2014
p7656
aV \u2014
p7657
aV \u2014
p7658
aV Sekou
p7659
aV \u2014
p7660
aV \u2014
p7661
aV \u2014
p7662
aV Sundra
p7663
aV \u2014
p7664
aV Billy
p7665
aV \u2014
p7666
aV \u2014
p7667
aV \u2014
p7668
aV \u2014
p7669
aV \u2014
p7670
aV \u2014
p7671
aV \u2014
p7672
aV \u2014
p7673
aV \u2014
p7674
aV \u2014
p7675
aV \u2014
p7676
aV Billy
p7677
aV \u2014
p7678
aV \u2014
p7679
aV Billy
p7680
aV Billy
p7681
aV Ozzy
p7682
ag129
aV Cecilia
p7683
aV Becky
p7684
aV Cecilia
p7685
aV Becky
p7686
aV \u2014
p7687
aV \u2014
p7688
aV Cecilia
p7689
aVExiled
p7690
aV \u2014
p7691
aV \u2014
p7692
aV \u2014
p7693
aV \u2014
p7694
aV Cecilia
p7695
aV \u2014
p7696
aV Cecilia
p7697
aV \u2014
p7698
aV \u2014
p7699
aV Becky
p7700
ag129
ag129
aV \u2014
p7701
aV \u2014
p7702
aV \u2014
p7703
aV \u2014
p7704
aV J.P.
p7705
aV J.P.
p7706
aV \u2014
p7707
aV \u2014
p7708
aV Stephannie
p7709
aV J.P.
p7710
aV J.P.
p7711
aV J.P.
p7712
aV \u2014
p7713
aV J.P.
p7714
aV \u2014
p7715
aV J.P.
p7716
aV Stephannie
p7717
ag129
ag129
ag129
aV \u2014
p7718
aV \u2014
p7719
aV \u2014
p7720
aV \u2014
p7721
aV Stephannie
p7722
aV Stephannie
p7723
aV \u2014
p7724
aV \u2014
p7725
aV Stephannie
p7726
aV Stephannie
p7727
aV Stephannie
p7728
aV Stephannie
p7729
aV \u2014
p7730
aV Stephannie
p7731
aV \u2014
p7732
aV Cristina
p7733
ag129
ag129
ag129
ag129
aV Cao Boi
p7734
aV Cao Boi
p7735
aV Cao Boi
p7736
aV Cao Boi
p7737
aV \u2014
p7738
aV \u2014
p7739
aV Cao Boi
p7740
aV Cao Boi
p7741
aV \u2014
p7742
aV \u2014
p7743
aV \u2014
p7744
aV \u2014
p7745
aV Jonathan
p7746
aV \u2014
p7747
aV Candice
p7748
ag129
ag129
ag129
ag129
ag129
aV \u2014
p7749
aV \u2014
p7750
aV \u2014
p7751
aV \u2014
p7752
aV Cristina
p7753
aV Cristina
p7754
aV \u2014
p7755
aV \u2014
p7756
aVKidnapped
p7757
aV Cristina
p7758
aV Cristina
p7759
aV Jenny
p7760
aV \u2014
p7761
aV Jenny
p7762
ag129
ag129
ag129
ag129
ag129
ag129
aV Jessica
p7763
aV Jessica
p7764
aV Jessica
p7765
aV Jessica
p7766
aV \u2014
p7767
aV \u2014
p7768
aV Jessica
p7769
aV Jessica
p7770
aV \u2014
p7771
aV \u2014
p7772
aV \u2014
p7773
aV \u2014
p7774
aV Jonathan
p7775
ag129
ag129
ag129
ag129
ag129
ag129
ag129
aV \u2014
p7776
aV \u2014
p7777
aV \u2014
p7778
aV \u2014
p7779
aV Brad
p7780
aV Brad
p7781
aV Brad
p7782
aV Brad
p7783
aV Brad
p7784
aV Brad
p7785
aV Brad
p7786
aV Jonathan
p7787
ag129
ag129
ag129
ag129
ag129
ag129
ag129
ag129
aV \u2014
p7788
aV \u2014
p7789
aV \u2014
p7790
aV \u2014
p7791
aV Rebecca
p7792
aV Rebecca
p7793
aV Rebecca
p7794
aV Rebecca
p7795
aV Rebecca
p7796
aV Rebecca
p7797
aV Jonathan
p7798
ag129
ag129
ag129
ag129
ag129
ag129
ag129
ag129
ag129
aV \u2014
p7799
aV \u2014
p7800
aV \u2014
p7801
aV \u2014
p7802
aV Jenny
p7803
aV Jenny
p7804
aV Jenny
p7805
aV Jenny
p7806
aV Jonathan
p7807
aV Jonathan
p7808
ag129
ag129
ag129
ag129
ag129
ag129
ag129
ag129
ag129
ag129
aV Nate
p7809
aV Nate
p7810
aV Nate
p7811
aV Nate
p7812
aV Yul
p7813
aV Yul
p7814
aV Nate
p7815
aV Yul
p7816
aV Yul
p7817
ag129
ag129
ag129
ag129
ag129
ag129
ag129
ag129
ag129
ag129
ag129
aV Candice
p7818
aV Candice
p7819
aV Candice
p7820
aV Candice
p7821
aV Jonathan
p7822
aV Jonathan
p7823
aV Candice
p7824
aV Jonathan
p7825
ag129
ag129
ag129
ag129
ag129
ag129
ag129
ag129
ag129
ag129
ag129
ag129
aV Jonathan
p7826
aV Jonathan
p7827
aV Jonathan
p7828
aV Jonathan
p7829
aV Jonathan
p7830
aV Jonathan
p7831
aV Adam
p7832
ag129
ag129
ag129
ag129
ag129
ag129
ag129
ag129
ag129
ag129
ag129
ag129
ag129
aV Parvati
p7833
aV Parvati
p7834
aV Parvati
p7835
aV Parvati
p7836
aV Sundra
p7837
aV Sundra
p7838
ag129
ag129
ag129
ag129
ag129
ag129
ag129
ag129
ag129
ag129
ag129
ag129
ag129
ag129
aV Adam
p7839
aV Adam
p7840
aV Adam
p7841
aV Adam
p7842
aV Yul
p7843
ag129
ag129
ag129
ag129
ag129
ag129
ag129
ag129
ag129
ag129
ag129
ag129
ag129
ag129
ag129
aV Sundra
p7844
aV Becky
p7845
aV Sundra
p7846
aV Becky
p7847
ag129
ag129
ag129
ag129
ag129
ag129
ag129
ag129
ag129
ag129
ag129
ag129
ag129
ag129
ag129
ag129
ag319
ag319
ag319
ag129
ag129
ag129
ag129
ag129
ag129
ag129
ag129
ag129
ag129
ag129
ag129
ag129
ag129
ag129
ag129
ag129
ag319
ag319
ag319
ag129
ag129
aV Ozzy
p7848
ag129
ag129
aV Ozzy
p7849
aV Ozzy
p7850
aV Ozzy
p7851
ag129
ag129
ag129
ag129
ag129
ag129
ag129
ag129
ag129
ag319
ag319
ag319
aV Yul
p7852
aV Yul
p7853
ag129
aV Yul
p7854
aV Yul
p7855
ag129
ag129
ag129
aV Yul
p7856
ag129
ag129
ag129
ag129
ag129
ag129
ag129
ag129
atp7857
ba(lp7858
g21
(g22
(dp7859
g24
g25
(g26
(I0
tp7860
g28
tp7861
Rp7862
(I1
(L20L
tp7863
g35
I00
(lp7864
g7583
ag7584
ag7585
ag7586
ag7587
ag7588
ag7589
ag7590
ag7591
ag7592
ag7593
ag7594
ag7595
ag7596
ag7597
ag7598
ag7599
ag7600
ag7601
ag7602
atp7865
bsg63
Nstp7866
Rp7867
a(dp7868
g339
(dp7869
g341
g7576
sg342
(lp7870
(dp7871
g345
g346
(I0
I20
I1
tp7872
Rp7873
sg349
g7641
sasstp7874
bsbsg351
I13
ssVRedemption_Island
p7875
(dp7876
g3
Vhttp://survivor.wikia.com/wiki/Survivor:_Redemption_Island
p7877
sg5
g6
(g7
g8
Ntp7878
Rp7879
(dp7880
g12
g13
sg14
g15
sg16
g6
(g17
g8
Ntp7881
Rp7882
((lp7883
g21
(g22
(dp7884
g24
g25
(g26
(I0
tp7885
g28
tp7886
Rp7887
(I1
(L21L
tp7888
g35
I00
(lp7889
VFrancesca
p7890
aVMatthew
p7891
aVRussell
p7892
aVRussell
p7893
aVKristina
p7894
aVKrista
p7895
aVStephanie
p7896
aVSarita
p7897
aVMatthew
p7898
aVMike
p7899
aVDavid
p7900
aVJulie
p7901
aVRalph
p7902
aVSteve
p7903
aVAndrea
p7904
aVGrant
p7905
aVAndrea
p7906
aVAshley
p7907
aVNatalie
p7908
aVPhillip
p7909
aVRob
p7910
atp7911
bsg63
Nstp7912
Rp7913
ag21
(g22
(dp7914
g24
g25
(g26
(I0
tp7915
g28
tp7916
Rp7917
(I1
(L18L
tp7918
g35
I00
(lp7919
VRob
p7920
aVPhillip
p7921
aVNatalie
p7922
aVAshley
p7923
aVAndrea
p7924
aVMike
p7925
aVMatthew
p7926
aVGrant
p7927
aV Ralph
p7928
aVSteve
p7929
aVJulie
p7930
aVDavid
p7931
aVSarita
p7932
aVStephanie
p7933
aVKrista
p7934
aVKristina
p7935
aVRussell
p7936
aVFrancesca
p7937
atp7938
bsg63
g93
(g96
S'\x01\x00\x00\x00\x00\x00\x00\x00'
p7939
tp7940
Rp7941
stp7942
Rp7943
a(lp7944
g25
(g26
(I0
tp7945
g28
tp7946
Rp7947
(I1
(L21L
L18L
tp7948
g35
I00
(lp7949
V Francesca
p7950
aV Francesca
p7951
aV Kristina
p7952
aV Kristina
p7953
aV Kristina
p7954
aV \u2014
p7955
aV Francesca
p7956
aV Francesca
p7957
aV \u2014
p7958
aV \u2014
p7959
aV \u2014
p7960
aV \u2014
p7961
aV \u2014
p7962
aV \u2014
p7963
aV \u2014
p7964
aV Phillip
p7965
aV \u2014
p7966
aV Phillip
p7967
aV Matthew
p7968
aV Kristina
p7969
aV Matthew
p7970
aV Matthew
p7971
aV Kristina
p7972
aV \u2014
p7973
aV Phillip
p7974
aV Matthew
p7975
aV \u2014
p7976
aV \u2014
p7977
aV \u2014
p7978
aV \u2014
p7979
aV \u2014
p7980
aV \u2014
p7981
aV \u2014
p7982
aV Phillip
p7983
aV \u2014
p7984
ag4561
aV \u2014
p7985
aV \u2014
p7986
aV \u2014
p7987
aV \u2014
p7988
aV \u2014
p7989
aV Russell
p7990
ag4561
aV \u2014
p7991
aV Russell
p7992
aV Stephanie
p7993
aV Stephanie
p7994
aV Russell
p7995
aV Stephanie
p7996
aV Ralph
p7997
aV Ralph
p7998
aV \u2014
p7999
aV Ralph
p8000
ag4561
ag7985
ag7986
ag7987
ag7988
ag7989
aV Russell
p8001
ag4561
ag7991
aVNone
p8002
aV Russell
p8003
aV Russell
p8004
aV Russell
p8005
aV Russell
p8006
aVNone
p8007
aV Ralph
p8008
ag7999
aVNone
p8009
ag4561
aV Phillip
p8010
aV Kristina
p8011
aV Kristina
p8012
aV Kristina
p8013
aV Kristina
p8014
aV \u2014
p8015
ag4561
aV Phillip
p8016
aV \u2014
p8017
aV \u2014
p8018
aV \u2014
p8019
aV \u2014
p8020
aV \u2014
p8021
aV \u2014
p8022
aV\u2014
p8023
aV Phillip
p8024
ag4561
ag129
aV \u2014
p8025
aV \u2014
p8026
aV \u2014
p8027
aV \u2014
p8028
aV \u2014
p8029
aV Krista
p8030
ag4561
aV \u2014
p8031
aV Krista
p8032
aV Krista
p8033
aV Krista
p8034
aV Krista
p8035
aV Krista
p8036
aV Steve
p8037
aV Steve
p8038
ag4561
ag129
ag129
aV \u2014
p8039
aV \u2014
p8040
aV \u2014
p8041
aV \u2014
p8042
aV \u2014
p8043
aV Stephanie
p8044
ag4561
aV \u2014
p8045
aV Stephanie
p8046
aV Stephanie
p8047
aV Stephanie
p8048
aV Sarita
p8049
aV Stephanie
p8050
aV Sarita
p8051
ag4561
ag129
ag129
ag129
aV \u2014
p8052
aV \u2014
p8053
aV \u2014
p8054
aV \u2014
p8055
aV \u2014
p8056
aV Sarita
p8057
ag4561
aV \u2014
p8058
aV David
p8059
aV Sarita
p8060
aV Sarita
p8061
aV Sarita
p8062
aV David
p8063
ag4561
ag129
ag129
ag129
ag129
aV Matthew
p8064
aV Matthew
p8065
aV Matthew
p8066
aV Matthew
p8067
aV Matthew
p8068
aV Grant
p8069
aV Steve
p8070
aV Matthew
p8071
aV Grant
p8072
aV Grant
p8073
aV Grant
p8074
aV Grant
p8075
ag4561
ag129
ag129
ag129
ag129
ag129
aV Mike
p8076
aV Mike
p8077
aV Mike
p8078
aV Mike
p8079
aV Mike
p8080
aV Phillip
p8081
ag4561
aV Mike
p8082
aV Phillip
p8083
aV Phillip
p8084
aV Phillip
p8085
aV Phillip
p8086
ag129
ag129
ag129
ag129
ag129
ag129
aV David
p8087
aV David
p8088
aV David
p8089
aV David
p8090
aV David
p8091
ag4561
ag4561
aV David
p8092
aV Rob
p8093
aV Rob
p8094
aV Rob
p8095
aV Rob
p8096
ag129
ag129
ag129
ag129
ag129
ag129
aV Julie
p8097
aV Julie
p8098
aV Julie
p8099
aV Julie
p8100
aV Julie
p8101
ag4561
ag4561
aV Julie
p8102
aV Phillip
p8103
aV Phillip
p8104
aV Phillip
p8105
ag4561
ag129
ag129
ag129
ag129
ag129
ag129
aV Ralph
p8106
aV Ralph
p8107
aV Ralph
p8108
aV Ralph
p8109
aV Ralph
p8110
ag4561
ag4561
aV Ralph
p8111
aV Rob
p8112
aV Rob
p8113
ag4561
ag129
ag129
ag129
ag129
ag129
ag129
ag129
aV Steve
p8114
aV Steve
p8115
aV Steve
p8116
aV Steve
p8117
aV Steve
p8118
ag4561
ag4561
aV Steve
p8119
ag4561
aV Grant
p8120
ag129
ag129
ag129
ag129
ag129
ag129
ag129
ag129
aV Andrea
p8121
aV Andrea
p8122
aV Andrea
p8123
aV Andrea
p8124
aV Phillip
p8125
ag4561
ag4561
aV Andrea
p8126
ag4561
ag4561
ag129
ag129
ag129
ag129
ag129
ag129
ag129
ag129
aV Grant
p8127
aV Grant
p8128
aV Grant
p8129
aV Grant
p8130
ag4561
ag4561
ag4561
aV Natalie
p8131
ag4561
ag129
ag129
ag129
ag129
ag129
ag129
ag129
ag129
ag129
aV Andrea
p8132
aV Andrea
p8133
aV Andrea
p8134
aV Andrea
p8135
aV Rob
p8136
ag4561
ag4561
ag4561
ag129
ag129
ag129
ag129
ag129
ag129
ag129
ag129
ag129
ag129
ag319
ag319
ag319
ag319
ag129
ag129
ag129
ag129
ag129
ag129
ag129
ag129
ag129
ag129
ag129
ag129
ag129
ag129
ag319
ag319
ag319
ag319
ag129
ag129
ag129
ag129
ag129
ag129
ag129
ag129
ag129
ag129
ag129
ag129
ag129
ag129
ag319
ag319
ag319
ag319
ag129
ag129
ag129
ag129
aV Phillip
p8137
ag129
ag129
ag129
ag129
ag129
ag129
ag129
ag129
ag129
ag319
ag319
ag319
ag319
aV Rob
p8138
aV Rob
p8139
aV Rob
p8140
aV Rob
p8141
ag129
aV Rob
p8142
aV Rob
p8143
aV Rob
p8144
ag129
ag129
ag129
ag129
ag129
ag129
atp8145
ba(lp8146
g21
(g22
(dp8147
g24
g25
(g26
(I0
tp8148
g28
tp8149
Rp8150
(I1
(L21L
tp8151
g35
I00
(lp8152
g7890
ag7891
ag7892
ag7893
ag7894
ag7895
ag7896
ag7897
ag7898
ag7899
ag7900
ag7901
ag7902
ag7903
ag7904
ag7905
ag7906
ag7907
ag7908
ag7909
ag7910
atp8153
bsg63
Nstp8154
Rp8155
a(dp8156
g339
(dp8157
g341
g7883
sg342
(lp8158
(dp8159
g345
g346
(I0
I21
I1
tp8160
Rp8161
sg349
g7947
sasstp8162
bsbsg351
I22
ssVNicaragua
p8163
(dp8164
g3
Vhttp://survivor.wikia.com/wiki/Survivor:_Nicaragua
p8165
sg5
g6
(g7
g8
Ntp8166
Rp8167
(dp8168
g12
g13
sg14
g15
sg16
g6
(g17
g8
Ntp8169
Rp8170
((lp8171
g21
(g22
(dp8172
g24
g25
(g26
(I0
tp8173
g28
tp8174
Rp8175
(I1
(L21L
tp8176
g35
I00
(lp8177
VWendy
p8178
aVShannon
p8179
aVJimmy J.
p8180
aVJimmy T.
p8181
aVTyrone
p8182
aVKelly B.
p8183
aVKelly B.
p8184
aVYve
p8185
aVJill
p8186
aVAlina
p8187
aVMarty
p8188
aVBrenda
p8189
aVNaOnka
p8190
aVKelly S.
p8191
aVBenry
p8192
aVJane
p8193
aVDan
p8194
aVHolly
p8195
aVSash
p8196
aVChase
p8197
aVFabio
p8198
atp8199
bsg63
Nstp8200
Rp8201
ag21
(g22
(dp8202
g24
g25
(g26
(I0
tp8203
g28
tp8204
Rp8205
(I1
(L20L
tp8206
g35
I00
(lp8207
VFabio
p8208
aVChase
p8209
aVSash
p8210
aVHolly
p8211
aVDan
p8212
aVJane
p8213
aVBenry
p8214
aVKelly S.
p8215
aVNaOnka
p8216
aVBrenda
p8217
aVMarty
p8218
aVAlina
p8219
aVJill
p8220
aVYve
p8221
aVKelly B.
p8222
aVTyrone
p8223
aVJimmy T.
p8224
aVJimmy J.
p8225
aVShannon
p8226
aVWendy
p8227
atp8228
bsg63
g93
(g96
S'\x01\x00\x00\x00\x00\x00\x00\x00'
p8229
tp8230
Rp8231
stp8232
Rp8233
a(lp8234
g25
(g26
(I0
tp8235
g28
tp8236
Rp8237
(I1
(L21L
L20L
tp8238
g35
I00
(lp8239
V \u2014
p8240
aV \u2014
p8241
aV \u2014
p8242
aV Wendy
p8243
aV Wendy
p8244
aV Wendy
p8245
aV \u2014
p8246
aV \u2014
p8247
aV \u2014
p8248
aV \u2014
p8249
aV Wendy
p8250
aV \u2014
p8251
aV Wendy
p8252
aV Wendy
p8253
aV \u2014
p8254
aV Wendy
p8255
aV Wendy
p8256
aV Wendy
p8257
aV \u2014
p8258
aV Yve
p8259
aV Brenda
p8260
aV Shannon
p8261
aV Shannon
p8262
aV \u2014
p8263
aV \u2014
p8264
aV \u2014
p8265
aV Shannon
p8266
aV Shannon
p8267
aV Shannon
p8268
aV Shannon
p8269
aV \u2014
p8270
aV Brenda
p8271
aV \u2014
p8272
aV \u2014
p8273
aV Shannon
p8274
aV \u2014
p8275
aV \u2014
p8276
aV \u2014
p8277
aV Brenda
p8278
ag129
aV \u2014
p8279
aV \u2014
p8280
aV \u2014
p8281
aV Jimmy J.
p8282
aV Jimmy J.
p8283
aV Jimmy J.
p8284
aV \u2014
p8285
aV \u2014
p8286
aV \u2014
p8287
aV \u2014
p8288
aV Jimmy J.
p8289
aV \u2014
p8290
aV Jimmy J.
p8291
aV Jimmy J.
p8292
aV \u2014
p8293
aV Jimmy J.
p8294
aV Jimmy J.
p8295
aV Dan
p8296
ag129
ag129
aV \u2014
p8297
aV \u2014
p8298
aV \u2014
p8299
aV Dan
p8300
aV Jimmy T.
p8301
aV Dan
p8302
aV \u2014
p8303
aV \u2014
p8304
aV \u2014
p8305
aV \u2014
p8306
aV Jimmy T.
p8307
aV \u2014
p8308
aV Jimmy T.
p8309
aV Jimmy T.
p8310
aV \u2014
p8311
aV Jimmy T.
p8312
aV Dan
p8313
ag129
ag129
ag129
aV \u2014
p8314
aV Tyrone
p8315
ag8299
aV Tyrone
p8316
aV Tyrone
p8317
aV \u2014
p8318
aV Tyrone
p8319
aV \u2014
p8320
aV Tyrone
p8321
aV \u2014
p8322
aV \u2014
p8323
aV Tyrone
p8324
aV \u2014
p8325
aV NaOnka
p8326
aV \u2014
p8327
aV NaOnka
p8328
ag129
ag129
ag129
ag129
aV Kelly B.
p8329
aV \u2014
p8330
aV Marty
p8331
aV \u2014
p8332
aV \u2014
p8333
aV Marty
p8334
aV \u2014
p8335
aV Kelly B.
p8336
aV \u2014
p8337
aV Kelly B.
p8338
aV Brenda
p8339
aV \u2014
p8340
aV Brenda
p8341
aV \u2014
p8342
aV Marty
p8343
ag129
ag129
ag129
ag129
ag129
aV Kelly B.
p8344
ag8330
aV Kelly B.
p8345
ag8332
ag8333
aV Marty
p8346
ag8335
aV Kelly B.
p8347
ag8337
aV Kelly B.
p8348
aVNone
p8349
ag8340
aV Kelly B.
p8350
ag8342
aVNone
p8351
ag129
ag129
ag129
ag129
ag129
aV \u2014
p8352
aV Yve
p8353
aV \u2014
p8354
aV Yve
p8355
aV Yve
p8356
aV \u2014
p8357
aV Yve
p8358
aV \u2014
p8359
aV Yve
p8360
aV \u2014
p8361
aV \u2014
p8362
aV Yve
p8363
aV \u2014
p8364
aV Dan
p8365
ag129
ag129
ag129
ag129
ag129
ag129
aV Marty
p8366
aV \u2014
p8367
aV Jill
p8368
aV \u2014
p8369
aV \u2014
p8370
aV Marty
p8371
aV \u2014
p8372
aV Jill
p8373
aV \u2014
p8374
aV Jill
p8375
aV Jane
p8376
aV \u2014
p8377
aV Jane
p8378
ag129
ag129
ag129
ag129
ag129
ag129
ag129
aV Alina
p8379
aV Alina
p8380
aV Alina
p8381
aV Alina
p8382
aV Alina
p8383
aV Marty
p8384
aV Alina
p8385
aV Alina
p8386
aV Alina
p8387
aV Alina
p8388
aV Alina
p8389
aV Marty
p8390
ag129
ag129
ag129
ag129
ag129
ag129
ag129
ag129
aV Jane
p8391
aV Marty
p8392
aV Marty
p8393
aV Marty
p8394
aV Jane
p8395
aV Marty
p8396
aV Jane
p8397
aV Marty
p8398
aV Marty
p8399
aV Marty
p8400
aV Jane
p8401
ag129
ag129
ag129
ag129
ag129
ag129
ag129
ag129
ag129
aV Brenda
p8402
aV Brenda
p8403
aV Brenda
p8404
aV Brenda
p8405
aV Brenda
p8406
aV Brenda
p8407
aV Brenda
p8408
aV Benry
p8409
aV Brenda
p8410
aV NaOnka
p8411
ag129
ag129
ag129
ag129
ag129
ag129
ag129
ag129
ag129
ag129
aV \u2014
p8412
aV \u2014
p8413
aV \u2014
p8414
aV \u2014
p8415
aV \u2014
p8416
aV \u2014
p8417
aV \u2014
p8418
aVQuit
p8419
aVQuit
p8420
ag129
ag129
ag129
ag129
ag129
ag129
ag129
ag129
ag129
ag129
ag129
ag8412
ag8413
ag8414
ag8415
ag8416
ag8417
ag8418
ag8419
ag8420
ag129
ag129
ag129
ag129
ag129
ag129
ag129
ag129
ag129
ag129
ag129
aV Holly
p8421
aV Benry
p8422
aV Benry
p8423
aV Benry
p8424
aV Fabio
p8425
aV Benry
p8426
aV Fabio
p8427
ag129
ag129
ag129
ag129
ag129
ag129
ag129
ag129
ag129
ag129
ag129
ag129
ag129
aV Jane
p8428
aV Jane
p8429
aV Jane
p8430
aV Jane
p8431
aV Jane
p8432
aV Sash
p8433
ag129
ag129
ag129
ag129
ag129
ag129
ag129
ag129
ag129
ag129
ag129
ag129
ag129
ag129
aV Dan
p8434
aV Dan
p8435
aV Dan
p8436
aV Dan
p8437
aV Chase
p8438
ag129
ag129
ag129
ag129
ag129
ag129
ag129
ag129
ag129
ag129
ag129
ag129
ag129
ag129
ag129
aV Holly
p8439
aV Holly
p8440
aV Holly
p8441
aV Sash
p8442
ag129
ag129
ag129
ag129
ag129
ag129
ag129
ag129
ag129
ag129
ag129
ag129
ag129
ag129
ag129
ag129
ag319
ag319
ag319
ag129
ag129
ag129
ag129
ag129
ag129
ag129
ag129
ag129
ag129
ag129
ag129
ag129
ag129
ag129
ag129
ag129
ag319
ag319
ag319
aV Chase
p8443
ag129
aV Chase
p8444
ag129
ag129
ag129
aV Chase
p8445
ag129
aV Chase
p8446
ag129
ag129
ag129
ag129
ag129
ag129
ag129
ag129
ag319
ag319
ag319
ag129
aV Fabio
p8447
ag129
aV Fabio
p8448
aV Fabio
p8449
aV Fabio
p8450
ag129
aV Fabio
p8451
ag129
ag129
ag129
ag129
ag129
ag129
ag129
ag129
ag129
atp8452
ba(lp8453
g21
(g22
(dp8454
g24
g25
(g26
(I0
tp8455
g28
tp8456
Rp8457
(I1
(L21L
tp8458
g35
I00
(lp8459
g8178
ag8179
ag8180
ag8181
ag8182
ag8183
ag8184
ag8185
ag8186
ag8187
ag8188
ag8189
ag8190
ag8191
ag8192
ag8193
ag8194
ag8195
ag8196
ag8197
ag8198
atp8460
bsg63
Nstp8461
Rp8462
a(dp8463
g339
(dp8464
g341
g8171
sg342
(lp8465
(dp8466
g345
g346
(I0
I21
I1
tp8467
Rp8468
sg349
g8237
sasstp8469
bsbsg351
I21
ss.